     1 00000000                                 [FORMAT "WCOFF"]
     2 00000000                                 [INSTRSET "i486p"]
     3 00000000                                 [OPTIMIZE 1]
     4 00000000                                 [OPTION 1]
     5 00000000                                 [BITS 32]
     6 00000000                                 	EXTERN	_init_gdtidt
     7 00000000                                 	EXTERN	_init_pic
     8 00000000                                 	EXTERN	_io_sti
     9 00000000                                 	EXTERN	_fifo32_init
    10 00000000                                 	EXTERN	_init_pit
    11 00000000                                 	EXTERN	_init_keyboard
    12 00000000                                 	EXTERN	_enable_mouse
    13 00000000                                 	EXTERN	_io_out8
    14 00000000                                 	EXTERN	_timer_alloc
    15 00000000                                 	EXTERN	_timer_init
    16 00000000                                 	EXTERN	_timer_settime
    17 00000000                                 	EXTERN	_memtest
    18 00000000                                 	EXTERN	_memman_init
    19 00000000                                 	EXTERN	_memman_free
    20 00000000                                 	EXTERN	_init_palette
    21 00000000                                 	EXTERN	_shtctl_init
    22 00000000                                 	EXTERN	_task_init
    23 00000000                                 	EXTERN	_task_run
    24 00000000                                 	EXTERN	_sheet_alloc
    25 00000000                                 	EXTERN	_memman_alloc_4k
    26 00000000                                 	EXTERN	_sheet_setbuf
    27 00000000                                 	EXTERN	_init_screen8
    28 00000000                                 	EXTERN	_putfonts8_asc_sht
    29 00000000                                 	EXTERN	_make_menu
    30 00000000                                 	EXTERN	_init_mouse_cursor8
    31 00000000                                 	EXTERN	_make_window7
    32 00000000                                 	EXTERN	_make_window6
    33 00000000                                 	EXTERN	_make_window8
    34 00000000                                 	EXTERN	_boxfill8
    35 00000000                                 	EXTERN	_sheet_refresh
    36 00000000                                 	EXTERN	_sheet_slide
    37 00000000                                 	EXTERN	_sheet_updown
    38 00000000                                 	EXTERN	_make_textbox8
    39 00000000                                 	EXTERN	_fifo32_put
    40 00000000                                 	EXTERN	_file_readfat
    41 00000000                                 	EXTERN	_file_search
    42 00000000                                 	EXTERN	_file_loadfile2
    43 00000000                                 	EXTERN	_memman_free_4k
    44 00000000                                 	EXTERN	_io_cli
    45 00000000                                 	EXTERN	_fifo32_status
    46 00000000                                 	EXTERN	_io_stihlt
    47 00000000                                 	EXTERN	_taskctl
    48 00000000                                 	EXTERN	_fifo32_get
    49 00000000                                 	EXTERN	_keytable0.0
    50 00000000                                 	EXTERN	_get_day_of_month
    51 00000000                                 	EXTERN	_get_mon_hex
    52 00000000                                 	EXTERN	_get_year
    53 00000000                                 	EXTERN	_sprintf
    54 00000000                                 	EXTERN	_get_min_hex
    55 00000000                                 	EXTERN	_get_hour_hex
    56 00000000                                 	EXTERN	_wait_KBC_sendready
    57 00000000                                 	EXTERN	_cons_putstr0
    58 00000000                                 	EXTERN	_asm_end_app
    59 00000000                                 	EXTERN	_keytable1.1
    60 00000000                                 	EXTERN	_mouse_decode
    61 00000000                                 	EXTERN	_shutdown
    62 00000000                                 	EXTERN	_reboot
    63 00000000                                 	EXTERN	_sheet_free
    64 00000000                                 	EXTERN	_get_sec_hex
    65 00000000                                 	EXTERN	_task_sleep
    66 00000000                                 	EXTERN	_mima.3
    67 00000000                                 	EXTERN	_keytable.2
    68 00000000                                 	EXTERN	_line
    69 00000000                                 	EXTERN	_boxfilly
    70 00000000                                 	EXTERN	_hankaku
    71 00000000                                 	EXTERN	_change_wtitle8
    72 00000000                                 	EXTERN	_task_alloc
    73 00000000                                 	EXTERN	_console_task
    74 00000000                                 [FILE "bootpack.c"]
    75                                          [SECTION .data]
    76 00000000                                 _keytable0.0:
    77 00000000 00                              	DB	0
    78 00000001 00                              	DB	0
    79 00000002 31                              	DB	49
    80 00000003 32                              	DB	50
    81 00000004 33                              	DB	51
    82 00000005 34                              	DB	52
    83 00000006 35                              	DB	53
    84 00000007 36                              	DB	54
    85 00000008 37                              	DB	55
    86 00000009 38                              	DB	56
    87 0000000A 39                              	DB	57
    88 0000000B 30                              	DB	48
    89 0000000C 2D                              	DB	45
    90 0000000D 5E                              	DB	94
    91 0000000E 08                              	DB	8
    92 0000000F 00                              	DB	0
    93 00000010 51                              	DB	81
    94 00000011 57                              	DB	87
    95 00000012 45                              	DB	69
    96 00000013 52                              	DB	82
    97 00000014 54                              	DB	84
    98 00000015 59                              	DB	89
    99 00000016 55                              	DB	85
   100 00000017 49                              	DB	73
   101 00000018 4F                              	DB	79
   102 00000019 50                              	DB	80
   103 0000001A 40                              	DB	64
   104 0000001B 5B                              	DB	91
   105 0000001C 0A                              	DB	10
   106 0000001D 00                              	DB	0
   107 0000001E 41                              	DB	65
   108 0000001F 53                              	DB	83
   109 00000020 44                              	DB	68
   110 00000021 46                              	DB	70
   111 00000022 47                              	DB	71
   112 00000023 48                              	DB	72
   113 00000024 4A                              	DB	74
   114 00000025 4B                              	DB	75
   115 00000026 4C                              	DB	76
   116 00000027 3B                              	DB	59
   117 00000028 3A                              	DB	58
   118 00000029 00                              	DB	0
   119 0000002A 00                              	DB	0
   120 0000002B 5D                              	DB	93
   121 0000002C 5A                              	DB	90
   122 0000002D 58                              	DB	88
   123 0000002E 43                              	DB	67
   124 0000002F 56                              	DB	86
   125 00000030 42                              	DB	66
   126 00000031 4E                              	DB	78
   127 00000032 4D                              	DB	77
   128 00000033 2C                              	DB	44
   129 00000034 2E                              	DB	46
   130 00000035 2F                              	DB	47
   131 00000036 00                              	DB	0
   132 00000037 2A                              	DB	42
   133 00000038 00                              	DB	0
   134 00000039 20                              	DB	32
   135 0000003A 00                              	DB	0
   136 0000003B 00                              	DB	0
   137 0000003C 00                              	DB	0
   138 0000003D 00                              	DB	0
   139 0000003E 00                              	DB	0
   140 0000003F 00                              	DB	0
   141 00000040 00                              	DB	0
   142 00000041 00                              	DB	0
   143 00000042 00                              	DB	0
   144 00000043 00                              	DB	0
   145 00000044 00                              	DB	0
   146 00000045 00                              	DB	0
   147 00000046 00                              	DB	0
   148 00000047 37                              	DB	55
   149 00000048 38                              	DB	56
   150 00000049 39                              	DB	57
   151 0000004A 2D                              	DB	45
   152 0000004B 34                              	DB	52
   153 0000004C 35                              	DB	53
   154 0000004D 36                              	DB	54
   155 0000004E 2B                              	DB	43
   156 0000004F 31                              	DB	49
   157 00000050 32                              	DB	50
   158 00000051 33                              	DB	51
   159 00000052 30                              	DB	48
   160 00000053 2E                              	DB	46
   161 00000054 00                              	DB	0
   162 00000055 00                              	DB	0
   163 00000056 00                              	DB	0
   164 00000057 00                              	DB	0
   165 00000058 00                              	DB	0
   166 00000059 00                              	DB	0
   167 0000005A 00                              	DB	0
   168 0000005B 00                              	DB	0
   169 0000005C 00                              	DB	0
   170 0000005D 00                              	DB	0
   171 0000005E 00                              	DB	0
   172 0000005F 00                              	DB	0
   173 00000060 00                              	DB	0
   174 00000061 00                              	DB	0
   175 00000062 00                              	DB	0
   176 00000063 00                              	DB	0
   177 00000064 00                              	DB	0
   178 00000065 00                              	DB	0
   179 00000066 00                              	DB	0
   180 00000067 00                              	DB	0
   181 00000068 00                              	DB	0
   182 00000069 00                              	DB	0
   183 0000006A 00                              	DB	0
   184 0000006B 00                              	DB	0
   185 0000006C 00                              	DB	0
   186 0000006D 00                              	DB	0
   187 0000006E 00                              	DB	0
   188 0000006F 00                              	DB	0
   189 00000070 00                              	DB	0
   190 00000071 00                              	DB	0
   191 00000072 00                              	DB	0
   192 00000073 5C                              	DB	92
   193 00000074 00                              	DB	0
   194 00000075 00                              	DB	0
   195 00000076 00                              	DB	0
   196 00000077 00                              	DB	0
   197 00000078 00                              	DB	0
   198 00000079 00                              	DB	0
   199 0000007A 00                              	DB	0
   200 0000007B 00                              	DB	0
   201 0000007C 00                              	DB	0
   202 0000007D 5C                              	DB	92
   203 0000007E 00                              	DB	0
   204 0000007F 00                              	DB	0
   205 00000080                                 _keytable1.1:
   206 00000080 00                              	DB	0
   207 00000081 00                              	DB	0
   208 00000082 21                              	DB	33
   209 00000083 22                              	DB	34
   210 00000084 23                              	DB	35
   211 00000085 24                              	DB	36
   212 00000086 25                              	DB	37
   213 00000087 26                              	DB	38
   214 00000088 27                              	DB	39
   215 00000089 28                              	DB	40
   216 0000008A 29                              	DB	41
   217 0000008B 7E                              	DB	126
   218 0000008C 3D                              	DB	61
   219 0000008D 7E                              	DB	126
   220 0000008E 08                              	DB	8
   221 0000008F 00                              	DB	0
   222 00000090 51                              	DB	81
   223 00000091 57                              	DB	87
   224 00000092 45                              	DB	69
   225 00000093 52                              	DB	82
   226 00000094 54                              	DB	84
   227 00000095 59                              	DB	89
   228 00000096 55                              	DB	85
   229 00000097 49                              	DB	73
   230 00000098 4F                              	DB	79
   231 00000099 50                              	DB	80
   232 0000009A 60                              	DB	96
   233 0000009B 7B                              	DB	123
   234 0000009C 0A                              	DB	10
   235 0000009D 00                              	DB	0
   236 0000009E 41                              	DB	65
   237 0000009F 53                              	DB	83
   238 000000A0 44                              	DB	68
   239 000000A1 46                              	DB	70
   240 000000A2 47                              	DB	71
   241 000000A3 48                              	DB	72
   242 000000A4 4A                              	DB	74
   243 000000A5 4B                              	DB	75
   244 000000A6 4C                              	DB	76
   245 000000A7 2B                              	DB	43
   246 000000A8 2A                              	DB	42
   247 000000A9 00                              	DB	0
   248 000000AA 00                              	DB	0
   249 000000AB 7D                              	DB	125
   250 000000AC 5A                              	DB	90
   251 000000AD 58                              	DB	88
   252 000000AE 43                              	DB	67
   253 000000AF 56                              	DB	86
   254 000000B0 42                              	DB	66
   255 000000B1 4E                              	DB	78
   256 000000B2 4D                              	DB	77
   257 000000B3 3C                              	DB	60
   258 000000B4 3E                              	DB	62
   259 000000B5 3F                              	DB	63
   260 000000B6 00                              	DB	0
   261 000000B7 2A                              	DB	42
   262 000000B8 00                              	DB	0
   263 000000B9 20                              	DB	32
   264 000000BA 00                              	DB	0
   265 000000BB 00                              	DB	0
   266 000000BC 00                              	DB	0
   267 000000BD 00                              	DB	0
   268 000000BE 00                              	DB	0
   269 000000BF 00                              	DB	0
   270 000000C0 00                              	DB	0
   271 000000C1 00                              	DB	0
   272 000000C2 00                              	DB	0
   273 000000C3 00                              	DB	0
   274 000000C4 00                              	DB	0
   275 000000C5 00                              	DB	0
   276 000000C6 00                              	DB	0
   277 000000C7 37                              	DB	55
   278 000000C8 38                              	DB	56
   279 000000C9 39                              	DB	57
   280 000000CA 2D                              	DB	45
   281 000000CB 34                              	DB	52
   282 000000CC 35                              	DB	53
   283 000000CD 36                              	DB	54
   284 000000CE 2B                              	DB	43
   285 000000CF 31                              	DB	49
   286 000000D0 32                              	DB	50
   287 000000D1 33                              	DB	51
   288 000000D2 30                              	DB	48
   289 000000D3 2E                              	DB	46
   290 000000D4 00                              	DB	0
   291 000000D5 00                              	DB	0
   292 000000D6 00                              	DB	0
   293 000000D7 00                              	DB	0
   294 000000D8 00                              	DB	0
   295 000000D9 00                              	DB	0
   296 000000DA 00                              	DB	0
   297 000000DB 00                              	DB	0
   298 000000DC 00                              	DB	0
   299 000000DD 00                              	DB	0
   300 000000DE 00                              	DB	0
   301 000000DF 00                              	DB	0
   302 000000E0 00                              	DB	0
   303 000000E1 00                              	DB	0
   304 000000E2 00                              	DB	0
   305 000000E3 00                              	DB	0
   306 000000E4 00                              	DB	0
   307 000000E5 00                              	DB	0
   308 000000E6 00                              	DB	0
   309 000000E7 00                              	DB	0
   310 000000E8 00                              	DB	0
   311 000000E9 00                              	DB	0
   312 000000EA 00                              	DB	0
   313 000000EB 00                              	DB	0
   314 000000EC 00                              	DB	0
   315 000000ED 00                              	DB	0
   316 000000EE 00                              	DB	0
   317 000000EF 00                              	DB	0
   318 000000F0 00                              	DB	0
   319 000000F1 00                              	DB	0
   320 000000F2 00                              	DB	0
   321 000000F3 5F                              	DB	95
   322 000000F4 00                              	DB	0
   323 000000F5 00                              	DB	0
   324 000000F6 00                              	DB	0
   325 000000F7 00                              	DB	0
   326 000000F8 00                              	DB	0
   327 000000F9 00                              	DB	0
   328 000000FA 00                              	DB	0
   329 000000FB 00                              	DB	0
   330 000000FC 00                              	DB	0
   331 000000FD 7C                              	DB	124
   332 000000FE 00                              	DB	0
   333 000000FF 00                              	DB	0
   334 00000100                                 _keytable.2:
   335 00000100 00                              	DB	0
   336 00000101 00                              	DB	0
   337 00000102 31                              	DB	49
   338 00000103 32                              	DB	50
   339 00000104 33                              	DB	51
   340 00000105 34                              	DB	52
   341 00000106 35                              	DB	53
   342 00000107 36                              	DB	54
   343 00000108 37                              	DB	55
   344 00000109 38                              	DB	56
   345 0000010A 39                              	DB	57
   346 0000010B 30                              	DB	48
   347 0000010C 2D                              	DB	45
   348 0000010D 5E                              	DB	94
   349 0000010E 00                              	DB	0
   350 0000010F 00                              	DB	0
   351 00000110 51                              	DB	81
   352 00000111 57                              	DB	87
   353 00000112 45                              	DB	69
   354 00000113 52                              	DB	82
   355 00000114 54                              	DB	84
   356 00000115 59                              	DB	89
   357 00000116 55                              	DB	85
   358 00000117 49                              	DB	73
   359 00000118 4F                              	DB	79
   360 00000119 50                              	DB	80
   361 0000011A 40                              	DB	64
   362 0000011B 5B                              	DB	91
   363 0000011C 00                              	DB	0
   364 0000011D 00                              	DB	0
   365 0000011E 41                              	DB	65
   366 0000011F 53                              	DB	83
   367 00000120 44                              	DB	68
   368 00000121 46                              	DB	70
   369 00000122 47                              	DB	71
   370 00000123 48                              	DB	72
   371 00000124 4A                              	DB	74
   372 00000125 4B                              	DB	75
   373 00000126 4C                              	DB	76
   374 00000127 3B                              	DB	59
   375 00000128 3A                              	DB	58
   376 00000129 00                              	DB	0
   377 0000012A 00                              	DB	0
   378 0000012B 5D                              	DB	93
   379 0000012C 5A                              	DB	90
   380 0000012D 58                              	DB	88
   381 0000012E 43                              	DB	67
   382 0000012F 56                              	DB	86
   383 00000130 42                              	DB	66
   384 00000131 4E                              	DB	78
   385 00000132 4D                              	DB	77
   386 00000133 2C                              	DB	44
   387 00000134 2E                              	DB	46
   388 00000135 2F                              	DB	47
   389 00000136 00                              	DB	0
   390 00000137 2A                              	DB	42
   391 00000138 00                              	DB	0
   392 00000139 20                              	DB	32
   393 0000013A 00                              	DB	0
   394 0000013B 00                              	DB	0
   395 0000013C 00                              	DB	0
   396 0000013D 00                              	DB	0
   397 0000013E 00                              	DB	0
   398 0000013F 00                              	DB	0
   399 00000140 00                              	DB	0
   400 00000141 00                              	DB	0
   401 00000142 00                              	DB	0
   402 00000143 00                              	DB	0
   403 00000144 00                              	DB	0
   404 00000145 00                              	DB	0
   405 00000146 00                              	DB	0
   406 00000147 37                              	DB	55
   407 00000148 38                              	DB	56
   408 00000149 39                              	DB	57
   409 0000014A 2D                              	DB	45
   410 0000014B 34                              	DB	52
   411 0000014C 35                              	DB	53
   412 0000014D 36                              	DB	54
   413 0000014E 2B                              	DB	43
   414 0000014F 31                              	DB	49
   415 00000150 32                              	DB	50
   416 00000151 33                              	DB	51
   417 00000152 30                              	DB	48
   418 00000153 2E                              	DB	46
   419 00000154                                 	ALIGNB	4
   420 00000154                                 LC0:
   421 00000154 00000190                        	DD	400
   422 00000158 0000019A                        	DD	410
   423 0000015C 000001A5                        	DD	421
   424 00000160 000001AF                        	DD	431
   425 00000164 000001B9                        	DD	441
   426 00000168 000001C2                        	DD	450
   427 0000016C 000001CB                        	DD	459
   428 00000170 000001D3                        	DD	467
   429 00000174 000001DA                        	DD	474
   430 00000178 000001E1                        	DD	481
   431 0000017C 000001E7                        	DD	487
   432 00000180 000001EB                        	DD	491
   433 00000184 000001EF                        	DD	495
   434 00000188 000001F2                        	DD	498
   435 0000018C 000001F3                        	DD	499
   436 00000190 000001F4                        	DD	500
   437 00000194 000001F3                        	DD	499
   438 00000198 000001F2                        	DD	498
   439 0000019C 000001EF                        	DD	495
   440 000001A0 000001EB                        	DD	491
   441 000001A4 000001E7                        	DD	487
   442 000001A8 000001E1                        	DD	481
   443 000001AC 000001DA                        	DD	474
   444 000001B0 000001D3                        	DD	467
   445 000001B4 000001CB                        	DD	459
   446 000001B8 000001C2                        	DD	450
   447 000001BC 000001B9                        	DD	441
   448 000001C0 000001AF                        	DD	431
   449 000001C4 000001A5                        	DD	421
   450 000001C8 0000019A                        	DD	410
   451 000001CC 00000190                        	DD	400
   452 000001D0 00000186                        	DD	390
   453 000001D4 0000017B                        	DD	379
   454 000001D8 00000171                        	DD	369
   455 000001DC 00000167                        	DD	359
   456 000001E0 0000015E                        	DD	350
   457 000001E4 00000155                        	DD	341
   458 000001E8 0000014D                        	DD	333
   459 000001EC 00000146                        	DD	326
   460 000001F0 0000013F                        	DD	319
   461 000001F4 00000139                        	DD	313
   462 000001F8 00000135                        	DD	309
   463 000001FC 00000131                        	DD	305
   464 00000200 0000012E                        	DD	302
   465 00000204 0000012D                        	DD	301
   466 00000208 0000012C                        	DD	300
   467 0000020C 0000012D                        	DD	301
   468 00000210 0000012E                        	DD	302
   469 00000214 00000131                        	DD	305
   470 00000218 00000135                        	DD	309
   471 0000021C 00000139                        	DD	313
   472 00000220 0000013F                        	DD	319
   473 00000224 00000146                        	DD	326
   474 00000228 0000014D                        	DD	333
   475 0000022C 00000155                        	DD	341
   476 00000230 0000015E                        	DD	350
   477 00000234 00000167                        	DD	359
   478 00000238 00000171                        	DD	369
   479 0000023C 0000017B                        	DD	379
   480 00000240 00000186                        	DD	390
   481 00000244                                 	ALIGNB	4
   482 00000244                                 LC1:
   483 00000244 000000C8                        	DD	200
   484 00000248 000000C9                        	DD	201
   485 0000024C 000000CA                        	DD	202
   486 00000250 000000CD                        	DD	205
   487 00000254 000000D1                        	DD	209
   488 00000258 000000D5                        	DD	213
   489 0000025C 000000DB                        	DD	219
   490 00000260 000000E2                        	DD	226
   491 00000264 000000E9                        	DD	233
   492 00000268 000000F1                        	DD	241
   493 0000026C 000000FA                        	DD	250
   494 00000270 00000103                        	DD	259
   495 00000274 0000010D                        	DD	269
   496 00000278 00000117                        	DD	279
   497 0000027C 00000122                        	DD	290
   498 00000280 0000012C                        	DD	300
   499 00000284 00000136                        	DD	310
   500 00000288 00000141                        	DD	321
   501 0000028C 0000014B                        	DD	331
   502 00000290 00000155                        	DD	341
   503 00000294 0000015E                        	DD	350
   504 00000298 00000167                        	DD	359
   505 0000029C 0000016F                        	DD	367
   506 000002A0 00000176                        	DD	374
   507 000002A4 0000017D                        	DD	381
   508 000002A8 00000183                        	DD	387
   509 000002AC 00000187                        	DD	391
   510 000002B0 0000018B                        	DD	395
   511 000002B4 0000018E                        	DD	398
   512 000002B8 0000018F                        	DD	399
   513 000002BC 00000190                        	DD	400
   514 000002C0 0000018F                        	DD	399
   515 000002C4 0000018E                        	DD	398
   516 000002C8 0000018B                        	DD	395
   517 000002CC 00000187                        	DD	391
   518 000002D0 00000183                        	DD	387
   519 000002D4 0000017D                        	DD	381
   520 000002D8 00000176                        	DD	374
   521 000002DC 0000016F                        	DD	367
   522 000002E0 00000167                        	DD	359
   523 000002E4 0000015E                        	DD	350
   524 000002E8 00000155                        	DD	341
   525 000002EC 0000014B                        	DD	331
   526 000002F0 00000141                        	DD	321
   527 000002F4 00000136                        	DD	310
   528 000002F8 0000012C                        	DD	300
   529 000002FC 00000122                        	DD	290
   530 00000300 00000117                        	DD	279
   531 00000304 0000010D                        	DD	269
   532 00000308 00000103                        	DD	259
   533 0000030C 000000FA                        	DD	250
   534 00000310 000000F1                        	DD	241
   535 00000314 000000E9                        	DD	233
   536 00000318 000000E2                        	DD	226
   537 0000031C 000000DB                        	DD	219
   538 00000320 000000D5                        	DD	213
   539 00000324 000000D1                        	DD	209
   540 00000328 000000CD                        	DD	205
   541 0000032C 000000CA                        	DD	202
   542 00000330 000000C9                        	DD	201
   543 00000334                                 	ALIGNB	4
   544 00000334                                 LC2:
   545 00000334 00000190                        	DD	400
   546 00000338 00000198                        	DD	408
   547 0000033C 000001A0                        	DD	416
   548 00000340 000001A7                        	DD	423
   549 00000344 000001AF                        	DD	431
   550 00000348 000001B6                        	DD	438
   551 0000034C 000001BC                        	DD	444
   552 00000350 000001C2                        	DD	450
   553 00000354 000001C8                        	DD	456
   554 00000358 000001CD                        	DD	461
   555 0000035C 000001D1                        	DD	465
   556 00000360 000001D5                        	DD	469
   557 00000364 000001D7                        	DD	471
   558 00000368 000001D9                        	DD	473
   559 0000036C 000001DA                        	DD	474
   560 00000370 000001DB                        	DD	475
   561 00000374 000001DA                        	DD	474
   562 00000378 000001D9                        	DD	473
   563 0000037C 000001D7                        	DD	471
   564 00000380 000001D5                        	DD	469
   565 00000384 000001D1                        	DD	465
   566 00000388 000001CD                        	DD	461
   567 0000038C 000001C8                        	DD	456
   568 00000390 000001C2                        	DD	450
   569 00000394 000001BC                        	DD	444
   570 00000398 000001B6                        	DD	438
   571 0000039C 000001AF                        	DD	431
   572 000003A0 000001A7                        	DD	423
   573 000003A4 000001A0                        	DD	416
   574 000003A8 00000198                        	DD	408
   575 000003AC 00000190                        	DD	400
   576 000003B0 00000188                        	DD	392
   577 000003B4 00000180                        	DD	384
   578 000003B8 00000179                        	DD	377
   579 000003BC 00000171                        	DD	369
   580 000003C0 0000016A                        	DD	362
   581 000003C4 00000164                        	DD	356
   582 000003C8 0000015E                        	DD	350
   583 000003CC 00000158                        	DD	344
   584 000003D0 00000153                        	DD	339
   585 000003D4 0000014F                        	DD	335
   586 000003D8 0000014B                        	DD	331
   587 000003DC 00000149                        	DD	329
   588 000003E0 00000147                        	DD	327
   589 000003E4 00000146                        	DD	326
   590 000003E8 00000145                        	DD	325
   591 000003EC 00000146                        	DD	326
   592 000003F0 00000147                        	DD	327
   593 000003F4 00000149                        	DD	329
   594 000003F8 0000014B                        	DD	331
   595 000003FC 0000014F                        	DD	335
   596 00000400 00000153                        	DD	339
   597 00000404 00000158                        	DD	344
   598 00000408 0000015E                        	DD	350
   599 0000040C 00000164                        	DD	356
   600 00000410 0000016A                        	DD	362
   601 00000414 00000171                        	DD	369
   602 00000418 00000179                        	DD	377
   603 0000041C 00000180                        	DD	384
   604 00000420 00000188                        	DD	392
   605 00000424                                 	ALIGNB	4
   606 00000424                                 LC3:
   607 00000424 000000E1                        	DD	225
   608 00000428 000000E2                        	DD	226
   609 0000042C 000000E3                        	DD	227
   610 00000430 000000E5                        	DD	229
   611 00000434 000000E7                        	DD	231
   612 00000438 000000EB                        	DD	235
   613 0000043C 000000EF                        	DD	239
   614 00000440 000000F4                        	DD	244
   615 00000444 000000FA                        	DD	250
   616 00000448 00000100                        	DD	256
   617 0000044C 00000106                        	DD	262
   618 00000450 0000010D                        	DD	269
   619 00000454 00000115                        	DD	277
   620 00000458 0000011C                        	DD	284
   621 0000045C 00000124                        	DD	292
   622 00000460 0000012C                        	DD	300
   623 00000464 00000134                        	DD	308
   624 00000468 0000013C                        	DD	316
   625 0000046C 00000143                        	DD	323
   626 00000470 0000014B                        	DD	331
   627 00000474 00000152                        	DD	338
   628 00000478 00000158                        	DD	344
   629 0000047C 0000015E                        	DD	350
   630 00000480 00000164                        	DD	356
   631 00000484 00000169                        	DD	361
   632 00000488 0000016D                        	DD	365
   633 0000048C 00000171                        	DD	369
   634 00000490 00000173                        	DD	371
   635 00000494 00000175                        	DD	373
   636 00000498 00000176                        	DD	374
   637 0000049C 00000177                        	DD	375
   638 000004A0 00000176                        	DD	374
   639 000004A4 00000175                        	DD	373
   640 000004A8 00000173                        	DD	371
   641 000004AC 00000171                        	DD	369
   642 000004B0 0000016D                        	DD	365
   643 000004B4 00000169                        	DD	361
   644 000004B8 00000164                        	DD	356
   645 000004BC 0000015E                        	DD	350
   646 000004C0 00000158                        	DD	344
   647 000004C4 00000152                        	DD	338
   648 000004C8 0000014B                        	DD	331
   649 000004CC 00000143                        	DD	323
   650 000004D0 0000013C                        	DD	316
   651 000004D4 00000134                        	DD	308
   652 000004D8 0000012C                        	DD	300
   653 000004DC 00000124                        	DD	292
   654 000004E0 0000011C                        	DD	284
   655 000004E4 00000115                        	DD	277
   656 000004E8 0000010D                        	DD	269
   657 000004EC 00000106                        	DD	262
   658 000004F0 00000100                        	DD	256
   659 000004F4 000000FA                        	DD	250
   660 000004F8 000000F4                        	DD	244
   661 000004FC 000000EF                        	DD	239
   662 00000500 000000EB                        	DD	235
   663 00000504 000000E7                        	DD	231
   664 00000508 000000E5                        	DD	229
   665 0000050C 000000E3                        	DD	227
   666 00000510 000000E2                        	DD	226
   667 00000514                                 _mima.3:
   668 00000514 31                              	DB	49
   669 00000515 32                              	DB	50
   670 00000516 33                              	DB	51
   671 00000517 34                              	DB	52
   672 00000518 35                              	DB	53
   673 00000519 36                              	DB	54
   674 0000051A                                 LC4:
   675 0000051A 6D 65 6E 75 00                  	DB	"menu",0x00
   676 0000051F                                 LC5:
   677 0000051F 7A 69 68 61 6F 00               	DB	"zihao",0x00
   678 00000525                                 LC6:
   679 00000525 63 6F 6C 6F 72 00               	DB	"color",0x00
   680 0000052B                                 LC7:
   681 0000052B 70 61 69 6E 74 00               	DB	"paint",0x00
   682 00000531                                 LC8:
   683 00000531 6E 69 68 6F 6E 67 6F 2E 66 6E   	DB	"nihongo.fnt",0x00
       0000053B 74 00 
   684 0000053D                                 LC20:
   685 0000053D 44 41 54 45 3A 20 25 64 2D 25   	DB	"DATE: %d-%d-%d",0x00
       00000547 64 2D 25 64 00 
   686 0000054C                                 LC21:
   687 0000054C 25 64 3A 25 64 00               	DB	"%d:%d",0x00
   688 00000552                                 LC17:
   689 00000552 25 64 00                        	DB	"%d",0x00
   690 00000555                                 LC18:
   691 00000555 20 70 72 6F 63 65 73 73 20 6E   	DB	" process number:",0x0A,0x00
       0000055F 75 6D 62 65 72 3A 0A 00 
   692 00000567                                 LC16:
   693 00000567 0A 42 72 65 61 6B 28 6B 65 79   	DB	0x0A,"Break(key) :",0x0A,0x00
       00000571 29 20 3A 0A 00 
   694 00000576                                 LC19:
   695 00000576 0A 42 72 65 61 6B 28 6D 6F 75   	DB	0x0A,"Break(mouse) :",0x0A,0x00
       00000580 73 65 29 20 3A 0A 00 
   696 00000587                                 LC15:
   697 00000587 25 64 2F 25 30 32 64 2F 25 30   	DB	"%d/%02d/%02d %02d:%02d:%02d",0x00
       00000591 32 64 20 25 30 32 64 3A 25 30 
       0000059B 32 64 3A 25 30 32 64 00 
   698 000005A3                                 LC14:
   699 000005A3 20 20 20 20 20 20 20 20 20 20   	DB	"                                     ",0x00
       000005AD 20 20 20 20 20 20 20 20 20 20 
       000005B7 20 20 20 20 20 20 20 20 20 20 
       000005C1 20 20 20 20 20 20 20 00 
   700 000005C9                                 LC12:
   701 000005C9 57 72 6F 6E 67 20 4E 75 6D 62   	DB	"Wrong Number!",0x00
       000005D3 65 72 21 00 
   702 000005D7                                 LC13:
   703 000005D7 20 00                           	DB	" ",0x00
   704 000005D9                                 LC9:
   705 000005D9 41 66 74 65 72 20 33 20 73 65   	DB	"After 3 seconds can you try again!",0x00
       000005E3 63 6F 6E 64 73 20 63 61 6E 20 
       000005ED 79 6F 75 20 74 72 79 20 61 67 
       000005F7 61 69 6E 21 00 
   706 000005FC                                 LC10:
   707 000005FC 41 66 74 65 72 20 32 20 73 65   	DB	"After 2 seconds can you try again!",0x00
       00000606 63 6F 6E 64 73 20 63 61 6E 20 
       00000610 79 6F 75 20 74 72 79 20 61 67 
       0000061A 61 69 6E 21 00 
   708 0000061F                                 LC11:
   709 0000061F 41 66 74 65 72 20 31 20 73 65   	DB	"After 1 seconds can you try again!",0x00
       00000629 63 6F 6E 64 73 20 63 61 6E 20 
       00000633 79 6F 75 20 74 72 79 20 61 67 
       0000063D 61 69 6E 21 00 
   710                                          [SECTION .text]
   711 00000000                                 	GLOBAL	_HariMain
   712 00000000                                 _HariMain:
   713 00000000 55                              	PUSH	EBP
   714 00000001 B8 0000003C                     	MOV	EAX,60
   715 00000006 89 E5                           	MOV	EBP,ESP
   716 00000008 89 C1                           	MOV	ECX,EAX
   717 0000000A 57                              	PUSH	EDI
   718 0000000B 56                              	PUSH	ESI
   719 0000000C 8D BD FFFFFAA4                  	LEA	EDI,DWORD [-1372+EBP]
   720 00000012 FC                              	CLD
   721 00000013 53                              	PUSH	EBX
   722 00000014 BE [00000154]                   	MOV	ESI,LC0
   723 00000019 81 EC 0000092C                  	SUB	ESP,2348
   724 0000001F 8D 9D FFFFFF74                  	LEA	EBX,DWORD [-140+EBP]
   725 00000025 F3                              	REP
   726 00000026 A5                              	MOVSD
   727 00000027 89 C1                           	MOV	ECX,EAX
   728 00000029 8D BD FFFFF9B4                  	LEA	EDI,DWORD [-1612+EBP]
   729 0000002F BE [00000244]                   	MOV	ESI,LC1
   730 00000034 F3                              	REP
   731 00000035 A5                              	MOVSD
   732 00000036 89 C1                           	MOV	ECX,EAX
   733 00000038 8D BD FFFFF8C4                  	LEA	EDI,DWORD [-1852+EBP]
   734 0000003E BE [00000334]                   	MOV	ESI,LC2
   735 00000043 F3                              	REP
   736 00000044 A5                              	MOVSD
   737 00000045 89 C1                           	MOV	ECX,EAX
   738 00000047 8D BD FFFFF7D4                  	LEA	EDI,DWORD [-2092+EBP]
   739 0000004D BE [00000424]                   	MOV	ESI,LC3
   740 00000052 F3                              	REP
   741 00000053 A5                              	MOVSD
   742 00000054 C7 85 FFFFF75C FFFFFFFF         	MOV	DWORD [-2212+EBP],-1
   743 0000005E C7 85 FFFFF758 00000000         	MOV	DWORD [-2216+EBP],0
   744 00000068 C7 85 FFFFF754 7FFFFFFF         	MOV	DWORD [-2220+EBP],2147483647
   745 00000072 C7 85 FFFFF750 00000000         	MOV	DWORD [-2224+EBP],0
   746 0000007C C7 85 FFFFF74C 00000000         	MOV	DWORD [-2228+EBP],0
   747 00000086 C7 85 FFFFF708 00000000         	MOV	DWORD [-2296+EBP],0
   748 00000090 A0 00000FF1                     	MOV	AL,BYTE [4081]
   749 00000095 C0 F8 04                        	SAR	AL,4
   750 00000098 89 C2                           	MOV	EDX,EAX
   751 0000009A 83 E2 07                        	AND	EDX,7
   752 0000009D 89 95 FFFFF704                  	MOV	DWORD [-2300+EBP],EDX
   753 000000A3 C7 85 FFFFF700 FFFFFFFF         	MOV	DWORD [-2304+EBP],-1
   754 000000AD C7 85 FFFFF6FC FFFFFFFF         	MOV	DWORD [-2308+EBP],-1
   755 000000B7 C7 85 FFFFF6F8 FFFFFFFF         	MOV	DWORD [-2312+EBP],-1
   756 000000C1 C7 85 FFFFF6F4 00000000         	MOV	DWORD [-2316+EBP],0
   757 000000CB C7 85 FFFFF6F0 00000000         	MOV	DWORD [-2320+EBP],0
   758 000000D5 C7 85 FFFFF6E4 FFFFFFFF         	MOV	DWORD [-2332+EBP],-1
   759 000000DF E8 [00000000]                   	CALL	_init_gdtidt
   760 000000E4 E8 [00000000]                   	CALL	_init_pic
   761 000000E9 E8 [00000000]                   	CALL	_io_sti
   762 000000EE 8D 85 FFFFFD54                  	LEA	EAX,DWORD [-684+EBP]
   763 000000F4 6A 00                           	PUSH	0
   764 000000F6 50                              	PUSH	EAX
   765 000000F7 68 00000080                     	PUSH	128
   766 000000FC 53                              	PUSH	EBX
   767 000000FD E8 [00000000]                   	CALL	_fifo32_init
   768 00000102 89 1D 00000FEC                  	MOV	DWORD [4076],EBX
   769 00000108 E8 [00000000]                   	CALL	_init_pit
   770 0000010D 68 00000100                     	PUSH	256
   771 00000112 53                              	PUSH	EBX
   772 00000113 E8 [00000000]                   	CALL	_init_keyboard
   773 00000118 8D 85 FFFFFCC4                  	LEA	EAX,DWORD [-828+EBP]
   774 0000011E 50                              	PUSH	EAX
   775 0000011F 68 00000200                     	PUSH	512
   776 00000124 53                              	PUSH	EBX
   777 00000125 E8 [00000000]                   	CALL	_enable_mouse
   778 0000012A 83 C4 24                        	ADD	ESP,36
   779 0000012D 68 000000F8                     	PUSH	248
   780 00000132 6A 21                           	PUSH	33
   781 00000134 E8 [00000000]                   	CALL	_io_out8
   782 00000139 68 000000EF                     	PUSH	239
   783 0000013E 68 000000A1                     	PUSH	161
   784 00000143 E8 [00000000]                   	CALL	_io_out8
   785 00000148 8D 8D FFFFFF54                  	LEA	ECX,DWORD [-172+EBP]
   786 0000014E 6A 00                           	PUSH	0
   787 00000150 8D 85 FFFFFCD4                  	LEA	EAX,DWORD [-812+EBP]
   788 00000156 50                              	PUSH	EAX
   789 00000157 6A 20                           	PUSH	32
   790 00000159 51                              	PUSH	ECX
   791 0000015A E8 [00000000]                   	CALL	_fifo32_init
   792 0000015F 83 C4 20                        	ADD	ESP,32
   793 00000162 E8 [00000000]                   	CALL	_timer_alloc
   794 00000167 6A 0A                           	PUSH	10
   795 00000169 53                              	PUSH	EBX
   796 0000016A 89 85 FFFFF774                  	MOV	DWORD [-2188+EBP],EAX
   797 00000170 50                              	PUSH	EAX
   798 00000171 E8 [00000000]                   	CALL	_timer_init
   799 00000176 6A 0A                           	PUSH	10
   800 00000178 FF B5 FFFFF774                  	PUSH	DWORD [-2188+EBP]
   801 0000017E E8 [00000000]                   	CALL	_timer_settime
   802 00000183 E8 [00000000]                   	CALL	_timer_alloc
   803 00000188 6A 0F                           	PUSH	15
   804 0000018A 53                              	PUSH	EBX
   805 0000018B 50                              	PUSH	EAX
   806 0000018C 89 85 FFFFF770                  	MOV	DWORD [-2192+EBP],EAX
   807 00000192 E8 [00000000]                   	CALL	_timer_init
   808 00000197 83 C4 20                        	ADD	ESP,32
   809 0000019A 6A 05                           	PUSH	5
   810 0000019C FF B5 FFFFF770                  	PUSH	DWORD [-2192+EBP]
   811 000001A2 E8 [00000000]                   	CALL	_timer_settime
   812 000001A7 E8 [00000000]                   	CALL	_timer_alloc
   813 000001AC 89 85 FFFFF76C                  	MOV	DWORD [-2196+EBP],EAX
   814 000001B2 E8 [00000000]                   	CALL	_timer_alloc
   815 000001B7 68 BFFFFFFF                     	PUSH	-1073741825
   816 000001BC 68 00600000                     	PUSH	6291456
   817 000001C1 E8 [00000000]                   	CALL	_memtest
   818 000001C6 68 003C0000                     	PUSH	3932160
   819 000001CB 89 85 FFFFF748                  	MOV	DWORD [-2232+EBP],EAX
   820 000001D1 E8 [00000000]                   	CALL	_memman_init
   821 000001D6 68 0009E000                     	PUSH	647168
   822 000001DB 68 00001000                     	PUSH	4096
   823 000001E0 68 003C0000                     	PUSH	3932160
   824 000001E5 E8 [00000000]                   	CALL	_memman_free
   825 000001EA 8B 85 FFFFF748                  	MOV	EAX,DWORD [-2232+EBP]
   826 000001F0 83 C4 20                        	ADD	ESP,32
   827 000001F3 2D 00600000                     	SUB	EAX,6291456
   828 000001F8 50                              	PUSH	EAX
   829 000001F9 68 00600000                     	PUSH	6291456
   830 000001FE 68 003C0000                     	PUSH	3932160
   831 00000203 E8 [00000000]                   	CALL	_memman_free
   832 00000208 E8 [00000000]                   	CALL	_init_palette
   833 0000020D 0F BF 05 00000FF6               	MOVSX	EAX,WORD [4086]
   834 00000214 50                              	PUSH	EAX
   835 00000215 0F BF 05 00000FF4               	MOVSX	EAX,WORD [4084]
   836 0000021C 50                              	PUSH	EAX
   837 0000021D FF 35 00000FF8                  	PUSH	DWORD [4088]
   838 00000223 68 003C0000                     	PUSH	3932160
   839 00000228 E8 [00000000]                   	CALL	_shtctl_init
   840 0000022D 68 003C0000                     	PUSH	3932160
   841 00000232 89 85 FFFFF778                  	MOV	DWORD [-2184+EBP],EAX
   842 00000238 E8 [00000000]                   	CALL	_task_init
   843 0000023D 83 C4 20                        	ADD	ESP,32
   844 00000240 89 85 FFFFF718                  	MOV	DWORD [-2280+EBP],EAX
   845 00000246 89 45 8C                        	MOV	DWORD [-116+EBP],EAX
   846 00000249 6A 02                           	PUSH	2
   847 0000024B 6A 01                           	PUSH	1
   848 0000024D 50                              	PUSH	EAX
   849 0000024E E8 [00000000]                   	CALL	_task_run
   850 00000253 8B 95 FFFFF718                  	MOV	EDX,DWORD [-2280+EBP]
   851 00000259 8B 85 FFFFF778                  	MOV	EAX,DWORD [-2184+EBP]
   852 0000025F A3 00000FE4                     	MOV	DWORD [4068],EAX
   853 00000264 C6 82 000000BC 00               	MOV	BYTE [188+EDX],0
   854 0000026B 50                              	PUSH	EAX
   855 0000026C E8 [00000000]                   	CALL	_sheet_alloc
   856 00000271 0F BF 15 00000FF6               	MOVSX	EDX,WORD [4086]
   857 00000278 89 85 FFFFF738                  	MOV	DWORD [-2248+EBP],EAX
   858 0000027E 0F BF 05 00000FF4               	MOVSX	EAX,WORD [4084]
   859 00000285 0F AF C2                        	IMUL	EAX,EDX
   860 00000288 50                              	PUSH	EAX
   861 00000289 68 003C0000                     	PUSH	3932160
   862 0000028E E8 [00000000]                   	CALL	_memman_alloc_4k
   863 00000293 6A FF                           	PUSH	-1
   864 00000295 89 C3                           	MOV	EBX,EAX
   865 00000297 0F BF 05 00000FF6               	MOVSX	EAX,WORD [4086]
   866 0000029E 50                              	PUSH	EAX
   867 0000029F 0F BF 05 00000FF4               	MOVSX	EAX,WORD [4084]
   868 000002A6 50                              	PUSH	EAX
   869 000002A7 53                              	PUSH	EBX
   870 000002A8 FF B5 FFFFF738                  	PUSH	DWORD [-2248+EBP]
   871 000002AE E8 [00000000]                   	CALL	_sheet_setbuf
   872 000002B3 83 C4 2C                        	ADD	ESP,44
   873 000002B6 0F BF 05 00000FF6               	MOVSX	EAX,WORD [4086]
   874 000002BD 50                              	PUSH	EAX
   875 000002BE 0F BF 05 00000FF4               	MOVSX	EAX,WORD [4084]
   876 000002C5 50                              	PUSH	EAX
   877 000002C6 53                              	PUSH	EBX
   878 000002C7 8D 9D FFFFFBC4                  	LEA	EBX,DWORD [-1084+EBP]
   879 000002CD E8 [00000000]                   	CALL	_init_screen8
   880 000002D2 6A 05                           	PUSH	5
   881 000002D4 68 [0000051A]                   	PUSH	LC4
   882 000002D9 6A 08                           	PUSH	8
   883 000002DB 6A 00                           	PUSH	0
   884 000002DD 0F BF 05 00000FF6               	MOVSX	EAX,WORD [4086]
   885 000002E4 83 E8 14                        	SUB	EAX,20
   886 000002E7 50                              	PUSH	EAX
   887 000002E8 6A 08                           	PUSH	8
   888 000002EA FF B5 FFFFF738                  	PUSH	DWORD [-2248+EBP]
   889 000002F0 E8 [00000000]                   	CALL	_putfonts8_asc_sht
   890 000002F5 83 C4 28                        	ADD	ESP,40
   891 000002F8 FF B5 FFFFF778                  	PUSH	DWORD [-2184+EBP]
   892 000002FE E8 [00000000]                   	CALL	_sheet_alloc
   893 00000303 68 00004E20                     	PUSH	20000
   894 00000308 68 003C0000                     	PUSH	3932160
   895 0000030D 89 85 FFFFF71C                  	MOV	DWORD [-2276+EBP],EAX
   896 00000313 E8 [00000000]                   	CALL	_memman_alloc_4k
   897 00000318 6A FF                           	PUSH	-1
   898 0000031A 6A 7E                           	PUSH	126
   899 0000031C 6A 5A                           	PUSH	90
   900 0000031E 50                              	PUSH	EAX
   901 0000031F FF B5 FFFFF71C                  	PUSH	DWORD [-2276+EBP]
   902 00000325 E8 [00000000]                   	CALL	_sheet_setbuf
   903 0000032A 83 C4 20                        	ADD	ESP,32
   904 0000032D 6A 01                           	PUSH	1
   905 0000032F FF B5 FFFFF71C                  	PUSH	DWORD [-2276+EBP]
   906 00000335 E8 [00000000]                   	CALL	_make_menu
   907 0000033A 8B 8D FFFFF71C                  	MOV	ECX,DWORD [-2276+EBP]
   908 00000340 C7 41 1C FFFFFFFF               	MOV	DWORD [28+ECX],-1
   909 00000347 FF B5 FFFFF778                  	PUSH	DWORD [-2184+EBP]
   910 0000034D E8 [00000000]                   	CALL	_sheet_alloc
   911 00000352 68 00004650                     	PUSH	18000
   912 00000357 68 003C0000                     	PUSH	3932160
   913 0000035C 89 85 FFFFFBA4                  	MOV	DWORD [-1116+EBP],EAX
   914 00000362 E8 [00000000]                   	CALL	_memman_alloc_4k
   915 00000367 6A FF                           	PUSH	-1
   916 00000369 6A 5A                           	PUSH	90
   917 0000036B 89 85 FFFFFBB4                  	MOV	DWORD [-1100+EBP],EAX
   918 00000371 6A 5A                           	PUSH	90
   919 00000373 50                              	PUSH	EAX
   920 00000374 FF B5 FFFFFBA4                  	PUSH	DWORD [-1116+EBP]
   921 0000037A E8 [00000000]                   	CALL	_sheet_setbuf
   922 0000037F 83 C4 28                        	ADD	ESP,40
   923 00000382 6A 02                           	PUSH	2
   924 00000384 FF B5 FFFFFBA4                  	PUSH	DWORD [-1116+EBP]
   925 0000038A E8 [00000000]                   	CALL	_make_menu
   926 0000038F 8B 85 FFFFFBA4                  	MOV	EAX,DWORD [-1116+EBP]
   927 00000395 C7 40 1C FFFFFFFE               	MOV	DWORD [28+EAX],-2
   928 0000039C FF B5 FFFFF778                  	PUSH	DWORD [-2184+EBP]
   929 000003A2 E8 [00000000]                   	CALL	_sheet_alloc
   930 000003A7 68 00004650                     	PUSH	18000
   931 000003AC 68 003C0000                     	PUSH	3932160
   932 000003B1 89 85 FFFFFBA8                  	MOV	DWORD [-1112+EBP],EAX
   933 000003B7 E8 [00000000]                   	CALL	_memman_alloc_4k
   934 000003BC 6A FF                           	PUSH	-1
   935 000003BE 6A 48                           	PUSH	72
   936 000003C0 89 85 FFFFFBB8                  	MOV	DWORD [-1096+EBP],EAX
   937 000003C6 6A 5A                           	PUSH	90
   938 000003C8 50                              	PUSH	EAX
   939 000003C9 FF B5 FFFFFBA8                  	PUSH	DWORD [-1112+EBP]
   940 000003CF E8 [00000000]                   	CALL	_sheet_setbuf
   941 000003D4 83 C4 28                        	ADD	ESP,40
   942 000003D7 6A 03                           	PUSH	3
   943 000003D9 FF B5 FFFFFBA8                  	PUSH	DWORD [-1112+EBP]
   944 000003DF E8 [00000000]                   	CALL	_make_menu
   945 000003E4 8B 85 FFFFFBA8                  	MOV	EAX,DWORD [-1112+EBP]
   946 000003EA C7 40 1C FFFFFFFD               	MOV	DWORD [28+EAX],-3
   947 000003F1 FF B5 FFFFF778                  	PUSH	DWORD [-2184+EBP]
   948 000003F7 E8 [00000000]                   	CALL	_sheet_alloc
   949 000003FC 68 00004650                     	PUSH	18000
   950 00000401 68 003C0000                     	PUSH	3932160
   951 00000406 89 85 FFFFFBAC                  	MOV	DWORD [-1108+EBP],EAX
   952 0000040C E8 [00000000]                   	CALL	_memman_alloc_4k
   953 00000411 6A FF                           	PUSH	-1
   954 00000413 6A 24                           	PUSH	36
   955 00000415 89 85 FFFFFBBC                  	MOV	DWORD [-1092+EBP],EAX
   956 0000041B 6A 5A                           	PUSH	90
   957 0000041D 50                              	PUSH	EAX
   958 0000041E FF B5 FFFFFBAC                  	PUSH	DWORD [-1108+EBP]
   959 00000424 E8 [00000000]                   	CALL	_sheet_setbuf
   960 00000429 83 C4 28                        	ADD	ESP,40
   961 0000042C 6A 04                           	PUSH	4
   962 0000042E FF B5 FFFFFBAC                  	PUSH	DWORD [-1108+EBP]
   963 00000434 E8 [00000000]                   	CALL	_make_menu
   964 00000439 8B 85 FFFFFBAC                  	MOV	EAX,DWORD [-1108+EBP]
   965 0000043F C7 40 1C FFFFFFFC               	MOV	DWORD [28+EAX],-4
   966 00000446 FF B5 FFFFF748                  	PUSH	DWORD [-2232+EBP]
   967 0000044C FF B5 FFFFF778                  	PUSH	DWORD [-2184+EBP]
   968 00000452 E8 00003769                     	CALL	_open_log
   969 00000457 FF B5 FFFFF778                  	PUSH	DWORD [-2184+EBP]
   970 0000045D 89 85 FFFFF6EC                  	MOV	DWORD [-2324+EBP],EAX
   971 00000463 E8 [00000000]                   	CALL	_sheet_alloc
   972 00000468 6A 63                           	PUSH	99
   973 0000046A 6A 10                           	PUSH	16
   974 0000046C 89 85 FFFFF734                  	MOV	DWORD [-2252+EBP],EAX
   975 00000472 6A 10                           	PUSH	16
   976 00000474 53                              	PUSH	EBX
   977 00000475 50                              	PUSH	EAX
   978 00000476 E8 [00000000]                   	CALL	_sheet_setbuf
   979 0000047B 83 C4 28                        	ADD	ESP,40
   980 0000047E 6A 63                           	PUSH	99
   981 00000480 53                              	PUSH	EBX
   982 00000481 BB 00000002                     	MOV	EBX,2
   983 00000486 E8 [00000000]                   	CALL	_init_mouse_cursor8
   984 0000048B FF B5 FFFFF778                  	PUSH	DWORD [-2184+EBP]
   985 00000491 E8 [00000000]                   	CALL	_sheet_alloc
   986 00000496 FF B5 FFFFF778                  	PUSH	DWORD [-2184+EBP]
   987 0000049C 89 85 FFFFF730                  	MOV	DWORD [-2256+EBP],EAX
   988 000004A2 E8 [00000000]                   	CALL	_sheet_alloc
   989 000004A7 FF B5 FFFFF778                  	PUSH	DWORD [-2184+EBP]
   990 000004AD 89 85 FFFFF72C                  	MOV	DWORD [-2260+EBP],EAX
   991 000004B3 E8 [00000000]                   	CALL	_sheet_alloc
   992 000004B8 FF B5 FFFFF778                  	PUSH	DWORD [-2184+EBP]
   993 000004BE 89 85 FFFFF728                  	MOV	DWORD [-2264+EBP],EAX
   994 000004C4 E8 [00000000]                   	CALL	_sheet_alloc
   995 000004C9 FF B5 FFFFF778                  	PUSH	DWORD [-2184+EBP]
   996 000004CF 89 85 FFFFF724                  	MOV	DWORD [-2268+EBP],EAX
   997 000004D5 E8 [00000000]                   	CALL	_sheet_alloc
   998 000004DA 0F BF 15 00000FF6               	MOVSX	EDX,WORD [4086]
   999 000004E1 89 85 FFFFF720                  	MOV	DWORD [-2272+EBP],EAX
  1000 000004E7 0F BF 05 00000FF4               	MOVSX	EAX,WORD [4084]
  1001 000004EE 0F AF C2                        	IMUL	EAX,EDX
  1002 000004F1 50                              	PUSH	EAX
  1003 000004F2 68 003C0000                     	PUSH	3932160
  1004 000004F7 E8 [00000000]                   	CALL	_memman_alloc_4k
  1005 000004FC 83 C4 24                        	ADD	ESP,36
  1006 000004FF 0F BF 15 00000FF6               	MOVSX	EDX,WORD [4086]
  1007 00000506 89 85 FFFFF744                  	MOV	DWORD [-2236+EBP],EAX
  1008 0000050C 0F BF 05 00000FF4               	MOVSX	EAX,WORD [4084]
  1009 00000513 0F AF C2                        	IMUL	EAX,EDX
  1010 00000516 50                              	PUSH	EAX
  1011 00000517 68 003C0000                     	PUSH	3932160
  1012 0000051C E8 [00000000]                   	CALL	_memman_alloc_4k
  1013 00000521 0F BF 15 00000FF6               	MOVSX	EDX,WORD [4086]
  1014 00000528 89 85 FFFFF740                  	MOV	DWORD [-2240+EBP],EAX
  1015 0000052E 0F BF 05 00000FF4               	MOVSX	EAX,WORD [4084]
  1016 00000535 0F AF C2                        	IMUL	EAX,EDX
  1017 00000538 50                              	PUSH	EAX
  1018 00000539 68 003C0000                     	PUSH	3932160
  1019 0000053E E8 [00000000]                   	CALL	_memman_alloc_4k
  1020 00000543 68 00002080                     	PUSH	8320
  1021 00000548 68 003C0000                     	PUSH	3932160
  1022 0000054D 89 85 FFFFF73C                  	MOV	DWORD [-2244+EBP],EAX
  1023 00000553 E8 [00000000]                   	CALL	_memman_alloc_4k
  1024 00000558 68 00002080                     	PUSH	8320
  1025 0000055D 89 C6                           	MOV	ESI,EAX
  1026 0000055F 68 003C0000                     	PUSH	3932160
  1027 00000564 E8 [00000000]                   	CALL	_memman_alloc_4k
  1028 00000569 83 C4 20                        	ADD	ESP,32
  1029 0000056C 89 C7                           	MOV	EDI,EAX
  1030 0000056E 6A FF                           	PUSH	-1
  1031 00000570 0F BF 05 00000FF6               	MOVSX	EAX,WORD [4086]
  1032 00000577 50                              	PUSH	EAX
  1033 00000578 0F BF 05 00000FF4               	MOVSX	EAX,WORD [4084]
  1034 0000057F 50                              	PUSH	EAX
  1035 00000580 FF B5 FFFFF744                  	PUSH	DWORD [-2236+EBP]
  1036 00000586 FF B5 FFFFF730                  	PUSH	DWORD [-2256+EBP]
  1037 0000058C E8 [00000000]                   	CALL	_sheet_setbuf
  1038 00000591 6A FF                           	PUSH	-1
  1039 00000593 0F BF 05 00000FF6               	MOVSX	EAX,WORD [4086]
  1040 0000059A 50                              	PUSH	EAX
  1041 0000059B 0F BF 05 00000FF4               	MOVSX	EAX,WORD [4084]
  1042 000005A2 50                              	PUSH	EAX
  1043 000005A3 FF B5 FFFFF740                  	PUSH	DWORD [-2240+EBP]
  1044 000005A9 FF B5 FFFFF72C                  	PUSH	DWORD [-2260+EBP]
  1045 000005AF E8 [00000000]                   	CALL	_sheet_setbuf
  1046 000005B4 83 C4 28                        	ADD	ESP,40
  1047 000005B7 6A FF                           	PUSH	-1
  1048 000005B9 0F BF 05 00000FF6               	MOVSX	EAX,WORD [4086]
  1049 000005C0 50                              	PUSH	EAX
  1050 000005C1 0F BF 05 00000FF4               	MOVSX	EAX,WORD [4084]
  1051 000005C8 50                              	PUSH	EAX
  1052 000005C9 FF B5 FFFFF73C                  	PUSH	DWORD [-2244+EBP]
  1053 000005CF FF B5 FFFFF728                  	PUSH	DWORD [-2264+EBP]
  1054 000005D5 E8 [00000000]                   	CALL	_sheet_setbuf
  1055 000005DA 6A FF                           	PUSH	-1
  1056 000005DC 6A 34                           	PUSH	52
  1057 000005DE 68 000000A0                     	PUSH	160
  1058 000005E3 56                              	PUSH	ESI
  1059 000005E4 FF B5 FFFFF724                  	PUSH	DWORD [-2268+EBP]
  1060 000005EA E8 [00000000]                   	CALL	_sheet_setbuf
  1061 000005EF 83 C4 28                        	ADD	ESP,40
  1062 000005F2 6A FF                           	PUSH	-1
  1063 000005F4 6A 34                           	PUSH	52
  1064 000005F6 68 000000A0                     	PUSH	160
  1065 000005FB 57                              	PUSH	EDI
  1066 000005FC FF B5 FFFFF720                  	PUSH	DWORD [-2272+EBP]
  1067 00000602 E8 [00000000]                   	CALL	_sheet_setbuf
  1068 00000607 68 [0000051F]                   	PUSH	LC5
  1069 0000060C 6A 34                           	PUSH	52
  1070 0000060E 68 000000A0                     	PUSH	160
  1071 00000613 56                              	PUSH	ESI
  1072 00000614 E8 [00000000]                   	CALL	_make_window7
  1073 00000619 83 C4 24                        	ADD	ESP,36
  1074 0000061C 68 [00000525]                   	PUSH	LC6
  1075 00000621 6A 34                           	PUSH	52
  1076 00000623 68 000000A0                     	PUSH	160
  1077 00000628 57                              	PUSH	EDI
  1078 00000629 E8 [00000000]                   	CALL	_make_window6
  1079 0000062E 6A 00                           	PUSH	0
  1080 00000630 68 [0000052B]                   	PUSH	LC7
  1081 00000635 0F BF 05 00000FF6               	MOVSX	EAX,WORD [4086]
  1082 0000063C 50                              	PUSH	EAX
  1083 0000063D 0F BF 05 00000FF4               	MOVSX	EAX,WORD [4084]
  1084 00000644 50                              	PUSH	EAX
  1085 00000645 FF B5 FFFFF73C                  	PUSH	DWORD [-2244+EBP]
  1086 0000064B E8 [00000000]                   	CALL	_make_window8
  1087 00000650 83 C4 24                        	ADD	ESP,36
  1088 00000653 0F BF 05 00000FF6               	MOVSX	EAX,WORD [4086]
  1089 0000065A 50                              	PUSH	EAX
  1090 0000065B 0F BF 05 00000FF4               	MOVSX	EAX,WORD [4084]
  1091 00000662 50                              	PUSH	EAX
  1092 00000663 FF B5 FFFFF740                  	PUSH	DWORD [-2240+EBP]
  1093 00000669 E8 00003641                     	CALL	_bootpage
  1094 0000066E 0F BF 05 00000FF6               	MOVSX	EAX,WORD [4086]
  1095 00000675 50                              	PUSH	EAX
  1096 00000676 0F BF 05 00000FF4               	MOVSX	EAX,WORD [4084]
  1097 0000067D 50                              	PUSH	EAX
  1098 0000067E 6A 00                           	PUSH	0
  1099 00000680 6A 00                           	PUSH	0
  1100 00000682 6A 07                           	PUSH	7
  1101 00000684 0F BF 05 00000FF4               	MOVSX	EAX,WORD [4084]
  1102 0000068B 50                              	PUSH	EAX
  1103 0000068C FF B5 FFFFF744                  	PUSH	DWORD [-2236+EBP]
  1104 00000692 E8 [00000000]                   	CALL	_boxfill8
  1105 00000697 83 C4 28                        	ADD	ESP,40
  1106 0000069A 0F BF 05 00000FF6               	MOVSX	EAX,WORD [4086]
  1107 000006A1 50                              	PUSH	EAX
  1108 000006A2 0F BF 05 00000FF4               	MOVSX	EAX,WORD [4084]
  1109 000006A9 50                              	PUSH	EAX
  1110 000006AA 6A 00                           	PUSH	0
  1111 000006AC 6A 00                           	PUSH	0
  1112 000006AE FF B5 FFFFF730                  	PUSH	DWORD [-2256+EBP]
  1113 000006B4 E8 [00000000]                   	CALL	_sheet_refresh
  1114 000006B9 6A 00                           	PUSH	0
  1115 000006BB 6A 00                           	PUSH	0
  1116 000006BD FF B5 FFFFF738                  	PUSH	DWORD [-2248+EBP]
  1117 000006C3 E8 [00000000]                   	CALL	_sheet_slide
  1118 000006C8 83 C4 20                        	ADD	ESP,32
  1119 000006CB 0F BF 05 00000FF4               	MOVSX	EAX,WORD [4084]
  1120 000006D2 8D 50 F0                        	LEA	EDX,DWORD [-16+EAX]
  1121 000006D5 89 D0                           	MOV	EAX,EDX
  1122 000006D7 99                              	CDQ
  1123 000006D8 F7 FB                           	IDIV	EBX
  1124 000006DA 89 85 FFFFF764                  	MOV	DWORD [-2204+EBP],EAX
  1125 000006E0 0F BF 05 00000FF6               	MOVSX	EAX,WORD [4086]
  1126 000006E7 68 00000266                     	PUSH	614
  1127 000006EC 8D 50 D4                        	LEA	EDX,DWORD [-44+EAX]
  1128 000006EF 6A 01                           	PUSH	1
  1129 000006F1 89 D0                           	MOV	EAX,EDX
  1130 000006F3 99                              	CDQ
  1131 000006F4 F7 FB                           	IDIV	EBX
  1132 000006F6 FF B5 FFFFF71C                  	PUSH	DWORD [-2276+EBP]
  1133 000006FC 89 85 FFFFF760                  	MOV	DWORD [-2208+EBP],EAX
  1134 00000702 E8 [00000000]                   	CALL	_sheet_slide
  1135 00000707 8B 95 FFFFF71C                  	MOV	EDX,DWORD [-2276+EBP]
  1136 0000070D 68 00000242                     	PUSH	578
  1137 00000712 8B 42 04                        	MOV	EAX,DWORD [4+EDX]
  1138 00000715 40                              	INC	EAX
  1139 00000716 50                              	PUSH	EAX
  1140 00000717 FF B5 FFFFFBA4                  	PUSH	DWORD [-1116+EBP]
  1141 0000071D E8 [00000000]                   	CALL	_sheet_slide
  1142 00000722 8B 8D FFFFF71C                  	MOV	ECX,DWORD [-2276+EBP]
  1143 00000728 68 00000266                     	PUSH	614
  1144 0000072D 8B 41 04                        	MOV	EAX,DWORD [4+ECX]
  1145 00000730 40                              	INC	EAX
  1146 00000731 50                              	PUSH	EAX
  1147 00000732 FF B5 FFFFFBA8                  	PUSH	DWORD [-1112+EBP]
  1148 00000738 E8 [00000000]                   	CALL	_sheet_slide
  1149 0000073D 8B 95 FFFFF71C                  	MOV	EDX,DWORD [-2276+EBP]
  1150 00000743 83 C4 24                        	ADD	ESP,36
  1151 00000746 68 0000029C                     	PUSH	668
  1152 0000074B 8B 42 04                        	MOV	EAX,DWORD [4+EDX]
  1153 0000074E 40                              	INC	EAX
  1154 0000074F 50                              	PUSH	EAX
  1155 00000750 FF B5 FFFFFBAC                  	PUSH	DWORD [-1108+EBP]
  1156 00000756 E8 [00000000]                   	CALL	_sheet_slide
  1157 0000075B 6A 04                           	PUSH	4
  1158 0000075D 68 00000200                     	PUSH	512
  1159 00000762 FF B5 FFFFF6EC                  	PUSH	DWORD [-2324+EBP]
  1160 00000768 E8 [00000000]                   	CALL	_sheet_slide
  1161 0000076D FF B5 FFFFF760                  	PUSH	DWORD [-2208+EBP]
  1162 00000773 FF B5 FFFFF764                  	PUSH	DWORD [-2204+EBP]
  1163 00000779 FF B5 FFFFF734                  	PUSH	DWORD [-2252+EBP]
  1164 0000077F E8 [00000000]                   	CALL	_sheet_slide
  1165 00000784 83 C4 24                        	ADD	ESP,36
  1166 00000787 6A 00                           	PUSH	0
  1167 00000789 6A 00                           	PUSH	0
  1168 0000078B FF B5 FFFFF730                  	PUSH	DWORD [-2256+EBP]
  1169 00000791 E8 [00000000]                   	CALL	_sheet_slide
  1170 00000796 6A 00                           	PUSH	0
  1171 00000798 6A 00                           	PUSH	0
  1172 0000079A FF B5 FFFFF72C                  	PUSH	DWORD [-2260+EBP]
  1173 000007A0 E8 [00000000]                   	CALL	_sheet_slide
  1174 000007A5 6A 00                           	PUSH	0
  1175 000007A7 6A 00                           	PUSH	0
  1176 000007A9 FF B5 FFFFF728                  	PUSH	DWORD [-2264+EBP]
  1177 000007AF E8 [00000000]                   	CALL	_sheet_slide
  1178 000007B4 83 C4 24                        	ADD	ESP,36
  1179 000007B7 6A 32                           	PUSH	50
  1180 000007B9 6A 0A                           	PUSH	10
  1181 000007BB FF B5 FFFFF724                  	PUSH	DWORD [-2268+EBP]
  1182 000007C1 E8 [00000000]                   	CALL	_sheet_slide
  1183 000007C6 6A 32                           	PUSH	50
  1184 000007C8 6A 0A                           	PUSH	10
  1185 000007CA FF B5 FFFFF720                  	PUSH	DWORD [-2272+EBP]
  1186 000007D0 E8 [00000000]                   	CALL	_sheet_slide
  1187 000007D5 6A 00                           	PUSH	0
  1188 000007D7 FF B5 FFFFF738                  	PUSH	DWORD [-2248+EBP]
  1189 000007DD E8 [00000000]                   	CALL	_sheet_updown
  1190 000007E2 83 C4 20                        	ADD	ESP,32
  1191 000007E5 6A 04                           	PUSH	4
  1192 000007E7 FF B5 FFFFF730                  	PUSH	DWORD [-2256+EBP]
  1193 000007ED E8 [00000000]                   	CALL	_sheet_updown
  1194 000007F2 6A FF                           	PUSH	-1
  1195 000007F4 FF B5 FFFFF6EC                  	PUSH	DWORD [-2324+EBP]
  1196 000007FA E8 [00000000]                   	CALL	_sheet_updown
  1197 000007FF 6A 01                           	PUSH	1
  1198 00000801 FF B5 FFFFF734                  	PUSH	DWORD [-2252+EBP]
  1199 00000807 E8 [00000000]                   	CALL	_sheet_updown
  1200 0000080C 6A 02                           	PUSH	2
  1201 0000080E FF B5 FFFFF72C                  	PUSH	DWORD [-2260+EBP]
  1202 00000814 E8 [00000000]                   	CALL	_sheet_updown
  1203 00000819 83 C4 20                        	ADD	ESP,32
  1204 0000081C 6A FF                           	PUSH	-1
  1205 0000081E FF B5 FFFFF728                  	PUSH	DWORD [-2264+EBP]
  1206 00000824 E8 [00000000]                   	CALL	_sheet_updown
  1207 00000829 6A FF                           	PUSH	-1
  1208 0000082B FF B5 FFFFF724                  	PUSH	DWORD [-2268+EBP]
  1209 00000831 E8 [00000000]                   	CALL	_sheet_updown
  1210 00000836 6A FF                           	PUSH	-1
  1211 00000838 FF B5 FFFFF720                  	PUSH	DWORD [-2272+EBP]
  1212 0000083E E8 [00000000]                   	CALL	_sheet_updown
  1213 00000843 FF B5 FFFFF6EC                  	PUSH	DWORD [-2324+EBP]
  1214 00000849 E8 0000321F                     	CALL	_keywin_on
  1215 0000084E 6A 07                           	PUSH	7
  1216 00000850 6A 10                           	PUSH	16
  1217 00000852 68 00000090                     	PUSH	144
  1218 00000857 6A 1C                           	PUSH	28
  1219 00000859 6A 08                           	PUSH	8
  1220 0000085B FF B5 FFFFF724                  	PUSH	DWORD [-2268+EBP]
  1221 00000861 E8 [00000000]                   	CALL	_make_textbox8
  1222 00000866 8D 8D FFFFFF54                  	LEA	ECX,DWORD [-172+EBP]
  1223 0000086C 83 C4 34                        	ADD	ESP,52
  1224 0000086F 68 000000ED                     	PUSH	237
  1225 00000874 51                              	PUSH	ECX
  1226 00000875 E8 [00000000]                   	CALL	_fifo32_put
  1227 0000087A 8D 85 FFFFFF54                  	LEA	EAX,DWORD [-172+EBP]
  1228 00000880 FF B5 FFFFF704                  	PUSH	DWORD [-2300+EBP]
  1229 00000886 50                              	PUSH	EAX
  1230 00000887 E8 [00000000]                   	CALL	_fifo32_put
  1231 0000088C 68 00002D00                     	PUSH	11520
  1232 00000891 68 003C0000                     	PUSH	3932160
  1233 00000896 E8 [00000000]                   	CALL	_memman_alloc_4k
  1234 0000089B 68 00100200                     	PUSH	1049088
  1235 000008A0 89 C3                           	MOV	EBX,EAX
  1236 000008A2 50                              	PUSH	EAX
  1237 000008A3 E8 [00000000]                   	CALL	_file_readfat
  1238 000008A8 83 C4 20                        	ADD	ESP,32
  1239 000008AB 68 000000E0                     	PUSH	224
  1240 000008B0 68 00102600                     	PUSH	1058304
  1241 000008B5 68 [00000531]                   	PUSH	LC8
  1242 000008BA E8 [00000000]                   	CALL	_file_search
  1243 000008BF 83 C4 0C                        	ADD	ESP,12
  1244 000008C2 89 C2                           	MOV	EDX,EAX
  1245 000008C4 85 C0                           	TEST	EAX,EAX
  1246 000008C6 0F 84 00003109                  	JE	L2
  1247 000008CC 8B 40 1C                        	MOV	EAX,DWORD [28+EAX]
  1248 000008CF 53                              	PUSH	EBX
  1249 000008D0 89 85 FFFFF780                  	MOV	DWORD [-2176+EBP],EAX
  1250 000008D6 8D 85 FFFFF780                  	LEA	EAX,DWORD [-2176+EBP]
  1251 000008DC 50                              	PUSH	EAX
  1252 000008DD 0F B7 42 1A                     	MOVZX	EAX,WORD [26+EDX]
  1253 000008E1 50                              	PUSH	EAX
  1254 000008E2 E8 [00000000]                   	CALL	_file_loadfile2
  1255 000008E7 83 C4 0C                        	ADD	ESP,12
  1256 000008EA 89 C1                           	MOV	ECX,EAX
  1257 000008EC                                 L3:
  1258 000008EC 89 0D 00000FE8                  	MOV	DWORD [4072],ECX
  1259 000008F2 31 F6                           	XOR	ESI,ESI
  1260 000008F4 68 00002D00                     	PUSH	11520
  1261 000008F9 53                              	PUSH	EBX
  1262 000008FA 68 003C0000                     	PUSH	3932160
  1263 000008FF E8 [00000000]                   	CALL	_memman_free_4k
  1264 00000904 83 C4 0C                        	ADD	ESP,12
  1265 00000907                                 L124:
  1266 00000907 8D 9D FFFFFF74                  	LEA	EBX,DWORD [-140+EBP]
  1267 0000090D E8 [00000000]                   	CALL	_io_cli
  1268 00000912 53                              	PUSH	EBX
  1269 00000913 E8 [00000000]                   	CALL	_fifo32_status
  1270 00000918 5A                              	POP	EDX
  1271 00000919 85 C0                           	TEST	EAX,EAX
  1272 0000091B 0F 85 00001435                  	JNE	L17
  1273 00000921 E8 [00000000]                   	CALL	_io_sti
  1274 00000926                                 L14:
  1275 00000926 85 F6                           	TEST	ESI,ESI
  1276 00000928 74 DD                           	JE	L124
  1277 0000092A 6A FF                           	PUSH	-1
  1278 0000092C 8D BD FFFFF7A4                  	LEA	EDI,DWORD [-2140+EBP]
  1279 00000932 FF B5 FFFFF730                  	PUSH	DWORD [-2256+EBP]
  1280 00000938 E8 [00000000]                   	CALL	_sheet_updown
  1281 0000093D 31 C0                           	XOR	EAX,EAX
  1282 0000093F FC                              	CLD
  1283 00000940 B9 0000000A                     	MOV	ECX,10
  1284 00000945 C7 85 FFFFF6E0 00000147         	MOV	DWORD [-2336+EBP],327
  1285 0000094F F3                              	REP
  1286 00000950 AB                              	STOSD
  1287 00000951 6A 01                           	PUSH	1
  1288 00000953 8D 85 FFFFFF74                  	LEA	EAX,DWORD [-140+EBP]
  1289 00000959 50                              	PUSH	EAX
  1290 0000095A 31 FF                           	XOR	EDI,EDI
  1291 0000095C FF B5 FFFFF76C                  	PUSH	DWORD [-2196+EBP]
  1292 00000962 C7 85 FFFFF77C 00000000         	MOV	DWORD [-2180+EBP],0
  1293 0000096C C7 85 FFFFF7BC 00000001         	MOV	DWORD [-2116+EBP],1
  1294 00000976 E8 [00000000]                   	CALL	_timer_init
  1295 0000097B 6A 32                           	PUSH	50
  1296 0000097D FF B5 FFFFF76C                  	PUSH	DWORD [-2196+EBP]
  1297 00000983 E8 [00000000]                   	CALL	_timer_settime
  1298 00000988 8B 95 FFFFF72C                  	MOV	EDX,DWORD [-2260+EBP]
  1299 0000098E 83 C4 1C                        	ADD	ESP,28
  1300 00000991 83 7A 18 00                     	CMP	DWORD [24+EDX],0
  1301 00000995 78 2B                           	JS	L330
  1302 00000997                                 L158:
  1303 00000997 8D 9D FFFFFF74                  	LEA	EBX,DWORD [-140+EBP]
  1304 0000099D E8 [00000000]                   	CALL	_io_cli
  1305 000009A2 53                              	PUSH	EBX
  1306 000009A3 E8 [00000000]                   	CALL	_fifo32_status
  1307 000009A8 59                              	POP	ECX
  1308 000009A9 85 C0                           	TEST	EAX,EAX
  1309 000009AB 0F 85 000010FF                  	JNE	L128
  1310 000009B1 E8 [00000000]                   	CALL	_io_stihlt
  1311 000009B6                                 L125:
  1312 000009B6 8B 85 FFFFF72C                  	MOV	EAX,DWORD [-2260+EBP]
  1313 000009BC 83 78 18 00                     	CMP	DWORD [24+EAX],0
  1314 000009C0 79 D5                           	JNS	L158
  1315 000009C2                                 L330:
  1316 000009C2 6A FF                           	PUSH	-1
  1317 000009C4 FF B5 FFFFF72C                  	PUSH	DWORD [-2260+EBP]
  1318 000009CA E8 [00000000]                   	CALL	_sheet_updown
  1319 000009CF FF B5 FFFFF748                  	PUSH	DWORD [-2232+EBP]
  1320 000009D5 FF B5 FFFFF778                  	PUSH	DWORD [-2184+EBP]
  1321 000009DB E8 000031E0                     	CALL	_open_log
  1322 000009E0 6A 04                           	PUSH	4
  1323 000009E2 68 00000200                     	PUSH	512
  1324 000009E7 50                              	PUSH	EAX
  1325 000009E8 89 85 FFFFF6EC                  	MOV	DWORD [-2324+EBP],EAX
  1326 000009EE E8 [00000000]                   	CALL	_sheet_slide
  1327 000009F3 6A 01                           	PUSH	1
  1328 000009F5 FF B5 FFFFF6EC                  	PUSH	DWORD [-2324+EBP]
  1329 000009FB E8 [00000000]                   	CALL	_sheet_updown
  1330 00000A00 83 C4 24                        	ADD	ESP,36
  1331 00000A03 FF B5 FFFFF748                  	PUSH	DWORD [-2232+EBP]
  1332 00000A09 FF B5 FFFFF778                  	PUSH	DWORD [-2184+EBP]
  1333 00000A0F E8 0000312D                     	CALL	_open_console
  1334 00000A14 6A 04                           	PUSH	4
  1335 00000A16 6A 20                           	PUSH	32
  1336 00000A18 50                              	PUSH	EAX
  1337 00000A19 89 85 FFFFF6EC                  	MOV	DWORD [-2324+EBP],EAX
  1338 00000A1F E8 [00000000]                   	CALL	_sheet_slide
  1339 00000A24 8B 95 FFFFF778                  	MOV	EDX,DWORD [-2184+EBP]
  1340 00000A2A FF 72 10                        	PUSH	DWORD [16+EDX]
  1341 00000A2D FF B5 FFFFF6EC                  	PUSH	DWORD [-2324+EBP]
  1342 00000A33 E8 [00000000]                   	CALL	_sheet_updown
  1343 00000A38 FF B5 FFFFF6EC                  	PUSH	DWORD [-2324+EBP]
  1344 00000A3E E8 0000302A                     	CALL	_keywin_on
  1345 00000A43 83 C4 20                        	ADD	ESP,32
  1346 00000A46 C7 85 FFFFF6DC 00000000         	MOV	DWORD [-2340+EBP],0
  1347 00000A50 C7 85 FFFFF6D8 00000000         	MOV	DWORD [-2344+EBP],0
  1348 00000A5A C7 85 FFFFF6D4 00000000         	MOV	DWORD [-2348+EBP],0
  1349 00000A64                                 L159:
  1350 00000A64 C7 85 FFFFF6D0 00000000         	MOV	DWORD [-2352+EBP],0
  1351 00000A6E 8B 15 [00000000]                	MOV	EDX,DWORD [_taskctl]
  1352 00000A74 31 C0                           	XOR	EAX,EAX
  1353 00000A76 C7 85 FFFFF6CC 00000009         	MOV	DWORD [-2356+EBP],9
  1354 00000A80                                 L166:
  1355 00000A80 8B 4C 02 08                     	MOV	ECX,DWORD [8+EDX+EAX*1]
  1356 00000A84 05 00000198                     	ADD	EAX,408
  1357 00000A89 01 8D FFFFF6D0                  	ADD	DWORD [-2352+EBP],ECX
  1358 00000A8F FF 8D FFFFF6CC                  	DEC	DWORD [-2356+EBP]
  1359 00000A95 79 E9                           	JNS	L166
  1360 00000A97 8D 9D FFFFFF54                  	LEA	EBX,DWORD [-172+EBP]
  1361 00000A9D 53                              	PUSH	EBX
  1362 00000A9E E8 [00000000]                   	CALL	_fifo32_status
  1363 00000AA3 5A                              	POP	EDX
  1364 00000AA4 85 C0                           	TEST	EAX,EAX
  1365 00000AA6 7E 0D                           	JLE	L167
  1366 00000AA8 83 BD FFFFF700 00               	CMP	DWORD [-2304+EBP],0
  1367 00000AAF 0F 88 00000FD5                  	JS	L348
  1368 00000AB5                                 L167:
  1369 00000AB5 8D 9D FFFFFF74                  	LEA	EBX,DWORD [-140+EBP]
  1370 00000ABB E8 [00000000]                   	CALL	_io_cli
  1371 00000AC0 53                              	PUSH	EBX
  1372 00000AC1 E8 [00000000]                   	CALL	_fifo32_status
  1373 00000AC6 5F                              	POP	EDI
  1374 00000AC7 85 C0                           	TEST	EAX,EAX
  1375 00000AC9 0F 84 00000F3A                  	JE	L349
  1376 00000ACF 53                              	PUSH	EBX
  1377 00000AD0 E8 [00000000]                   	CALL	_fifo32_get
  1378 00000AD5 89 85 FFFFF6CC                  	MOV	DWORD [-2356+EBP],EAX
  1379 00000ADB E8 [00000000]                   	CALL	_io_sti
  1380 00000AE0 5B                              	POP	EBX
  1381 00000AE1 83 BD FFFFF6EC 00               	CMP	DWORD [-2324+EBP],0
  1382 00000AE8 74 3B                           	JE	L174
  1383 00000AEA 8B 85 FFFFF6EC                  	MOV	EAX,DWORD [-2324+EBP]
  1384 00000AF0 83 78 1C 00                     	CMP	DWORD [28+EAX],0
  1385 00000AF4 75 2F                           	JNE	L174
  1386 00000AF6 8B 95 FFFFF778                  	MOV	EDX,DWORD [-2184+EBP]
  1387 00000AFC C7 85 FFFFF6EC 00000000         	MOV	DWORD [-2324+EBP],0
  1388 00000B06 8B 42 10                        	MOV	EAX,DWORD [16+EDX]
  1389 00000B09 83 F8 01                        	CMP	EAX,1
  1390 00000B0C 74 17                           	JE	L174
  1391 00000B0E 8B 8D FFFFF778                  	MOV	ECX,DWORD [-2184+EBP]
  1392 00000B14 8B 44 81 10                     	MOV	EAX,DWORD [16+ECX+EAX*4]
  1393 00000B18 50                              	PUSH	EAX
  1394 00000B19 89 85 FFFFF6EC                  	MOV	DWORD [-2324+EBP],EAX
  1395 00000B1F E8 00002F49                     	CALL	_keywin_on
  1396 00000B24 59                              	POP	ECX
  1397 00000B25                                 L174:
  1398 00000B25 83 BD FFFFF6CC 01               	CMP	DWORD [-2356+EBP],1
  1399 00000B2C 0F 84 00000DE1                  	JE	L350
  1400 00000B32                                 L177:
  1401 00000B32 8B 85 FFFFF6CC                  	MOV	EAX,DWORD [-2356+EBP]
  1402 00000B38 2D 00000100                     	SUB	EAX,256
  1403 00000B3D 3D 000000FF                     	CMP	EAX,255
  1404 00000B42 0F 87 000004EA                  	JA	L184
  1405 00000B48 81 BD FFFFF6CC 0000017F         	CMP	DWORD [-2356+EBP],383
  1406 00000B52 0F 8F 000004D1                  	JG	L185
  1407 00000B58 83 BD FFFFF708 00               	CMP	DWORD [-2296+EBP],0
  1408 00000B5F 0F 85 000004B3                  	JNE	L186
  1409 00000B65 8B 95 FFFFF6CC                  	MOV	EDX,DWORD [-2356+EBP]
  1410 00000B6B 8A 82 [FFFFFF00]                	MOV	AL,BYTE [_keytable0.0-256+EDX]
  1411 00000B71                                 L345:
  1412 00000B71 88 45 C4                        	MOV	BYTE [-60+EBP],AL
  1413 00000B74                                 L188:
  1414 00000B74 8A 55 C4                        	MOV	DL,BYTE [-60+EBP]
  1415 00000B77 8D 42 BF                        	LEA	EAX,DWORD [-65+EDX]
  1416 00000B7A 3C 19                           	CMP	AL,25
  1417 00000B7C 77 1D                           	JA	L189
  1418 00000B7E F7 85 FFFFF704 00000004         	TEST	DWORD [-2300+EBP],4
  1419 00000B88 0F 85 0000047B                  	JNE	L342
  1420 00000B8E 83 BD FFFFF708 00               	CMP	DWORD [-2296+EBP],0
  1421 00000B95 0F 84 00000463                  	JE	L191
  1422 00000B9B                                 L189:
  1423 00000B9B 8A 45 C4                        	MOV	AL,BYTE [-60+EBP]
  1424 00000B9E 84 C0                           	TEST	AL,AL
  1425 00000BA0 74 26                           	JE	L193
  1426 00000BA2 83 BD FFFFF6EC 00               	CMP	DWORD [-2324+EBP],0
  1427 00000BA9 74 1D                           	JE	L193
  1428 00000BAB 0F BE C0                        	MOVSX	EAX,AL
  1429 00000BAE 8B 95 FFFFF6EC                  	MOV	EDX,DWORD [-2324+EBP]
  1430 00000BB4 05 00000100                     	ADD	EAX,256
  1431 00000BB9 50                              	PUSH	EAX
  1432 00000BBA 8B 42 24                        	MOV	EAX,DWORD [36+EDX]
  1433 00000BBD 83 C0 10                        	ADD	EAX,16
  1434 00000BC0 50                              	PUSH	EAX
  1435 00000BC1 E8 [00000000]                   	CALL	_fifo32_put
  1436 00000BC6 58                              	POP	EAX
  1437 00000BC7 5A                              	POP	EDX
  1438 00000BC8                                 L193:
  1439 00000BC8 81 BD FFFFF6CC 0000010F         	CMP	DWORD [-2356+EBP],271
  1440 00000BD2 0F 84 000003DB                  	JE	L351
  1441 00000BD8                                 L194:
  1442 00000BD8 81 BD FFFFF6CC 0000012A         	CMP	DWORD [-2356+EBP],298
  1443 00000BE2 0F 84 000003BF                  	JE	L352
  1444 00000BE8                                 L196:
  1445 00000BE8 81 BD FFFFF6CC 00000136         	CMP	DWORD [-2356+EBP],310
  1446 00000BF2 0F 84 000003A3                  	JE	L353
  1447 00000BF8                                 L197:
  1448 00000BF8 81 BD FFFFF6CC 000001AA         	CMP	DWORD [-2356+EBP],426
  1449 00000C02 0F 84 00000387                  	JE	L354
  1450 00000C08                                 L198:
  1451 00000C08 81 BD FFFFF6CC 000001B6         	CMP	DWORD [-2356+EBP],438
  1452 00000C12 0F 84 0000036B                  	JE	L355
  1453 00000C18                                 L199:
  1454 00000C18 81 BD FFFFF6CC 0000013A         	CMP	DWORD [-2356+EBP],314
  1455 00000C22 0F 84 0000032F                  	JE	L356
  1456 00000C28                                 L200:
  1457 00000C28 81 BD FFFFF6CC 00000145         	CMP	DWORD [-2356+EBP],325
  1458 00000C32 0F 84 000002F3                  	JE	L357
  1459 00000C38                                 L201:
  1460 00000C38 81 BD FFFFF6CC 00000146         	CMP	DWORD [-2356+EBP],326
  1461 00000C42 0F 84 000002B7                  	JE	L358
  1462 00000C48                                 L202:
  1463 00000C48 81 BD FFFFF6CC 0000013B         	CMP	DWORD [-2356+EBP],315
  1464 00000C52 0F 84 00000233                  	JE	L359
  1465 00000C58                                 L203:
  1466 00000C58 81 BD FFFFF6CC 0000013C         	CMP	DWORD [-2356+EBP],316
  1467 00000C62 0F 84 000001B3                  	JE	L360
  1468 00000C68                                 L205:
  1469 00000C68 81 BD FFFFF6CC 0000013D         	CMP	DWORD [-2356+EBP],317
  1470 00000C72 0F 84 00000142                  	JE	L361
  1471 00000C78                                 L207:
  1472 00000C78 81 BD FFFFF6CC 00000157         	CMP	DWORD [-2356+EBP],343
  1473 00000C82 0F 84 00000118                  	JE	L362
  1474 00000C88                                 L208:
  1475 00000C88 81 BD FFFFF6CC 000001FA         	CMP	DWORD [-2356+EBP],506
  1476 00000C92 0F 84 000000F9                  	JE	L363
  1477 00000C98                                 L209:
  1478 00000C98 81 BD FFFFF6CC 000001FE         	CMP	DWORD [-2356+EBP],510
  1479 00000CA2 0F 84 000000D0                  	JE	L364
  1480 00000CA8                                 L211:
  1481 00000CA8 8D 5D C4                        	LEA	EBX,DWORD [-60+EBP]
  1482 00000CAB E8 [00000000]                   	CALL	_get_day_of_month
  1483 00000CB0 50                              	PUSH	EAX
  1484 00000CB1 E8 [00000000]                   	CALL	_get_mon_hex
  1485 00000CB6 50                              	PUSH	EAX
  1486 00000CB7 E8 [00000000]                   	CALL	_get_year
  1487 00000CBC 50                              	PUSH	EAX
  1488 00000CBD 68 [0000053D]                   	PUSH	LC20
  1489 00000CC2 53                              	PUSH	EBX
  1490 00000CC3 E8 [00000000]                   	CALL	_sprintf
  1491 00000CC8 6A 0F                           	PUSH	15
  1492 00000CCA 53                              	PUSH	EBX
  1493 00000CCB 6A 08                           	PUSH	8
  1494 00000CCD 6A 00                           	PUSH	0
  1495 00000CCF 0F BF 05 00000FF6               	MOVSX	EAX,WORD [4086]
  1496 00000CD6 83 E8 14                        	SUB	EAX,20
  1497 00000CD9 50                              	PUSH	EAX
  1498 00000CDA 0F BF 05 00000FF4               	MOVSX	EAX,WORD [4084]
  1499 00000CE1 2D 000000B4                     	SUB	EAX,180
  1500 00000CE6 50                              	PUSH	EAX
  1501 00000CE7 FF B5 FFFFF738                  	PUSH	DWORD [-2248+EBP]
  1502 00000CED E8 [00000000]                   	CALL	_putfonts8_asc_sht
  1503 00000CF2 83 C4 30                        	ADD	ESP,48
  1504 00000CF5 E8 [00000000]                   	CALL	_get_min_hex
  1505 00000CFA 50                              	PUSH	EAX
  1506 00000CFB E8 [00000000]                   	CALL	_get_hour_hex
  1507 00000D00 50                              	PUSH	EAX
  1508 00000D01 68 [0000054C]                   	PUSH	LC21
  1509 00000D06 53                              	PUSH	EBX
  1510 00000D07 E8 [00000000]                   	CALL	_sprintf
  1511 00000D0C 6A 05                           	PUSH	5
  1512 00000D0E 53                              	PUSH	EBX
  1513 00000D0F 6A 08                           	PUSH	8
  1514 00000D11 6A 00                           	PUSH	0
  1515 00000D13 0F BF 05 00000FF6               	MOVSX	EAX,WORD [4086]
  1516 00000D1A 83 E8 14                        	SUB	EAX,20
  1517 00000D1D 50                              	PUSH	EAX
  1518 00000D1E 0F BF 05 00000FF4               	MOVSX	EAX,WORD [4084]
  1519 00000D25 83 E8 2D                        	SUB	EAX,45
  1520 00000D28 50                              	PUSH	EAX
  1521 00000D29 FF B5 FFFFF738                  	PUSH	DWORD [-2248+EBP]
  1522 00000D2F E8 [00000000]                   	CALL	_putfonts8_asc_sht
  1523 00000D34 83 C4 2C                        	ADD	ESP,44
  1524 00000D37 0F BF 05 00000FF6               	MOVSX	EAX,WORD [4086]
  1525 00000D3E 83 E8 22                        	SUB	EAX,34
  1526 00000D41 50                              	PUSH	EAX
  1527 00000D42 0F BF 05 00000FF4               	MOVSX	EAX,WORD [4084]
  1528 00000D49 83 E8 05                        	SUB	EAX,5
  1529 00000D4C 50                              	PUSH	EAX
  1530 00000D4D 0F BF 05 00000FF6               	MOVSX	EAX,WORD [4086]
  1531 00000D54 83 E8 14                        	SUB	EAX,20
  1532 00000D57 50                              	PUSH	EAX
  1533 00000D58 0F BF 05 00000FF4               	MOVSX	EAX,WORD [4084]
  1534 00000D5F 2D 00000082                     	SUB	EAX,130
  1535 00000D64 50                              	PUSH	EAX
  1536 00000D65 FF B5 FFFFF738                  	PUSH	DWORD [-2248+EBP]
  1537 00000D6B E8 [00000000]                   	CALL	_sheet_refresh
  1538 00000D70 83 C4 14                        	ADD	ESP,20
  1539 00000D73 E9 FFFFFCEC                     	JMP	L159
  1540 00000D78                                 L364:
  1541 00000D78 E8 [00000000]                   	CALL	_wait_KBC_sendready
  1542 00000D7D FF B5 FFFFF700                  	PUSH	DWORD [-2304+EBP]
  1543 00000D83 6A 60                           	PUSH	96
  1544 00000D85 E8 [00000000]                   	CALL	_io_out8
  1545 00000D8A 58                              	POP	EAX
  1546 00000D8B 5A                              	POP	EDX
  1547 00000D8C E9 FFFFFF17                     	JMP	L211
  1548 00000D91                                 L363:
  1549 00000D91 C7 85 FFFFF700 FFFFFFFF         	MOV	DWORD [-2304+EBP],-1
  1550 00000D9B E9 FFFFFEF8                     	JMP	L209
  1551 00000DA0                                 L362:
  1552 00000DA0 8B 95 FFFFF778                  	MOV	EDX,DWORD [-2184+EBP]
  1553 00000DA6 8B 42 10                        	MOV	EAX,DWORD [16+EDX]
  1554 00000DA9 48                              	DEC	EAX
  1555 00000DAA 50                              	PUSH	EAX
  1556 00000DAB FF 72 18                        	PUSH	DWORD [24+EDX]
  1557 00000DAE E8 [00000000]                   	CALL	_sheet_updown
  1558 00000DB3 59                              	POP	ECX
  1559 00000DB4 5B                              	POP	EBX
  1560 00000DB5 E9 FFFFFECE                     	JMP	L208
  1561 00000DBA                                 L361:
  1562 00000DBA 83 BD FFFFF708 00               	CMP	DWORD [-2296+EBP],0
  1563 00000DC1 0F 84 FFFFFEB1                  	JE	L207
  1564 00000DC7 FC                              	CLD
  1565 00000DC8 31 C0                           	XOR	EAX,EAX
  1566 00000DCA 8D BD FFFFF784                  	LEA	EDI,DWORD [-2172+EBP]
  1567 00000DD0 B9 00000015                     	MOV	ECX,21
  1568 00000DD5 8D 9D FFFFF784                  	LEA	EBX,DWORD [-2172+EBP]
  1569 00000DDB F3                              	REP
  1570 00000DDC AA                              	STOSB
  1571 00000DDD 8B 85 FFFFF6EC                  	MOV	EAX,DWORD [-2324+EBP]
  1572 00000DE3 8B 70 24                        	MOV	ESI,DWORD [36+EAX]
  1573 00000DE6 FF B5 FFFFF6D0                  	PUSH	DWORD [-2352+EBP]
  1574 00000DEC 68 [00000552]                   	PUSH	LC17
  1575 00000DF1 53                              	PUSH	EBX
  1576 00000DF2 E8 [00000000]                   	CALL	_sprintf
  1577 00000DF7 68 [00000555]                   	PUSH	LC18
  1578 00000DFC FF B6 000000A4                  	PUSH	DWORD [164+ESI]
  1579 00000E02 E8 [00000000]                   	CALL	_cons_putstr0
  1580 00000E07 53                              	PUSH	EBX
  1581 00000E08 FF B6 000000A4                  	PUSH	DWORD [164+ESI]
  1582 00000E0E E8 [00000000]                   	CALL	_cons_putstr0
  1583 00000E13 83 C4 1C                        	ADD	ESP,28
  1584 00000E16 E9 FFFFFE5D                     	JMP	L207
  1585 00000E1B                                 L360:
  1586 00000E1B 83 BD FFFFF708 00               	CMP	DWORD [-2296+EBP],0
  1587 00000E22 0F 84 FFFFFE40                  	JE	L205
  1588 00000E28 83 BD FFFFF6EC 00               	CMP	DWORD [-2324+EBP],0
  1589 00000E2F 74 0C                           	JE	L206
  1590 00000E31 FF B5 FFFFF6EC                  	PUSH	DWORD [-2324+EBP]
  1591 00000E37 E8 00002C03                     	CALL	_keywin_off
  1592 00000E3C 5E                              	POP	ESI
  1593 00000E3D                                 L206:
  1594 00000E3D FF B5 FFFFF748                  	PUSH	DWORD [-2232+EBP]
  1595 00000E43 FF B5 FFFFF778                  	PUSH	DWORD [-2184+EBP]
  1596 00000E49 E8 00002CF3                     	CALL	_open_console
  1597 00000E4E 6A 04                           	PUSH	4
  1598 00000E50 6A 20                           	PUSH	32
  1599 00000E52 50                              	PUSH	EAX
  1600 00000E53 89 85 FFFFF6EC                  	MOV	DWORD [-2324+EBP],EAX
  1601 00000E59 E8 [00000000]                   	CALL	_sheet_slide
  1602 00000E5E 8B 8D FFFFF778                  	MOV	ECX,DWORD [-2184+EBP]
  1603 00000E64 FF 71 10                        	PUSH	DWORD [16+ECX]
  1604 00000E67 FF B5 FFFFF6EC                  	PUSH	DWORD [-2324+EBP]
  1605 00000E6D E8 [00000000]                   	CALL	_sheet_updown
  1606 00000E72 FF B5 FFFFF6EC                  	PUSH	DWORD [-2324+EBP]
  1607 00000E78 E8 00002BF0                     	CALL	_keywin_on
  1608 00000E7D 83 C4 20                        	ADD	ESP,32
  1609 00000E80 FF 85 FFFFF6D0                  	INC	DWORD [-2352+EBP]
  1610 00000E86 E9 FFFFFDDD                     	JMP	L205
  1611 00000E8B                                 L359:
  1612 00000E8B 83 BD FFFFF708 00               	CMP	DWORD [-2296+EBP],0
  1613 00000E92 0F 84 FFFFFDC0                  	JE	L203
  1614 00000E98 83 BD FFFFF6EC 00               	CMP	DWORD [-2324+EBP],0
  1615 00000E9F 0F 84 FFFFFDB3                  	JE	L203
  1616 00000EA5 8B 95 FFFFF6EC                  	MOV	EDX,DWORD [-2324+EBP]
  1617 00000EAB 8B 72 24                        	MOV	ESI,DWORD [36+EDX]
  1618 00000EAE 85 F6                           	TEST	ESI,ESI
  1619 00000EB0 0F 84 FFFFFDA2                  	JE	L203
  1620 00000EB6 83 7E 34 00                     	CMP	DWORD [52+ESI],0
  1621 00000EBA 0F 84 FFFFFD98                  	JE	L203
  1622 00000EC0 68 [00000567]                   	PUSH	LC16
  1623 00000EC5 FF B6 000000A4                  	PUSH	DWORD [164+ESI]
  1624 00000ECB E8 [00000000]                   	CALL	_cons_putstr0
  1625 00000ED0 E8 [00000000]                   	CALL	_io_cli
  1626 00000ED5 8D 46 30                        	LEA	EAX,DWORD [48+ESI]
  1627 00000ED8 89 46 54                        	MOV	DWORD [84+ESI],EAX
  1628 00000EDB C7 46 4C [00000000]             	MOV	DWORD [76+ESI],_asm_end_app
  1629 00000EE2 E8 [00000000]                   	CALL	_io_sti
  1630 00000EE7 6A 00                           	PUSH	0
  1631 00000EE9 6A FF                           	PUSH	-1
  1632 00000EEB 56                              	PUSH	ESI
  1633 00000EEC E8 [00000000]                   	CALL	_task_run
  1634 00000EF1 83 C4 14                        	ADD	ESP,20
  1635 00000EF4 FF 8D FFFFF6D0                  	DEC	DWORD [-2352+EBP]
  1636 00000EFA E9 FFFFFD59                     	JMP	L203
  1637 00000EFF                                 L358:
  1638 00000EFF 68 000000ED                     	PUSH	237
  1639 00000F04 8D 9D FFFFFF54                  	LEA	EBX,DWORD [-172+EBP]
  1640 00000F0A 53                              	PUSH	EBX
  1641 00000F0B 83 B5 FFFFF704 01               	XOR	DWORD [-2300+EBP],1
  1642 00000F12 E8 [00000000]                   	CALL	_fifo32_put
  1643 00000F17 FF B5 FFFFF704                  	PUSH	DWORD [-2300+EBP]
  1644 00000F1D 53                              	PUSH	EBX
  1645 00000F1E E8 [00000000]                   	CALL	_fifo32_put
  1646 00000F23 83 C4 10                        	ADD	ESP,16
  1647 00000F26 E9 FFFFFD1D                     	JMP	L202
  1648 00000F2B                                 L357:
  1649 00000F2B 68 000000ED                     	PUSH	237
  1650 00000F30 8D 9D FFFFFF54                  	LEA	EBX,DWORD [-172+EBP]
  1651 00000F36 53                              	PUSH	EBX
  1652 00000F37 83 B5 FFFFF704 02               	XOR	DWORD [-2300+EBP],2
  1653 00000F3E E8 [00000000]                   	CALL	_fifo32_put
  1654 00000F43 FF B5 FFFFF704                  	PUSH	DWORD [-2300+EBP]
  1655 00000F49 53                              	PUSH	EBX
  1656 00000F4A E8 [00000000]                   	CALL	_fifo32_put
  1657 00000F4F 83 C4 10                        	ADD	ESP,16
  1658 00000F52 E9 FFFFFCE1                     	JMP	L201
  1659 00000F57                                 L356:
  1660 00000F57 68 000000ED                     	PUSH	237
  1661 00000F5C 8D 9D FFFFFF54                  	LEA	EBX,DWORD [-172+EBP]
  1662 00000F62 53                              	PUSH	EBX
  1663 00000F63 83 B5 FFFFF704 04               	XOR	DWORD [-2300+EBP],4
  1664 00000F6A E8 [00000000]                   	CALL	_fifo32_put
  1665 00000F6F FF B5 FFFFF704                  	PUSH	DWORD [-2300+EBP]
  1666 00000F75 53                              	PUSH	EBX
  1667 00000F76 E8 [00000000]                   	CALL	_fifo32_put
  1668 00000F7B 83 C4 10                        	ADD	ESP,16
  1669 00000F7E E9 FFFFFCA5                     	JMP	L200
  1670 00000F83                                 L355:
  1671 00000F83 83 A5 FFFFF708 FD               	AND	DWORD [-2296+EBP],-3
  1672 00000F8A E9 FFFFFC89                     	JMP	L199
  1673 00000F8F                                 L354:
  1674 00000F8F 83 A5 FFFFF708 FE               	AND	DWORD [-2296+EBP],-2
  1675 00000F96 E9 FFFFFC6D                     	JMP	L198
  1676 00000F9B                                 L353:
  1677 00000F9B 83 8D FFFFF708 02               	OR	DWORD [-2296+EBP],2
  1678 00000FA2 E9 FFFFFC51                     	JMP	L197
  1679 00000FA7                                 L352:
  1680 00000FA7 83 8D FFFFF708 01               	OR	DWORD [-2296+EBP],1
  1681 00000FAE E9 FFFFFC35                     	JMP	L196
  1682 00000FB3                                 L351:
  1683 00000FB3 83 BD FFFFF6EC 00               	CMP	DWORD [-2324+EBP],0
  1684 00000FBA 0F 84 FFFFFC18                  	JE	L194
  1685 00000FC0 FF B5 FFFFF6EC                  	PUSH	DWORD [-2324+EBP]
  1686 00000FC6 E8 00002A74                     	CALL	_keywin_off
  1687 00000FCB 58                              	POP	EAX
  1688 00000FCC 8B 85 FFFFF6EC                  	MOV	EAX,DWORD [-2324+EBP]
  1689 00000FD2 8B 48 18                        	MOV	ECX,DWORD [24+EAX]
  1690 00000FD5 49                              	DEC	ECX
  1691 00000FD6 75 0A                           	JNE	L195
  1692 00000FD8 8B 95 FFFFF778                  	MOV	EDX,DWORD [-2184+EBP]
  1693 00000FDE 8B 4A 10                        	MOV	ECX,DWORD [16+EDX]
  1694 00000FE1 49                              	DEC	ECX
  1695 00000FE2                                 L195:
  1696 00000FE2 8B 85 FFFFF778                  	MOV	EAX,DWORD [-2184+EBP]
  1697 00000FE8 8B 4C 88 14                     	MOV	ECX,DWORD [20+EAX+ECX*4]
  1698 00000FEC 51                              	PUSH	ECX
  1699 00000FED 89 8D FFFFF6EC                  	MOV	DWORD [-2324+EBP],ECX
  1700 00000FF3 E8 00002A75                     	CALL	_keywin_on
  1701 00000FF8 5F                              	POP	EDI
  1702 00000FF9 E9 FFFFFBDA                     	JMP	L194
  1703 00000FFE                                 L191:
  1704 00000FFE 8D 42 20                        	LEA	EAX,DWORD [32+EDX]
  1705 00001001 88 45 C4                        	MOV	BYTE [-60+EBP],AL
  1706 00001004 E9 FFFFFB92                     	JMP	L189
  1707 00001009                                 L342:
  1708 00001009 83 BD FFFFF708 00               	CMP	DWORD [-2296+EBP],0
  1709 00001010 0F 84 FFFFFB85                  	JE	L189
  1710 00001016 EB E6                           	JMP	L191
  1711 00001018                                 L186:
  1712 00001018 8B 8D FFFFF6CC                  	MOV	ECX,DWORD [-2356+EBP]
  1713 0000101E 8A 81 [FFFFFF80]                	MOV	AL,BYTE [_keytable1.1-256+ECX]
  1714 00001024 E9 FFFFFB48                     	JMP	L345
  1715 00001029                                 L185:
  1716 00001029 C6 45 C4 00                     	MOV	BYTE [-60+EBP],0
  1717 0000102D E9 FFFFFB42                     	JMP	L188
  1718 00001032                                 L184:
  1719 00001032 8B 85 FFFFF6CC                  	MOV	EAX,DWORD [-2356+EBP]
  1720 00001038 2D 00000200                     	SUB	EAX,512
  1721 0000103D 3D 000000FF                     	CMP	EAX,255
  1722 00001042 0F 87 00000814                  	JA	L212
  1723 00001048 0F B6 85 FFFFF6CC               	MOVZX	EAX,BYTE [-2356+EBP]
  1724 0000104F 50                              	PUSH	EAX
  1725 00001050 8D 85 FFFFFCC4                  	LEA	EAX,DWORD [-828+EBP]
  1726 00001056 50                              	PUSH	EAX
  1727 00001057 E8 [00000000]                   	CALL	_mouse_decode
  1728 0000105C 5E                              	POP	ESI
  1729 0000105D 5F                              	POP	EDI
  1730 0000105E 85 C0                           	TEST	EAX,EAX
  1731 00001060 0F 84 FFFFFC42                  	JE	L211
  1732 00001066 8B 8D FFFFFCCC                  	MOV	ECX,DWORD [-820+EBP]
  1733 0000106C 8B 85 FFFFFCC8                  	MOV	EAX,DWORD [-824+EBP]
  1734 00001072 01 8D FFFFF760                  	ADD	DWORD [-2208+EBP],ECX
  1735 00001078 01 85 FFFFF764                  	ADD	DWORD [-2204+EBP],EAX
  1736 0000107E 0F 88 000007C9                  	JS	L365
  1737 00001084                                 L214:
  1738 00001084 83 BD FFFFF760 00               	CMP	DWORD [-2208+EBP],0
  1739 0000108B 0F 88 000007AD                  	JS	L366
  1740 00001091                                 L215:
  1741 00001091 0F BF 05 00000FF4               	MOVSX	EAX,WORD [4084]
  1742 00001098 48                              	DEC	EAX
  1743 00001099 39 85 FFFFF764                  	CMP	DWORD [-2204+EBP],EAX
  1744 0000109F 7E 06                           	JLE	L216
  1745 000010A1 89 85 FFFFF764                  	MOV	DWORD [-2204+EBP],EAX
  1746 000010A7                                 L216:
  1747 000010A7 0F BF 05 00000FF6               	MOVSX	EAX,WORD [4086]
  1748 000010AE 48                              	DEC	EAX
  1749 000010AF 39 85 FFFFF760                  	CMP	DWORD [-2208+EBP],EAX
  1750 000010B5 7E 06                           	JLE	L217
  1751 000010B7 89 85 FFFFF760                  	MOV	DWORD [-2208+EBP],EAX
  1752 000010BD                                 L217:
  1753 000010BD 8B 95 FFFFF764                  	MOV	EDX,DWORD [-2204+EBP]
  1754 000010C3 8B 8D FFFFF760                  	MOV	ECX,DWORD [-2208+EBP]
  1755 000010C9 89 95 FFFFF75C                  	MOV	DWORD [-2212+EBP],EDX
  1756 000010CF 89 8D FFFFF758                  	MOV	DWORD [-2216+EBP],ECX
  1757 000010D5 F7 85 FFFFFCD0 00000001         	TEST	DWORD [-816+EBP],1
  1758 000010DF 0F 84 00000716                  	JE	L218
  1759 000010E5 89 D0                           	MOV	EAX,EDX
  1760 000010E7 83 E8 03                        	SUB	EAX,3
  1761 000010EA 83 F8 38                        	CMP	EAX,56
  1762 000010ED 77 5C                           	JA	L219
  1763 000010EF 81 F9 000002EB                  	CMP	ECX,747
  1764 000010F5 7E 54                           	JLE	L219
  1765 000010F7 81 F9 000002FF                  	CMP	ECX,767
  1766 000010FD 7F 4C                           	JG	L219
  1767 000010FF 8B 95 FFFFF71C                  	MOV	EDX,DWORD [-2276+EBP]
  1768 00001105 8B 42 1C                        	MOV	EAX,DWORD [28+EDX]
  1769 00001108 F7 D8                           	NEG	EAX
  1770 0000110A 89 42 1C                        	MOV	DWORD [28+EDX],EAX
  1771 0000110D 48                              	DEC	EAX
  1772 0000110E 0F 84 000006D8                  	JE	L367
  1773 00001114 6A FF                           	PUSH	-1
  1774 00001116 FF B5 FFFFF71C                  	PUSH	DWORD [-2276+EBP]
  1775 0000111C E8 [00000000]                   	CALL	_sheet_updown
  1776 00001121 6A FF                           	PUSH	-1
  1777 00001123 FF B5 FFFFFBA4                  	PUSH	DWORD [-1116+EBP]
  1778 00001129 E8 [00000000]                   	CALL	_sheet_updown
  1779 0000112E 6A FF                           	PUSH	-1
  1780 00001130 FF B5 FFFFFBA8                  	PUSH	DWORD [-1112+EBP]
  1781 00001136 E8 [00000000]                   	CALL	_sheet_updown
  1782 0000113B 6A FF                           	PUSH	-1
  1783 0000113D FF B5 FFFFFBAC                  	PUSH	DWORD [-1108+EBP]
  1784 00001143 E8 [00000000]                   	CALL	_sheet_updown
  1785 00001148 83 C4 20                        	ADD	ESP,32
  1786 0000114B                                 L219:
  1787 0000114B 83 BD FFFFF6FC 00               	CMP	DWORD [-2308+EBP],0
  1788 00001152 78 46                           	JS	L368
  1789 00001154 8B B5 FFFFF764                  	MOV	ESI,DWORD [-2204+EBP]
  1790 0000115A 8B 85 FFFFF6F4                  	MOV	EAX,DWORD [-2316+EBP]
  1791 00001160 2B B5 FFFFF6FC                  	SUB	ESI,DWORD [-2308+EBP]
  1792 00001166 8B 9D FFFFF760                  	MOV	EBX,DWORD [-2208+EBP]
  1793 0000116C 2B 9D FFFFF6F8                  	SUB	EBX,DWORD [-2312+EBP]
  1794 00001172 8B 95 FFFFF760                  	MOV	EDX,DWORD [-2208+EBP]
  1795 00001178 8D 74 06 02                     	LEA	ESI,DWORD [2+ESI+EAX*1]
  1796 0000117C 89 95 FFFFF6F8                  	MOV	DWORD [-2312+EBP],EDX
  1797 00001182 89 B5 FFFFF754                  	MOV	DWORD [-2220+EBP],ESI
  1798 00001188 01 9D FFFFF750                  	ADD	DWORD [-2224+EBP],EBX
  1799 0000118E 83 A5 FFFFF754 FC               	AND	DWORD [-2220+EBP],-4
  1800 00001195 E9 FFFFFB0E                     	JMP	L211
  1801 0000119A                                 L368:
  1802 0000119A 8B 8D FFFFF778                  	MOV	ECX,DWORD [-2184+EBP]
  1803 000011A0 8B 79 10                        	MOV	EDI,DWORD [16+ECX]
  1804 000011A3 8D 4F FF                        	LEA	ECX,DWORD [-1+EDI]
  1805 000011A6 85 C9                           	TEST	ECX,ECX
  1806 000011A8 0F 8E FFFFFAFA                  	JLE	L211
  1807 000011AE                                 L286:
  1808 000011AE 8B 85 FFFFF778                  	MOV	EAX,DWORD [-2184+EBP]
  1809 000011B4 8B 9D FFFFF760                  	MOV	EBX,DWORD [-2208+EBP]
  1810 000011BA 8B B5 FFFFF764                  	MOV	ESI,DWORD [-2204+EBP]
  1811 000011C0 8B 44 88 14                     	MOV	EAX,DWORD [20+EAX+ECX*4]
  1812 000011C4 89 85 FFFFF6F0                  	MOV	DWORD [-2320+EBP],EAX
  1813 000011CA 2B 58 10                        	SUB	EBX,DWORD [16+EAX]
  1814 000011CD 2B 70 0C                        	SUB	ESI,DWORD [12+EAX]
  1815 000011D0 78 38                           	JS	L225
  1816 000011D2 8B 40 04                        	MOV	EAX,DWORD [4+EAX]
  1817 000011D5 39 C6                           	CMP	ESI,EAX
  1818 000011D7 7D 31                           	JGE	L225
  1819 000011D9 85 DB                           	TEST	EBX,EBX
  1820 000011DB 78 2D                           	JS	L225
  1821 000011DD 8B 95 FFFFF6F0                  	MOV	EDX,DWORD [-2320+EBP]
  1822 000011E3 3B 5A 08                        	CMP	EBX,DWORD [8+EDX]
  1823 000011E6 7D 22                           	JGE	L225
  1824 000011E8 0F AF C3                        	IMUL	EAX,EBX
  1825 000011EB 89 85 FFFFF6C8                  	MOV	DWORD [-2360+EBP],EAX
  1826 000011F1 8B 12                           	MOV	EDX,DWORD [EDX]
  1827 000011F3 8B 85 FFFFF6C8                  	MOV	EAX,DWORD [-2360+EBP]
  1828 000011F9 01 F0                           	ADD	EAX,ESI
  1829 000011FB 0F B6 04 10                     	MOVZX	EAX,BYTE [EAX+EDX*1]
  1830 000011FF 8B 95 FFFFF6F0                  	MOV	EDX,DWORD [-2320+EBP]
  1831 00001205 3B 42 14                        	CMP	EAX,DWORD [20+EDX]
  1832 00001208 75 0A                           	JNE	L369
  1833 0000120A                                 L225:
  1834 0000120A 49                              	DEC	ECX
  1835 0000120B 85 C9                           	TEST	ECX,ECX
  1836 0000120D 7F 9F                           	JG	L286
  1837 0000120F E9 FFFFFA94                     	JMP	L211
  1838 00001214                                 L369:
  1839 00001214 8D 47 FF                        	LEA	EAX,DWORD [-1+EDI]
  1840 00001217 50                              	PUSH	EAX
  1841 00001218 52                              	PUSH	EDX
  1842 00001219 E8 [00000000]                   	CALL	_sheet_updown
  1843 0000121E 8B 8D FFFFF6EC                  	MOV	ECX,DWORD [-2324+EBP]
  1844 00001224 58                              	POP	EAX
  1845 00001225 39 8D FFFFF6F0                  	CMP	DWORD [-2320+EBP],ECX
  1846 0000122B 5A                              	POP	EDX
  1847 0000122C 74 1A                           	JE	L229
  1848 0000122E 51                              	PUSH	ECX
  1849 0000122F E8 0000280B                     	CALL	_keywin_off
  1850 00001234 8B 85 FFFFF6F0                  	MOV	EAX,DWORD [-2320+EBP]
  1851 0000123A 50                              	PUSH	EAX
  1852 0000123B 89 85 FFFFF6EC                  	MOV	DWORD [-2324+EBP],EAX
  1853 00001241 E8 00002827                     	CALL	_keywin_on
  1854 00001246 5F                              	POP	EDI
  1855 00001247 58                              	POP	EAX
  1856 00001248                                 L229:
  1857 00001248 83 FE 02                        	CMP	ESI,2
  1858 0000124B 7E 4A                           	JLE	L230
  1859 0000124D 8B 95 FFFFF6F0                  	MOV	EDX,DWORD [-2320+EBP]
  1860 00001253 8B 42 04                        	MOV	EAX,DWORD [4+EDX]
  1861 00001256 83 E8 03                        	SUB	EAX,3
  1862 00001259 39 C6                           	CMP	ESI,EAX
  1863 0000125B 7D 3A                           	JGE	L230
  1864 0000125D 83 FB 02                        	CMP	EBX,2
  1865 00001260 7E 35                           	JLE	L230
  1866 00001262 83 FB 14                        	CMP	EBX,20
  1867 00001265 7F 30                           	JG	L230
  1868 00001267 8B 8D FFFFF764                  	MOV	ECX,DWORD [-2204+EBP]
  1869 0000126D 8B 85 FFFFF760                  	MOV	EAX,DWORD [-2208+EBP]
  1870 00001273 89 8D FFFFF6FC                  	MOV	DWORD [-2308+EBP],ECX
  1871 00001279 8B 52 0C                        	MOV	EDX,DWORD [12+EDX]
  1872 0000127C 8B 8D FFFFF6F0                  	MOV	ECX,DWORD [-2320+EBP]
  1873 00001282 89 85 FFFFF6F8                  	MOV	DWORD [-2312+EBP],EAX
  1874 00001288 89 95 FFFFF6F4                  	MOV	DWORD [-2316+EBP],EDX
  1875 0000128E 8B 49 10                        	MOV	ECX,DWORD [16+ECX]
  1876 00001291 89 8D FFFFF750                  	MOV	DWORD [-2224+EBP],ECX
  1877 00001297                                 L230:
  1878 00001297 8B 85 FFFFF6F0                  	MOV	EAX,DWORD [-2320+EBP]
  1879 0000129D 8B 50 04                        	MOV	EDX,DWORD [4+EAX]
  1880 000012A0 8D 42 EB                        	LEA	EAX,DWORD [-21+EDX]
  1881 000012A3 39 F0                           	CMP	EAX,ESI
  1882 000012A5 7F 58                           	JG	L231
  1883 000012A7 8D 42 FB                        	LEA	EAX,DWORD [-5+EDX]
  1884 000012AA 39 C6                           	CMP	ESI,EAX
  1885 000012AC 7D 51                           	JGE	L231
  1886 000012AE 83 FB 04                        	CMP	EBX,4
  1887 000012B1 7E 4C                           	JLE	L231
  1888 000012B3 83 FB 12                        	CMP	EBX,18
  1889 000012B6 7F 47                           	JG	L231
  1890 000012B8 8B 95 FFFFF6F0                  	MOV	EDX,DWORD [-2320+EBP]
  1891 000012BE F6 42 1C 10                     	TEST	BYTE [28+EDX],16
  1892 000012C2 0F 84 000004D2                  	JE	L232
  1893 000012C8 8B 72 24                        	MOV	ESI,DWORD [36+EDX]
  1894 000012CB 68 [00000576]                   	PUSH	LC19
  1895 000012D0 FF B6 000000A4                  	PUSH	DWORD [164+ESI]
  1896 000012D6 E8 [00000000]                   	CALL	_cons_putstr0
  1897 000012DB E8 [00000000]                   	CALL	_io_cli
  1898 000012E0 8D 46 30                        	LEA	EAX,DWORD [48+ESI]
  1899 000012E3 89 46 54                        	MOV	DWORD [84+ESI],EAX
  1900 000012E6 C7 46 4C [00000000]             	MOV	DWORD [76+ESI],_asm_end_app
  1901 000012ED E8 [00000000]                   	CALL	_io_sti
  1902 000012F2 6A 00                           	PUSH	0
  1903 000012F4 6A FF                           	PUSH	-1
  1904 000012F6 56                              	PUSH	ESI
  1905 000012F7 E8 [00000000]                   	CALL	_task_run
  1906 000012FC 83 C4 14                        	ADD	ESP,20
  1907 000012FF                                 L231:
  1908 000012FF 8B 8D FFFFF6F0                  	MOV	ECX,DWORD [-2320+EBP]
  1909 00001305 83 79 1C 01                     	CMP	DWORD [28+ECX],1
  1910 00001309 0F 84 00000329                  	JE	L370
  1911 0000130F                                 L234:
  1912 0000130F 8B 85 FFFFF6F0                  	MOV	EAX,DWORD [-2320+EBP]
  1913 00001315 8B 48 1C                        	MOV	ECX,DWORD [28+EAX]
  1914 00001318 83 F9 02                        	CMP	ECX,2
  1915 0000131B 0F 84 0000027E                  	JE	L371
  1916 00001321                                 L254:
  1917 00001321 83 F9 03                        	CMP	ECX,3
  1918 00001324 0F 84 000001F3                  	JE	L372
  1919 0000132A                                 L264:
  1920 0000132A 83 F9 04                        	CMP	ECX,4
  1921 0000132D 0F 84 000001A2                  	JE	L373
  1922 00001333                                 L272:
  1923 00001333 83 F9 06                        	CMP	ECX,6
  1924 00001336 0F 84 00000168                  	JE	L374
  1925 0000133C                                 L276:
  1926 0000133C 83 F9 07                        	CMP	ECX,7
  1927 0000133F 0F 84 00000132                  	JE	L375
  1928 00001345                                 L278:
  1929 00001345 83 F9 08                        	CMP	ECX,8
  1930 00001348 0F 84 000000F8                  	JE	L376
  1931 0000134E                                 L280:
  1932 0000134E 83 BD FFFFF6E4 FF               	CMP	DWORD [-2332+EBP],-1
  1933 00001355 0F 8E FFFFF94D                  	JLE	L211
  1934 0000135B 83 BD FFFFF6E4 04               	CMP	DWORD [-2332+EBP],4
  1935 00001362 74 75                           	JE	L377
  1936 00001364 FF B5 FFFFF748                  	PUSH	DWORD [-2232+EBP]
  1937 0000136A FF B5 FFFFF6E8                  	PUSH	DWORD [-2328+EBP]
  1938 00001370 E8 00002726                     	CALL	_open_constask
  1939 00001375 8B 8D FFFFF6E8                  	MOV	ECX,DWORD [-2328+EBP]
  1940 0000137B 89 41 24                        	MOV	DWORD [36+ECX],EAX
  1941 0000137E FF B5 FFFFF6E4                  	PUSH	DWORD [-2332+EBP]
  1942 00001384 8B 41 24                        	MOV	EAX,DWORD [36+ECX]
  1943 00001387 83 C0 10                        	ADD	EAX,16
  1944 0000138A 50                              	PUSH	EAX
  1945 0000138B E8 [00000000]                   	CALL	_fifo32_put
  1946 00001390 83 C4 10                        	ADD	ESP,16
  1947 00001393 C7 85 FFFFF6E4 FFFFFFFF         	MOV	DWORD [-2332+EBP],-1
  1948 0000139D                                 L285:
  1949 0000139D 6A FF                           	PUSH	-1
  1950 0000139F FF B5 FFFFF71C                  	PUSH	DWORD [-2276+EBP]
  1951 000013A5 E8 [00000000]                   	CALL	_sheet_updown
  1952 000013AA 6A FF                           	PUSH	-1
  1953 000013AC FF B5 FFFFFBA4                  	PUSH	DWORD [-1116+EBP]
  1954 000013B2 E8 [00000000]                   	CALL	_sheet_updown
  1955 000013B7 6A FF                           	PUSH	-1
  1956 000013B9 FF B5 FFFFFBA8                  	PUSH	DWORD [-1112+EBP]
  1957 000013BF E8 [00000000]                   	CALL	_sheet_updown
  1958 000013C4 6A FF                           	PUSH	-1
  1959 000013C6 FF B5 FFFFFBAC                  	PUSH	DWORD [-1108+EBP]
  1960 000013CC E8 [00000000]                   	CALL	_sheet_updown
  1961 000013D1 83 C4 20                        	ADD	ESP,32
  1962 000013D4 E9 FFFFF8CF                     	JMP	L211
  1963 000013D9                                 L377:
  1964 000013D9 83 BD FFFFF6EC 00               	CMP	DWORD [-2324+EBP],0
  1965 000013E0 74 0C                           	JE	L284
  1966 000013E2 FF B5 FFFFF6EC                  	PUSH	DWORD [-2324+EBP]
  1967 000013E8 E8 00002652                     	CALL	_keywin_off
  1968 000013ED 5A                              	POP	EDX
  1969 000013EE                                 L284:
  1970 000013EE FF B5 FFFFF748                  	PUSH	DWORD [-2232+EBP]
  1971 000013F4 FF B5 FFFFF778                  	PUSH	DWORD [-2184+EBP]
  1972 000013FA E8 00002742                     	CALL	_open_console
  1973 000013FF 68 00000180                     	PUSH	384
  1974 00001404 68 00000200                     	PUSH	512
  1975 00001409 50                              	PUSH	EAX
  1976 0000140A 89 85 FFFFF6EC                  	MOV	DWORD [-2324+EBP],EAX
  1977 00001410 E8 [00000000]                   	CALL	_sheet_slide
  1978 00001415 8B 95 FFFFF778                  	MOV	EDX,DWORD [-2184+EBP]
  1979 0000141B FF 72 10                        	PUSH	DWORD [16+EDX]
  1980 0000141E FF B5 FFFFF6EC                  	PUSH	DWORD [-2324+EBP]
  1981 00001424 E8 [00000000]                   	CALL	_sheet_updown
  1982 00001429 FF B5 FFFFF6EC                  	PUSH	DWORD [-2324+EBP]
  1983 0000142F E8 00002639                     	CALL	_keywin_on
  1984 00001434 83 C4 20                        	ADD	ESP,32
  1985 00001437 C7 85 FFFFF6E4 FFFFFFFF         	MOV	DWORD [-2332+EBP],-1
  1986 00001441 E9 FFFFFF57                     	JMP	L285
  1987 00001446                                 L376:
  1988 00001446 FF 85 FFFFF6D4                  	INC	DWORD [-2348+EBP]
  1989 0000144C 8B 85 FFFFF6D4                  	MOV	EAX,DWORD [-2348+EBP]
  1990 00001452 83 E8 02                        	SUB	EAX,2
  1991 00001455 C7 85 FFFFF6E4 00000017         	MOV	DWORD [-2332+EBP],23
  1992 0000145F 83 F8 03                        	CMP	EAX,3
  1993 00001462 0F 87 FFFFFEE6                  	JA	L280
  1994 00001468 C7 85 FFFFF6D4 00000000         	MOV	DWORD [-2348+EBP],0
  1995 00001472 E9 FFFFFED7                     	JMP	L280
  1996 00001477                                 L375:
  1997 00001477 FF 85 FFFFF6D8                  	INC	DWORD [-2344+EBP]
  1998 0000147D 8B 85 FFFFF6D8                  	MOV	EAX,DWORD [-2344+EBP]
  1999 00001483 83 E8 02                        	SUB	EAX,2
  2000 00001486 83 F8 03                        	CMP	EAX,3
  2001 00001489 77 0A                           	JA	L279
  2002 0000148B C7 85 FFFFF6D8 00000000         	MOV	DWORD [-2344+EBP],0
  2003 00001495                                 L279:
  2004 00001495 C7 85 FFFFF6E4 0000000D         	MOV	DWORD [-2332+EBP],13
  2005 0000149F E9 FFFFFEA1                     	JMP	L278
  2006 000014A4                                 L374:
  2007 000014A4 FF 85 FFFFF6DC                  	INC	DWORD [-2340+EBP]
  2008 000014AA 8B 85 FFFFF6DC                  	MOV	EAX,DWORD [-2340+EBP]
  2009 000014B0 83 E8 02                        	SUB	EAX,2
  2010 000014B3 C7 85 FFFFF6E4 00000004         	MOV	DWORD [-2332+EBP],4
  2011 000014BD 83 F8 03                        	CMP	EAX,3
  2012 000014C0 0F 87 FFFFFE76                  	JA	L276
  2013 000014C6 C7 85 FFFFF6DC 00000000         	MOV	DWORD [-2340+EBP],0
  2014 000014D0 E9 FFFFFE67                     	JMP	L276
  2015 000014D5                                 L373:
  2016 000014D5 8B 85 FFFFF6F0                  	MOV	EAX,DWORD [-2320+EBP]
  2017 000014DB 8B 50 08                        	MOV	EDX,DWORD [8+EAX]
  2018 000014DE 8D 42 DC                        	LEA	EAX,DWORD [-36+EDX]
  2019 000014E1 39 D8                           	CMP	EAX,EBX
  2020 000014E3 7D 16                           	JGE	L273
  2021 000014E5 8D 42 EE                        	LEA	EAX,DWORD [-18+EDX]
  2022 000014E8 39 C3                           	CMP	EBX,EAX
  2023 000014EA 7D 0F                           	JGE	L273
  2024 000014EC C7 85 FFFFF6E4 00000015         	MOV	DWORD [-2332+EBP],21
  2025 000014F6 E9 FFFFFE38                     	JMP	L272
  2026 000014FB                                 L273:
  2027 000014FB 8D 42 EE                        	LEA	EAX,DWORD [-18+EDX]
  2028 000014FE 39 D8                           	CMP	EAX,EBX
  2029 00001500 0F 8D FFFFFE2D                  	JGE	L272
  2030 00001506 39 D3                           	CMP	EBX,EDX
  2031 00001508 0F 8D FFFFFE25                  	JGE	L272
  2032 0000150E C7 85 FFFFF6E4 00000016         	MOV	DWORD [-2332+EBP],22
  2033 00001518 E9 FFFFFE16                     	JMP	L272
  2034 0000151D                                 L372:
  2035 0000151D 8B 85 FFFFF6F0                  	MOV	EAX,DWORD [-2320+EBP]
  2036 00001523 8B 50 08                        	MOV	EDX,DWORD [8+EAX]
  2037 00001526 8D 42 B8                        	LEA	EAX,DWORD [-72+EDX]
  2038 00001529 39 D8                           	CMP	EAX,EBX
  2039 0000152B 7D 16                           	JGE	L265
  2040 0000152D 8D 42 CA                        	LEA	EAX,DWORD [-54+EDX]
  2041 00001530 39 C3                           	CMP	EBX,EAX
  2042 00001532 7D 0F                           	JGE	L265
  2043 00001534 C7 85 FFFFF6E4 0000000D         	MOV	DWORD [-2332+EBP],13
  2044 0000153E E9 FFFFFDE7                     	JMP	L264
  2045 00001543                                 L265:
  2046 00001543 8D 42 CA                        	LEA	EAX,DWORD [-54+EDX]
  2047 00001546 39 D8                           	CMP	EAX,EBX
  2048 00001548 7D 16                           	JGE	L267
  2049 0000154A 8D 42 DC                        	LEA	EAX,DWORD [-36+EDX]
  2050 0000154D 39 C3                           	CMP	EBX,EAX
  2051 0000154F 7D 0F                           	JGE	L267
  2052 00001551 C7 85 FFFFF6E4 0000000C         	MOV	DWORD [-2332+EBP],12
  2053 0000155B E9 FFFFFDCA                     	JMP	L264
  2054 00001560                                 L267:
  2055 00001560 8D 42 DC                        	LEA	EAX,DWORD [-36+EDX]
  2056 00001563 39 D8                           	CMP	EAX,EBX
  2057 00001565 7D 16                           	JGE	L269
  2058 00001567 8D 42 EE                        	LEA	EAX,DWORD [-18+EDX]
  2059 0000156A 39 C3                           	CMP	EBX,EAX
  2060 0000156C 7D 0F                           	JGE	L269
  2061 0000156E C7 85 FFFFF6E4 0000000B         	MOV	DWORD [-2332+EBP],11
  2062 00001578 E9 FFFFFDAD                     	JMP	L264
  2063 0000157D                                 L269:
  2064 0000157D 8D 42 EE                        	LEA	EAX,DWORD [-18+EDX]
  2065 00001580 39 D8                           	CMP	EAX,EBX
  2066 00001582 0F 8D FFFFFDA2                  	JGE	L264
  2067 00001588 39 D3                           	CMP	EBX,EDX
  2068 0000158A 0F 8D FFFFFD9A                  	JGE	L264
  2069 00001590 C7 85 FFFFF6E4 0000000A         	MOV	DWORD [-2332+EBP],10
  2070 0000159A E9 FFFFFD8B                     	JMP	L264
  2071 0000159F                                 L371:
  2072 0000159F 8B 50 08                        	MOV	EDX,DWORD [8+EAX]
  2073 000015A2 8D 42 A6                        	LEA	EAX,DWORD [-90+EDX]
  2074 000015A5 39 D8                           	CMP	EAX,EBX
  2075 000015A7 7D 16                           	JGE	L255
  2076 000015A9 8D 42 B8                        	LEA	EAX,DWORD [-72+EDX]
  2077 000015AC 39 C3                           	CMP	EBX,EAX
  2078 000015AE 7D 0F                           	JGE	L255
  2079 000015B0 C7 85 FFFFF6E4 00000009         	MOV	DWORD [-2332+EBP],9
  2080 000015BA E9 FFFFFD62                     	JMP	L254
  2081 000015BF                                 L255:
  2082 000015BF 8D 42 B8                        	LEA	EAX,DWORD [-72+EDX]
  2083 000015C2 39 D8                           	CMP	EAX,EBX
  2084 000015C4 7D 16                           	JGE	L257
  2085 000015C6 8D 42 CA                        	LEA	EAX,DWORD [-54+EDX]
  2086 000015C9 39 C3                           	CMP	EBX,EAX
  2087 000015CB 7D 0F                           	JGE	L257
  2088 000015CD C7 85 FFFFF6E4 00000008         	MOV	DWORD [-2332+EBP],8
  2089 000015D7 E9 FFFFFD45                     	JMP	L254
  2090 000015DC                                 L257:
  2091 000015DC 8D 42 CA                        	LEA	EAX,DWORD [-54+EDX]
  2092 000015DF 39 D8                           	CMP	EAX,EBX
  2093 000015E1 7D 16                           	JGE	L259
  2094 000015E3 8D 42 DC                        	LEA	EAX,DWORD [-36+EDX]
  2095 000015E6 39 C3                           	CMP	EBX,EAX
  2096 000015E8 7D 0F                           	JGE	L259
  2097 000015EA C7 85 FFFFF6E4 00000007         	MOV	DWORD [-2332+EBP],7
  2098 000015F4 E9 FFFFFD28                     	JMP	L254
  2099 000015F9                                 L259:
  2100 000015F9 8D 42 DC                        	LEA	EAX,DWORD [-36+EDX]
  2101 000015FC 39 D8                           	CMP	EAX,EBX
  2102 000015FE 7D 16                           	JGE	L261
  2103 00001600 8D 42 EE                        	LEA	EAX,DWORD [-18+EDX]
  2104 00001603 39 C3                           	CMP	EBX,EAX
  2105 00001605 7D 0F                           	JGE	L261
  2106 00001607 C7 85 FFFFF6E4 00000006         	MOV	DWORD [-2332+EBP],6
  2107 00001611 E9 FFFFFD0B                     	JMP	L254
  2108 00001616                                 L261:
  2109 00001616 8D 42 EE                        	LEA	EAX,DWORD [-18+EDX]
  2110 00001619 39 D8                           	CMP	EAX,EBX
  2111 0000161B 0F 8D FFFFFD00                  	JGE	L254
  2112 00001621 39 D3                           	CMP	EBX,EDX
  2113 00001623 0F 8D FFFFFCF8                  	JGE	L254
  2114 00001629 C7 85 FFFFF6E4 00000005         	MOV	DWORD [-2332+EBP],5
  2115 00001633 E9 FFFFFCE9                     	JMP	L254
  2116 00001638                                 L370:
  2117 00001638 8B 51 08                        	MOV	EDX,DWORD [8+ECX]
  2118 0000163B 8D 42 80                        	LEA	EAX,DWORD [-128+EDX]
  2119 0000163E 39 D8                           	CMP	EAX,EBX
  2120 00001640 7D 16                           	JGE	L235
  2121 00001642 8D 42 94                        	LEA	EAX,DWORD [-108+EDX]
  2122 00001645 39 C3                           	CMP	EBX,EAX
  2123 00001647 7D 0F                           	JGE	L235
  2124 00001649 C7 85 FFFFF6E4 00000012         	MOV	DWORD [-2332+EBP],18
  2125 00001653 E9 FFFFFCB7                     	JMP	L234
  2126 00001658                                 L235:
  2127 00001658 8D 42 94                        	LEA	EAX,DWORD [-108+EDX]
  2128 0000165B 39 D8                           	CMP	EAX,EBX
  2129 0000165D 7D 16                           	JGE	L237
  2130 0000165F 8D 42 A6                        	LEA	EAX,DWORD [-90+EDX]
  2131 00001662 39 C3                           	CMP	EBX,EAX
  2132 00001664 7D 0F                           	JGE	L237
  2133 00001666 C7 85 FFFFF6E4 00000004         	MOV	DWORD [-2332+EBP],4
  2134 00001670 E9 FFFFFC9A                     	JMP	L234
  2135 00001675                                 L237:
  2136 00001675 8D 42 A6                        	LEA	EAX,DWORD [-90+EDX]
  2137 00001678 39 D8                           	CMP	EAX,EBX
  2138 0000167A 7D 58                           	JGE	L239
  2139 0000167C 8D 42 B8                        	LEA	EAX,DWORD [-72+EDX]
  2140 0000167F 39 C3                           	CMP	EBX,EAX
  2141 00001681 7D 51                           	JGE	L239
  2142 00001683 8B 95 FFFFFBA4                  	MOV	EDX,DWORD [-1116+EBP]
  2143 00001689 8B 42 1C                        	MOV	EAX,DWORD [28+EDX]
  2144 0000168C F7 D8                           	NEG	EAX
  2145 0000168E 89 42 1C                        	MOV	DWORD [28+EDX],EAX
  2146 00001691 83 F8 02                        	CMP	EAX,2
  2147 00001694 74 0F                           	JE	L378
  2148 00001696                                 L248:
  2149 00001696 6A FF                           	PUSH	-1
  2150 00001698 52                              	PUSH	EDX
  2151 00001699 E8 [00000000]                   	CALL	_sheet_updown
  2152 0000169E 59                              	POP	ECX
  2153 0000169F 5E                              	POP	ESI
  2154 000016A0 E9 FFFFFC6A                     	JMP	L234
  2155 000016A5                                 L378:
  2156 000016A5 6A FF                           	PUSH	-1
  2157 000016A7 FF B5 FFFFFBA8                  	PUSH	DWORD [-1112+EBP]
  2158 000016AD E8 [00000000]                   	CALL	_sheet_updown
  2159 000016B2 6A FF                           	PUSH	-1
  2160 000016B4 FF B5 FFFFFBAC                  	PUSH	DWORD [-1108+EBP]
  2161 000016BA E8 [00000000]                   	CALL	_sheet_updown
  2162 000016BF 6A 01                           	PUSH	1
  2163 000016C1 FF B5 FFFFFBA4                  	PUSH	DWORD [-1116+EBP]
  2164 000016C7                                 L346:
  2165 000016C7 E8 [00000000]                   	CALL	_sheet_updown
  2166 000016CC 83 C4 18                        	ADD	ESP,24
  2167 000016CF E9 FFFFFC3B                     	JMP	L234
  2168 000016D4                                 L239:
  2169 000016D4 8D 42 B8                        	LEA	EAX,DWORD [-72+EDX]
  2170 000016D7 39 D8                           	CMP	EAX,EBX
  2171 000016D9 7D 3E                           	JGE	L243
  2172 000016DB 8D 42 CA                        	LEA	EAX,DWORD [-54+EDX]
  2173 000016DE 39 C3                           	CMP	EBX,EAX
  2174 000016E0 7D 37                           	JGE	L243
  2175 000016E2 8B 95 FFFFFBA8                  	MOV	EDX,DWORD [-1112+EBP]
  2176 000016E8 8B 42 1C                        	MOV	EAX,DWORD [28+EDX]
  2177 000016EB F7 D8                           	NEG	EAX
  2178 000016ED 89 42 1C                        	MOV	DWORD [28+EDX],EAX
  2179 000016F0 83 F8 03                        	CMP	EAX,3
  2180 000016F3 75 A1                           	JNE	L248
  2181 000016F5 6A FF                           	PUSH	-1
  2182 000016F7 FF B5 FFFFFBA4                  	PUSH	DWORD [-1116+EBP]
  2183 000016FD E8 [00000000]                   	CALL	_sheet_updown
  2184 00001702 6A FF                           	PUSH	-1
  2185 00001704 FF B5 FFFFFBAC                  	PUSH	DWORD [-1108+EBP]
  2186 0000170A E8 [00000000]                   	CALL	_sheet_updown
  2187 0000170F 6A 01                           	PUSH	1
  2188 00001711 FF B5 FFFFFBA8                  	PUSH	DWORD [-1112+EBP]
  2189 00001717 EB AE                           	JMP	L346
  2190 00001719                                 L243:
  2191 00001719 8D 42 CA                        	LEA	EAX,DWORD [-54+EDX]
  2192 0000171C 39 D8                           	CMP	EAX,EBX
  2193 0000171E 7D 45                           	JGE	L247
  2194 00001720 8D 42 DC                        	LEA	EAX,DWORD [-36+EDX]
  2195 00001723 39 C3                           	CMP	EBX,EAX
  2196 00001725 7D 3E                           	JGE	L247
  2197 00001727 8B 95 FFFFFBAC                  	MOV	EDX,DWORD [-1108+EBP]
  2198 0000172D 8B 42 1C                        	MOV	EAX,DWORD [28+EDX]
  2199 00001730 F7 D8                           	NEG	EAX
  2200 00001732 89 42 1C                        	MOV	DWORD [28+EDX],EAX
  2201 00001735 83 F8 04                        	CMP	EAX,4
  2202 00001738 0F 85 FFFFFF58                  	JNE	L248
  2203 0000173E 6A FF                           	PUSH	-1
  2204 00001740 FF B5 FFFFFBA4                  	PUSH	DWORD [-1116+EBP]
  2205 00001746 E8 [00000000]                   	CALL	_sheet_updown
  2206 0000174B 6A FF                           	PUSH	-1
  2207 0000174D FF B5 FFFFFBA8                  	PUSH	DWORD [-1112+EBP]
  2208 00001753 E8 [00000000]                   	CALL	_sheet_updown
  2209 00001758 6A 01                           	PUSH	1
  2210 0000175A FF B5 FFFFFBAC                  	PUSH	DWORD [-1108+EBP]
  2211 00001760 E9 FFFFFF62                     	JMP	L346
  2212 00001765                                 L247:
  2213 00001765 8D 42 DC                        	LEA	EAX,DWORD [-36+EDX]
  2214 00001768 39 D8                           	CMP	EAX,EBX
  2215 0000176A 7D 11                           	JGE	L251
  2216 0000176C 8D 42 EE                        	LEA	EAX,DWORD [-18+EDX]
  2217 0000176F 39 C3                           	CMP	EBX,EAX
  2218 00001771 7D 0A                           	JGE	L251
  2219 00001773 E8 [00000000]                   	CALL	_shutdown
  2220 00001778 E9 FFFFFB92                     	JMP	L234
  2221 0000177D                                 L251:
  2222 0000177D 8D 42 EE                        	LEA	EAX,DWORD [-18+EDX]
  2223 00001780 39 D8                           	CMP	EAX,EBX
  2224 00001782 0F 8D FFFFFB87                  	JGE	L234
  2225 00001788 39 D3                           	CMP	EBX,EDX
  2226 0000178A 0F 8D FFFFFB7F                  	JGE	L234
  2227 00001790 E8 [00000000]                   	CALL	_reboot
  2228 00001795 E9 FFFFFB75                     	JMP	L234
  2229 0000179A                                 L232:
  2230 0000179A 8B 8D FFFFF6F0                  	MOV	ECX,DWORD [-2320+EBP]
  2231 000017A0 8B 71 24                        	MOV	ESI,DWORD [36+ECX]
  2232 000017A3 6A FF                           	PUSH	-1
  2233 000017A5 51                              	PUSH	ECX
  2234 000017A6 E8 [00000000]                   	CALL	_sheet_updown
  2235 000017AB FF B5 FFFFF6EC                  	PUSH	DWORD [-2324+EBP]
  2236 000017B1 E8 00002289                     	CALL	_keywin_off
  2237 000017B6 8B 95 FFFFF778                  	MOV	EDX,DWORD [-2184+EBP]
  2238 000017BC 8B 42 10                        	MOV	EAX,DWORD [16+EDX]
  2239 000017BF 8B 44 82 10                     	MOV	EAX,DWORD [16+EDX+EAX*4]
  2240 000017C3 50                              	PUSH	EAX
  2241 000017C4 89 85 FFFFF6EC                  	MOV	DWORD [-2324+EBP],EAX
  2242 000017CA E8 0000229E                     	CALL	_keywin_on
  2243 000017CF E8 [00000000]                   	CALL	_io_cli
  2244 000017D4 8D 46 10                        	LEA	EAX,DWORD [16+ESI]
  2245 000017D7 6A 04                           	PUSH	4
  2246 000017D9 50                              	PUSH	EAX
  2247 000017DA E8 [00000000]                   	CALL	_fifo32_put
  2248 000017DF E8 [00000000]                   	CALL	_io_sti
  2249 000017E4 83 C4 18                        	ADD	ESP,24
  2250 000017E7 E9 FFFFFB13                     	JMP	L231
  2251 000017EC                                 L367:
  2252 000017EC 6A 01                           	PUSH	1
  2253 000017EE 52                              	PUSH	EDX
  2254 000017EF E8 [00000000]                   	CALL	_sheet_updown
  2255 000017F4 59                              	POP	ECX
  2256 000017F5 5B                              	POP	EBX
  2257 000017F6 E9 FFFFF950                     	JMP	L219
  2258 000017FB                                 L218:
  2259 000017FB C7 85 FFFFF6FC FFFFFFFF         	MOV	DWORD [-2308+EBP],-1
  2260 00001805 81 BD FFFFF754 7FFFFFFF         	CMP	DWORD [-2220+EBP],2147483647
  2261 0000180F 0F 84 FFFFF493                  	JE	L211
  2262 00001815 FF B5 FFFFF750                  	PUSH	DWORD [-2224+EBP]
  2263 0000181B FF B5 FFFFF754                  	PUSH	DWORD [-2220+EBP]
  2264 00001821 FF B5 FFFFF6F0                  	PUSH	DWORD [-2320+EBP]
  2265 00001827 E8 [00000000]                   	CALL	_sheet_slide
  2266 0000182C 83 C4 0C                        	ADD	ESP,12
  2267 0000182F C7 85 FFFFF754 7FFFFFFF         	MOV	DWORD [-2220+EBP],2147483647
  2268 00001839 E9 FFFFF46A                     	JMP	L211
  2269 0000183E                                 L366:
  2270 0000183E C7 85 FFFFF760 00000000         	MOV	DWORD [-2208+EBP],0
  2271 00001848 E9 FFFFF844                     	JMP	L215
  2272 0000184D                                 L365:
  2273 0000184D C7 85 FFFFF764 00000000         	MOV	DWORD [-2204+EBP],0
  2274 00001857 E9 FFFFF828                     	JMP	L214
  2275 0000185C                                 L212:
  2276 0000185C 8B 85 FFFFF6CC                  	MOV	EAX,DWORD [-2356+EBP]
  2277 00001862 2D 00000300                     	SUB	EAX,768
  2278 00001867 3D 000000FF                     	CMP	EAX,255
  2279 0000186C 77 20                           	JA	L291
  2280 0000186E 6B 85 FFFFF6CC 28               	IMUL	EAX,DWORD [-2356+EBP],40
  2281 00001875 8B 8D FFFFF778                  	MOV	ECX,DWORD [-2184+EBP]
  2282 0000187B 8D 84 08 FFFF8C14               	LEA	EAX,DWORD [-29676+EAX+ECX*1]
  2283 00001882 50                              	PUSH	EAX
  2284 00001883 E8 000023F7                     	CALL	_close_console
  2285 00001888                                 L347:
  2286 00001888 58                              	POP	EAX
  2287 00001889 E9 FFFFF41A                     	JMP	L211
  2288 0000188E                                 L291:
  2289 0000188E 8B 85 FFFFF6CC                  	MOV	EAX,DWORD [-2356+EBP]
  2290 00001894 2D 00000400                     	SUB	EAX,1024
  2291 00001899 3D 000003E7                     	CMP	EAX,999
  2292 0000189E 77 27                           	JA	L293
  2293 000018A0 8B 85 FFFFF6CC                  	MOV	EAX,DWORD [-2356+EBP]
  2294 000018A6 8B 15 [00000000]                	MOV	EDX,DWORD [_taskctl]
  2295 000018AC 69 C0 000000C0                  	IMUL	EAX,EAX,192
  2296 000018B2 01 D0                           	ADD	EAX,EDX
  2297 000018B4 89 85 FFFFF6CC                  	MOV	DWORD [-2356+EBP],EAX
  2298 000018BA 2D 0002F008                     	SUB	EAX,192520
  2299 000018BF 50                              	PUSH	EAX
  2300 000018C0 E8 0000237A                     	CALL	_close_constask
  2301 000018C5 EB C1                           	JMP	L347
  2302 000018C7                                 L293:
  2303 000018C7 8B 85 FFFFF6CC                  	MOV	EAX,DWORD [-2356+EBP]
  2304 000018CD 2D 000007E8                     	SUB	EAX,2024
  2305 000018D2 3D 000000FF                     	CMP	EAX,255
  2306 000018D7 0F 87 FFFFF3CB                  	JA	L211
  2307 000018DD 6B 85 FFFFF6CC 28               	IMUL	EAX,DWORD [-2356+EBP],40
  2308 000018E4 03 85 FFFFF778                  	ADD	EAX,DWORD [-2184+EBP]
  2309 000018EA 68 0002760E                     	PUSH	161294
  2310 000018EF FF B0 FFFEC7D4                  	PUSH	DWORD [-79916+EAX]
  2311 000018F5 68 003C0000                     	PUSH	3932160
  2312 000018FA 8D 98 FFFEC7D4                  	LEA	EBX,DWORD [-79916+EAX]
  2313 00001900 E8 [00000000]                   	CALL	_memman_free_4k
  2314 00001905 53                              	PUSH	EBX
  2315 00001906 E8 [00000000]                   	CALL	_sheet_free
  2316 0000190B 83 C4 10                        	ADD	ESP,16
  2317 0000190E E9 FFFFF395                     	JMP	L211
  2318 00001913                                 L350:
  2319 00001913 6A 01                           	PUSH	1
  2320 00001915 8D 85 FFFFFF74                  	LEA	EAX,DWORD [-140+EBP]
  2321 0000191B 50                              	PUSH	EAX
  2322 0000191C 8D 5D 94                        	LEA	EBX,DWORD [-108+EBP]
  2323 0000191F FF B5 FFFFF774                  	PUSH	DWORD [-2188+EBP]
  2324 00001925 E8 [00000000]                   	CALL	_timer_init
  2325 0000192A E8 [00000000]                   	CALL	_get_sec_hex
  2326 0000192F 50                              	PUSH	EAX
  2327 00001930 E8 [00000000]                   	CALL	_get_min_hex
  2328 00001935 50                              	PUSH	EAX
  2329 00001936 E8 [00000000]                   	CALL	_get_hour_hex
  2330 0000193B 50                              	PUSH	EAX
  2331 0000193C E8 [00000000]                   	CALL	_get_day_of_month
  2332 00001941 50                              	PUSH	EAX
  2333 00001942 E8 [00000000]                   	CALL	_get_mon_hex
  2334 00001947 50                              	PUSH	EAX
  2335 00001948 E8 [00000000]                   	CALL	_get_year
  2336 0000194D 50                              	PUSH	EAX
  2337 0000194E 68 [00000587]                   	PUSH	LC15
  2338 00001953 53                              	PUSH	EBX
  2339 00001954 E8 [00000000]                   	CALL	_sprintf
  2340 00001959 83 C4 2C                        	ADD	ESP,44
  2341 0000195C 6A 14                           	PUSH	20
  2342 0000195E 53                              	PUSH	EBX
  2343 0000195F 6A 08                           	PUSH	8
  2344 00001961 6A 00                           	PUSH	0
  2345 00001963 0F BF 05 00000FF6               	MOVSX	EAX,WORD [4086]
  2346 0000196A 83 E8 14                        	SUB	EAX,20
  2347 0000196D 50                              	PUSH	EAX
  2348 0000196E 0F BF 05 00000FF4               	MOVSX	EAX,WORD [4084]
  2349 00001975 2D 0000009A                     	SUB	EAX,154
  2350 0000197A 50                              	PUSH	EAX
  2351 0000197B FF B5 FFFFF738                  	PUSH	DWORD [-2248+EBP]
  2352 00001981 E8 [00000000]                   	CALL	_putfonts8_asc_sht
  2353 00001986 6A 64                           	PUSH	100
  2354 00001988 FF B5 FFFFF774                  	PUSH	DWORD [-2188+EBP]
  2355 0000198E E8 [00000000]                   	CALL	_timer_settime
  2356 00001993 83 C4 24                        	ADD	ESP,36
  2357 00001996 83 BD FFFFF6D8 00               	CMP	DWORD [-2344+EBP],0
  2358 0000199D 74 19                           	JE	L178
  2359 0000199F FF 85 FFFFF6D8                  	INC	DWORD [-2344+EBP]
  2360 000019A5 83 BD FFFFF6D8 02               	CMP	DWORD [-2344+EBP],2
  2361 000019AC 7E 0A                           	JLE	L178
  2362 000019AE C7 85 FFFFF6D8 00000000         	MOV	DWORD [-2344+EBP],0
  2363 000019B8                                 L178:
  2364 000019B8 83 BD FFFFF6DC 00               	CMP	DWORD [-2340+EBP],0
  2365 000019BF 74 19                           	JE	L180
  2366 000019C1 FF 85 FFFFF6DC                  	INC	DWORD [-2340+EBP]
  2367 000019C7 83 BD FFFFF6DC 02               	CMP	DWORD [-2340+EBP],2
  2368 000019CE 7E 0A                           	JLE	L180
  2369 000019D0 C7 85 FFFFF6DC 00000000         	MOV	DWORD [-2340+EBP],0
  2370 000019DA                                 L180:
  2371 000019DA 83 BD FFFFF6D4 00               	CMP	DWORD [-2348+EBP],0
  2372 000019E1 0F 84 FFFFF14B                  	JE	L177
  2373 000019E7 FF 85 FFFFF6D4                  	INC	DWORD [-2348+EBP]
  2374 000019ED 83 BD FFFFF6D4 02               	CMP	DWORD [-2348+EBP],2
  2375 000019F4 0F 8E FFFFF138                  	JLE	L177
  2376 000019FA C7 85 FFFFF6D4 00000000         	MOV	DWORD [-2348+EBP],0
  2377 00001A04 E9 FFFFF129                     	JMP	L177
  2378 00001A09                                 L349:
  2379 00001A09 83 BD FFFFF75C 00               	CMP	DWORD [-2212+EBP],0
  2380 00001A10 79 50                           	JNS	L379
  2381 00001A12 81 BD FFFFF754 7FFFFFFF         	CMP	DWORD [-2220+EBP],2147483647
  2382 00001A1C 75 16                           	JNE	L380
  2383 00001A1E FF B5 FFFFF718                  	PUSH	DWORD [-2280+EBP]
  2384 00001A24 E8 [00000000]                   	CALL	_task_sleep
  2385 00001A29 E8 [00000000]                   	CALL	_io_sti
  2386 00001A2E 5E                              	POP	ESI
  2387 00001A2F E9 FFFFF030                     	JMP	L159
  2388 00001A34                                 L380:
  2389 00001A34 E8 [00000000]                   	CALL	_io_sti
  2390 00001A39 FF B5 FFFFF750                  	PUSH	DWORD [-2224+EBP]
  2391 00001A3F FF B5 FFFFF754                  	PUSH	DWORD [-2220+EBP]
  2392 00001A45 FF B5 FFFFF6F0                  	PUSH	DWORD [-2320+EBP]
  2393 00001A4B E8 [00000000]                   	CALL	_sheet_slide
  2394 00001A50 C7 85 FFFFF754 7FFFFFFF         	MOV	DWORD [-2220+EBP],2147483647
  2395 00001A5A                                 L344:
  2396 00001A5A 83 C4 0C                        	ADD	ESP,12
  2397 00001A5D E9 FFFFF002                     	JMP	L159
  2398 00001A62                                 L379:
  2399 00001A62 E8 [00000000]                   	CALL	_io_sti
  2400 00001A67 FF B5 FFFFF758                  	PUSH	DWORD [-2216+EBP]
  2401 00001A6D FF B5 FFFFF75C                  	PUSH	DWORD [-2212+EBP]
  2402 00001A73 FF B5 FFFFF734                  	PUSH	DWORD [-2252+EBP]
  2403 00001A79 E8 [00000000]                   	CALL	_sheet_slide
  2404 00001A7E C7 85 FFFFF75C FFFFFFFF         	MOV	DWORD [-2212+EBP],-1
  2405 00001A88 EB D0                           	JMP	L344
  2406 00001A8A                                 L348:
  2407 00001A8A 53                              	PUSH	EBX
  2408 00001A8B E8 [00000000]                   	CALL	_fifo32_get
  2409 00001A90 89 85 FFFFF700                  	MOV	DWORD [-2304+EBP],EAX
  2410 00001A96 E8 [00000000]                   	CALL	_wait_KBC_sendready
  2411 00001A9B FF B5 FFFFF700                  	PUSH	DWORD [-2304+EBP]
  2412 00001AA1 6A 60                           	PUSH	96
  2413 00001AA3 E8 [00000000]                   	CALL	_io_out8
  2414 00001AA8 83 C4 0C                        	ADD	ESP,12
  2415 00001AAB E9 FFFFF005                     	JMP	L167
  2416 00001AB0                                 L128:
  2417 00001AB0 53                              	PUSH	EBX
  2418 00001AB1 E8 [00000000]                   	CALL	_fifo32_get
  2419 00001AB6 89 85 FFFFF780                  	MOV	DWORD [-2176+EBP],EAX
  2420 00001ABC E8 [00000000]                   	CALL	_io_sti
  2421 00001AC1 8D 85 FFFFF7A4                  	LEA	EAX,DWORD [-2140+EBP]
  2422 00001AC7 50                              	PUSH	EAX
  2423 00001AC8 8D 85 FFFFF77C                  	LEA	EAX,DWORD [-2180+EBP]
  2424 00001ACE 50                              	PUSH	EAX
  2425 00001ACF 68 [00000514]                   	PUSH	_mima.3
  2426 00001AD4 53                              	PUSH	EBX
  2427 00001AD5 FF B5 FFFFF76C                  	PUSH	DWORD [-2196+EBP]
  2428 00001ADB 57                              	PUSH	EDI
  2429 00001ADC FF B5 FFFFF6E0                  	PUSH	DWORD [-2336+EBP]
  2430 00001AE2 68 [00000100]                   	PUSH	_keytable.2
  2431 00001AE7 FF B5 FFFFF780                  	PUSH	DWORD [-2176+EBP]
  2432 00001AED FF B5 FFFFF72C                  	PUSH	DWORD [-2260+EBP]
  2433 00001AF3 E8 00002380                     	CALL	_cin_pin
  2434 00001AF8 83 C4 2C                        	ADD	ESP,44
  2435 00001AFB 89 85 FFFFF6E0                  	MOV	DWORD [-2336+EBP],EAX
  2436 00001B01 8B 85 FFFFF780                  	MOV	EAX,DWORD [-2176+EBP]
  2437 00001B07 83 F8 01                        	CMP	EAX,1
  2438 00001B0A 0F 8E 000001BC                  	JLE	L381
  2439 00001B10                                 L130:
  2440 00001B10 8D 85 FFFFF7A4                  	LEA	EAX,DWORD [-2140+EBP]
  2441 00001B16 50                              	PUSH	EAX
  2442 00001B17 E8 000024DE                     	CALL	_if_right
  2443 00001B1C 5A                              	POP	EDX
  2444 00001B1D 85 C0                           	TEST	EAX,EAX
  2445 00001B1F 74 44                           	JE	L133
  2446 00001B21 6A FF                           	PUSH	-1
  2447 00001B23 FF B5 FFFFF72C                  	PUSH	DWORD [-2260+EBP]
  2448 00001B29 E8 [00000000]                   	CALL	_sheet_updown
  2449 00001B2E 5E                              	POP	ESI
  2450 00001B2F 58                              	POP	EAX
  2451 00001B30                                 L134:
  2452 00001B30 83 BD FFFFF780 02               	CMP	DWORD [-2176+EBP],2
  2453 00001B37 0F 85 FFFFEE79                  	JNE	L125
  2454 00001B3D 6A 21                           	PUSH	33
  2455 00001B3F 68 [000005A3]                   	PUSH	LC14
  2456 00001B44 6A 1C                           	PUSH	28
  2457 00001B46 6A 00                           	PUSH	0
  2458 00001B48 68 00000168                     	PUSH	360
  2459 00001B4D 68 0000015E                     	PUSH	350
  2460 00001B52 FF B5 FFFFF72C                  	PUSH	DWORD [-2260+EBP]
  2461 00001B58 E8 [00000000]                   	CALL	_putfonts8_asc_sht
  2462 00001B5D 83 C4 1C                        	ADD	ESP,28
  2463 00001B60 E9 FFFFEE51                     	JMP	L125
  2464 00001B65                                 L133:
  2465 00001B65 83 BD FFFFF7C0 01               	CMP	DWORD [-2112+EBP],1
  2466 00001B6C 75 C2                           	JNE	L134
  2467 00001B6E FF 85 FFFFF74C                  	INC	DWORD [-2228+EBP]
  2468 00001B74 83 BD FFFFF74C 03               	CMP	DWORD [-2228+EBP],3
  2469 00001B7B 0F 84 0000009F                  	JE	L382
  2470 00001B81                                 L136:
  2471 00001B81 6A 02                           	PUSH	2
  2472 00001B83 8D 85 FFFFFF74                  	LEA	EAX,DWORD [-140+EBP]
  2473 00001B89 50                              	PUSH	EAX
  2474 00001B8A FF B5 FFFFF768                  	PUSH	DWORD [-2200+EBP]
  2475 00001B90 E8 [00000000]                   	CALL	_timer_init
  2476 00001B95 6A 3C                           	PUSH	60
  2477 00001B97 FF B5 FFFFF768                  	PUSH	DWORD [-2200+EBP]
  2478 00001B9D E8 [00000000]                   	CALL	_timer_settime
  2479 00001BA2 6A 0D                           	PUSH	13
  2480 00001BA4 68 [000005C9]                   	PUSH	LC12
  2481 00001BA9 6A 07                           	PUSH	7
  2482 00001BAB 6A 00                           	PUSH	0
  2483 00001BAD 68 00000168                     	PUSH	360
  2484 00001BB2 68 0000015E                     	PUSH	350
  2485 00001BB7 FF B5 FFFFF72C                  	PUSH	DWORD [-2260+EBP]
  2486 00001BBD E8 [00000000]                   	CALL	_putfonts8_asc_sht
  2487 00001BC2 83 C4 30                        	ADD	ESP,48
  2488 00001BC5 6A 10                           	PUSH	16
  2489 00001BC7 68 [000005D7]                   	PUSH	LC13
  2490 00001BCC 6A 07                           	PUSH	7
  2491 00001BCE 6A 07                           	PUSH	7
  2492 00001BD0 68 00000193                     	PUSH	403
  2493 00001BD5 68 0000013D                     	PUSH	317
  2494 00001BDA FF B5 FFFFF72C                  	PUSH	DWORD [-2260+EBP]
  2495 00001BE0 E8 [00000000]                   	CALL	_putfonts8_asc_sht
  2496 00001BE5 83 C4 1C                        	ADD	ESP,28
  2497 00001BE8 C7 85 FFFFF6E0 00000147         	MOV	DWORD [-2336+EBP],327
  2498 00001BF2 31 C0                           	XOR	EAX,EAX
  2499 00001BF4                                 L156:
  2500 00001BF4 C7 84 85 FFFFF7A4 00000000      	MOV	DWORD [-2140+EBP+EAX*4],0
  2501 00001BFF 40                              	INC	EAX
  2502 00001C00 83 F8 07                        	CMP	EAX,7
  2503 00001C03 7E EF                           	JLE	L156
  2504 00001C05 31 FF                           	XOR	EDI,EDI
  2505 00001C07 C7 85 FFFFF77C 00000000         	MOV	DWORD [-2180+EBP],0
  2506 00001C11 C7 85 FFFFF7BC 00000001         	MOV	DWORD [-2116+EBP],1
  2507 00001C1B E9 FFFFFF10                     	JMP	L134
  2508 00001C20                                 L382:
  2509 00001C20 6A 03                           	PUSH	3
  2510 00001C22 FF B5 FFFFF6EC                  	PUSH	DWORD [-2324+EBP]
  2511 00001C28 E8 [00000000]                   	CALL	_sheet_updown
  2512 00001C2D 6A 22                           	PUSH	34
  2513 00001C2F 68 [000005D9]                   	PUSH	LC9
  2514 00001C34 6A 07                           	PUSH	7
  2515 00001C36 6A 00                           	PUSH	0
  2516 00001C38 68 0000012C                     	PUSH	300
  2517 00001C3D 68 000000FA                     	PUSH	250
  2518 00001C42 FF B5 FFFFF6EC                  	PUSH	DWORD [-2324+EBP]
  2519 00001C48 E8 [00000000]                   	CALL	_putfonts8_asc_sht
  2520 00001C4D B8 1DCD6500                     	MOV	EAX,500000000
  2521 00001C52 83 C4 24                        	ADD	ESP,36
  2522 00001C55                                 L140:
  2523 00001C55 48                              	DEC	EAX
  2524 00001C56 79 FD                           	JNS	L140
  2525 00001C58 6A 22                           	PUSH	34
  2526 00001C5A 68 [000005FC]                   	PUSH	LC10
  2527 00001C5F 6A 07                           	PUSH	7
  2528 00001C61 6A 00                           	PUSH	0
  2529 00001C63 68 0000012C                     	PUSH	300
  2530 00001C68 68 000000FA                     	PUSH	250
  2531 00001C6D FF B5 FFFFF6EC                  	PUSH	DWORD [-2324+EBP]
  2532 00001C73 E8 [00000000]                   	CALL	_putfonts8_asc_sht
  2533 00001C78 B8 1DCD6500                     	MOV	EAX,500000000
  2534 00001C7D 83 C4 1C                        	ADD	ESP,28
  2535 00001C80                                 L145:
  2536 00001C80 48                              	DEC	EAX
  2537 00001C81 79 FD                           	JNS	L145
  2538 00001C83 6A 22                           	PUSH	34
  2539 00001C85 68 [0000061F]                   	PUSH	LC11
  2540 00001C8A 6A 07                           	PUSH	7
  2541 00001C8C 6A 00                           	PUSH	0
  2542 00001C8E 68 0000012C                     	PUSH	300
  2543 00001C93 68 000000FA                     	PUSH	250
  2544 00001C98 FF B5 FFFFF6EC                  	PUSH	DWORD [-2324+EBP]
  2545 00001C9E E8 [00000000]                   	CALL	_putfonts8_asc_sht
  2546 00001CA3 B8 1DCD6500                     	MOV	EAX,500000000
  2547 00001CA8 83 C4 1C                        	ADD	ESP,28
  2548 00001CAB                                 L150:
  2549 00001CAB 48                              	DEC	EAX
  2550 00001CAC 79 FD                           	JNS	L150
  2551 00001CAE 6A FF                           	PUSH	-1
  2552 00001CB0 FF B5 FFFFF6EC                  	PUSH	DWORD [-2324+EBP]
  2553 00001CB6 E8 [00000000]                   	CALL	_sheet_updown
  2554 00001CBB 59                              	POP	ECX
  2555 00001CBC C7 85 FFFFF74C 00000000         	MOV	DWORD [-2228+EBP],0
  2556 00001CC6 5B                              	POP	EBX
  2557 00001CC7 E9 FFFFFEB5                     	JMP	L136
  2558 00001CCC                                 L381:
  2559 00001CCC 85 C0                           	TEST	EAX,EAX
  2560 00001CCE 74 71                           	JE	L131
  2561 00001CD0 6A 00                           	PUSH	0
  2562 00001CD2 31 FF                           	XOR	EDI,EDI
  2563 00001CD4 53                              	PUSH	EBX
  2564 00001CD5 FF B5 FFFFF76C                  	PUSH	DWORD [-2196+EBP]
  2565 00001CDB E8 [00000000]                   	CALL	_timer_init
  2566 00001CE0                                 L343:
  2567 00001CE0 83 C4 0C                        	ADD	ESP,12
  2568 00001CE3 6A 32                           	PUSH	50
  2569 00001CE5 FF B5 FFFFF76C                  	PUSH	DWORD [-2196+EBP]
  2570 00001CEB E8 [00000000]                   	CALL	_timer_settime
  2571 00001CF0 8B 8D FFFFF72C                  	MOV	ECX,DWORD [-2260+EBP]
  2572 00001CF6 8B B5 FFFFF6E0                  	MOV	ESI,DWORD [-2336+EBP]
  2573 00001CFC 68 000001A3                     	PUSH	419
  2574 00001D01 83 EE 09                        	SUB	ESI,9
  2575 00001D04 8B 9D FFFFF6E0                  	MOV	EBX,DWORD [-2336+EBP]
  2576 00001D0A 56                              	PUSH	ESI
  2577 00001D0B 83 EB 0A                        	SUB	EBX,10
  2578 00001D0E 68 00000193                     	PUSH	403
  2579 00001D13 53                              	PUSH	EBX
  2580 00001D14 57                              	PUSH	EDI
  2581 00001D15 FF 71 04                        	PUSH	DWORD [4+ECX]
  2582 00001D18 FF 31                           	PUSH	DWORD [ECX]
  2583 00001D1A E8 [00000000]                   	CALL	_boxfill8
  2584 00001D1F 83 C4 24                        	ADD	ESP,36
  2585 00001D22 68 000001A3                     	PUSH	419
  2586 00001D27 56                              	PUSH	ESI
  2587 00001D28 68 00000193                     	PUSH	403
  2588 00001D2D 53                              	PUSH	EBX
  2589 00001D2E FF B5 FFFFF72C                  	PUSH	DWORD [-2260+EBP]
  2590 00001D34 E8 [00000000]                   	CALL	_sheet_refresh
  2591 00001D39 83 C4 14                        	ADD	ESP,20
  2592 00001D3C E9 FFFFFDCF                     	JMP	L130
  2593 00001D41                                 L131:
  2594 00001D41 6A 01                           	PUSH	1
  2595 00001D43 BF 00000007                     	MOV	EDI,7
  2596 00001D48 53                              	PUSH	EBX
  2597 00001D49 FF B5 FFFFF76C                  	PUSH	DWORD [-2196+EBP]
  2598 00001D4F E8 [00000000]                   	CALL	_timer_init
  2599 00001D54 EB 8A                           	JMP	L343
  2600 00001D56                                 L17:
  2601 00001D56 53                              	PUSH	EBX
  2602 00001D57 E8 [00000000]                   	CALL	_fifo32_get
  2603 00001D5C 89 85 FFFFF780                  	MOV	DWORD [-2176+EBP],EAX
  2604 00001D62 E8 [00000000]                   	CALL	_io_sti
  2605 00001D67 58                              	POP	EAX
  2606 00001D68 83 BD FFFFF780 0F               	CMP	DWORD [-2176+EBP],15
  2607 00001D6F 0F 84 00001BC4                  	JE	L383
  2608 00001D75                                 L19:
  2609 00001D75 83 BD FFFFF780 10               	CMP	DWORD [-2176+EBP],16
  2610 00001D7C 0F 84 00001B47                  	JE	L384
  2611 00001D82                                 L20:
  2612 00001D82 83 BD FFFFF780 11               	CMP	DWORD [-2176+EBP],17
  2613 00001D89 0F 84 00001ACA                  	JE	L385
  2614 00001D8F                                 L21:
  2615 00001D8F 83 BD FFFFF780 12               	CMP	DWORD [-2176+EBP],18
  2616 00001D96 0F 84 00001A4D                  	JE	L386
  2617 00001D9C                                 L22:
  2618 00001D9C 83 BD FFFFF780 13               	CMP	DWORD [-2176+EBP],19
  2619 00001DA3 0F 84 000019D0                  	JE	L387
  2620 00001DA9                                 L23:
  2621 00001DA9 83 BD FFFFF780 14               	CMP	DWORD [-2176+EBP],20
  2622 00001DB0 0F 84 00001953                  	JE	L388
  2623 00001DB6                                 L24:
  2624 00001DB6 83 BD FFFFF780 15               	CMP	DWORD [-2176+EBP],21
  2625 00001DBD 0F 84 000018A8                  	JE	L389
  2626 00001DC3                                 L25:
  2627 00001DC3 83 BD FFFFF780 16               	CMP	DWORD [-2176+EBP],22
  2628 00001DCA 0F 84 000017FD                  	JE	L390
  2629 00001DD0                                 L26:
  2630 00001DD0 83 BD FFFFF780 17               	CMP	DWORD [-2176+EBP],23
  2631 00001DD7 0F 84 00001752                  	JE	L391
  2632 00001DDD                                 L27:
  2633 00001DDD 83 BD FFFFF780 18               	CMP	DWORD [-2176+EBP],24
  2634 00001DE4 0F 84 000016A7                  	JE	L392
  2635 00001DEA                                 L28:
  2636 00001DEA 83 BD FFFFF780 19               	CMP	DWORD [-2176+EBP],25
  2637 00001DF1 0F 84 000015F6                  	JE	L393
  2638 00001DF7                                 L29:
  2639 00001DF7 83 BD FFFFF780 1A               	CMP	DWORD [-2176+EBP],26
  2640 00001DFE 0F 84 00001545                  	JE	L394
  2641 00001E04                                 L30:
  2642 00001E04 83 BD FFFFF780 1B               	CMP	DWORD [-2176+EBP],27
  2643 00001E0B 0F 84 00001494                  	JE	L395
  2644 00001E11                                 L31:
  2645 00001E11 83 BD FFFFF780 1C               	CMP	DWORD [-2176+EBP],28
  2646 00001E18 0F 84 000013E3                  	JE	L396
  2647 00001E1E                                 L32:
  2648 00001E1E 83 BD FFFFF780 1D               	CMP	DWORD [-2176+EBP],29
  2649 00001E25 0F 84 00001332                  	JE	L397
  2650 00001E2B                                 L33:
  2651 00001E2B 83 BD FFFFF780 1E               	CMP	DWORD [-2176+EBP],30
  2652 00001E32 0F 84 00001281                  	JE	L398
  2653 00001E38                                 L34:
  2654 00001E38 83 BD FFFFF780 1F               	CMP	DWORD [-2176+EBP],31
  2655 00001E3F 0F 84 000011D0                  	JE	L399
  2656 00001E45                                 L35:
  2657 00001E45 83 BD FFFFF780 20               	CMP	DWORD [-2176+EBP],32
  2658 00001E4C 0F 84 0000111F                  	JE	L400
  2659 00001E52                                 L36:
  2660 00001E52 83 BD FFFFF780 21               	CMP	DWORD [-2176+EBP],33
  2661 00001E59 0F 84 0000109C                  	JE	L401
  2662 00001E5F                                 L37:
  2663 00001E5F 83 BD FFFFF780 22               	CMP	DWORD [-2176+EBP],34
  2664 00001E66 0F 84 00001019                  	JE	L402
  2665 00001E6C                                 L38:
  2666 00001E6C 83 BD FFFFF780 23               	CMP	DWORD [-2176+EBP],35
  2667 00001E73 0F 84 00000F96                  	JE	L403
  2668 00001E79                                 L39:
  2669 00001E79 83 BD FFFFF780 24               	CMP	DWORD [-2176+EBP],36
  2670 00001E80 0F 84 00000F13                  	JE	L404
  2671 00001E86                                 L40:
  2672 00001E86 83 BD FFFFF780 25               	CMP	DWORD [-2176+EBP],37
  2673 00001E8D 0F 84 00000E90                  	JE	L405
  2674 00001E93                                 L41:
  2675 00001E93 83 BD FFFFF780 26               	CMP	DWORD [-2176+EBP],38
  2676 00001E9A 0F 84 00000E0D                  	JE	L406
  2677 00001EA0                                 L42:
  2678 00001EA0 83 BD FFFFF780 27               	CMP	DWORD [-2176+EBP],39
  2679 00001EA7 0F 84 00000B90                  	JE	L407
  2680 00001EAD                                 L43:
  2681 00001EAD 83 BD FFFFF780 28               	CMP	DWORD [-2176+EBP],40
  2682 00001EB4 0F 84 00000B0F                  	JE	L408
  2683 00001EBA                                 L44:
  2684 00001EBA 83 BD FFFFF780 29               	CMP	DWORD [-2176+EBP],41
  2685 00001EC1 0F 84 000009A0                  	JE	L409
  2686 00001EC7                                 L45:
  2687 00001EC7 83 BD FFFFF780 2A               	CMP	DWORD [-2176+EBP],42
  2688 00001ECE 0F 84 0000082E                  	JE	L410
  2689 00001ED4                                 L51:
  2690 00001ED4 83 BD FFFFF780 2B               	CMP	DWORD [-2176+EBP],43
  2691 00001EDB 0F 84 000006FA                  	JE	L411
  2692 00001EE1                                 L57:
  2693 00001EE1 83 BD FFFFF780 2C               	CMP	DWORD [-2176+EBP],44
  2694 00001EE8 0F 84 000005C3                  	JE	L412
  2695 00001EEE                                 L68:
  2696 00001EEE 83 BD FFFFF780 2D               	CMP	DWORD [-2176+EBP],45
  2697 00001EF5 0F 84 00000489                  	JE	L413
  2698 00001EFB                                 L79:
  2699 00001EFB 83 BD FFFFF780 2E               	CMP	DWORD [-2176+EBP],46
  2700 00001F02 0F 84 00000352                  	JE	L414
  2701 00001F08                                 L90:
  2702 00001F08 83 BD FFFFF780 2F               	CMP	DWORD [-2176+EBP],47
  2703 00001F0F 0F 84 0000021B                  	JE	L415
  2704 00001F15                                 L101:
  2705 00001F15 83 BD FFFFF780 30               	CMP	DWORD [-2176+EBP],48
  2706 00001F1C 0F 84 000000B6                  	JE	L416
  2707 00001F22                                 L112:
  2708 00001F22 83 BD FFFFF780 31               	CMP	DWORD [-2176+EBP],49
  2709 00001F29 0F 85 FFFFE9F7                  	JNE	L14
  2710 00001F2F 6A 32                           	PUSH	50
  2711 00001F31 8D 85 FFFFFF74                  	LEA	EAX,DWORD [-140+EBP]
  2712 00001F37 50                              	PUSH	EAX
  2713 00001F38 BE 00000001                     	MOV	ESI,1
  2714 00001F3D FF B5 FFFFF770                  	PUSH	DWORD [-2192+EBP]
  2715 00001F43 E8 [00000000]                   	CALL	_timer_init
  2716 00001F48 6A 02                           	PUSH	2
  2717 00001F4A 68 000001A4                     	PUSH	420
  2718 00001F4F 68 00000190                     	PUSH	400
  2719 00001F54 68 000001A4                     	PUSH	420
  2720 00001F59 68 0000015E                     	PUSH	350
  2721 00001F5E 6A 07                           	PUSH	7
  2722 00001F60 0F BF 05 00000FF4               	MOVSX	EAX,WORD [4084]
  2723 00001F67 50                              	PUSH	EAX
  2724 00001F68 FF B5 FFFFF744                  	PUSH	DWORD [-2236+EBP]
  2725 00001F6E E8 [00000000]                   	CALL	_line
  2726 00001F73 83 C4 2C                        	ADD	ESP,44
  2727 00001F76 6A 02                           	PUSH	2
  2728 00001F78 68 000001A4                     	PUSH	420
  2729 00001F7D 68 000001C2                     	PUSH	450
  2730 00001F82 68 000001A4                     	PUSH	420
  2731 00001F87 68 00000190                     	PUSH	400
  2732 00001F8C 6A 07                           	PUSH	7
  2733 00001F8E 0F BF 05 00000FF4               	MOVSX	EAX,WORD [4084]
  2734 00001F95 50                              	PUSH	EAX
  2735 00001F96 FF B5 FFFFF744                  	PUSH	DWORD [-2236+EBP]
  2736 00001F9C E8 [00000000]                   	CALL	_line
  2737 00001FA1 83 C4 20                        	ADD	ESP,32
  2738 00001FA4 0F BF 05 00000FF6               	MOVSX	EAX,WORD [4086]
  2739 00001FAB 50                              	PUSH	EAX
  2740 00001FAC 0F BF 05 00000FF4               	MOVSX	EAX,WORD [4084]
  2741 00001FB3 50                              	PUSH	EAX
  2742 00001FB4 6A 00                           	PUSH	0
  2743 00001FB6 6A 00                           	PUSH	0
  2744 00001FB8 FF B5 FFFFF730                  	PUSH	DWORD [-2256+EBP]
  2745 00001FBE E8 [00000000]                   	CALL	_sheet_refresh
  2746 00001FC3 6A 28                           	PUSH	40
  2747 00001FC5 FF B5 FFFFF770                  	PUSH	DWORD [-2192+EBP]
  2748 00001FCB E8 [00000000]                   	CALL	_timer_settime
  2749 00001FD0 83 C4 1C                        	ADD	ESP,28
  2750 00001FD3 E9 FFFFE94E                     	JMP	L14
  2751 00001FD8                                 L416:
  2752 00001FD8 6A 31                           	PUSH	49
  2753 00001FDA 8D 85 FFFFFF74                  	LEA	EAX,DWORD [-140+EBP]
  2754 00001FE0 50                              	PUSH	EAX
  2755 00001FE1 BB 00000004                     	MOV	EBX,4
  2756 00001FE6 FF B5 FFFFF770                  	PUSH	DWORD [-2192+EBP]
  2757 00001FEC E8 [00000000]                   	CALL	_timer_init
  2758 00001FF1 83 C4 0C                        	ADD	ESP,12
  2759 00001FF4                                 L117:
  2760 00001FF4 8B 8C 9D FFFFF9B4               	MOV	ECX,DWORD [-1612+EBP+EBX*4]
  2761 00001FFB 8B 94 9D FFFFFAA4               	MOV	EDX,DWORD [-1372+EBP+EBX*4]
  2762 00002002 83 C3 05                        	ADD	EBX,5
  2763 00002005 8D 41 04                        	LEA	EAX,DWORD [4+ECX]
  2764 00002008 83 E9 04                        	SUB	ECX,4
  2765 0000200B 50                              	PUSH	EAX
  2766 0000200C 8D 42 04                        	LEA	EAX,DWORD [4+EDX]
  2767 0000200F 50                              	PUSH	EAX
  2768 00002010 83 EA 04                        	SUB	EDX,4
  2769 00002013 51                              	PUSH	ECX
  2770 00002014 52                              	PUSH	EDX
  2771 00002015 6A 0F                           	PUSH	15
  2772 00002017 0F BF 05 00000FF4               	MOVSX	EAX,WORD [4084]
  2773 0000201E 50                              	PUSH	EAX
  2774 0000201F FF B5 FFFFF744                  	PUSH	DWORD [-2236+EBP]
  2775 00002025 E8 [00000000]                   	CALL	_boxfilly
  2776 0000202A 83 C4 1C                        	ADD	ESP,28
  2777 0000202D 83 FB 3C                        	CMP	EBX,60
  2778 00002030 7E C2                           	JLE	L117
  2779 00002032 BB 00000003                     	MOV	EBX,3
  2780 00002037                                 L122:
  2781 00002037 8B 8C 9D FFFFF9B4               	MOV	ECX,DWORD [-1612+EBP+EBX*4]
  2782 0000203E 8B 94 9D FFFFFAA4               	MOV	EDX,DWORD [-1372+EBP+EBX*4]
  2783 00002045 83 C3 05                        	ADD	EBX,5
  2784 00002048 8D 41 04                        	LEA	EAX,DWORD [4+ECX]
  2785 0000204B 83 E9 04                        	SUB	ECX,4
  2786 0000204E 50                              	PUSH	EAX
  2787 0000204F 8D 42 04                        	LEA	EAX,DWORD [4+EDX]
  2788 00002052 50                              	PUSH	EAX
  2789 00002053 83 EA 04                        	SUB	EDX,4
  2790 00002056 51                              	PUSH	ECX
  2791 00002057 52                              	PUSH	EDX
  2792 00002058 6A 07                           	PUSH	7
  2793 0000205A 0F BF 05 00000FF4               	MOVSX	EAX,WORD [4084]
  2794 00002061 50                              	PUSH	EAX
  2795 00002062 FF B5 FFFFF744                  	PUSH	DWORD [-2236+EBP]
  2796 00002068 E8 [00000000]                   	CALL	_boxfilly
  2797 0000206D 83 C4 1C                        	ADD	ESP,28
  2798 00002070 83 FB 3C                        	CMP	EBX,60
  2799 00002073 7E C2                           	JLE	L122
  2800 00002075 6A 02                           	PUSH	2
  2801 00002077 68 000001A4                     	PUSH	420
  2802 0000207C 68 00000190                     	PUSH	400
  2803 00002081 68 000001A4                     	PUSH	420
  2804 00002086 68 0000015E                     	PUSH	350
  2805 0000208B 6A 07                           	PUSH	7
  2806 0000208D 0F BF 05 00000FF4               	MOVSX	EAX,WORD [4084]
  2807 00002094 50                              	PUSH	EAX
  2808 00002095 FF B5 FFFFF744                  	PUSH	DWORD [-2236+EBP]
  2809 0000209B E8 [00000000]                   	CALL	_line
  2810 000020A0 83 C4 20                        	ADD	ESP,32
  2811 000020A3 6A 02                           	PUSH	2
  2812 000020A5 68 000001A4                     	PUSH	420
  2813 000020AA 68 000001C2                     	PUSH	450
  2814 000020AF 68 000001A4                     	PUSH	420
  2815 000020B4 68 00000190                     	PUSH	400
  2816 000020B9 6A 07                           	PUSH	7
  2817 000020BB 0F BF 05 00000FF4               	MOVSX	EAX,WORD [4084]
  2818 000020C2 50                              	PUSH	EAX
  2819 000020C3 FF B5 FFFFF744                  	PUSH	DWORD [-2236+EBP]
  2820 000020C9 E8 [00000000]                   	CALL	_line
  2821 000020CE 83 C4 20                        	ADD	ESP,32
  2822 000020D1 0F BF 05 00000FF6               	MOVSX	EAX,WORD [4086]
  2823 000020D8 50                              	PUSH	EAX
  2824 000020D9 0F BF 05 00000FF4               	MOVSX	EAX,WORD [4084]
  2825 000020E0 50                              	PUSH	EAX
  2826 000020E1 6A 00                           	PUSH	0
  2827 000020E3 6A 00                           	PUSH	0
  2828 000020E5 6A 00                           	PUSH	0
  2829 000020E7 0F BF 05 00000FF4               	MOVSX	EAX,WORD [4084]
  2830 000020EE 50                              	PUSH	EAX
  2831 000020EF FF B5 FFFFF744                  	PUSH	DWORD [-2236+EBP]
  2832 000020F5 E8 [00000000]                   	CALL	_boxfill8
  2833 000020FA 0F BF 05 00000FF6               	MOVSX	EAX,WORD [4086]
  2834 00002101 50                              	PUSH	EAX
  2835 00002102 0F BF 05 00000FF4               	MOVSX	EAX,WORD [4084]
  2836 00002109 50                              	PUSH	EAX
  2837 0000210A 6A 00                           	PUSH	0
  2838 0000210C 6A 00                           	PUSH	0
  2839 0000210E FF B5 FFFFF730                  	PUSH	DWORD [-2256+EBP]
  2840 00002114 E8 [00000000]                   	CALL	_sheet_refresh
  2841 00002119 83 C4 30                        	ADD	ESP,48
  2842 0000211C 6A 28                           	PUSH	40
  2843 0000211E FF B5 FFFFF770                  	PUSH	DWORD [-2192+EBP]
  2844 00002124 E8 [00000000]                   	CALL	_timer_settime
  2845 00002129 5B                              	POP	EBX
  2846 0000212A 5F                              	POP	EDI
  2847 0000212B E9 FFFFFDF2                     	JMP	L112
  2848 00002130                                 L415:
  2849 00002130 6A 30                           	PUSH	48
  2850 00002132 8D 85 FFFFFF74                  	LEA	EAX,DWORD [-140+EBP]
  2851 00002138 50                              	PUSH	EAX
  2852 00002139 31 DB                           	XOR	EBX,EBX
  2853 0000213B FF B5 FFFFF770                  	PUSH	DWORD [-2192+EBP]
  2854 00002141 E8 [00000000]                   	CALL	_timer_init
  2855 00002146 83 C4 0C                        	ADD	ESP,12
  2856 00002149                                 L106:
  2857 00002149 8B 8C 9D FFFFF9B4               	MOV	ECX,DWORD [-1612+EBP+EBX*4]
  2858 00002150 8B 94 9D FFFFFAA4               	MOV	EDX,DWORD [-1372+EBP+EBX*4]
  2859 00002157 83 C3 05                        	ADD	EBX,5
  2860 0000215A 8D 41 04                        	LEA	EAX,DWORD [4+ECX]
  2861 0000215D 83 E9 04                        	SUB	ECX,4
  2862 00002160 50                              	PUSH	EAX
  2863 00002161 8D 42 04                        	LEA	EAX,DWORD [4+EDX]
  2864 00002164 50                              	PUSH	EAX
  2865 00002165 83 EA 04                        	SUB	EDX,4
  2866 00002168 51                              	PUSH	ECX
  2867 00002169 52                              	PUSH	EDX
  2868 0000216A 6A 0F                           	PUSH	15
  2869 0000216C 0F BF 05 00000FF4               	MOVSX	EAX,WORD [4084]
  2870 00002173 50                              	PUSH	EAX
  2871 00002174 FF B5 FFFFF744                  	PUSH	DWORD [-2236+EBP]
  2872 0000217A E8 [00000000]                   	CALL	_boxfilly
  2873 0000217F 83 C4 1C                        	ADD	ESP,28
  2874 00002182 83 FB 3C                        	CMP	EBX,60
  2875 00002185 7E C2                           	JLE	L106
  2876 00002187 BB 00000004                     	MOV	EBX,4
  2877 0000218C                                 L111:
  2878 0000218C 8B 8C 9D FFFFF9B4               	MOV	ECX,DWORD [-1612+EBP+EBX*4]
  2879 00002193 8B 94 9D FFFFFAA4               	MOV	EDX,DWORD [-1372+EBP+EBX*4]
  2880 0000219A 83 C3 05                        	ADD	EBX,5
  2881 0000219D 8D 41 04                        	LEA	EAX,DWORD [4+ECX]
  2882 000021A0 83 E9 04                        	SUB	ECX,4
  2883 000021A3 50                              	PUSH	EAX
  2884 000021A4 8D 42 04                        	LEA	EAX,DWORD [4+EDX]
  2885 000021A7 50                              	PUSH	EAX
  2886 000021A8 83 EA 04                        	SUB	EDX,4
  2887 000021AB 51                              	PUSH	ECX
  2888 000021AC 52                              	PUSH	EDX
  2889 000021AD 6A 07                           	PUSH	7
  2890 000021AF 0F BF 05 00000FF4               	MOVSX	EAX,WORD [4084]
  2891 000021B6 50                              	PUSH	EAX
  2892 000021B7 FF B5 FFFFF744                  	PUSH	DWORD [-2236+EBP]
  2893 000021BD E8 [00000000]                   	CALL	_boxfilly
  2894 000021C2 83 C4 1C                        	ADD	ESP,28
  2895 000021C5 83 FB 3C                        	CMP	EBX,60
  2896 000021C8 7E C2                           	JLE	L111
  2897 000021CA 6A 02                           	PUSH	2
  2898 000021CC 68 000001A4                     	PUSH	420
  2899 000021D1 68 00000190                     	PUSH	400
  2900 000021D6 68 000001A4                     	PUSH	420
  2901 000021DB 68 0000015E                     	PUSH	350
  2902 000021E0 6A 07                           	PUSH	7
  2903 000021E2 0F BF 05 00000FF4               	MOVSX	EAX,WORD [4084]
  2904 000021E9 50                              	PUSH	EAX
  2905 000021EA FF B5 FFFFF744                  	PUSH	DWORD [-2236+EBP]
  2906 000021F0 E8 [00000000]                   	CALL	_line
  2907 000021F5 83 C4 20                        	ADD	ESP,32
  2908 000021F8 6A 02                           	PUSH	2
  2909 000021FA 68 000001A4                     	PUSH	420
  2910 000021FF 68 000001C2                     	PUSH	450
  2911 00002204 68 000001A4                     	PUSH	420
  2912 00002209 68 00000190                     	PUSH	400
  2913 0000220E 6A 07                           	PUSH	7
  2914 00002210 0F BF 05 00000FF4               	MOVSX	EAX,WORD [4084]
  2915 00002217 50                              	PUSH	EAX
  2916 00002218 FF B5 FFFFF744                  	PUSH	DWORD [-2236+EBP]
  2917 0000221E E8 [00000000]                   	CALL	_line
  2918 00002223 83 C4 20                        	ADD	ESP,32
  2919 00002226 0F BF 05 00000FF6               	MOVSX	EAX,WORD [4086]
  2920 0000222D 50                              	PUSH	EAX
  2921 0000222E 0F BF 05 00000FF4               	MOVSX	EAX,WORD [4084]
  2922 00002235 50                              	PUSH	EAX
  2923 00002236 6A 00                           	PUSH	0
  2924 00002238 6A 00                           	PUSH	0
  2925 0000223A FF B5 FFFFF730                  	PUSH	DWORD [-2256+EBP]
  2926 00002240 E8 [00000000]                   	CALL	_sheet_refresh
  2927 00002245 6A 28                           	PUSH	40
  2928 00002247 FF B5 FFFFF770                  	PUSH	DWORD [-2192+EBP]
  2929 0000224D E8 [00000000]                   	CALL	_timer_settime
  2930 00002252 83 C4 1C                        	ADD	ESP,28
  2931 00002255 E9 FFFFFCBB                     	JMP	L101
  2932 0000225A                                 L414:
  2933 0000225A 6A 2F                           	PUSH	47
  2934 0000225C 8D 85 FFFFFF74                  	LEA	EAX,DWORD [-140+EBP]
  2935 00002262 50                              	PUSH	EAX
  2936 00002263 BB 00000001                     	MOV	EBX,1
  2937 00002268 FF B5 FFFFF770                  	PUSH	DWORD [-2192+EBP]
  2938 0000226E E8 [00000000]                   	CALL	_timer_init
  2939 00002273 83 C4 0C                        	ADD	ESP,12
  2940 00002276                                 L95:
  2941 00002276 8B 8C 9D FFFFF9B4               	MOV	ECX,DWORD [-1612+EBP+EBX*4]
  2942 0000227D 8B 94 9D FFFFFAA4               	MOV	EDX,DWORD [-1372+EBP+EBX*4]
  2943 00002284 83 C3 05                        	ADD	EBX,5
  2944 00002287 8D 41 04                        	LEA	EAX,DWORD [4+ECX]
  2945 0000228A 83 E9 04                        	SUB	ECX,4
  2946 0000228D 50                              	PUSH	EAX
  2947 0000228E 8D 42 04                        	LEA	EAX,DWORD [4+EDX]
  2948 00002291 50                              	PUSH	EAX
  2949 00002292 83 EA 04                        	SUB	EDX,4
  2950 00002295 51                              	PUSH	ECX
  2951 00002296 52                              	PUSH	EDX
  2952 00002297 6A 0F                           	PUSH	15
  2953 00002299 0F BF 05 00000FF4               	MOVSX	EAX,WORD [4084]
  2954 000022A0 50                              	PUSH	EAX
  2955 000022A1 FF B5 FFFFF744                  	PUSH	DWORD [-2236+EBP]
  2956 000022A7 E8 [00000000]                   	CALL	_boxfilly
  2957 000022AC 83 C4 1C                        	ADD	ESP,28
  2958 000022AF 83 FB 3C                        	CMP	EBX,60
  2959 000022B2 7E C2                           	JLE	L95
  2960 000022B4 31 DB                           	XOR	EBX,EBX
  2961 000022B6                                 L100:
  2962 000022B6 8B 8C 9D FFFFF9B4               	MOV	ECX,DWORD [-1612+EBP+EBX*4]
  2963 000022BD 8B 94 9D FFFFFAA4               	MOV	EDX,DWORD [-1372+EBP+EBX*4]
  2964 000022C4 83 C3 05                        	ADD	EBX,5
  2965 000022C7 8D 41 04                        	LEA	EAX,DWORD [4+ECX]
  2966 000022CA 83 E9 04                        	SUB	ECX,4
  2967 000022CD 50                              	PUSH	EAX
  2968 000022CE 8D 42 04                        	LEA	EAX,DWORD [4+EDX]
  2969 000022D1 50                              	PUSH	EAX
  2970 000022D2 83 EA 04                        	SUB	EDX,4
  2971 000022D5 51                              	PUSH	ECX
  2972 000022D6 52                              	PUSH	EDX
  2973 000022D7 6A 07                           	PUSH	7
  2974 000022D9 0F BF 05 00000FF4               	MOVSX	EAX,WORD [4084]
  2975 000022E0 50                              	PUSH	EAX
  2976 000022E1 FF B5 FFFFF744                  	PUSH	DWORD [-2236+EBP]
  2977 000022E7 E8 [00000000]                   	CALL	_boxfilly
  2978 000022EC 83 C4 1C                        	ADD	ESP,28
  2979 000022EF 83 FB 3C                        	CMP	EBX,60
  2980 000022F2 7E C2                           	JLE	L100
  2981 000022F4 6A 02                           	PUSH	2
  2982 000022F6 68 000001A4                     	PUSH	420
  2983 000022FB 68 00000190                     	PUSH	400
  2984 00002300 68 000001A4                     	PUSH	420
  2985 00002305 68 0000015E                     	PUSH	350
  2986 0000230A 6A 07                           	PUSH	7
  2987 0000230C 0F BF 05 00000FF4               	MOVSX	EAX,WORD [4084]
  2988 00002313 50                              	PUSH	EAX
  2989 00002314 FF B5 FFFFF744                  	PUSH	DWORD [-2236+EBP]
  2990 0000231A E8 [00000000]                   	CALL	_line
  2991 0000231F 83 C4 20                        	ADD	ESP,32
  2992 00002322 6A 02                           	PUSH	2
  2993 00002324 68 000001A4                     	PUSH	420
  2994 00002329 68 000001C2                     	PUSH	450
  2995 0000232E 68 000001A4                     	PUSH	420
  2996 00002333 68 00000190                     	PUSH	400
  2997 00002338 6A 07                           	PUSH	7
  2998 0000233A 0F BF 05 00000FF4               	MOVSX	EAX,WORD [4084]
  2999 00002341 50                              	PUSH	EAX
  3000 00002342 FF B5 FFFFF744                  	PUSH	DWORD [-2236+EBP]
  3001 00002348 E8 [00000000]                   	CALL	_line
  3002 0000234D 83 C4 20                        	ADD	ESP,32
  3003 00002350 0F BF 05 00000FF6               	MOVSX	EAX,WORD [4086]
  3004 00002357 50                              	PUSH	EAX
  3005 00002358 0F BF 05 00000FF4               	MOVSX	EAX,WORD [4084]
  3006 0000235F 50                              	PUSH	EAX
  3007 00002360 6A 00                           	PUSH	0
  3008 00002362 6A 00                           	PUSH	0
  3009 00002364 FF B5 FFFFF730                  	PUSH	DWORD [-2256+EBP]
  3010 0000236A E8 [00000000]                   	CALL	_sheet_refresh
  3011 0000236F 6A 28                           	PUSH	40
  3012 00002371 FF B5 FFFFF770                  	PUSH	DWORD [-2192+EBP]
  3013 00002377 E8 [00000000]                   	CALL	_timer_settime
  3014 0000237C 83 C4 1C                        	ADD	ESP,28
  3015 0000237F E9 FFFFFB84                     	JMP	L90
  3016 00002384                                 L413:
  3017 00002384 6A 2E                           	PUSH	46
  3018 00002386 8D 85 FFFFFF74                  	LEA	EAX,DWORD [-140+EBP]
  3019 0000238C 50                              	PUSH	EAX
  3020 0000238D BB 00000002                     	MOV	EBX,2
  3021 00002392 FF B5 FFFFF770                  	PUSH	DWORD [-2192+EBP]
  3022 00002398 E8 [00000000]                   	CALL	_timer_init
  3023 0000239D 83 C4 0C                        	ADD	ESP,12
  3024 000023A0                                 L84:
  3025 000023A0 8B 8C 9D FFFFF9B4               	MOV	ECX,DWORD [-1612+EBP+EBX*4]
  3026 000023A7 8B 94 9D FFFFFAA4               	MOV	EDX,DWORD [-1372+EBP+EBX*4]
  3027 000023AE 83 C3 05                        	ADD	EBX,5
  3028 000023B1 8D 41 04                        	LEA	EAX,DWORD [4+ECX]
  3029 000023B4 83 E9 04                        	SUB	ECX,4
  3030 000023B7 50                              	PUSH	EAX
  3031 000023B8 8D 42 04                        	LEA	EAX,DWORD [4+EDX]
  3032 000023BB 50                              	PUSH	EAX
  3033 000023BC 83 EA 04                        	SUB	EDX,4
  3034 000023BF 51                              	PUSH	ECX
  3035 000023C0 52                              	PUSH	EDX
  3036 000023C1 6A 0F                           	PUSH	15
  3037 000023C3 0F BF 05 00000FF4               	MOVSX	EAX,WORD [4084]
  3038 000023CA 50                              	PUSH	EAX
  3039 000023CB FF B5 FFFFF744                  	PUSH	DWORD [-2236+EBP]
  3040 000023D1 E8 [00000000]                   	CALL	_boxfilly
  3041 000023D6 83 C4 1C                        	ADD	ESP,28
  3042 000023D9 83 FB 3C                        	CMP	EBX,60
  3043 000023DC 7E C2                           	JLE	L84
  3044 000023DE BB 00000001                     	MOV	EBX,1
  3045 000023E3                                 L89:
  3046 000023E3 8B 8C 9D FFFFF9B4               	MOV	ECX,DWORD [-1612+EBP+EBX*4]
  3047 000023EA 8B 94 9D FFFFFAA4               	MOV	EDX,DWORD [-1372+EBP+EBX*4]
  3048 000023F1 83 C3 05                        	ADD	EBX,5
  3049 000023F4 8D 41 04                        	LEA	EAX,DWORD [4+ECX]
  3050 000023F7 83 E9 04                        	SUB	ECX,4
  3051 000023FA 50                              	PUSH	EAX
  3052 000023FB 8D 42 04                        	LEA	EAX,DWORD [4+EDX]
  3053 000023FE 50                              	PUSH	EAX
  3054 000023FF 83 EA 04                        	SUB	EDX,4
  3055 00002402 51                              	PUSH	ECX
  3056 00002403 52                              	PUSH	EDX
  3057 00002404 6A 07                           	PUSH	7
  3058 00002406 0F BF 05 00000FF4               	MOVSX	EAX,WORD [4084]
  3059 0000240D 50                              	PUSH	EAX
  3060 0000240E FF B5 FFFFF744                  	PUSH	DWORD [-2236+EBP]
  3061 00002414 E8 [00000000]                   	CALL	_boxfilly
  3062 00002419 83 C4 1C                        	ADD	ESP,28
  3063 0000241C 83 FB 3C                        	CMP	EBX,60
  3064 0000241F 7E C2                           	JLE	L89
  3065 00002421 6A 02                           	PUSH	2
  3066 00002423 68 000001A4                     	PUSH	420
  3067 00002428 68 00000190                     	PUSH	400
  3068 0000242D 68 000001A4                     	PUSH	420
  3069 00002432 68 0000015E                     	PUSH	350
  3070 00002437 6A 07                           	PUSH	7
  3071 00002439 0F BF 05 00000FF4               	MOVSX	EAX,WORD [4084]
  3072 00002440 50                              	PUSH	EAX
  3073 00002441 FF B5 FFFFF744                  	PUSH	DWORD [-2236+EBP]
  3074 00002447 E8 [00000000]                   	CALL	_line
  3075 0000244C 83 C4 20                        	ADD	ESP,32
  3076 0000244F 6A 02                           	PUSH	2
  3077 00002451 68 000001A4                     	PUSH	420
  3078 00002456 68 000001C2                     	PUSH	450
  3079 0000245B 68 000001A4                     	PUSH	420
  3080 00002460 68 00000190                     	PUSH	400
  3081 00002465 6A 07                           	PUSH	7
  3082 00002467 0F BF 05 00000FF4               	MOVSX	EAX,WORD [4084]
  3083 0000246E 50                              	PUSH	EAX
  3084 0000246F FF B5 FFFFF744                  	PUSH	DWORD [-2236+EBP]
  3085 00002475 E8 [00000000]                   	CALL	_line
  3086 0000247A 83 C4 20                        	ADD	ESP,32
  3087 0000247D 0F BF 05 00000FF6               	MOVSX	EAX,WORD [4086]
  3088 00002484 50                              	PUSH	EAX
  3089 00002485 0F BF 05 00000FF4               	MOVSX	EAX,WORD [4084]
  3090 0000248C 50                              	PUSH	EAX
  3091 0000248D 6A 00                           	PUSH	0
  3092 0000248F 6A 00                           	PUSH	0
  3093 00002491 FF B5 FFFFF730                  	PUSH	DWORD [-2256+EBP]
  3094 00002497 E8 [00000000]                   	CALL	_sheet_refresh
  3095 0000249C 6A 64                           	PUSH	100
  3096 0000249E FF B5 FFFFF770                  	PUSH	DWORD [-2192+EBP]
  3097 000024A4 E8 [00000000]                   	CALL	_timer_settime
  3098 000024A9 83 C4 1C                        	ADD	ESP,28
  3099 000024AC E9 FFFFFA4A                     	JMP	L79
  3100 000024B1                                 L412:
  3101 000024B1 6A 2D                           	PUSH	45
  3102 000024B3 8D 85 FFFFFF74                  	LEA	EAX,DWORD [-140+EBP]
  3103 000024B9 50                              	PUSH	EAX
  3104 000024BA BB 00000003                     	MOV	EBX,3
  3105 000024BF FF B5 FFFFF770                  	PUSH	DWORD [-2192+EBP]
  3106 000024C5 E8 [00000000]                   	CALL	_timer_init
  3107 000024CA 6A 02                           	PUSH	2
  3108 000024CC 68 000001A4                     	PUSH	420
  3109 000024D1 68 0000015E                     	PUSH	350
  3110 000024D6 68 000001A4                     	PUSH	420
  3111 000024DB 68 00000096                     	PUSH	150
  3112 000024E0 6A 07                           	PUSH	7
  3113 000024E2 0F BF 05 00000FF4               	MOVSX	EAX,WORD [4084]
  3114 000024E9 50                              	PUSH	EAX
  3115 000024EA FF B5 FFFFF744                  	PUSH	DWORD [-2236+EBP]
  3116 000024F0 E8 [00000000]                   	CALL	_line
  3117 000024F5 83 C4 2C                        	ADD	ESP,44
  3118 000024F8 6A 02                           	PUSH	2
  3119 000024FA 68 000001A4                     	PUSH	420
  3120 000024FF 68 0000028A                     	PUSH	650
  3121 00002504 68 000001A4                     	PUSH	420
  3122 00002509 68 000001C2                     	PUSH	450
  3123 0000250E 6A 07                           	PUSH	7
  3124 00002510 0F BF 05 00000FF4               	MOVSX	EAX,WORD [4084]
  3125 00002517 50                              	PUSH	EAX
  3126 00002518 FF B5 FFFFF744                  	PUSH	DWORD [-2236+EBP]
  3127 0000251E E8 [00000000]                   	CALL	_line
  3128 00002523 83 C4 20                        	ADD	ESP,32
  3129 00002526                                 L73:
  3130 00002526 8B 8C 9D FFFFF9B4               	MOV	ECX,DWORD [-1612+EBP+EBX*4]
  3131 0000252D 8B 94 9D FFFFFAA4               	MOV	EDX,DWORD [-1372+EBP+EBX*4]
  3132 00002534 83 C3 05                        	ADD	EBX,5
  3133 00002537 8D 41 04                        	LEA	EAX,DWORD [4+ECX]
  3134 0000253A 83 E9 04                        	SUB	ECX,4
  3135 0000253D 50                              	PUSH	EAX
  3136 0000253E 8D 42 04                        	LEA	EAX,DWORD [4+EDX]
  3137 00002541 50                              	PUSH	EAX
  3138 00002542 83 EA 04                        	SUB	EDX,4
  3139 00002545 51                              	PUSH	ECX
  3140 00002546 52                              	PUSH	EDX
  3141 00002547 6A 0F                           	PUSH	15
  3142 00002549 0F BF 05 00000FF4               	MOVSX	EAX,WORD [4084]
  3143 00002550 50                              	PUSH	EAX
  3144 00002551 FF B5 FFFFF744                  	PUSH	DWORD [-2236+EBP]
  3145 00002557 E8 [00000000]                   	CALL	_boxfilly
  3146 0000255C 83 C4 1C                        	ADD	ESP,28
  3147 0000255F 83 FB 3C                        	CMP	EBX,60
  3148 00002562 7E C2                           	JLE	L73
  3149 00002564 BB 00000002                     	MOV	EBX,2
  3150 00002569                                 L78:
  3151 00002569 8B 8C 9D FFFFF9B4               	MOV	ECX,DWORD [-1612+EBP+EBX*4]
  3152 00002570 8B 94 9D FFFFFAA4               	MOV	EDX,DWORD [-1372+EBP+EBX*4]
  3153 00002577 83 C3 05                        	ADD	EBX,5
  3154 0000257A 8D 41 04                        	LEA	EAX,DWORD [4+ECX]
  3155 0000257D 83 E9 04                        	SUB	ECX,4
  3156 00002580 50                              	PUSH	EAX
  3157 00002581 8D 42 04                        	LEA	EAX,DWORD [4+EDX]
  3158 00002584 50                              	PUSH	EAX
  3159 00002585 83 EA 04                        	SUB	EDX,4
  3160 00002588 51                              	PUSH	ECX
  3161 00002589 52                              	PUSH	EDX
  3162 0000258A 6A 07                           	PUSH	7
  3163 0000258C 0F BF 05 00000FF4               	MOVSX	EAX,WORD [4084]
  3164 00002593 50                              	PUSH	EAX
  3165 00002594 FF B5 FFFFF744                  	PUSH	DWORD [-2236+EBP]
  3166 0000259A E8 [00000000]                   	CALL	_boxfilly
  3167 0000259F 83 C4 1C                        	ADD	ESP,28
  3168 000025A2 83 FB 3C                        	CMP	EBX,60
  3169 000025A5 7E C2                           	JLE	L78
  3170 000025A7 0F BF 05 00000FF6               	MOVSX	EAX,WORD [4086]
  3171 000025AE 50                              	PUSH	EAX
  3172 000025AF 0F BF 05 00000FF4               	MOVSX	EAX,WORD [4084]
  3173 000025B6 50                              	PUSH	EAX
  3174 000025B7 6A 00                           	PUSH	0
  3175 000025B9 6A 00                           	PUSH	0
  3176 000025BB FF B5 FFFFF730                  	PUSH	DWORD [-2256+EBP]
  3177 000025C1 E8 [00000000]                   	CALL	_sheet_refresh
  3178 000025C6 6A 64                           	PUSH	100
  3179 000025C8 FF B5 FFFFF770                  	PUSH	DWORD [-2192+EBP]
  3180 000025CE E8 [00000000]                   	CALL	_timer_settime
  3181 000025D3 83 C4 1C                        	ADD	ESP,28
  3182 000025D6 E9 FFFFF913                     	JMP	L68
  3183 000025DB                                 L411:
  3184 000025DB 6A 2C                           	PUSH	44
  3185 000025DD 8D 85 FFFFFF74                  	LEA	EAX,DWORD [-140+EBP]
  3186 000025E3 50                              	PUSH	EAX
  3187 000025E4 BB 00000004                     	MOV	EBX,4
  3188 000025E9 FF B5 FFFFF770                  	PUSH	DWORD [-2192+EBP]
  3189 000025EF E8 [00000000]                   	CALL	_timer_init
  3190 000025F4 6A 02                           	PUSH	2
  3191 000025F6 68 000001A4                     	PUSH	420
  3192 000025FB 68 00000096                     	PUSH	150
  3193 00002600 68 000001A4                     	PUSH	420
  3194 00002605 6A 32                           	PUSH	50
  3195 00002607 6A 07                           	PUSH	7
  3196 00002609 0F BF 05 00000FF4               	MOVSX	EAX,WORD [4084]
  3197 00002610 50                              	PUSH	EAX
  3198 00002611 FF B5 FFFFF744                  	PUSH	DWORD [-2236+EBP]
  3199 00002617 E8 [00000000]                   	CALL	_line
  3200 0000261C 83 C4 2C                        	ADD	ESP,44
  3201 0000261F 6A 02                           	PUSH	2
  3202 00002621 68 000001A4                     	PUSH	420
  3203 00002626 68 000002EE                     	PUSH	750
  3204 0000262B 68 000001A4                     	PUSH	420
  3205 00002630 68 0000028A                     	PUSH	650
  3206 00002635 6A 07                           	PUSH	7
  3207 00002637 0F BF 05 00000FF4               	MOVSX	EAX,WORD [4084]
  3208 0000263E 50                              	PUSH	EAX
  3209 0000263F FF B5 FFFFF744                  	PUSH	DWORD [-2236+EBP]
  3210 00002645 E8 [00000000]                   	CALL	_line
  3211 0000264A 83 C4 20                        	ADD	ESP,32
  3212 0000264D                                 L62:
  3213 0000264D 8B 8C 9D FFFFF9B4               	MOV	ECX,DWORD [-1612+EBP+EBX*4]
  3214 00002654 8B 94 9D FFFFFAA4               	MOV	EDX,DWORD [-1372+EBP+EBX*4]
  3215 0000265B 83 C3 05                        	ADD	EBX,5
  3216 0000265E 8D 41 04                        	LEA	EAX,DWORD [4+ECX]
  3217 00002661 83 E9 04                        	SUB	ECX,4
  3218 00002664 50                              	PUSH	EAX
  3219 00002665 8D 42 04                        	LEA	EAX,DWORD [4+EDX]
  3220 00002668 50                              	PUSH	EAX
  3221 00002669 83 EA 04                        	SUB	EDX,4
  3222 0000266C 51                              	PUSH	ECX
  3223 0000266D 52                              	PUSH	EDX
  3224 0000266E 6A 0F                           	PUSH	15
  3225 00002670 0F BF 05 00000FF4               	MOVSX	EAX,WORD [4084]
  3226 00002677 50                              	PUSH	EAX
  3227 00002678 FF B5 FFFFF744                  	PUSH	DWORD [-2236+EBP]
  3228 0000267E E8 [00000000]                   	CALL	_boxfilly
  3229 00002683 83 C4 1C                        	ADD	ESP,28
  3230 00002686 83 FB 3C                        	CMP	EBX,60
  3231 00002689 7E C2                           	JLE	L62
  3232 0000268B BB 00000003                     	MOV	EBX,3
  3233 00002690                                 L67:
  3234 00002690 8B 8C 9D FFFFF9B4               	MOV	ECX,DWORD [-1612+EBP+EBX*4]
  3235 00002697 8B 94 9D FFFFFAA4               	MOV	EDX,DWORD [-1372+EBP+EBX*4]
  3236 0000269E 83 C3 05                        	ADD	EBX,5
  3237 000026A1 8D 41 04                        	LEA	EAX,DWORD [4+ECX]
  3238 000026A4 83 E9 04                        	SUB	ECX,4
  3239 000026A7 50                              	PUSH	EAX
  3240 000026A8 8D 42 04                        	LEA	EAX,DWORD [4+EDX]
  3241 000026AB 50                              	PUSH	EAX
  3242 000026AC 83 EA 04                        	SUB	EDX,4
  3243 000026AF 51                              	PUSH	ECX
  3244 000026B0 52                              	PUSH	EDX
  3245 000026B1 6A 07                           	PUSH	7
  3246 000026B3 0F BF 05 00000FF4               	MOVSX	EAX,WORD [4084]
  3247 000026BA 50                              	PUSH	EAX
  3248 000026BB FF B5 FFFFF744                  	PUSH	DWORD [-2236+EBP]
  3249 000026C1 E8 [00000000]                   	CALL	_boxfilly
  3250 000026C6 83 C4 1C                        	ADD	ESP,28
  3251 000026C9 83 FB 3C                        	CMP	EBX,60
  3252 000026CC 7E C2                           	JLE	L67
  3253 000026CE 0F BF 05 00000FF6               	MOVSX	EAX,WORD [4086]
  3254 000026D5 50                              	PUSH	EAX
  3255 000026D6 0F BF 05 00000FF4               	MOVSX	EAX,WORD [4084]
  3256 000026DD 50                              	PUSH	EAX
  3257 000026DE 6A 00                           	PUSH	0
  3258 000026E0 6A 00                           	PUSH	0
  3259 000026E2 FF B5 FFFFF730                  	PUSH	DWORD [-2256+EBP]
  3260 000026E8 E8 [00000000]                   	CALL	_sheet_refresh
  3261 000026ED 6A 64                           	PUSH	100
  3262 000026EF FF B5 FFFFF770                  	PUSH	DWORD [-2192+EBP]
  3263 000026F5 E8 [00000000]                   	CALL	_timer_settime
  3264 000026FA 83 C4 1C                        	ADD	ESP,28
  3265 000026FD E9 FFFFF7DF                     	JMP	L57
  3266 00002702                                 L410:
  3267 00002702 6A 2B                           	PUSH	43
  3268 00002704 8D 85 FFFFFF74                  	LEA	EAX,DWORD [-140+EBP]
  3269 0000270A 50                              	PUSH	EAX
  3270 0000270B BB 00000004                     	MOV	EBX,4
  3271 00002710 FF B5 FFFFF770                  	PUSH	DWORD [-2192+EBP]
  3272 00002716 E8 [00000000]                   	CALL	_timer_init
  3273 0000271B 68 00000168                     	PUSH	360
  3274 00002720 68 000001CC                     	PUSH	460
  3275 00002725 68 000000F0                     	PUSH	240
  3276 0000272A 68 00000154                     	PUSH	340
  3277 0000272F 6A 10                           	PUSH	16
  3278 00002731 0F BF 05 00000FF4               	MOVSX	EAX,WORD [4084]
  3279 00002738 50                              	PUSH	EAX
  3280 00002739 FF B5 FFFFF744                  	PUSH	DWORD [-2236+EBP]
  3281 0000273F E8 [00000000]                   	CALL	_boxfilly
  3282 00002744 83 C4 28                        	ADD	ESP,40
  3283 00002747 68 0000015E                     	PUSH	350
  3284 0000274C 68 000001C2                     	PUSH	450
  3285 00002751 68 000000FA                     	PUSH	250
  3286 00002756 68 0000015E                     	PUSH	350
  3287 0000275B 6A 07                           	PUSH	7
  3288 0000275D 0F BF 05 00000FF4               	MOVSX	EAX,WORD [4084]
  3289 00002764 50                              	PUSH	EAX
  3290 00002765 FF B5 FFFFF744                  	PUSH	DWORD [-2236+EBP]
  3291 0000276B E8 [00000000]                   	CALL	_boxfilly
  3292 00002770 68 00000145                     	PUSH	325
  3293 00002775 68 000001A9                     	PUSH	425
  3294 0000277A 68 00000113                     	PUSH	275
  3295 0000277F 68 00000177                     	PUSH	375
  3296 00002784 6A 10                           	PUSH	16
  3297 00002786 0F BF 05 00000FF4               	MOVSX	EAX,WORD [4084]
  3298 0000278D 50                              	PUSH	EAX
  3299 0000278E FF B5 FFFFF744                  	PUSH	DWORD [-2236+EBP]
  3300 00002794 E8 [00000000]                   	CALL	_boxfilly
  3301 00002799 83 C4 38                        	ADD	ESP,56
  3302 0000279C                                 L56:
  3303 0000279C 8B 8C 9D FFFFF9B4               	MOV	ECX,DWORD [-1612+EBP+EBX*4]
  3304 000027A3 8B 94 9D FFFFFAA4               	MOV	EDX,DWORD [-1372+EBP+EBX*4]
  3305 000027AA 83 C3 05                        	ADD	EBX,5
  3306 000027AD 8D 41 04                        	LEA	EAX,DWORD [4+ECX]
  3307 000027B0 83 E9 04                        	SUB	ECX,4
  3308 000027B3 50                              	PUSH	EAX
  3309 000027B4 8D 42 04                        	LEA	EAX,DWORD [4+EDX]
  3310 000027B7 50                              	PUSH	EAX
  3311 000027B8 83 EA 04                        	SUB	EDX,4
  3312 000027BB 51                              	PUSH	ECX
  3313 000027BC 52                              	PUSH	EDX
  3314 000027BD 6A 07                           	PUSH	7
  3315 000027BF 0F BF 05 00000FF4               	MOVSX	EAX,WORD [4084]
  3316 000027C6 50                              	PUSH	EAX
  3317 000027C7 FF B5 FFFFF744                  	PUSH	DWORD [-2236+EBP]
  3318 000027CD E8 [00000000]                   	CALL	_boxfilly
  3319 000027D2 83 C4 1C                        	ADD	ESP,28
  3320 000027D5 83 FB 3C                        	CMP	EBX,60
  3321 000027D8 7E C2                           	JLE	L56
  3322 000027DA 6A 02                           	PUSH	2
  3323 000027DC 68 000001A4                     	PUSH	420
  3324 000027E1 68 00000096                     	PUSH	150
  3325 000027E6 68 000001A4                     	PUSH	420
  3326 000027EB 6A 32                           	PUSH	50
  3327 000027ED 6A 07                           	PUSH	7
  3328 000027EF 0F BF 05 00000FF4               	MOVSX	EAX,WORD [4084]
  3329 000027F6 50                              	PUSH	EAX
  3330 000027F7 FF B5 FFFFF744                  	PUSH	DWORD [-2236+EBP]
  3331 000027FD E8 [00000000]                   	CALL	_line
  3332 00002802 83 C4 20                        	ADD	ESP,32
  3333 00002805 6A 02                           	PUSH	2
  3334 00002807 68 000001A4                     	PUSH	420
  3335 0000280C 68 000002EE                     	PUSH	750
  3336 00002811 68 000001A4                     	PUSH	420
  3337 00002816 68 0000028A                     	PUSH	650
  3338 0000281B 6A 07                           	PUSH	7
  3339 0000281D 0F BF 05 00000FF4               	MOVSX	EAX,WORD [4084]
  3340 00002824 50                              	PUSH	EAX
  3341 00002825 FF B5 FFFFF744                  	PUSH	DWORD [-2236+EBP]
  3342 0000282B E8 [00000000]                   	CALL	_line
  3343 00002830 83 C4 20                        	ADD	ESP,32
  3344 00002833 0F BF 05 00000FF6               	MOVSX	EAX,WORD [4086]
  3345 0000283A 50                              	PUSH	EAX
  3346 0000283B 0F BF 05 00000FF4               	MOVSX	EAX,WORD [4084]
  3347 00002842 50                              	PUSH	EAX
  3348 00002843 6A 00                           	PUSH	0
  3349 00002845 6A 00                           	PUSH	0
  3350 00002847 FF B5 FFFFF730                  	PUSH	DWORD [-2256+EBP]
  3351 0000284D E8 [00000000]                   	CALL	_sheet_refresh
  3352 00002852 6A 64                           	PUSH	100
  3353 00002854 FF B5 FFFFF770                  	PUSH	DWORD [-2192+EBP]
  3354 0000285A E8 [00000000]                   	CALL	_timer_settime
  3355 0000285F 83 C4 1C                        	ADD	ESP,28
  3356 00002862 E9 FFFFF66D                     	JMP	L51
  3357 00002867                                 L409:
  3358 00002867 6A 2A                           	PUSH	42
  3359 00002869 8D 85 FFFFFF74                  	LEA	EAX,DWORD [-140+EBP]
  3360 0000286F 50                              	PUSH	EAX
  3361 00002870 BB 00000003                     	MOV	EBX,3
  3362 00002875 FF B5 FFFFF770                  	PUSH	DWORD [-2192+EBP]
  3363 0000287B E8 [00000000]                   	CALL	_timer_init
  3364 00002880 68 0000015E                     	PUSH	350
  3365 00002885 68 000001C2                     	PUSH	450
  3366 0000288A 68 000000FA                     	PUSH	250
  3367 0000288F 68 0000015E                     	PUSH	350
  3368 00002894 6A 10                           	PUSH	16
  3369 00002896 0F BF 05 00000FF4               	MOVSX	EAX,WORD [4084]
  3370 0000289D 50                              	PUSH	EAX
  3371 0000289E FF B5 FFFFF744                  	PUSH	DWORD [-2236+EBP]
  3372 000028A4 E8 [00000000]                   	CALL	_boxfilly
  3373 000028A9 83 C4 28                        	ADD	ESP,40
  3374 000028AC 68 00000154                     	PUSH	340
  3375 000028B1 68 000001B8                     	PUSH	440
  3376 000028B6 68 00000104                     	PUSH	260
  3377 000028BB 68 00000168                     	PUSH	360
  3378 000028C0 6A 07                           	PUSH	7
  3379 000028C2 0F BF 05 00000FF4               	MOVSX	EAX,WORD [4084]
  3380 000028C9 50                              	PUSH	EAX
  3381 000028CA FF B5 FFFFF744                  	PUSH	DWORD [-2236+EBP]
  3382 000028D0 E8 [00000000]                   	CALL	_boxfilly
  3383 000028D5 68 0000013B                     	PUSH	315
  3384 000028DA 68 0000019F                     	PUSH	415
  3385 000028DF 68 0000011D                     	PUSH	285
  3386 000028E4 68 00000181                     	PUSH	385
  3387 000028E9 6A 10                           	PUSH	16
  3388 000028EB 0F BF 05 00000FF4               	MOVSX	EAX,WORD [4084]
  3389 000028F2 50                              	PUSH	EAX
  3390 000028F3 FF B5 FFFFF744                  	PUSH	DWORD [-2236+EBP]
  3391 000028F9 E8 [00000000]                   	CALL	_boxfilly
  3392 000028FE 83 C4 38                        	ADD	ESP,56
  3393 00002901                                 L50:
  3394 00002901 8B 8C 9D FFFFF7D4               	MOV	ECX,DWORD [-2092+EBP+EBX*4]
  3395 00002908 8B 94 9D FFFFF8C4               	MOV	EDX,DWORD [-1852+EBP+EBX*4]
  3396 0000290F 83 C3 05                        	ADD	EBX,5
  3397 00002912 8D 41 02                        	LEA	EAX,DWORD [2+ECX]
  3398 00002915 83 E9 02                        	SUB	ECX,2
  3399 00002918 50                              	PUSH	EAX
  3400 00002919 8D 42 02                        	LEA	EAX,DWORD [2+EDX]
  3401 0000291C 50                              	PUSH	EAX
  3402 0000291D 83 EA 02                        	SUB	EDX,2
  3403 00002920 51                              	PUSH	ECX
  3404 00002921 52                              	PUSH	EDX
  3405 00002922 6A 07                           	PUSH	7
  3406 00002924 0F BF 05 00000FF4               	MOVSX	EAX,WORD [4084]
  3407 0000292B 50                              	PUSH	EAX
  3408 0000292C FF B5 FFFFF744                  	PUSH	DWORD [-2236+EBP]
  3409 00002932 E8 [00000000]                   	CALL	_boxfilly
  3410 00002937 83 C4 1C                        	ADD	ESP,28
  3411 0000293A 83 FB 3C                        	CMP	EBX,60
  3412 0000293D 7E C2                           	JLE	L50
  3413 0000293F 6A 02                           	PUSH	2
  3414 00002941 68 000001A4                     	PUSH	420
  3415 00002946 6A 32                           	PUSH	50
  3416 00002948 68 000001A4                     	PUSH	420
  3417 0000294D 6A 00                           	PUSH	0
  3418 0000294F 6A 07                           	PUSH	7
  3419 00002951 0F BF 05 00000FF4               	MOVSX	EAX,WORD [4084]
  3420 00002958 50                              	PUSH	EAX
  3421 00002959 FF B5 FFFFF744                  	PUSH	DWORD [-2236+EBP]
  3422 0000295F E8 [00000000]                   	CALL	_line
  3423 00002964 83 C4 20                        	ADD	ESP,32
  3424 00002967 6A 02                           	PUSH	2
  3425 00002969 68 000001A4                     	PUSH	420
  3426 0000296E 68 00000320                     	PUSH	800
  3427 00002973 68 000001A4                     	PUSH	420
  3428 00002978 68 000002EE                     	PUSH	750
  3429 0000297D 6A 07                           	PUSH	7
  3430 0000297F 0F BF 05 00000FF4               	MOVSX	EAX,WORD [4084]
  3431 00002986 50                              	PUSH	EAX
  3432 00002987 FF B5 FFFFF744                  	PUSH	DWORD [-2236+EBP]
  3433 0000298D E8 [00000000]                   	CALL	_line
  3434 00002992 83 C4 20                        	ADD	ESP,32
  3435 00002995 0F BF 05 00000FF6               	MOVSX	EAX,WORD [4086]
  3436 0000299C 50                              	PUSH	EAX
  3437 0000299D 0F BF 05 00000FF4               	MOVSX	EAX,WORD [4084]
  3438 000029A4 50                              	PUSH	EAX
  3439 000029A5 6A 00                           	PUSH	0
  3440 000029A7 6A 00                           	PUSH	0
  3441 000029A9 FF B5 FFFFF730                  	PUSH	DWORD [-2256+EBP]
  3442 000029AF E8 [00000000]                   	CALL	_sheet_refresh
  3443 000029B4 6A 64                           	PUSH	100
  3444 000029B6 FF B5 FFFFF770                  	PUSH	DWORD [-2192+EBP]
  3445 000029BC E8 [00000000]                   	CALL	_timer_settime
  3446 000029C1 83 C4 1C                        	ADD	ESP,28
  3447 000029C4 E9 FFFFF4FE                     	JMP	L45
  3448 000029C9                                 L408:
  3449 000029C9 6A 29                           	PUSH	41
  3450 000029CB 8D 85 FFFFFF74                  	LEA	EAX,DWORD [-140+EBP]
  3451 000029D1 50                              	PUSH	EAX
  3452 000029D2 FF B5 FFFFF770                  	PUSH	DWORD [-2192+EBP]
  3453 000029D8 E8 [00000000]                   	CALL	_timer_init
  3454 000029DD 0F BF 05 00000FF6               	MOVSX	EAX,WORD [4086]
  3455 000029E4 50                              	PUSH	EAX
  3456 000029E5 0F BF 05 00000FF4               	MOVSX	EAX,WORD [4084]
  3457 000029EC 50                              	PUSH	EAX
  3458 000029ED 6A 00                           	PUSH	0
  3459 000029EF 6A 00                           	PUSH	0
  3460 000029F1 6A 0F                           	PUSH	15
  3461 000029F3 0F BF 05 00000FF4               	MOVSX	EAX,WORD [4084]
  3462 000029FA 50                              	PUSH	EAX
  3463 000029FB FF B5 FFFFF744                  	PUSH	DWORD [-2236+EBP]
  3464 00002A01 E8 [00000000]                   	CALL	_boxfill8
  3465 00002A06 83 C4 28                        	ADD	ESP,40
  3466 00002A09 0F BF 05 00000FF6               	MOVSX	EAX,WORD [4086]
  3467 00002A10 50                              	PUSH	EAX
  3468 00002A11 0F BF 05 00000FF4               	MOVSX	EAX,WORD [4084]
  3469 00002A18 50                              	PUSH	EAX
  3470 00002A19 6A 00                           	PUSH	0
  3471 00002A1B 6A 00                           	PUSH	0
  3472 00002A1D FF B5 FFFFF730                  	PUSH	DWORD [-2256+EBP]
  3473 00002A23 E8 [00000000]                   	CALL	_sheet_refresh
  3474 00002A28 6A 64                           	PUSH	100
  3475 00002A2A FF B5 FFFFF770                  	PUSH	DWORD [-2192+EBP]
  3476 00002A30 E8 [00000000]                   	CALL	_timer_settime
  3477 00002A35 83 C4 1C                        	ADD	ESP,28
  3478 00002A38 E9 FFFFF47D                     	JMP	L44
  3479 00002A3D                                 L407:
  3480 00002A3D 6A 28                           	PUSH	40
  3481 00002A3F 8D 85 FFFFFF74                  	LEA	EAX,DWORD [-140+EBP]
  3482 00002A45 50                              	PUSH	EAX
  3483 00002A46 FF B5 FFFFF770                  	PUSH	DWORD [-2192+EBP]
  3484 00002A4C E8 [00000000]                   	CALL	_timer_init
  3485 00002A51 6A 03                           	PUSH	3
  3486 00002A53 68 000000E6                     	PUSH	230
  3487 00002A58 68 00000190                     	PUSH	400
  3488 00002A5D 68 000000C8                     	PUSH	200
  3489 00002A62 68 00000190                     	PUSH	400
  3490 00002A67 6A 08                           	PUSH	8
  3491 00002A69 0F BF 05 00000FF4               	MOVSX	EAX,WORD [4084]
  3492 00002A70 50                              	PUSH	EAX
  3493 00002A71 FF B5 FFFFF744                  	PUSH	DWORD [-2236+EBP]
  3494 00002A77 E8 [00000000]                   	CALL	_line
  3495 00002A7C 83 C4 2C                        	ADD	ESP,44
  3496 00002A7F 6A 03                           	PUSH	3
  3497 00002A81 68 00000172                     	PUSH	370
  3498 00002A86 68 00000190                     	PUSH	400
  3499 00002A8B 68 00000190                     	PUSH	400
  3500 00002A90 68 00000190                     	PUSH	400
  3501 00002A95 6A 08                           	PUSH	8
  3502 00002A97 0F BF 05 00000FF4               	MOVSX	EAX,WORD [4084]
  3503 00002A9E 50                              	PUSH	EAX
  3504 00002A9F FF B5 FFFFF744                  	PUSH	DWORD [-2236+EBP]
  3505 00002AA5 E8 [00000000]                   	CALL	_line
  3506 00002AAA 83 C4 20                        	ADD	ESP,32
  3507 00002AAD 6A 03                           	PUSH	3
  3508 00002AAF 68 0000012C                     	PUSH	300
  3509 00002AB4 68 0000014A                     	PUSH	330
  3510 00002AB9 68 0000012C                     	PUSH	300
  3511 00002ABE 68 0000012C                     	PUSH	300
  3512 00002AC3 6A 08                           	PUSH	8
  3513 00002AC5 0F BF 05 00000FF4               	MOVSX	EAX,WORD [4084]
  3514 00002ACC 50                              	PUSH	EAX
  3515 00002ACD FF B5 FFFFF744                  	PUSH	DWORD [-2236+EBP]
  3516 00002AD3 E8 [00000000]                   	CALL	_line
  3517 00002AD8 83 C4 20                        	ADD	ESP,32
  3518 00002ADB 6A 03                           	PUSH	3
  3519 00002ADD 68 0000012C                     	PUSH	300
  3520 00002AE2 68 000001F4                     	PUSH	500
  3521 00002AE7 68 0000012C                     	PUSH	300
  3522 00002AEC 68 000001D6                     	PUSH	470
  3523 00002AF1 6A 08                           	PUSH	8
  3524 00002AF3 0F BF 05 00000FF4               	MOVSX	EAX,WORD [4084]
  3525 00002AFA 50                              	PUSH	EAX
  3526 00002AFB FF B5 FFFFF744                  	PUSH	DWORD [-2236+EBP]
  3527 00002B01 E8 [00000000]                   	CALL	_line
  3528 00002B06 83 C4 20                        	ADD	ESP,32
  3529 00002B09 6A 03                           	PUSH	3
  3530 00002B0B 68 000000D5                     	PUSH	213
  3531 00002B10 68 000001C2                     	PUSH	450
  3532 00002B15 68 000000EF                     	PUSH	239
  3533 00002B1A 68 000001B3                     	PUSH	435
  3534 00002B1F 6A 08                           	PUSH	8
  3535 00002B21 0F BF 05 00000FF4               	MOVSX	EAX,WORD [4084]
  3536 00002B28 50                              	PUSH	EAX
  3537 00002B29 FF B5 FFFFF744                  	PUSH	DWORD [-2236+EBP]
  3538 00002B2F E8 [00000000]                   	CALL	_line
  3539 00002B34 83 C4 20                        	ADD	ESP,32
  3540 00002B37 6A 03                           	PUSH	3
  3541 00002B39 68 000000FA                     	PUSH	250
  3542 00002B3E 68 000001E7                     	PUSH	487
  3543 00002B43 68 00000109                     	PUSH	265
  3544 00002B48 68 000001CD                     	PUSH	461
  3545 00002B4D 6A 08                           	PUSH	8
  3546 00002B4F 0F BF 05 00000FF4               	MOVSX	EAX,WORD [4084]
  3547 00002B56 50                              	PUSH	EAX
  3548 00002B57 FF B5 FFFFF744                  	PUSH	DWORD [-2236+EBP]
  3549 00002B5D E8 [00000000]                   	CALL	_line
  3550 00002B62 83 C4 20                        	ADD	ESP,32
  3551 00002B65 6A 03                           	PUSH	3
  3552 00002B67 68 0000015E                     	PUSH	350
  3553 00002B6C 68 000001E7                     	PUSH	487
  3554 00002B71 68 0000014F                     	PUSH	335
  3555 00002B76 68 000001CD                     	PUSH	461
  3556 00002B7B 6A 08                           	PUSH	8
  3557 00002B7D 0F BF 05 00000FF4               	MOVSX	EAX,WORD [4084]
  3558 00002B84 50                              	PUSH	EAX
  3559 00002B85 FF B5 FFFFF744                  	PUSH	DWORD [-2236+EBP]
  3560 00002B8B E8 [00000000]                   	CALL	_line
  3561 00002B90 83 C4 20                        	ADD	ESP,32
  3562 00002B93 6A 03                           	PUSH	3
  3563 00002B95 68 00000183                     	PUSH	387
  3564 00002B9A 68 000001C2                     	PUSH	450
  3565 00002B9F 68 00000169                     	PUSH	361
  3566 00002BA4 68 000001B3                     	PUSH	435
  3567 00002BA9 6A 08                           	PUSH	8
  3568 00002BAB 0F BF 05 00000FF4               	MOVSX	EAX,WORD [4084]
  3569 00002BB2 50                              	PUSH	EAX
  3570 00002BB3 FF B5 FFFFF744                  	PUSH	DWORD [-2236+EBP]
  3571 00002BB9 E8 [00000000]                   	CALL	_line
  3572 00002BBE 83 C4 20                        	ADD	ESP,32
  3573 00002BC1 6A 03                           	PUSH	3
  3574 00002BC3 68 0000014F                     	PUSH	335
  3575 00002BC8 68 00000153                     	PUSH	339
  3576 00002BCD 68 0000015E                     	PUSH	350
  3577 00002BD2 68 00000139                     	PUSH	313
  3578 00002BD7 6A 08                           	PUSH	8
  3579 00002BD9 0F BF 05 00000FF4               	MOVSX	EAX,WORD [4084]
  3580 00002BE0 50                              	PUSH	EAX
  3581 00002BE1 FF B5 FFFFF744                  	PUSH	DWORD [-2236+EBP]
  3582 00002BE7 E8 [00000000]                   	CALL	_line
  3583 00002BEC 83 C4 20                        	ADD	ESP,32
  3584 00002BEF 6A 03                           	PUSH	3
  3585 00002BF1 68 00000169                     	PUSH	361
  3586 00002BF6 68 0000016D                     	PUSH	365
  3587 00002BFB 68 00000183                     	PUSH	387
  3588 00002C00 68 0000015E                     	PUSH	350
  3589 00002C05 6A 08                           	PUSH	8
  3590 00002C07 0F BF 05 00000FF4               	MOVSX	EAX,WORD [4084]
  3591 00002C0E 50                              	PUSH	EAX
  3592 00002C0F FF B5 FFFFF744                  	PUSH	DWORD [-2236+EBP]
  3593 00002C15 E8 [00000000]                   	CALL	_line
  3594 00002C1A 83 C4 20                        	ADD	ESP,32
  3595 00002C1D 6A 03                           	PUSH	3
  3596 00002C1F 68 00000109                     	PUSH	265
  3597 00002C24 68 00000153                     	PUSH	339
  3598 00002C29 68 000000FA                     	PUSH	250
  3599 00002C2E 68 00000139                     	PUSH	313
  3600 00002C33 6A 08                           	PUSH	8
  3601 00002C35 0F BF 05 00000FF4               	MOVSX	EAX,WORD [4084]
  3602 00002C3C 50                              	PUSH	EAX
  3603 00002C3D FF B5 FFFFF744                  	PUSH	DWORD [-2236+EBP]
  3604 00002C43 E8 [00000000]                   	CALL	_line
  3605 00002C48 83 C4 20                        	ADD	ESP,32
  3606 00002C4B 6A 03                           	PUSH	3
  3607 00002C4D 68 000000EF                     	PUSH	239
  3608 00002C52 68 0000016D                     	PUSH	365
  3609 00002C57 68 000000D5                     	PUSH	213
  3610 00002C5C 68 0000015E                     	PUSH	350
  3611 00002C61 6A 08                           	PUSH	8
  3612 00002C63 0F BF 05 00000FF4               	MOVSX	EAX,WORD [4084]
  3613 00002C6A 50                              	PUSH	EAX
  3614 00002C6B FF B5 FFFFF744                  	PUSH	DWORD [-2236+EBP]
  3615 00002C71 E8 [00000000]                   	CALL	_line
  3616 00002C76 83 C4 20                        	ADD	ESP,32
  3617 00002C79 0F BF 05 00000FF6               	MOVSX	EAX,WORD [4086]
  3618 00002C80 50                              	PUSH	EAX
  3619 00002C81 0F BF 05 00000FF4               	MOVSX	EAX,WORD [4084]
  3620 00002C88 50                              	PUSH	EAX
  3621 00002C89 6A 00                           	PUSH	0
  3622 00002C8B 6A 00                           	PUSH	0
  3623 00002C8D FF B5 FFFFF730                  	PUSH	DWORD [-2256+EBP]
  3624 00002C93 E8 [00000000]                   	CALL	_sheet_refresh
  3625 00002C98 6A 14                           	PUSH	20
  3626 00002C9A FF B5 FFFFF770                  	PUSH	DWORD [-2192+EBP]
  3627 00002CA0 E8 [00000000]                   	CALL	_timer_settime
  3628 00002CA5 83 C4 1C                        	ADD	ESP,28
  3629 00002CA8 E9 FFFFF200                     	JMP	L43
  3630 00002CAD                                 L406:
  3631 00002CAD 6A 27                           	PUSH	39
  3632 00002CAF 8D 85 FFFFFF74                  	LEA	EAX,DWORD [-140+EBP]
  3633 00002CB5 50                              	PUSH	EAX
  3634 00002CB6 FF B5 FFFFF770                  	PUSH	DWORD [-2192+EBP]
  3635 00002CBC E8 [00000000]                   	CALL	_timer_init
  3636 00002CC1 6A 03                           	PUSH	3
  3637 00002CC3 68 0000015E                     	PUSH	350
  3638 00002CC8 68 000001E7                     	PUSH	487
  3639 00002CCD 68 0000014F                     	PUSH	335
  3640 00002CD2 68 000001CD                     	PUSH	461
  3641 00002CD7 6A 07                           	PUSH	7
  3642 00002CD9 0F BF 05 00000FF4               	MOVSX	EAX,WORD [4084]
  3643 00002CE0 50                              	PUSH	EAX
  3644 00002CE1 FF B5 FFFFF744                  	PUSH	DWORD [-2236+EBP]
  3645 00002CE7 E8 [00000000]                   	CALL	_line
  3646 00002CEC 83 C4 2C                        	ADD	ESP,44
  3647 00002CEF 0F BF 05 00000FF6               	MOVSX	EAX,WORD [4086]
  3648 00002CF6 50                              	PUSH	EAX
  3649 00002CF7 0F BF 05 00000FF4               	MOVSX	EAX,WORD [4084]
  3650 00002CFE 50                              	PUSH	EAX
  3651 00002CFF 6A 00                           	PUSH	0
  3652 00002D01 6A 00                           	PUSH	0
  3653 00002D03 FF B5 FFFFF730                  	PUSH	DWORD [-2256+EBP]
  3654 00002D09 E8 [00000000]                   	CALL	_sheet_refresh
  3655 00002D0E 6A 0A                           	PUSH	10
  3656 00002D10 FF B5 FFFFF770                  	PUSH	DWORD [-2192+EBP]
  3657 00002D16 E8 [00000000]                   	CALL	_timer_settime
  3658 00002D1B 83 C4 1C                        	ADD	ESP,28
  3659 00002D1E E9 FFFFF17D                     	JMP	L42
  3660 00002D23                                 L405:
  3661 00002D23 6A 26                           	PUSH	38
  3662 00002D25 8D 85 FFFFFF74                  	LEA	EAX,DWORD [-140+EBP]
  3663 00002D2B 50                              	PUSH	EAX
  3664 00002D2C FF B5 FFFFF770                  	PUSH	DWORD [-2192+EBP]
  3665 00002D32 E8 [00000000]                   	CALL	_timer_init
  3666 00002D37 6A 03                           	PUSH	3
  3667 00002D39 68 00000183                     	PUSH	387
  3668 00002D3E 68 000001C2                     	PUSH	450
  3669 00002D43 68 00000169                     	PUSH	361
  3670 00002D48 68 000001B3                     	PUSH	435
  3671 00002D4D 6A 07                           	PUSH	7
  3672 00002D4F 0F BF 05 00000FF4               	MOVSX	EAX,WORD [4084]
  3673 00002D56 50                              	PUSH	EAX
  3674 00002D57 FF B5 FFFFF744                  	PUSH	DWORD [-2236+EBP]
  3675 00002D5D E8 [00000000]                   	CALL	_line
  3676 00002D62 83 C4 2C                        	ADD	ESP,44
  3677 00002D65 0F BF 05 00000FF6               	MOVSX	EAX,WORD [4086]
  3678 00002D6C 50                              	PUSH	EAX
  3679 00002D6D 0F BF 05 00000FF4               	MOVSX	EAX,WORD [4084]
  3680 00002D74 50                              	PUSH	EAX
  3681 00002D75 6A 00                           	PUSH	0
  3682 00002D77 6A 00                           	PUSH	0
  3683 00002D79 FF B5 FFFFF730                  	PUSH	DWORD [-2256+EBP]
  3684 00002D7F E8 [00000000]                   	CALL	_sheet_refresh
  3685 00002D84 6A 14                           	PUSH	20
  3686 00002D86 FF B5 FFFFF770                  	PUSH	DWORD [-2192+EBP]
  3687 00002D8C E8 [00000000]                   	CALL	_timer_settime
  3688 00002D91 83 C4 1C                        	ADD	ESP,28
  3689 00002D94 E9 FFFFF0FA                     	JMP	L41
  3690 00002D99                                 L404:
  3691 00002D99 6A 25                           	PUSH	37
  3692 00002D9B 8D 85 FFFFFF74                  	LEA	EAX,DWORD [-140+EBP]
  3693 00002DA1 50                              	PUSH	EAX
  3694 00002DA2 FF B5 FFFFF770                  	PUSH	DWORD [-2192+EBP]
  3695 00002DA8 E8 [00000000]                   	CALL	_timer_init
  3696 00002DAD 6A 03                           	PUSH	3
  3697 00002DAF 68 00000172                     	PUSH	370
  3698 00002DB4 68 00000190                     	PUSH	400
  3699 00002DB9 68 00000190                     	PUSH	400
  3700 00002DBE 68 00000190                     	PUSH	400
  3701 00002DC3 6A 07                           	PUSH	7
  3702 00002DC5 0F BF 05 00000FF4               	MOVSX	EAX,WORD [4084]
  3703 00002DCC 50                              	PUSH	EAX
  3704 00002DCD FF B5 FFFFF744                  	PUSH	DWORD [-2236+EBP]
  3705 00002DD3 E8 [00000000]                   	CALL	_line
  3706 00002DD8 83 C4 2C                        	ADD	ESP,44
  3707 00002DDB 0F BF 05 00000FF6               	MOVSX	EAX,WORD [4086]
  3708 00002DE2 50                              	PUSH	EAX
  3709 00002DE3 0F BF 05 00000FF4               	MOVSX	EAX,WORD [4084]
  3710 00002DEA 50                              	PUSH	EAX
  3711 00002DEB 6A 00                           	PUSH	0
  3712 00002DED 6A 00                           	PUSH	0
  3713 00002DEF FF B5 FFFFF730                  	PUSH	DWORD [-2256+EBP]
  3714 00002DF5 E8 [00000000]                   	CALL	_sheet_refresh
  3715 00002DFA 6A 03                           	PUSH	3
  3716 00002DFC FF B5 FFFFF770                  	PUSH	DWORD [-2192+EBP]
  3717 00002E02 E8 [00000000]                   	CALL	_timer_settime
  3718 00002E07 83 C4 1C                        	ADD	ESP,28
  3719 00002E0A E9 FFFFF077                     	JMP	L40
  3720 00002E0F                                 L403:
  3721 00002E0F 6A 24                           	PUSH	36
  3722 00002E11 8D 85 FFFFFF74                  	LEA	EAX,DWORD [-140+EBP]
  3723 00002E17 50                              	PUSH	EAX
  3724 00002E18 FF B5 FFFFF770                  	PUSH	DWORD [-2192+EBP]
  3725 00002E1E E8 [00000000]                   	CALL	_timer_init
  3726 00002E23 6A 03                           	PUSH	3
  3727 00002E25 68 00000169                     	PUSH	361
  3728 00002E2A 68 0000016D                     	PUSH	365
  3729 00002E2F 68 00000183                     	PUSH	387
  3730 00002E34 68 0000015E                     	PUSH	350
  3731 00002E39 6A 07                           	PUSH	7
  3732 00002E3B 0F BF 05 00000FF4               	MOVSX	EAX,WORD [4084]
  3733 00002E42 50                              	PUSH	EAX
  3734 00002E43 FF B5 FFFFF744                  	PUSH	DWORD [-2236+EBP]
  3735 00002E49 E8 [00000000]                   	CALL	_line
  3736 00002E4E 83 C4 2C                        	ADD	ESP,44
  3737 00002E51 0F BF 05 00000FF6               	MOVSX	EAX,WORD [4086]
  3738 00002E58 50                              	PUSH	EAX
  3739 00002E59 0F BF 05 00000FF4               	MOVSX	EAX,WORD [4084]
  3740 00002E60 50                              	PUSH	EAX
  3741 00002E61 6A 00                           	PUSH	0
  3742 00002E63 6A 00                           	PUSH	0
  3743 00002E65 FF B5 FFFFF730                  	PUSH	DWORD [-2256+EBP]
  3744 00002E6B E8 [00000000]                   	CALL	_sheet_refresh
  3745 00002E70 6A 02                           	PUSH	2
  3746 00002E72 FF B5 FFFFF770                  	PUSH	DWORD [-2192+EBP]
  3747 00002E78 E8 [00000000]                   	CALL	_timer_settime
  3748 00002E7D 83 C4 1C                        	ADD	ESP,28
  3749 00002E80 E9 FFFFEFF4                     	JMP	L39
  3750 00002E85                                 L402:
  3751 00002E85 6A 23                           	PUSH	35
  3752 00002E87 8D 85 FFFFFF74                  	LEA	EAX,DWORD [-140+EBP]
  3753 00002E8D 50                              	PUSH	EAX
  3754 00002E8E FF B5 FFFFF770                  	PUSH	DWORD [-2192+EBP]
  3755 00002E94 E8 [00000000]                   	CALL	_timer_init
  3756 00002E99 6A 03                           	PUSH	3
  3757 00002E9B 68 0000014F                     	PUSH	335
  3758 00002EA0 68 00000153                     	PUSH	339
  3759 00002EA5 68 0000015E                     	PUSH	350
  3760 00002EAA 68 00000139                     	PUSH	313
  3761 00002EAF 6A 07                           	PUSH	7
  3762 00002EB1 0F BF 05 00000FF4               	MOVSX	EAX,WORD [4084]
  3763 00002EB8 50                              	PUSH	EAX
  3764 00002EB9 FF B5 FFFFF744                  	PUSH	DWORD [-2236+EBP]
  3765 00002EBF E8 [00000000]                   	CALL	_line
  3766 00002EC4 83 C4 2C                        	ADD	ESP,44
  3767 00002EC7 0F BF 05 00000FF6               	MOVSX	EAX,WORD [4086]
  3768 00002ECE 50                              	PUSH	EAX
  3769 00002ECF 0F BF 05 00000FF4               	MOVSX	EAX,WORD [4084]
  3770 00002ED6 50                              	PUSH	EAX
  3771 00002ED7 6A 00                           	PUSH	0
  3772 00002ED9 6A 00                           	PUSH	0
  3773 00002EDB FF B5 FFFFF730                  	PUSH	DWORD [-2256+EBP]
  3774 00002EE1 E8 [00000000]                   	CALL	_sheet_refresh
  3775 00002EE6 6A 02                           	PUSH	2
  3776 00002EE8 FF B5 FFFFF770                  	PUSH	DWORD [-2192+EBP]
  3777 00002EEE E8 [00000000]                   	CALL	_timer_settime
  3778 00002EF3 83 C4 1C                        	ADD	ESP,28
  3779 00002EF6 E9 FFFFEF71                     	JMP	L38
  3780 00002EFB                                 L401:
  3781 00002EFB 6A 22                           	PUSH	34
  3782 00002EFD 8D 85 FFFFFF74                  	LEA	EAX,DWORD [-140+EBP]
  3783 00002F03 50                              	PUSH	EAX
  3784 00002F04 FF B5 FFFFF770                  	PUSH	DWORD [-2192+EBP]
  3785 00002F0A E8 [00000000]                   	CALL	_timer_init
  3786 00002F0F 6A 03                           	PUSH	3
  3787 00002F11 68 0000012C                     	PUSH	300
  3788 00002F16 68 0000014A                     	PUSH	330
  3789 00002F1B 68 0000012C                     	PUSH	300
  3790 00002F20 68 0000012C                     	PUSH	300
  3791 00002F25 6A 07                           	PUSH	7
  3792 00002F27 0F BF 05 00000FF4               	MOVSX	EAX,WORD [4084]
  3793 00002F2E 50                              	PUSH	EAX
  3794 00002F2F FF B5 FFFFF744                  	PUSH	DWORD [-2236+EBP]
  3795 00002F35 E8 [00000000]                   	CALL	_line
  3796 00002F3A 83 C4 2C                        	ADD	ESP,44
  3797 00002F3D 0F BF 05 00000FF6               	MOVSX	EAX,WORD [4086]
  3798 00002F44 50                              	PUSH	EAX
  3799 00002F45 0F BF 05 00000FF4               	MOVSX	EAX,WORD [4084]
  3800 00002F4C 50                              	PUSH	EAX
  3801 00002F4D 6A 00                           	PUSH	0
  3802 00002F4F 6A 00                           	PUSH	0
  3803 00002F51 FF B5 FFFFF730                  	PUSH	DWORD [-2256+EBP]
  3804 00002F57 E8 [00000000]                   	CALL	_sheet_refresh
  3805 00002F5C 6A 02                           	PUSH	2
  3806 00002F5E FF B5 FFFFF770                  	PUSH	DWORD [-2192+EBP]
  3807 00002F64 E8 [00000000]                   	CALL	_timer_settime
  3808 00002F69 83 C4 1C                        	ADD	ESP,28
  3809 00002F6C E9 FFFFEEEE                     	JMP	L37
  3810 00002F71                                 L400:
  3811 00002F71 6A 21                           	PUSH	33
  3812 00002F73 8D 85 FFFFFF74                  	LEA	EAX,DWORD [-140+EBP]
  3813 00002F79 50                              	PUSH	EAX
  3814 00002F7A FF B5 FFFFF770                  	PUSH	DWORD [-2192+EBP]
  3815 00002F80 E8 [00000000]                   	CALL	_timer_init
  3816 00002F85 6A 03                           	PUSH	3
  3817 00002F87 68 00000109                     	PUSH	265
  3818 00002F8C 68 00000153                     	PUSH	339
  3819 00002F91 68 000000FA                     	PUSH	250
  3820 00002F96 68 00000139                     	PUSH	313
  3821 00002F9B 6A 07                           	PUSH	7
  3822 00002F9D 0F BF 05 00000FF4               	MOVSX	EAX,WORD [4084]
  3823 00002FA4 50                              	PUSH	EAX
  3824 00002FA5 FF B5 FFFFF744                  	PUSH	DWORD [-2236+EBP]
  3825 00002FAB E8 [00000000]                   	CALL	_line
  3826 00002FB0 83 C4 2C                        	ADD	ESP,44
  3827 00002FB3 6A 03                           	PUSH	3
  3828 00002FB5 68 0000015E                     	PUSH	350
  3829 00002FBA 68 000001E7                     	PUSH	487
  3830 00002FBF 68 0000014F                     	PUSH	335
  3831 00002FC4 68 000001CD                     	PUSH	461
  3832 00002FC9 6A 08                           	PUSH	8
  3833 00002FCB 0F BF 05 00000FF4               	MOVSX	EAX,WORD [4084]
  3834 00002FD2 50                              	PUSH	EAX
  3835 00002FD3 FF B5 FFFFF744                  	PUSH	DWORD [-2236+EBP]
  3836 00002FD9 E8 [00000000]                   	CALL	_line
  3837 00002FDE 83 C4 20                        	ADD	ESP,32
  3838 00002FE1 0F BF 05 00000FF6               	MOVSX	EAX,WORD [4086]
  3839 00002FE8 50                              	PUSH	EAX
  3840 00002FE9 0F BF 05 00000FF4               	MOVSX	EAX,WORD [4084]
  3841 00002FF0 50                              	PUSH	EAX
  3842 00002FF1 6A 00                           	PUSH	0
  3843 00002FF3 6A 00                           	PUSH	0
  3844 00002FF5 FF B5 FFFFF730                  	PUSH	DWORD [-2256+EBP]
  3845 00002FFB E8 [00000000]                   	CALL	_sheet_refresh
  3846 00003000 6A 02                           	PUSH	2
  3847 00003002 FF B5 FFFFF770                  	PUSH	DWORD [-2192+EBP]
  3848 00003008 E8 [00000000]                   	CALL	_timer_settime
  3849 0000300D 83 C4 1C                        	ADD	ESP,28
  3850 00003010 E9 FFFFEE3D                     	JMP	L36
  3851 00003015                                 L399:
  3852 00003015 6A 20                           	PUSH	32
  3853 00003017 8D 85 FFFFFF74                  	LEA	EAX,DWORD [-140+EBP]
  3854 0000301D 50                              	PUSH	EAX
  3855 0000301E FF B5 FFFFF770                  	PUSH	DWORD [-2192+EBP]
  3856 00003024 E8 [00000000]                   	CALL	_timer_init
  3857 00003029 6A 03                           	PUSH	3
  3858 0000302B 68 000000EF                     	PUSH	239
  3859 00003030 68 0000016D                     	PUSH	365
  3860 00003035 68 000000D5                     	PUSH	213
  3861 0000303A 68 0000015E                     	PUSH	350
  3862 0000303F 6A 07                           	PUSH	7
  3863 00003041 0F BF 05 00000FF4               	MOVSX	EAX,WORD [4084]
  3864 00003048 50                              	PUSH	EAX
  3865 00003049 FF B5 FFFFF744                  	PUSH	DWORD [-2236+EBP]
  3866 0000304F E8 [00000000]                   	CALL	_line
  3867 00003054 83 C4 2C                        	ADD	ESP,44
  3868 00003057 6A 03                           	PUSH	3
  3869 00003059 68 00000183                     	PUSH	387
  3870 0000305E 68 000001C2                     	PUSH	450
  3871 00003063 68 00000169                     	PUSH	361
  3872 00003068 68 000001B3                     	PUSH	435
  3873 0000306D 6A 08                           	PUSH	8
  3874 0000306F 0F BF 05 00000FF4               	MOVSX	EAX,WORD [4084]
  3875 00003076 50                              	PUSH	EAX
  3876 00003077 FF B5 FFFFF744                  	PUSH	DWORD [-2236+EBP]
  3877 0000307D E8 [00000000]                   	CALL	_line
  3878 00003082 83 C4 20                        	ADD	ESP,32
  3879 00003085 0F BF 05 00000FF6               	MOVSX	EAX,WORD [4086]
  3880 0000308C 50                              	PUSH	EAX
  3881 0000308D 0F BF 05 00000FF4               	MOVSX	EAX,WORD [4084]
  3882 00003094 50                              	PUSH	EAX
  3883 00003095 6A 00                           	PUSH	0
  3884 00003097 6A 00                           	PUSH	0
  3885 00003099 FF B5 FFFFF730                  	PUSH	DWORD [-2256+EBP]
  3886 0000309F E8 [00000000]                   	CALL	_sheet_refresh
  3887 000030A4 6A 03                           	PUSH	3
  3888 000030A6 FF B5 FFFFF770                  	PUSH	DWORD [-2192+EBP]
  3889 000030AC E8 [00000000]                   	CALL	_timer_settime
  3890 000030B1 83 C4 1C                        	ADD	ESP,28
  3891 000030B4 E9 FFFFED8C                     	JMP	L35
  3892 000030B9                                 L398:
  3893 000030B9 6A 1F                           	PUSH	31
  3894 000030BB 8D 85 FFFFFF74                  	LEA	EAX,DWORD [-140+EBP]
  3895 000030C1 50                              	PUSH	EAX
  3896 000030C2 FF B5 FFFFF770                  	PUSH	DWORD [-2192+EBP]
  3897 000030C8 E8 [00000000]                   	CALL	_timer_init
  3898 000030CD 6A 03                           	PUSH	3
  3899 000030CF 68 000000E6                     	PUSH	230
  3900 000030D4 68 00000190                     	PUSH	400
  3901 000030D9 68 000000C8                     	PUSH	200
  3902 000030DE 68 00000190                     	PUSH	400
  3903 000030E3 6A 07                           	PUSH	7
  3904 000030E5 0F BF 05 00000FF4               	MOVSX	EAX,WORD [4084]
  3905 000030EC 50                              	PUSH	EAX
  3906 000030ED FF B5 FFFFF744                  	PUSH	DWORD [-2236+EBP]
  3907 000030F3 E8 [00000000]                   	CALL	_line
  3908 000030F8 83 C4 2C                        	ADD	ESP,44
  3909 000030FB 6A 03                           	PUSH	3
  3910 000030FD 68 00000172                     	PUSH	370
  3911 00003102 68 00000190                     	PUSH	400
  3912 00003107 68 00000190                     	PUSH	400
  3913 0000310C 68 00000190                     	PUSH	400
  3914 00003111 6A 08                           	PUSH	8
  3915 00003113 0F BF 05 00000FF4               	MOVSX	EAX,WORD [4084]
  3916 0000311A 50                              	PUSH	EAX
  3917 0000311B FF B5 FFFFF744                  	PUSH	DWORD [-2236+EBP]
  3918 00003121 E8 [00000000]                   	CALL	_line
  3919 00003126 83 C4 20                        	ADD	ESP,32
  3920 00003129 0F BF 05 00000FF6               	MOVSX	EAX,WORD [4086]
  3921 00003130 50                              	PUSH	EAX
  3922 00003131 0F BF 05 00000FF4               	MOVSX	EAX,WORD [4084]
  3923 00003138 50                              	PUSH	EAX
  3924 00003139 6A 00                           	PUSH	0
  3925 0000313B 6A 00                           	PUSH	0
  3926 0000313D FF B5 FFFFF730                  	PUSH	DWORD [-2256+EBP]
  3927 00003143 E8 [00000000]                   	CALL	_sheet_refresh
  3928 00003148 6A 02                           	PUSH	2
  3929 0000314A FF B5 FFFFF770                  	PUSH	DWORD [-2192+EBP]
  3930 00003150 E8 [00000000]                   	CALL	_timer_settime
  3931 00003155 83 C4 1C                        	ADD	ESP,28
  3932 00003158 E9 FFFFECDB                     	JMP	L34
  3933 0000315D                                 L397:
  3934 0000315D 6A 1E                           	PUSH	30
  3935 0000315F 8D 85 FFFFFF74                  	LEA	EAX,DWORD [-140+EBP]
  3936 00003165 50                              	PUSH	EAX
  3937 00003166 FF B5 FFFFF770                  	PUSH	DWORD [-2192+EBP]
  3938 0000316C E8 [00000000]                   	CALL	_timer_init
  3939 00003171 6A 03                           	PUSH	3
  3940 00003173 68 000000D5                     	PUSH	213
  3941 00003178 68 000001C2                     	PUSH	450
  3942 0000317D 68 000000EF                     	PUSH	239
  3943 00003182 68 000001B3                     	PUSH	435
  3944 00003187 6A 07                           	PUSH	7
  3945 00003189 0F BF 05 00000FF4               	MOVSX	EAX,WORD [4084]
  3946 00003190 50                              	PUSH	EAX
  3947 00003191 FF B5 FFFFF744                  	PUSH	DWORD [-2236+EBP]
  3948 00003197 E8 [00000000]                   	CALL	_line
  3949 0000319C 83 C4 2C                        	ADD	ESP,44
  3950 0000319F 6A 03                           	PUSH	3
  3951 000031A1 68 00000169                     	PUSH	361
  3952 000031A6 68 0000016D                     	PUSH	365
  3953 000031AB 68 00000183                     	PUSH	387
  3954 000031B0 68 0000015E                     	PUSH	350
  3955 000031B5 6A 08                           	PUSH	8
  3956 000031B7 0F BF 05 00000FF4               	MOVSX	EAX,WORD [4084]
  3957 000031BE 50                              	PUSH	EAX
  3958 000031BF FF B5 FFFFF744                  	PUSH	DWORD [-2236+EBP]
  3959 000031C5 E8 [00000000]                   	CALL	_line
  3960 000031CA 83 C4 20                        	ADD	ESP,32
  3961 000031CD 0F BF 05 00000FF6               	MOVSX	EAX,WORD [4086]
  3962 000031D4 50                              	PUSH	EAX
  3963 000031D5 0F BF 05 00000FF4               	MOVSX	EAX,WORD [4084]
  3964 000031DC 50                              	PUSH	EAX
  3965 000031DD 6A 00                           	PUSH	0
  3966 000031DF 6A 00                           	PUSH	0
  3967 000031E1 FF B5 FFFFF730                  	PUSH	DWORD [-2256+EBP]
  3968 000031E7 E8 [00000000]                   	CALL	_sheet_refresh
  3969 000031EC 6A 03                           	PUSH	3
  3970 000031EE FF B5 FFFFF770                  	PUSH	DWORD [-2192+EBP]
  3971 000031F4 E8 [00000000]                   	CALL	_timer_settime
  3972 000031F9 83 C4 1C                        	ADD	ESP,28
  3973 000031FC E9 FFFFEC2A                     	JMP	L33
  3974 00003201                                 L396:
  3975 00003201 6A 1D                           	PUSH	29
  3976 00003203 8D 85 FFFFFF74                  	LEA	EAX,DWORD [-140+EBP]
  3977 00003209 50                              	PUSH	EAX
  3978 0000320A FF B5 FFFFF770                  	PUSH	DWORD [-2192+EBP]
  3979 00003210 E8 [00000000]                   	CALL	_timer_init
  3980 00003215 6A 03                           	PUSH	3
  3981 00003217 68 000000FA                     	PUSH	250
  3982 0000321C 68 000001E7                     	PUSH	487
  3983 00003221 68 00000109                     	PUSH	265
  3984 00003226 68 000001CD                     	PUSH	461
  3985 0000322B 6A 07                           	PUSH	7
  3986 0000322D 0F BF 05 00000FF4               	MOVSX	EAX,WORD [4084]
  3987 00003234 50                              	PUSH	EAX
  3988 00003235 FF B5 FFFFF744                  	PUSH	DWORD [-2236+EBP]
  3989 0000323B E8 [00000000]                   	CALL	_line
  3990 00003240 83 C4 2C                        	ADD	ESP,44
  3991 00003243 6A 03                           	PUSH	3
  3992 00003245 68 0000014F                     	PUSH	335
  3993 0000324A 68 00000153                     	PUSH	339
  3994 0000324F 68 0000015E                     	PUSH	350
  3995 00003254 68 00000139                     	PUSH	313
  3996 00003259 6A 08                           	PUSH	8
  3997 0000325B 0F BF 05 00000FF4               	MOVSX	EAX,WORD [4084]
  3998 00003262 50                              	PUSH	EAX
  3999 00003263 FF B5 FFFFF744                  	PUSH	DWORD [-2236+EBP]
  4000 00003269 E8 [00000000]                   	CALL	_line
  4001 0000326E 83 C4 20                        	ADD	ESP,32
  4002 00003271 0F BF 05 00000FF6               	MOVSX	EAX,WORD [4086]
  4003 00003278 50                              	PUSH	EAX
  4004 00003279 0F BF 05 00000FF4               	MOVSX	EAX,WORD [4084]
  4005 00003280 50                              	PUSH	EAX
  4006 00003281 6A 00                           	PUSH	0
  4007 00003283 6A 00                           	PUSH	0
  4008 00003285 FF B5 FFFFF730                  	PUSH	DWORD [-2256+EBP]
  4009 0000328B E8 [00000000]                   	CALL	_sheet_refresh
  4010 00003290 6A 02                           	PUSH	2
  4011 00003292 FF B5 FFFFF770                  	PUSH	DWORD [-2192+EBP]
  4012 00003298 E8 [00000000]                   	CALL	_timer_settime
  4013 0000329D 83 C4 1C                        	ADD	ESP,28
  4014 000032A0 E9 FFFFEB79                     	JMP	L32
  4015 000032A5                                 L395:
  4016 000032A5 6A 1C                           	PUSH	28
  4017 000032A7 8D 85 FFFFFF74                  	LEA	EAX,DWORD [-140+EBP]
  4018 000032AD 50                              	PUSH	EAX
  4019 000032AE FF B5 FFFFF770                  	PUSH	DWORD [-2192+EBP]
  4020 000032B4 E8 [00000000]                   	CALL	_timer_init
  4021 000032B9 6A 03                           	PUSH	3
  4022 000032BB 68 0000012C                     	PUSH	300
  4023 000032C0 68 000001F4                     	PUSH	500
  4024 000032C5 68 0000012C                     	PUSH	300
  4025 000032CA 68 000001D6                     	PUSH	470
  4026 000032CF 6A 07                           	PUSH	7
  4027 000032D1 0F BF 05 00000FF4               	MOVSX	EAX,WORD [4084]
  4028 000032D8 50                              	PUSH	EAX
  4029 000032D9 FF B5 FFFFF744                  	PUSH	DWORD [-2236+EBP]
  4030 000032DF E8 [00000000]                   	CALL	_line
  4031 000032E4 83 C4 2C                        	ADD	ESP,44
  4032 000032E7 6A 03                           	PUSH	3
  4033 000032E9 68 0000012C                     	PUSH	300
  4034 000032EE 68 0000014A                     	PUSH	330
  4035 000032F3 68 0000012C                     	PUSH	300
  4036 000032F8 68 0000012C                     	PUSH	300
  4037 000032FD 6A 08                           	PUSH	8
  4038 000032FF 0F BF 05 00000FF4               	MOVSX	EAX,WORD [4084]
  4039 00003306 50                              	PUSH	EAX
  4040 00003307 FF B5 FFFFF744                  	PUSH	DWORD [-2236+EBP]
  4041 0000330D E8 [00000000]                   	CALL	_line
  4042 00003312 83 C4 20                        	ADD	ESP,32
  4043 00003315 0F BF 05 00000FF6               	MOVSX	EAX,WORD [4086]
  4044 0000331C 50                              	PUSH	EAX
  4045 0000331D 0F BF 05 00000FF4               	MOVSX	EAX,WORD [4084]
  4046 00003324 50                              	PUSH	EAX
  4047 00003325 6A 00                           	PUSH	0
  4048 00003327 6A 00                           	PUSH	0
  4049 00003329 FF B5 FFFFF730                  	PUSH	DWORD [-2256+EBP]
  4050 0000332F E8 [00000000]                   	CALL	_sheet_refresh
  4051 00003334 6A 02                           	PUSH	2
  4052 00003336 FF B5 FFFFF770                  	PUSH	DWORD [-2192+EBP]
  4053 0000333C E8 [00000000]                   	CALL	_timer_settime
  4054 00003341 83 C4 1C                        	ADD	ESP,28
  4055 00003344 E9 FFFFEAC8                     	JMP	L31
  4056 00003349                                 L394:
  4057 00003349 6A 1B                           	PUSH	27
  4058 0000334B 8D 85 FFFFFF74                  	LEA	EAX,DWORD [-140+EBP]
  4059 00003351 50                              	PUSH	EAX
  4060 00003352 FF B5 FFFFF770                  	PUSH	DWORD [-2192+EBP]
  4061 00003358 E8 [00000000]                   	CALL	_timer_init
  4062 0000335D 6A 03                           	PUSH	3
  4063 0000335F 68 0000015E                     	PUSH	350
  4064 00003364 68 000001E7                     	PUSH	487
  4065 00003369 68 0000014F                     	PUSH	335
  4066 0000336E 68 000001CD                     	PUSH	461
  4067 00003373 6A 07                           	PUSH	7
  4068 00003375 0F BF 05 00000FF4               	MOVSX	EAX,WORD [4084]
  4069 0000337C 50                              	PUSH	EAX
  4070 0000337D FF B5 FFFFF744                  	PUSH	DWORD [-2236+EBP]
  4071 00003383 E8 [00000000]                   	CALL	_line
  4072 00003388 83 C4 2C                        	ADD	ESP,44
  4073 0000338B 6A 03                           	PUSH	3
  4074 0000338D 68 00000109                     	PUSH	265
  4075 00003392 68 00000153                     	PUSH	339
  4076 00003397 68 000000FA                     	PUSH	250
  4077 0000339C 68 00000139                     	PUSH	313
  4078 000033A1 6A 08                           	PUSH	8
  4079 000033A3 0F BF 05 00000FF4               	MOVSX	EAX,WORD [4084]
  4080 000033AA 50                              	PUSH	EAX
  4081 000033AB FF B5 FFFFF744                  	PUSH	DWORD [-2236+EBP]
  4082 000033B1 E8 [00000000]                   	CALL	_line
  4083 000033B6 83 C4 20                        	ADD	ESP,32
  4084 000033B9 0F BF 05 00000FF6               	MOVSX	EAX,WORD [4086]
  4085 000033C0 50                              	PUSH	EAX
  4086 000033C1 0F BF 05 00000FF4               	MOVSX	EAX,WORD [4084]
  4087 000033C8 50                              	PUSH	EAX
  4088 000033C9 6A 00                           	PUSH	0
  4089 000033CB 6A 00                           	PUSH	0
  4090 000033CD FF B5 FFFFF730                  	PUSH	DWORD [-2256+EBP]
  4091 000033D3 E8 [00000000]                   	CALL	_sheet_refresh
  4092 000033D8 6A 05                           	PUSH	5
  4093 000033DA FF B5 FFFFF770                  	PUSH	DWORD [-2192+EBP]
  4094 000033E0 E8 [00000000]                   	CALL	_timer_settime
  4095 000033E5 83 C4 1C                        	ADD	ESP,28
  4096 000033E8 E9 FFFFEA17                     	JMP	L30
  4097 000033ED                                 L393:
  4098 000033ED 6A 1A                           	PUSH	26
  4099 000033EF 8D 85 FFFFFF74                  	LEA	EAX,DWORD [-140+EBP]
  4100 000033F5 50                              	PUSH	EAX
  4101 000033F6 FF B5 FFFFF770                  	PUSH	DWORD [-2192+EBP]
  4102 000033FC E8 [00000000]                   	CALL	_timer_init
  4103 00003401 6A 03                           	PUSH	3
  4104 00003403 68 00000183                     	PUSH	387
  4105 00003408 68 000001C2                     	PUSH	450
  4106 0000340D 68 00000169                     	PUSH	361
  4107 00003412 68 000001B3                     	PUSH	435
  4108 00003417 6A 07                           	PUSH	7
  4109 00003419 0F BF 05 00000FF4               	MOVSX	EAX,WORD [4084]
  4110 00003420 50                              	PUSH	EAX
  4111 00003421 FF B5 FFFFF744                  	PUSH	DWORD [-2236+EBP]
  4112 00003427 E8 [00000000]                   	CALL	_line
  4113 0000342C 83 C4 2C                        	ADD	ESP,44
  4114 0000342F 6A 03                           	PUSH	3
  4115 00003431 68 000000EF                     	PUSH	239
  4116 00003436 68 0000016D                     	PUSH	365
  4117 0000343B 68 000000D5                     	PUSH	213
  4118 00003440 68 0000015E                     	PUSH	350
  4119 00003445 6A 08                           	PUSH	8
  4120 00003447 0F BF 05 00000FF4               	MOVSX	EAX,WORD [4084]
  4121 0000344E 50                              	PUSH	EAX
  4122 0000344F FF B5 FFFFF744                  	PUSH	DWORD [-2236+EBP]
  4123 00003455 E8 [00000000]                   	CALL	_line
  4124 0000345A 83 C4 20                        	ADD	ESP,32
  4125 0000345D 0F BF 05 00000FF6               	MOVSX	EAX,WORD [4086]
  4126 00003464 50                              	PUSH	EAX
  4127 00003465 0F BF 05 00000FF4               	MOVSX	EAX,WORD [4084]
  4128 0000346C 50                              	PUSH	EAX
  4129 0000346D 6A 00                           	PUSH	0
  4130 0000346F 6A 00                           	PUSH	0
  4131 00003471 FF B5 FFFFF730                  	PUSH	DWORD [-2256+EBP]
  4132 00003477 E8 [00000000]                   	CALL	_sheet_refresh
  4133 0000347C 6A 05                           	PUSH	5
  4134 0000347E FF B5 FFFFF770                  	PUSH	DWORD [-2192+EBP]
  4135 00003484 E8 [00000000]                   	CALL	_timer_settime
  4136 00003489 83 C4 1C                        	ADD	ESP,28
  4137 0000348C E9 FFFFE966                     	JMP	L29
  4138 00003491                                 L392:
  4139 00003491 6A 19                           	PUSH	25
  4140 00003493 53                              	PUSH	EBX
  4141 00003494 FF B5 FFFFF770                  	PUSH	DWORD [-2192+EBP]
  4142 0000349A E8 [00000000]                   	CALL	_timer_init
  4143 0000349F 6A 03                           	PUSH	3
  4144 000034A1 68 00000172                     	PUSH	370
  4145 000034A6 68 00000190                     	PUSH	400
  4146 000034AB 68 00000190                     	PUSH	400
  4147 000034B0 68 00000190                     	PUSH	400
  4148 000034B5 6A 07                           	PUSH	7
  4149 000034B7 0F BF 05 00000FF4               	MOVSX	EAX,WORD [4084]
  4150 000034BE 50                              	PUSH	EAX
  4151 000034BF FF B5 FFFFF744                  	PUSH	DWORD [-2236+EBP]
  4152 000034C5 E8 [00000000]                   	CALL	_line
  4153 000034CA 83 C4 2C                        	ADD	ESP,44
  4154 000034CD 6A 03                           	PUSH	3
  4155 000034CF 68 000000E6                     	PUSH	230
  4156 000034D4 68 00000190                     	PUSH	400
  4157 000034D9 68 000000C8                     	PUSH	200
  4158 000034DE 68 00000190                     	PUSH	400
  4159 000034E3 6A 08                           	PUSH	8
  4160 000034E5 0F BF 05 00000FF4               	MOVSX	EAX,WORD [4084]
  4161 000034EC 50                              	PUSH	EAX
  4162 000034ED FF B5 FFFFF744                  	PUSH	DWORD [-2236+EBP]
  4163 000034F3 E8 [00000000]                   	CALL	_line
  4164 000034F8 83 C4 20                        	ADD	ESP,32
  4165 000034FB 0F BF 05 00000FF6               	MOVSX	EAX,WORD [4086]
  4166 00003502 50                              	PUSH	EAX
  4167 00003503 0F BF 05 00000FF4               	MOVSX	EAX,WORD [4084]
  4168 0000350A 50                              	PUSH	EAX
  4169 0000350B 6A 00                           	PUSH	0
  4170 0000350D 6A 00                           	PUSH	0
  4171 0000350F FF B5 FFFFF730                  	PUSH	DWORD [-2256+EBP]
  4172 00003515 E8 [00000000]                   	CALL	_sheet_refresh
  4173 0000351A 6A 05                           	PUSH	5
  4174 0000351C FF B5 FFFFF770                  	PUSH	DWORD [-2192+EBP]
  4175 00003522 E8 [00000000]                   	CALL	_timer_settime
  4176 00003527 83 C4 1C                        	ADD	ESP,28
  4177 0000352A E9 FFFFE8BB                     	JMP	L28
  4178 0000352F                                 L391:
  4179 0000352F 6A 18                           	PUSH	24
  4180 00003531 53                              	PUSH	EBX
  4181 00003532 FF B5 FFFFF770                  	PUSH	DWORD [-2192+EBP]
  4182 00003538 E8 [00000000]                   	CALL	_timer_init
  4183 0000353D 6A 03                           	PUSH	3
  4184 0000353F 68 00000169                     	PUSH	361
  4185 00003544 68 0000016D                     	PUSH	365
  4186 00003549 68 00000183                     	PUSH	387
  4187 0000354E 68 0000015E                     	PUSH	350
  4188 00003553 6A 07                           	PUSH	7
  4189 00003555 0F BF 05 00000FF4               	MOVSX	EAX,WORD [4084]
  4190 0000355C 50                              	PUSH	EAX
  4191 0000355D FF B5 FFFFF744                  	PUSH	DWORD [-2236+EBP]
  4192 00003563 E8 [00000000]                   	CALL	_line
  4193 00003568 83 C4 2C                        	ADD	ESP,44
  4194 0000356B 6A 03                           	PUSH	3
  4195 0000356D 68 000000D5                     	PUSH	213
  4196 00003572 68 000001C2                     	PUSH	450
  4197 00003577 68 000000EF                     	PUSH	239
  4198 0000357C 68 000001B3                     	PUSH	435
  4199 00003581 6A 08                           	PUSH	8
  4200 00003583 0F BF 05 00000FF4               	MOVSX	EAX,WORD [4084]
  4201 0000358A 50                              	PUSH	EAX
  4202 0000358B FF B5 FFFFF744                  	PUSH	DWORD [-2236+EBP]
  4203 00003591 E8 [00000000]                   	CALL	_line
  4204 00003596 83 C4 20                        	ADD	ESP,32
  4205 00003599 0F BF 05 00000FF6               	MOVSX	EAX,WORD [4086]
  4206 000035A0 50                              	PUSH	EAX
  4207 000035A1 0F BF 05 00000FF4               	MOVSX	EAX,WORD [4084]
  4208 000035A8 50                              	PUSH	EAX
  4209 000035A9 6A 00                           	PUSH	0
  4210 000035AB 6A 00                           	PUSH	0
  4211 000035AD FF B5 FFFFF730                  	PUSH	DWORD [-2256+EBP]
  4212 000035B3 E8 [00000000]                   	CALL	_sheet_refresh
  4213 000035B8 6A 05                           	PUSH	5
  4214 000035BA FF B5 FFFFF770                  	PUSH	DWORD [-2192+EBP]
  4215 000035C0 E8 [00000000]                   	CALL	_timer_settime
  4216 000035C5 83 C4 1C                        	ADD	ESP,28
  4217 000035C8 E9 FFFFE810                     	JMP	L27
  4218 000035CD                                 L390:
  4219 000035CD 6A 17                           	PUSH	23
  4220 000035CF 53                              	PUSH	EBX
  4221 000035D0 FF B5 FFFFF770                  	PUSH	DWORD [-2192+EBP]
  4222 000035D6 E8 [00000000]                   	CALL	_timer_init
  4223 000035DB 6A 03                           	PUSH	3
  4224 000035DD 68 0000014F                     	PUSH	335
  4225 000035E2 68 00000153                     	PUSH	339
  4226 000035E7 68 0000015E                     	PUSH	350
  4227 000035EC 68 00000139                     	PUSH	313
  4228 000035F1 6A 07                           	PUSH	7
  4229 000035F3 0F BF 05 00000FF4               	MOVSX	EAX,WORD [4084]
  4230 000035FA 50                              	PUSH	EAX
  4231 000035FB FF B5 FFFFF744                  	PUSH	DWORD [-2236+EBP]
  4232 00003601 E8 [00000000]                   	CALL	_line
  4233 00003606 83 C4 2C                        	ADD	ESP,44
  4234 00003609 6A 03                           	PUSH	3
  4235 0000360B 68 000000FA                     	PUSH	250
  4236 00003610 68 000001E7                     	PUSH	487
  4237 00003615 68 00000109                     	PUSH	265
  4238 0000361A 68 000001CD                     	PUSH	461
  4239 0000361F 6A 08                           	PUSH	8
  4240 00003621 0F BF 05 00000FF4               	MOVSX	EAX,WORD [4084]
  4241 00003628 50                              	PUSH	EAX
  4242 00003629 FF B5 FFFFF744                  	PUSH	DWORD [-2236+EBP]
  4243 0000362F E8 [00000000]                   	CALL	_line
  4244 00003634 83 C4 20                        	ADD	ESP,32
  4245 00003637 0F BF 05 00000FF6               	MOVSX	EAX,WORD [4086]
  4246 0000363E 50                              	PUSH	EAX
  4247 0000363F 0F BF 05 00000FF4               	MOVSX	EAX,WORD [4084]
  4248 00003646 50                              	PUSH	EAX
  4249 00003647 6A 00                           	PUSH	0
  4250 00003649 6A 00                           	PUSH	0
  4251 0000364B FF B5 FFFFF730                  	PUSH	DWORD [-2256+EBP]
  4252 00003651 E8 [00000000]                   	CALL	_sheet_refresh
  4253 00003656 6A 05                           	PUSH	5
  4254 00003658 FF B5 FFFFF770                  	PUSH	DWORD [-2192+EBP]
  4255 0000365E E8 [00000000]                   	CALL	_timer_settime
  4256 00003663 83 C4 1C                        	ADD	ESP,28
  4257 00003666 E9 FFFFE765                     	JMP	L26
  4258 0000366B                                 L389:
  4259 0000366B 6A 16                           	PUSH	22
  4260 0000366D 53                              	PUSH	EBX
  4261 0000366E FF B5 FFFFF770                  	PUSH	DWORD [-2192+EBP]
  4262 00003674 E8 [00000000]                   	CALL	_timer_init
  4263 00003679 6A 03                           	PUSH	3
  4264 0000367B 68 0000012C                     	PUSH	300
  4265 00003680 68 0000014A                     	PUSH	330
  4266 00003685 68 0000012C                     	PUSH	300
  4267 0000368A 68 0000012C                     	PUSH	300
  4268 0000368F 6A 07                           	PUSH	7
  4269 00003691 0F BF 05 00000FF4               	MOVSX	EAX,WORD [4084]
  4270 00003698 50                              	PUSH	EAX
  4271 00003699 FF B5 FFFFF744                  	PUSH	DWORD [-2236+EBP]
  4272 0000369F E8 [00000000]                   	CALL	_line
  4273 000036A4 83 C4 2C                        	ADD	ESP,44
  4274 000036A7 6A 03                           	PUSH	3
  4275 000036A9 68 0000012C                     	PUSH	300
  4276 000036AE 68 000001F4                     	PUSH	500
  4277 000036B3 68 0000012C                     	PUSH	300
  4278 000036B8 68 000001D6                     	PUSH	470
  4279 000036BD 6A 08                           	PUSH	8
  4280 000036BF 0F BF 05 00000FF4               	MOVSX	EAX,WORD [4084]
  4281 000036C6 50                              	PUSH	EAX
  4282 000036C7 FF B5 FFFFF744                  	PUSH	DWORD [-2236+EBP]
  4283 000036CD E8 [00000000]                   	CALL	_line
  4284 000036D2 83 C4 20                        	ADD	ESP,32
  4285 000036D5 0F BF 05 00000FF6               	MOVSX	EAX,WORD [4086]
  4286 000036DC 50                              	PUSH	EAX
  4287 000036DD 0F BF 05 00000FF4               	MOVSX	EAX,WORD [4084]
  4288 000036E4 50                              	PUSH	EAX
  4289 000036E5 6A 00                           	PUSH	0
  4290 000036E7 6A 00                           	PUSH	0
  4291 000036E9 FF B5 FFFFF730                  	PUSH	DWORD [-2256+EBP]
  4292 000036EF E8 [00000000]                   	CALL	_sheet_refresh
  4293 000036F4 6A 05                           	PUSH	5
  4294 000036F6 FF B5 FFFFF770                  	PUSH	DWORD [-2192+EBP]
  4295 000036FC E8 [00000000]                   	CALL	_timer_settime
  4296 00003701 83 C4 1C                        	ADD	ESP,28
  4297 00003704 E9 FFFFE6BA                     	JMP	L25
  4298 00003709                                 L388:
  4299 00003709 6A 15                           	PUSH	21
  4300 0000370B 53                              	PUSH	EBX
  4301 0000370C FF B5 FFFFF770                  	PUSH	DWORD [-2192+EBP]
  4302 00003712 E8 [00000000]                   	CALL	_timer_init
  4303 00003717 6A 03                           	PUSH	3
  4304 00003719 68 00000109                     	PUSH	265
  4305 0000371E 68 00000153                     	PUSH	339
  4306 00003723 68 000000FA                     	PUSH	250
  4307 00003728 68 00000139                     	PUSH	313
  4308 0000372D 6A 07                           	PUSH	7
  4309 0000372F 0F BF 05 00000FF4               	MOVSX	EAX,WORD [4084]
  4310 00003736 50                              	PUSH	EAX
  4311 00003737 FF B5 FFFFF744                  	PUSH	DWORD [-2236+EBP]
  4312 0000373D E8 [00000000]                   	CALL	_line
  4313 00003742 83 C4 2C                        	ADD	ESP,44
  4314 00003745 0F BF 05 00000FF6               	MOVSX	EAX,WORD [4086]
  4315 0000374C 50                              	PUSH	EAX
  4316 0000374D 0F BF 05 00000FF4               	MOVSX	EAX,WORD [4084]
  4317 00003754 50                              	PUSH	EAX
  4318 00003755 6A 00                           	PUSH	0
  4319 00003757 6A 00                           	PUSH	0
  4320 00003759 FF B5 FFFFF730                  	PUSH	DWORD [-2256+EBP]
  4321 0000375F E8 [00000000]                   	CALL	_sheet_refresh
  4322 00003764 6A 03                           	PUSH	3
  4323 00003766 FF B5 FFFFF770                  	PUSH	DWORD [-2192+EBP]
  4324 0000376C E8 [00000000]                   	CALL	_timer_settime
  4325 00003771 83 C4 1C                        	ADD	ESP,28
  4326 00003774 E9 FFFFE63D                     	JMP	L24
  4327 00003779                                 L387:
  4328 00003779 6A 14                           	PUSH	20
  4329 0000377B 53                              	PUSH	EBX
  4330 0000377C FF B5 FFFFF770                  	PUSH	DWORD [-2192+EBP]
  4331 00003782 E8 [00000000]                   	CALL	_timer_init
  4332 00003787 6A 03                           	PUSH	3
  4333 00003789 68 000000EF                     	PUSH	239
  4334 0000378E 68 0000016D                     	PUSH	365
  4335 00003793 68 000000D5                     	PUSH	213
  4336 00003798 68 0000015E                     	PUSH	350
  4337 0000379D 6A 07                           	PUSH	7
  4338 0000379F 0F BF 05 00000FF4               	MOVSX	EAX,WORD [4084]
  4339 000037A6 50                              	PUSH	EAX
  4340 000037A7 FF B5 FFFFF744                  	PUSH	DWORD [-2236+EBP]
  4341 000037AD E8 [00000000]                   	CALL	_line
  4342 000037B2 83 C4 2C                        	ADD	ESP,44
  4343 000037B5 0F BF 05 00000FF6               	MOVSX	EAX,WORD [4086]
  4344 000037BC 50                              	PUSH	EAX
  4345 000037BD 0F BF 05 00000FF4               	MOVSX	EAX,WORD [4084]
  4346 000037C4 50                              	PUSH	EAX
  4347 000037C5 6A 00                           	PUSH	0
  4348 000037C7 6A 00                           	PUSH	0
  4349 000037C9 FF B5 FFFFF730                  	PUSH	DWORD [-2256+EBP]
  4350 000037CF E8 [00000000]                   	CALL	_sheet_refresh
  4351 000037D4 6A 03                           	PUSH	3
  4352 000037D6 FF B5 FFFFF770                  	PUSH	DWORD [-2192+EBP]
  4353 000037DC E8 [00000000]                   	CALL	_timer_settime
  4354 000037E1 83 C4 1C                        	ADD	ESP,28
  4355 000037E4 E9 FFFFE5C0                     	JMP	L23
  4356 000037E9                                 L386:
  4357 000037E9 6A 13                           	PUSH	19
  4358 000037EB 53                              	PUSH	EBX
  4359 000037EC FF B5 FFFFF770                  	PUSH	DWORD [-2192+EBP]
  4360 000037F2 E8 [00000000]                   	CALL	_timer_init
  4361 000037F7 6A 03                           	PUSH	3
  4362 000037F9 68 000000E6                     	PUSH	230
  4363 000037FE 68 00000190                     	PUSH	400
  4364 00003803 68 000000C8                     	PUSH	200
  4365 00003808 68 00000190                     	PUSH	400
  4366 0000380D 6A 07                           	PUSH	7
  4367 0000380F 0F BF 05 00000FF4               	MOVSX	EAX,WORD [4084]
  4368 00003816 50                              	PUSH	EAX
  4369 00003817 FF B5 FFFFF744                  	PUSH	DWORD [-2236+EBP]
  4370 0000381D E8 [00000000]                   	CALL	_line
  4371 00003822 83 C4 2C                        	ADD	ESP,44
  4372 00003825 0F BF 05 00000FF6               	MOVSX	EAX,WORD [4086]
  4373 0000382C 50                              	PUSH	EAX
  4374 0000382D 0F BF 05 00000FF4               	MOVSX	EAX,WORD [4084]
  4375 00003834 50                              	PUSH	EAX
  4376 00003835 6A 00                           	PUSH	0
  4377 00003837 6A 00                           	PUSH	0
  4378 00003839 FF B5 FFFFF730                  	PUSH	DWORD [-2256+EBP]
  4379 0000383F E8 [00000000]                   	CALL	_sheet_refresh
  4380 00003844 6A 03                           	PUSH	3
  4381 00003846 FF B5 FFFFF770                  	PUSH	DWORD [-2192+EBP]
  4382 0000384C E8 [00000000]                   	CALL	_timer_settime
  4383 00003851 83 C4 1C                        	ADD	ESP,28
  4384 00003854 E9 FFFFE543                     	JMP	L22
  4385 00003859                                 L385:
  4386 00003859 6A 12                           	PUSH	18
  4387 0000385B 53                              	PUSH	EBX
  4388 0000385C FF B5 FFFFF770                  	PUSH	DWORD [-2192+EBP]
  4389 00003862 E8 [00000000]                   	CALL	_timer_init
  4390 00003867 6A 03                           	PUSH	3
  4391 00003869 68 000000D5                     	PUSH	213
  4392 0000386E 68 000001C2                     	PUSH	450
  4393 00003873 68 000000EF                     	PUSH	239
  4394 00003878 68 000001B3                     	PUSH	435
  4395 0000387D 6A 07                           	PUSH	7
  4396 0000387F 0F BF 05 00000FF4               	MOVSX	EAX,WORD [4084]
  4397 00003886 50                              	PUSH	EAX
  4398 00003887 FF B5 FFFFF744                  	PUSH	DWORD [-2236+EBP]
  4399 0000388D E8 [00000000]                   	CALL	_line
  4400 00003892 83 C4 2C                        	ADD	ESP,44
  4401 00003895 0F BF 05 00000FF6               	MOVSX	EAX,WORD [4086]
  4402 0000389C 50                              	PUSH	EAX
  4403 0000389D 0F BF 05 00000FF4               	MOVSX	EAX,WORD [4084]
  4404 000038A4 50                              	PUSH	EAX
  4405 000038A5 6A 00                           	PUSH	0
  4406 000038A7 6A 00                           	PUSH	0
  4407 000038A9 FF B5 FFFFF730                  	PUSH	DWORD [-2256+EBP]
  4408 000038AF E8 [00000000]                   	CALL	_sheet_refresh
  4409 000038B4 6A 03                           	PUSH	3
  4410 000038B6 FF B5 FFFFF770                  	PUSH	DWORD [-2192+EBP]
  4411 000038BC E8 [00000000]                   	CALL	_timer_settime
  4412 000038C1 83 C4 1C                        	ADD	ESP,28
  4413 000038C4 E9 FFFFE4C6                     	JMP	L21
  4414 000038C9                                 L384:
  4415 000038C9 6A 11                           	PUSH	17
  4416 000038CB 53                              	PUSH	EBX
  4417 000038CC FF B5 FFFFF770                  	PUSH	DWORD [-2192+EBP]
  4418 000038D2 E8 [00000000]                   	CALL	_timer_init
  4419 000038D7 6A 03                           	PUSH	3
  4420 000038D9 68 000000FA                     	PUSH	250
  4421 000038DE 68 000001E7                     	PUSH	487
  4422 000038E3 68 00000109                     	PUSH	265
  4423 000038E8 68 000001CD                     	PUSH	461
  4424 000038ED 6A 07                           	PUSH	7
  4425 000038EF 0F BF 05 00000FF4               	MOVSX	EAX,WORD [4084]
  4426 000038F6 50                              	PUSH	EAX
  4427 000038F7 FF B5 FFFFF744                  	PUSH	DWORD [-2236+EBP]
  4428 000038FD E8 [00000000]                   	CALL	_line
  4429 00003902 83 C4 2C                        	ADD	ESP,44
  4430 00003905 0F BF 05 00000FF6               	MOVSX	EAX,WORD [4086]
  4431 0000390C 50                              	PUSH	EAX
  4432 0000390D 0F BF 05 00000FF4               	MOVSX	EAX,WORD [4084]
  4433 00003914 50                              	PUSH	EAX
  4434 00003915 6A 00                           	PUSH	0
  4435 00003917 6A 00                           	PUSH	0
  4436 00003919 FF B5 FFFFF730                  	PUSH	DWORD [-2256+EBP]
  4437 0000391F E8 [00000000]                   	CALL	_sheet_refresh
  4438 00003924 6A 03                           	PUSH	3
  4439 00003926 FF B5 FFFFF770                  	PUSH	DWORD [-2192+EBP]
  4440 0000392C E8 [00000000]                   	CALL	_timer_settime
  4441 00003931 83 C4 1C                        	ADD	ESP,28
  4442 00003934 E9 FFFFE449                     	JMP	L20
  4443 00003939                                 L383:
  4444 00003939 6A 10                           	PUSH	16
  4445 0000393B 53                              	PUSH	EBX
  4446 0000393C FF B5 FFFFF770                  	PUSH	DWORD [-2192+EBP]
  4447 00003942 E8 [00000000]                   	CALL	_timer_init
  4448 00003947 0F BF 05 00000FF6               	MOVSX	EAX,WORD [4086]
  4449 0000394E 50                              	PUSH	EAX
  4450 0000394F 0F BF 05 00000FF4               	MOVSX	EAX,WORD [4084]
  4451 00003956 50                              	PUSH	EAX
  4452 00003957 6A 00                           	PUSH	0
  4453 00003959 6A 00                           	PUSH	0
  4454 0000395B 6A 08                           	PUSH	8
  4455 0000395D 0F BF 05 00000FF4               	MOVSX	EAX,WORD [4084]
  4456 00003964 50                              	PUSH	EAX
  4457 00003965 FF B5 FFFFF744                  	PUSH	DWORD [-2236+EBP]
  4458 0000396B E8 [00000000]                   	CALL	_boxfill8
  4459 00003970 83 C4 28                        	ADD	ESP,40
  4460 00003973 6A 03                           	PUSH	3
  4461 00003975 68 0000012C                     	PUSH	300
  4462 0000397A 68 000001F4                     	PUSH	500
  4463 0000397F 68 0000012C                     	PUSH	300
  4464 00003984 68 000001D6                     	PUSH	470
  4465 00003989 6A 07                           	PUSH	7
  4466 0000398B 0F BF 05 00000FF4               	MOVSX	EAX,WORD [4084]
  4467 00003992 50                              	PUSH	EAX
  4468 00003993 FF B5 FFFFF744                  	PUSH	DWORD [-2236+EBP]
  4469 00003999 E8 [00000000]                   	CALL	_line
  4470 0000399E 83 C4 20                        	ADD	ESP,32
  4471 000039A1 0F BF 05 00000FF6               	MOVSX	EAX,WORD [4086]
  4472 000039A8 50                              	PUSH	EAX
  4473 000039A9 0F BF 05 00000FF4               	MOVSX	EAX,WORD [4084]
  4474 000039B0 50                              	PUSH	EAX
  4475 000039B1 6A 00                           	PUSH	0
  4476 000039B3 6A 00                           	PUSH	0
  4477 000039B5 FF B5 FFFFF730                  	PUSH	DWORD [-2256+EBP]
  4478 000039BB E8 [00000000]                   	CALL	_sheet_refresh
  4479 000039C0 6A 03                           	PUSH	3
  4480 000039C2 FF B5 FFFFF770                  	PUSH	DWORD [-2192+EBP]
  4481 000039C8 E8 [00000000]                   	CALL	_timer_settime
  4482 000039CD 83 C4 1C                        	ADD	ESP,28
  4483 000039D0 E9 FFFFE3A0                     	JMP	L19
  4484 000039D5                                 L2:
  4485 000039D5 68 00023840                     	PUSH	145472
  4486 000039DA 68 003C0000                     	PUSH	3932160
  4487 000039DF E8 [00000000]                   	CALL	_memman_alloc_4k
  4488 000039E4 31 D2                           	XOR	EDX,EDX
  4489 000039E6 5E                              	POP	ESI
  4490 000039E7 89 C1                           	MOV	ECX,EAX
  4491 000039E9 C7 85 FFFFF780 00000000         	MOV	DWORD [-2176+EBP],0
  4492 000039F3 5F                              	POP	EDI
  4493 000039F4                                 L8:
  4494 000039F4 8A 82 [00000000]                	MOV	AL,BYTE [_hankaku+EDX]
  4495 000039FA 88 04 0A                        	MOV	BYTE [EDX+ECX*1],AL
  4496 000039FD 8B 85 FFFFF780                  	MOV	EAX,DWORD [-2176+EBP]
  4497 00003A03 40                              	INC	EAX
  4498 00003A04 89 85 FFFFF780                  	MOV	DWORD [-2176+EBP],EAX
  4499 00003A0A 89 C2                           	MOV	EDX,EAX
  4500 00003A0C 3D 00000FFF                     	CMP	EAX,4095
  4501 00003A11 7E E1                           	JLE	L8
  4502 00003A13 C7 85 FFFFF780 00001000         	MOV	DWORD [-2176+EBP],4096
  4503 00003A1D B8 00001000                     	MOV	EAX,4096
  4504 00003A22                                 L13:
  4505 00003A22 C6 04 08 FF                     	MOV	BYTE [EAX+ECX*1],-1
  4506 00003A26 8B 85 FFFFF780                  	MOV	EAX,DWORD [-2176+EBP]
  4507 00003A2C 40                              	INC	EAX
  4508 00003A2D 89 85 FFFFF780                  	MOV	DWORD [-2176+EBP],EAX
  4509 00003A33 3D 0002383F                     	CMP	EAX,145471
  4510 00003A38 7E E8                           	JLE	L13
  4511 00003A3A E9 FFFFCEAD                     	JMP	L3
  4512 00003A3F                                 	GLOBAL	_keywin_off
  4513 00003A3F                                 _keywin_off:
  4514 00003A3F 55                              	PUSH	EBP
  4515 00003A40 89 E5                           	MOV	EBP,ESP
  4516 00003A42 53                              	PUSH	EBX
  4517 00003A43 6A 00                           	PUSH	0
  4518 00003A45 8B 5D 08                        	MOV	EBX,DWORD [8+EBP]
  4519 00003A48 53                              	PUSH	EBX
  4520 00003A49 E8 [00000000]                   	CALL	_change_wtitle8
  4521 00003A4E F6 43 1C 20                     	TEST	BYTE [28+EBX],32
  4522 00003A52 59                              	POP	ECX
  4523 00003A53 58                              	POP	EAX
  4524 00003A54 75 05                           	JNE	L419
  4525 00003A56                                 L417:
  4526 00003A56 8B 5D FC                        	MOV	EBX,DWORD [-4+EBP]
  4527 00003A59 C9                              	LEAVE
  4528 00003A5A C3                              	RET
  4529 00003A5B                                 L419:
  4530 00003A5B 6A 03                           	PUSH	3
  4531 00003A5D 8B 43 24                        	MOV	EAX,DWORD [36+EBX]
  4532 00003A60 83 C0 10                        	ADD	EAX,16
  4533 00003A63 50                              	PUSH	EAX
  4534 00003A64 E8 [00000000]                   	CALL	_fifo32_put
  4535 00003A69 58                              	POP	EAX
  4536 00003A6A 5A                              	POP	EDX
  4537 00003A6B EB E9                           	JMP	L417
  4538 00003A6D                                 	GLOBAL	_keywin_on
  4539 00003A6D                                 _keywin_on:
  4540 00003A6D 55                              	PUSH	EBP
  4541 00003A6E 89 E5                           	MOV	EBP,ESP
  4542 00003A70 53                              	PUSH	EBX
  4543 00003A71 6A 01                           	PUSH	1
  4544 00003A73 8B 5D 08                        	MOV	EBX,DWORD [8+EBP]
  4545 00003A76 53                              	PUSH	EBX
  4546 00003A77 E8 [00000000]                   	CALL	_change_wtitle8
  4547 00003A7C F6 43 1C 20                     	TEST	BYTE [28+EBX],32
  4548 00003A80 59                              	POP	ECX
  4549 00003A81 58                              	POP	EAX
  4550 00003A82 75 05                           	JNE	L422
  4551 00003A84                                 L420:
  4552 00003A84 8B 5D FC                        	MOV	EBX,DWORD [-4+EBP]
  4553 00003A87 C9                              	LEAVE
  4554 00003A88 C3                              	RET
  4555 00003A89                                 L422:
  4556 00003A89 6A 02                           	PUSH	2
  4557 00003A8B 8B 43 24                        	MOV	EAX,DWORD [36+EBX]
  4558 00003A8E 83 C0 10                        	ADD	EAX,16
  4559 00003A91 50                              	PUSH	EAX
  4560 00003A92 E8 [00000000]                   	CALL	_fifo32_put
  4561 00003A97 58                              	POP	EAX
  4562 00003A98 5A                              	POP	EDX
  4563 00003A99 EB E9                           	JMP	L420
  4564 00003A9B                                 	GLOBAL	_open_constask
  4565 00003A9B                                 _open_constask:
  4566 00003A9B 55                              	PUSH	EBP
  4567 00003A9C 89 E5                           	MOV	EBP,ESP
  4568 00003A9E 56                              	PUSH	ESI
  4569 00003A9F 53                              	PUSH	EBX
  4570 00003AA0 E8 [00000000]                   	CALL	_task_alloc
  4571 00003AA5 68 00000200                     	PUSH	512
  4572 00003AAA 68 003C0000                     	PUSH	3932160
  4573 00003AAF 89 C3                           	MOV	EBX,EAX
  4574 00003AB1 E8 [00000000]                   	CALL	_memman_alloc_4k
  4575 00003AB6 68 00010000                     	PUSH	65536
  4576 00003ABB 68 003C0000                     	PUSH	3932160
  4577 00003AC0 89 C6                           	MOV	ESI,EAX
  4578 00003AC2 E8 [00000000]                   	CALL	_memman_alloc_4k
  4579 00003AC7 8B 55 08                        	MOV	EDX,DWORD [8+EBP]
  4580 00003ACA C7 43 4C [00000000]             	MOV	DWORD [76+EBX],_console_task
  4581 00003AD1 89 83 000000AC                  	MOV	DWORD [172+EBX],EAX
  4582 00003AD7 05 0000FFF4                     	ADD	EAX,65524
  4583 00003ADC 89 43 64                        	MOV	DWORD [100+EBX],EAX
  4584 00003ADF C7 43 74 00000008               	MOV	DWORD [116+EBX],8
  4585 00003AE6 C7 43 78 00000010               	MOV	DWORD [120+EBX],16
  4586 00003AED C7 43 7C 00000008               	MOV	DWORD [124+EBX],8
  4587 00003AF4 C7 83 00000080 00000008         	MOV	DWORD [128+EBX],8
  4588 00003AFE C7 83 00000084 00000008         	MOV	DWORD [132+EBX],8
  4589 00003B08 C7 83 00000088 00000008         	MOV	DWORD [136+EBX],8
  4590 00003B12 89 50 04                        	MOV	DWORD [4+EAX],EDX
  4591 00003B15 8B 53 64                        	MOV	EDX,DWORD [100+EBX]
  4592 00003B18 8B 45 0C                        	MOV	EAX,DWORD [12+EBP]
  4593 00003B1B 89 42 08                        	MOV	DWORD [8+EDX],EAX
  4594 00003B1E 6A 02                           	PUSH	2
  4595 00003B20 6A 02                           	PUSH	2
  4596 00003B22 53                              	PUSH	EBX
  4597 00003B23 E8 [00000000]                   	CALL	_task_run
  4598 00003B28 8D 43 10                        	LEA	EAX,DWORD [16+EBX]
  4599 00003B2B 53                              	PUSH	EBX
  4600 00003B2C 56                              	PUSH	ESI
  4601 00003B2D 68 00000080                     	PUSH	128
  4602 00003B32 50                              	PUSH	EAX
  4603 00003B33 E8 [00000000]                   	CALL	_fifo32_init
  4604 00003B38 8D 65 F8                        	LEA	ESP,DWORD [-8+EBP]
  4605 00003B3B 89 D8                           	MOV	EAX,EBX
  4606 00003B3D 5B                              	POP	EBX
  4607 00003B3E 5E                              	POP	ESI
  4608 00003B3F 5D                              	POP	EBP
  4609 00003B40 C3                              	RET
  4610                                          [SECTION .data]
  4611 00000642                                 LC22:
  4612 00000642 63 6F 6E 73 6F 6C 65 00         	DB	"console",0x00
  4613                                          [SECTION .text]
  4614 00003B41                                 	GLOBAL	_open_console
  4615 00003B41                                 _open_console:
  4616 00003B41 55                              	PUSH	EBP
  4617 00003B42 89 E5                           	MOV	EBP,ESP
  4618 00003B44 56                              	PUSH	ESI
  4619 00003B45 53                              	PUSH	EBX
  4620 00003B46 FF 75 08                        	PUSH	DWORD [8+EBP]
  4621 00003B49 E8 [00000000]                   	CALL	_sheet_alloc
  4622 00003B4E 68 0000A500                     	PUSH	42240
  4623 00003B53 68 003C0000                     	PUSH	3932160
  4624 00003B58 89 C3                           	MOV	EBX,EAX
  4625 00003B5A E8 [00000000]                   	CALL	_memman_alloc_4k
  4626 00003B5F 6A FF                           	PUSH	-1
  4627 00003B61 68 000000A5                     	PUSH	165
  4628 00003B66 89 C6                           	MOV	ESI,EAX
  4629 00003B68 68 00000100                     	PUSH	256
  4630 00003B6D 50                              	PUSH	EAX
  4631 00003B6E 53                              	PUSH	EBX
  4632 00003B6F E8 [00000000]                   	CALL	_sheet_setbuf
  4633 00003B74 83 C4 20                        	ADD	ESP,32
  4634 00003B77 6A 00                           	PUSH	0
  4635 00003B79 68 [00000642]                   	PUSH	LC22
  4636 00003B7E 68 000000A5                     	PUSH	165
  4637 00003B83 68 00000100                     	PUSH	256
  4638 00003B88 56                              	PUSH	ESI
  4639 00003B89 E8 [00000000]                   	CALL	_make_window8
  4640 00003B8E 6A 00                           	PUSH	0
  4641 00003B90 68 00000080                     	PUSH	128
  4642 00003B95 68 000000F0                     	PUSH	240
  4643 00003B9A 6A 1C                           	PUSH	28
  4644 00003B9C 6A 08                           	PUSH	8
  4645 00003B9E 53                              	PUSH	EBX
  4646 00003B9F E8 [00000000]                   	CALL	_make_textbox8
  4647 00003BA4 83 C4 2C                        	ADD	ESP,44
  4648 00003BA7 FF 75 0C                        	PUSH	DWORD [12+EBP]
  4649 00003BAA 53                              	PUSH	EBX
  4650 00003BAB E8 FFFFFEEB                     	CALL	_open_constask
  4651 00003BB0 83 4B 1C 20                     	OR	DWORD [28+EBX],32
  4652 00003BB4 89 43 24                        	MOV	DWORD [36+EBX],EAX
  4653 00003BB7 8D 65 F8                        	LEA	ESP,DWORD [-8+EBP]
  4654 00003BBA 89 D8                           	MOV	EAX,EBX
  4655 00003BBC 5B                              	POP	EBX
  4656 00003BBD 5E                              	POP	ESI
  4657 00003BBE 5D                              	POP	EBP
  4658 00003BBF C3                              	RET
  4659                                          [SECTION .data]
  4660 0000064A                                 LC23:
  4661 0000064A 6C 6F 67 00                     	DB	"log",0x00
  4662                                          [SECTION .text]
  4663 00003BC0                                 	GLOBAL	_open_log
  4664 00003BC0                                 _open_log:
  4665 00003BC0 55                              	PUSH	EBP
  4666 00003BC1 89 E5                           	MOV	EBP,ESP
  4667 00003BC3 56                              	PUSH	ESI
  4668 00003BC4 53                              	PUSH	EBX
  4669 00003BC5 FF 75 08                        	PUSH	DWORD [8+EBP]
  4670 00003BC8 E8 [00000000]                   	CALL	_sheet_alloc
  4671 00003BCD 68 00052800                     	PUSH	337920
  4672 00003BD2 68 003C0000                     	PUSH	3932160
  4673 00003BD7 89 C3                           	MOV	EBX,EAX
  4674 00003BD9 E8 [00000000]                   	CALL	_memman_alloc_4k
  4675 00003BDE 6A FF                           	PUSH	-1
  4676 00003BE0 68 00000294                     	PUSH	660
  4677 00003BE5 89 C6                           	MOV	ESI,EAX
  4678 00003BE7 68 00000200                     	PUSH	512
  4679 00003BEC 50                              	PUSH	EAX
  4680 00003BED 53                              	PUSH	EBX
  4681 00003BEE E8 [00000000]                   	CALL	_sheet_setbuf
  4682 00003BF3 83 C4 20                        	ADD	ESP,32
  4683 00003BF6 6A 00                           	PUSH	0
  4684 00003BF8 68 [0000064A]                   	PUSH	LC23
  4685 00003BFD 68 00000294                     	PUSH	660
  4686 00003C02 68 00000200                     	PUSH	512
  4687 00003C07 56                              	PUSH	ESI
  4688 00003C08 E8 [00000000]                   	CALL	_make_window8
  4689 00003C0D 6A 00                           	PUSH	0
  4690 00003C0F 68 0000026F                     	PUSH	623
  4691 00003C14 68 000001F0                     	PUSH	496
  4692 00003C19 6A 1C                           	PUSH	28
  4693 00003C1B 6A 08                           	PUSH	8
  4694 00003C1D 53                              	PUSH	EBX
  4695 00003C1E E8 [00000000]                   	CALL	_make_textbox8
  4696 00003C23 83 C4 2C                        	ADD	ESP,44
  4697 00003C26 FF 75 0C                        	PUSH	DWORD [12+EBP]
  4698 00003C29 53                              	PUSH	EBX
  4699 00003C2A E8 FFFFFE6C                     	CALL	_open_constask
  4700 00003C2F 83 4B 1C 20                     	OR	DWORD [28+EBX],32
  4701 00003C33 89 43 24                        	MOV	DWORD [36+EBX],EAX
  4702 00003C36 8D 65 F8                        	LEA	ESP,DWORD [-8+EBP]
  4703 00003C39 89 D8                           	MOV	EAX,EBX
  4704 00003C3B 5B                              	POP	EBX
  4705 00003C3C 5E                              	POP	ESI
  4706 00003C3D 5D                              	POP	EBP
  4707 00003C3E C3                              	RET
  4708 00003C3F                                 	GLOBAL	_close_constask
  4709 00003C3F                                 _close_constask:
  4710 00003C3F 55                              	PUSH	EBP
  4711 00003C40 89 E5                           	MOV	EBP,ESP
  4712 00003C42 53                              	PUSH	EBX
  4713 00003C43 8B 5D 08                        	MOV	EBX,DWORD [8+EBP]
  4714 00003C46 53                              	PUSH	EBX
  4715 00003C47 E8 [00000000]                   	CALL	_task_sleep
  4716 00003C4C 68 00010000                     	PUSH	65536
  4717 00003C51 FF B3 000000AC                  	PUSH	DWORD [172+EBX]
  4718 00003C57 68 003C0000                     	PUSH	3932160
  4719 00003C5C E8 [00000000]                   	CALL	_memman_free_4k
  4720 00003C61 68 00000200                     	PUSH	512
  4721 00003C66 FF 73 10                        	PUSH	DWORD [16+EBX]
  4722 00003C69 68 003C0000                     	PUSH	3932160
  4723 00003C6E E8 [00000000]                   	CALL	_memman_free_4k
  4724 00003C73 C7 43 04 00000000               	MOV	DWORD [4+EBX],0
  4725 00003C7A 8B 5D FC                        	MOV	EBX,DWORD [-4+EBP]
  4726 00003C7D C9                              	LEAVE
  4727 00003C7E C3                              	RET
  4728 00003C7F                                 	GLOBAL	_close_console
  4729 00003C7F                                 _close_console:
  4730 00003C7F 55                              	PUSH	EBP
  4731 00003C80 89 E5                           	MOV	EBP,ESP
  4732 00003C82 56                              	PUSH	ESI
  4733 00003C83 53                              	PUSH	EBX
  4734 00003C84 8B 5D 08                        	MOV	EBX,DWORD [8+EBP]
  4735 00003C87 8B 73 24                        	MOV	ESI,DWORD [36+EBX]
  4736 00003C8A 68 0000A500                     	PUSH	42240
  4737 00003C8F FF 33                           	PUSH	DWORD [EBX]
  4738 00003C91 68 003C0000                     	PUSH	3932160
  4739 00003C96 E8 [00000000]                   	CALL	_memman_free_4k
  4740 00003C9B 53                              	PUSH	EBX
  4741 00003C9C E8 [00000000]                   	CALL	_sheet_free
  4742 00003CA1 89 75 08                        	MOV	DWORD [8+EBP],ESI
  4743 00003CA4 83 C4 10                        	ADD	ESP,16
  4744 00003CA7 8D 65 F8                        	LEA	ESP,DWORD [-8+EBP]
  4745 00003CAA 5B                              	POP	EBX
  4746 00003CAB 5E                              	POP	ESI
  4747 00003CAC 5D                              	POP	EBP
  4748 00003CAD EB 90                           	JMP	_close_constask
  4749                                          [SECTION .data]
  4750 0000064E                                 _cursor.4:
  4751 0000064E 4F 4F 4F 4F 4F 4F 4F 4F 4F 4F   	DB	"OOOOOOOOOOOOOOOOOOOOOOOOOOOOOOOOOOOOOOOOOOOOOOOOOOOOOOOOOOOOOOOOOOOOOO"
       00000658 4F 4F 4F 4F 4F 4F 4F 4F 4F 4F 
       00000662 4F 4F 4F 4F 4F 4F 4F 4F 4F 4F 
       0000066C 4F 4F 4F 4F 4F 4F 4F 4F 4F 4F 
       00000676 4F 4F 4F 4F 4F 4F 4F 4F 4F 4F 
       00000680 4F 4F 4F 4F 4F 4F 4F 4F 4F 4F 
       0000068A 4F 4F 4F 4F 4F 4F 4F 4F 4F 4F 
  4752 00000694 4F 4F 4F 4F 4F 4F 4F 4F 4F 4F   	DB	"OOOOOOOOOOOOOOOOOOOOOOOOOOOOOOOOOOOOOOOOOOOOOOOOOOOOOOOOOOOOOOOOOOOOOO"
       0000069E 4F 4F 4F 4F 4F 4F 4F 4F 4F 4F 
       000006A8 4F 4F 4F 4F 4F 4F 4F 4F 4F 4F 
       000006B2 4F 4F 4F 4F 4F 4F 4F 4F 4F 4F 
       000006BC 4F 4F 4F 4F 4F 4F 4F 4F 4F 4F 
       000006C6 4F 4F 4F 4F 4F 4F 4F 4F 4F 4F 
       000006D0 4F 4F 4F 4F 4F 4F 4F 4F 4F 4F 
  4753 000006DA 4F 4F 4F 4F 4F 4F 4F 4F 4F 4F   	DB	"OOOOOOOOOOOOOOOOOOOOOOOOOOOOOOOOOOOOOOOOOOOOOOOOOOOOOOOOOOOOOOOOOOOOOO"
       000006E4 4F 4F 4F 4F 4F 4F 4F 4F 4F 4F 
       000006EE 4F 4F 4F 4F 4F 4F 4F 4F 4F 4F 
       000006F8 4F 4F 4F 4F 4F 4F 4F 4F 4F 4F 
       00000702 4F 4F 4F 4F 4F 4F 4F 4F 4F 4F 
       0000070C 4F 4F 4F 4F 4F 4F 4F 4F 4F 4F 
       00000716 4F 4F 4F 4F 4F 4F 4F 4F 4F 4F 
  4754 00000720 4F 4F 4F 4F 4F 4F 4F 4F 4F 4F   	DB	"OOOOOOOOOOOOOOOOOOOOOOOOOOOOOOOOOOOOOOOOOOOOOOOOOOOOOOOOOOOOOOOOOOOOOO"
       0000072A 4F 4F 4F 4F 4F 4F 4F 4F 4F 4F 
       00000734 4F 4F 4F 4F 4F 4F 4F 4F 4F 4F 
       0000073E 4F 4F 4F 4F 4F 4F 4F 4F 4F 4F 
       00000748 4F 4F 4F 4F 4F 4F 4F 4F 4F 4F 
       00000752 4F 4F 4F 4F 4F 4F 4F 4F 4F 4F 
       0000075C 4F 4F 4F 4F 4F 4F 4F 4F 4F 4F 
  4755 00000766 4F 4F 4F 4F 4F 4F 4F 4F 4F 4F   	DB	"OOOOOOOOOOOOOOOOOOOOOOOOOOOOOOOOOOOOOOOOOOOOOOOOOOOOOOOOOOOOOOOOOOOOOO"
       00000770 4F 4F 4F 4F 4F 4F 4F 4F 4F 4F 
       0000077A 4F 4F 4F 4F 4F 4F 4F 4F 4F 4F 
       00000784 4F 4F 4F 4F 4F 4F 4F 4F 4F 4F 
       0000078E 4F 4F 4F 4F 4F 4F 4F 4F 4F 4F 
       00000798 4F 4F 4F 4F 4F 4F 4F 4F 4F 4F 
       000007A2 4F 4F 4F 4F 4F 4F 4F 4F 4F 4F 
  4756 000007AC 4F 4F 4F 4F 4F 4F 4F 4F 4F 4F   	DB	"OOOOOOOOOOOOOOOOOOOOOOOOOOOOOOOOOOOOOOOOOOOOOOOOOOOOOOOOOOOOOOOOOOOOOO"
       000007B6 4F 4F 4F 4F 4F 4F 4F 4F 4F 4F 
       000007C0 4F 4F 4F 4F 4F 4F 4F 4F 4F 4F 
       000007CA 4F 4F 4F 4F 4F 4F 4F 4F 4F 4F 
       000007D4 4F 4F 4F 4F 4F 4F 4F 4F 4F 4F 
       000007DE 4F 4F 4F 4F 4F 4F 4F 4F 4F 4F 
       000007E8 4F 4F 4F 4F 4F 4F 4F 4F 4F 4F 
  4757 000007F2 4F 4F 4F 4F 4F 4F 4F 4F 4F 4F   	DB	"OOOOOOOOOOOOOOOOOOOOOOOOOOOOOOOOOOOOOOOOOOOOOOOOOOOOOOOOOOOOOOOOOOOOOO"
       000007FC 4F 4F 4F 4F 4F 4F 4F 4F 4F 4F 
       00000806 4F 4F 4F 4F 4F 4F 4F 4F 4F 4F 
       00000810 4F 4F 4F 4F 4F 4F 4F 4F 4F 4F 
       0000081A 4F 4F 4F 4F 4F 4F 4F 4F 4F 4F 
       00000824 4F 4F 4F 4F 4F 4F 4F 4F 4F 4F 
       0000082E 4F 4F 4F 4F 4F 4F 4F 4F 4F 4F 
  4758 00000838 4F 4F 2A 2A 2A 4F 4F 4F 4F 4F   	DB	"OO***OOOOOO***OOOO************OOOOOOO************OOOO*********OOOOOOOO"
       00000842 4F 2A 2A 2A 4F 4F 4F 4F 2A 2A 
       0000084C 2A 2A 2A 2A 2A 2A 2A 2A 2A 2A 
       00000856 4F 4F 4F 4F 4F 4F 4F 2A 2A 2A 
       00000860 2A 2A 2A 2A 2A 2A 2A 2A 2A 4F 
       0000086A 4F 4F 4F 2A 2A 2A 2A 2A 2A 2A 
       00000874 2A 2A 4F 4F 4F 4F 4F 4F 4F 4F 
  4759 0000087E 4F 4F 2A 2A 2A 4F 4F 4F 4F 4F   	DB	"OO***OOOOOO***OOO***OOOOOOOOO***OOOOO***OOOOOOOOOOOOO***OOOOOO***OOOOO"
       00000888 4F 2A 2A 2A 4F 4F 4F 2A 2A 2A 
       00000892 4F 4F 4F 4F 4F 4F 4F 4F 4F 2A 
       0000089C 2A 2A 4F 4F 4F 4F 4F 2A 2A 2A 
       000008A6 4F 4F 4F 4F 4F 4F 4F 4F 4F 4F 
       000008B0 4F 4F 4F 2A 2A 2A 4F 4F 4F 4F 
       000008BA 4F 4F 2A 2A 2A 4F 4F 4F 4F 4F 
  4760 000008C4 4F 4F 2A 2A 2A 4F 4F 4F 4F 4F   	DB	"OO***OOOOOO***OOOOO***OOOOOOOOO**OOOO***OOOOOOOOOOOOO***OOOOOO***OOOOO"
       000008CE 4F 2A 2A 2A 4F 4F 4F 4F 4F 2A 
       000008D8 2A 2A 4F 4F 4F 4F 4F 4F 4F 4F 
       000008E2 4F 2A 2A 4F 4F 4F 4F 2A 2A 2A 
       000008EC 4F 4F 4F 4F 4F 4F 4F 4F 4F 4F 
       000008F6 4F 4F 4F 2A 2A 2A 4F 4F 4F 4F 
       00000900 4F 4F 2A 2A 2A 4F 4F 4F 4F 4F 
  4761 0000090A 4F 4F 2A 2A 2A 4F 4F 4F 4F 4F   	DB	"OO***OOOOOO***OOOOOOO***OOOOOOOOOOOOO***OOOOOOOOOOOOO***OOOOO***OOOOOO"
       00000914 4F 2A 2A 2A 4F 4F 4F 4F 4F 4F 
       0000091E 4F 2A 2A 2A 4F 4F 4F 4F 4F 4F 
       00000928 4F 4F 4F 4F 4F 4F 4F 2A 2A 2A 
       00000932 4F 4F 4F 4F 4F 4F 4F 4F 4F 4F 
       0000093C 4F 4F 4F 2A 2A 2A 4F 4F 4F 4F 
       00000946 4F 2A 2A 2A 4F 4F 4F 4F 4F 4F 
  4762 00000950 4F 4F 2A 2A 2A 4F 4F 4F 4F 4F   	DB	"OO***OOOOOO***OOOOOOOOOO***OOOOOOOOOO************OOOO********OOOOOOOOO"
       0000095A 4F 2A 2A 2A 4F 4F 4F 4F 4F 4F 
       00000964 4F 4F 4F 4F 2A 2A 2A 4F 4F 4F 
       0000096E 4F 4F 4F 4F 4F 4F 4F 2A 2A 2A 
       00000978 2A 2A 2A 2A 2A 2A 2A 2A 2A 4F 
       00000982 4F 4F 4F 2A 2A 2A 2A 2A 2A 2A 
       0000098C 2A 4F 4F 4F 4F 4F 4F 4F 4F 4F 
  4763 00000996 4F 4F 2A 2A 2A 4F 4F 4F 4F 4F   	DB	"OO***OOOOOO***OOOOOOOOOOOOO***OOOOOOO***OOOOOOOOOOOOO***OOO***OOOOOOOO"
       000009A0 4F 2A 2A 2A 4F 4F 4F 4F 4F 4F 
       000009AA 4F 4F 4F 4F 4F 4F 4F 2A 2A 2A 
       000009B4 4F 4F 4F 4F 4F 4F 4F 2A 2A 2A 
       000009BE 4F 4F 4F 4F 4F 4F 4F 4F 4F 4F 
       000009C8 4F 4F 4F 2A 2A 2A 4F 4F 4F 2A 
       000009D2 2A 2A 4F 4F 4F 4F 4F 4F 4F 4F 
  4764 000009DC 4F 4F 2A 2A 2A 4F 4F 4F 4F 4F   	DB	"OO***OOOOOO***OOOOOOOOOOOOOOO***OOOOO***OOOOOOOOOOOOO***OOOOO***OOOOOO"
       000009E6 4F 2A 2A 2A 4F 4F 4F 4F 4F 4F 
       000009F0 4F 4F 4F 4F 4F 4F 4F 4F 4F 2A 
       000009FA 2A 2A 4F 4F 4F 4F 4F 2A 2A 2A 
       00000A04 4F 4F 4F 4F 4F 4F 4F 4F 4F 4F 
       00000A0E 4F 4F 4F 2A 2A 2A 4F 4F 4F 4F 
       00000A18 4F 2A 2A 2A 4F 4F 4F 4F 4F 4F 
  4765 00000A22 4F 4F 2A 2A 2A 4F 4F 4F 4F 4F   	DB	"OO***OOOOOO***OOOOOOOOOOOOOOOOO***OOO***OOOOOOOOOOOOO***OOOOOOO***OOOO"
       00000A2C 4F 2A 2A 2A 4F 4F 4F 4F 4F 4F 
       00000A36 4F 4F 4F 4F 4F 4F 4F 4F 4F 4F 
       00000A40 4F 2A 2A 2A 4F 4F 4F 2A 2A 2A 
       00000A4A 4F 4F 4F 4F 4F 4F 4F 4F 4F 4F 
       00000A54 4F 4F 4F 2A 2A 2A 4F 4F 4F 4F 
       00000A5E 4F 4F 4F 2A 2A 2A 4F 4F 4F 4F 
  4766 00000A68 4F 4F 4F 2A 2A 2A 2A 2A 2A 2A   	DB	"OOO*********OOOOOOO*************OOOOO************OOOO***OOOOOOOOO***OO"
       00000A72 2A 2A 4F 4F 4F 4F 4F 4F 4F 2A 
       00000A7C 2A 2A 2A 2A 2A 2A 2A 2A 2A 2A 
       00000A86 2A 2A 4F 4F 4F 4F 4F 2A 2A 2A 
       00000A90 2A 2A 2A 2A 2A 2A 2A 2A 2A 4F 
       00000A9A 4F 4F 4F 2A 2A 2A 4F 4F 4F 4F 
       00000AA4 4F 4F 4F 4F 4F 2A 2A 2A 4F 4F 
  4767 00000AAE 4F 4F 4F 4F 4F 4F 4F 4F 4F 4F   	DB	"OOOOOOOOOOOOOOOOOOOOOOOOOOOOOOOOOOOOOOOOOOOOOOOOOOOOOOOOOOOOOOOOOOOOOO"
       00000AB8 4F 4F 4F 4F 4F 4F 4F 4F 4F 4F 
       00000AC2 4F 4F 4F 4F 4F 4F 4F 4F 4F 4F 
       00000ACC 4F 4F 4F 4F 4F 4F 4F 4F 4F 4F 
       00000AD6 4F 4F 4F 4F 4F 4F 4F 4F 4F 4F 
       00000AE0 4F 4F 4F 4F 4F 4F 4F 4F 4F 4F 
       00000AEA 4F 4F 4F 4F 4F 4F 4F 4F 4F 4F 
  4768 00000AF4 4F 4F 4F 4F 4F 4F 4F 4F 4F 4F   	DB	"OOOOOOOOOOOOOOOOOOOOOOOOOOOOOOOOOOOOOOOOOOOOOOOOOOOOOOOOOOOOOOOOOOOOOO"
       00000AFE 4F 4F 4F 4F 4F 4F 4F 4F 4F 4F 
       00000B08 4F 4F 4F 4F 4F 4F 4F 4F 4F 4F 
       00000B12 4F 4F 4F 4F 4F 4F 4F 4F 4F 4F 
       00000B1C 4F 4F 4F 4F 4F 4F 4F 4F 4F 4F 
       00000B26 4F 4F 4F 4F 4F 4F 4F 4F 4F 4F 
       00000B30 4F 4F 4F 4F 4F 4F 4F 4F 4F 4F 
  4769 00000B3A 4F 4F 4F 4F 4F 4F 4F 4F 4F 4F   	DB	"OOOOOOOOOOOOOOOOOOOOOOOOOOOOOOOOOOOOOOOOOOOOOOOOOOOOOOOOOOOOOOOOOOOOOO"
       00000B44 4F 4F 4F 4F 4F 4F 4F 4F 4F 4F 
       00000B4E 4F 4F 4F 4F 4F 4F 4F 4F 4F 4F 
       00000B58 4F 4F 4F 4F 4F 4F 4F 4F 4F 4F 
       00000B62 4F 4F 4F 4F 4F 4F 4F 4F 4F 4F 
       00000B6C 4F 4F 4F 4F 4F 4F 4F 4F 4F 4F 
       00000B76 4F 4F 4F 4F 4F 4F 4F 4F 4F 4F 
  4770 00000B80 4F 4F 4F 4F 4F 4F 4F 4F 4F 4F   	DB	"OOOOOOOOOOOOOOOOOOOOOOOOOOOOOOOOOOOOOOOOOOOOOOOOOOOOOOOOOOOOOOOOOOOOOO"
       00000B8A 4F 4F 4F 4F 4F 4F 4F 4F 4F 4F 
       00000B94 4F 4F 4F 4F 4F 4F 4F 4F 4F 4F 
       00000B9E 4F 4F 4F 4F 4F 4F 4F 4F 4F 4F 
       00000BA8 4F 4F 4F 4F 4F 4F 4F 4F 4F 4F 
       00000BB2 4F 4F 4F 4F 4F 4F 4F 4F 4F 4F 
       00000BBC 4F 4F 4F 4F 4F 4F 4F 4F 4F 4F 
  4771 00000BC6 4F 4F 4F 4F 4F 4F 4F 4F 4F 4F   	DB	"OOOOOOOOOOOOOOOOOOOOOOOOOOOOOOOOOOOOOOOOOOOOOOOOOOOOOOOOOOOOOOOOOOOOOO"
       00000BD0 4F 4F 4F 4F 4F 4F 4F 4F 4F 4F 
       00000BDA 4F 4F 4F 4F 4F 4F 4F 4F 4F 4F 
       00000BE4 4F 4F 4F 4F 4F 4F 4F 4F 4F 4F 
       00000BEE 4F 4F 4F 4F 4F 4F 4F 4F 4F 4F 
       00000BF8 4F 4F 4F 4F 4F 4F 4F 4F 4F 4F 
       00000C02 4F 4F 4F 4F 4F 4F 4F 4F 4F 4F 
  4772 00000C0C 4F 4F 4F 4F 4F 4F 4F 4F 4F 4F   	DB	"OOOOOOOOOOOOOOOOOOOOOOOOOOOOOOOOOOOOOOOOOOOOOOOOOOOOOOOOOOOOOOOOOOOOOO"
       00000C16 4F 4F 4F 4F 4F 4F 4F 4F 4F 4F 
       00000C20 4F 4F 4F 4F 4F 4F 4F 4F 4F 4F 
       00000C2A 4F 4F 4F 4F 4F 4F 4F 4F 4F 4F 
       00000C34 4F 4F 4F 4F 4F 4F 4F 4F 4F 4F 
       00000C3E 4F 4F 4F 4F 4F 4F 4F 4F 4F 4F 
       00000C48 4F 4F 4F 4F 4F 4F 4F 4F 4F 4F 
  4773 00000C52 4F 4F 4F 4F 4F 4F 4F 4F 4F 4F   	DB	"OOOOOOOOOOOOOOOOOOOOOOOOOOOOOOOOOOOOOOOOOOOOOOOOOOOOOOOOOOOOOOOOOOOOOO"
       00000C5C 4F 4F 4F 4F 4F 4F 4F 4F 4F 4F 
       00000C66 4F 4F 4F 4F 4F 4F 4F 4F 4F 4F 
       00000C70 4F 4F 4F 4F 4F 4F 4F 4F 4F 4F 
       00000C7A 4F 4F 4F 4F 4F 4F 4F 4F 4F 4F 
       00000C84 4F 4F 4F 4F 4F 4F 4F 4F 4F 4F 
       00000C8E 4F 4F 4F 4F 4F 4F 4F 4F 4F 4F 
  4774 00000C98 4F 4F 4F 4F 4F 4F 4F 4F 4F 4F   	DB	"OOOOOOOOOOOOOOOOOOOOOOOOOOOOOOOOOOOOOOOOOOOOOOOOOOOOOOOOOOOOOOOOOOOOOO"
       00000CA2 4F 4F 4F 4F 4F 4F 4F 4F 4F 4F 
       00000CAC 4F 4F 4F 4F 4F 4F 4F 4F 4F 4F 
       00000CB6 4F 4F 4F 4F 4F 4F 4F 4F 4F 4F 
       00000CC0 4F 4F 4F 4F 4F 4F 4F 4F 4F 4F 
       00000CCA 4F 4F 4F 4F 4F 4F 4F 4F 4F 4F 
       00000CD4 4F 4F 4F 4F 4F 4F 4F 4F 4F 4F 
  4775 00000CDE                                 _cursor2.5:
  4776 00000CDE 6F 6F 6F 6F 6F 6F 6F 6F 2A 6F   	DB	"oooooooo*ooooooo"
       00000CE8 6F 6F 6F 6F 6F 6F 
  4777 00000CEE 6F 6F 6F 6F 6F 6F 6F 6F 2A 2A   	DB	"oooooooo**oooooo"
       00000CF8 6F 6F 6F 6F 6F 6F 
  4778 00000CFE 6F 6F 6F 6F 6F 6F 6F 6F 2A 2A   	DB	"oooooooo***ooooo"
       00000D08 2A 6F 6F 6F 6F 6F 
  4779 00000D0E 6F 6F 6F 6F 6F 6F 6F 6F 2A 2A   	DB	"oooooooo****oooo"
       00000D18 2A 2A 6F 6F 6F 6F 
  4780 00000D1E 6F 6F 6F 6F 6F 6F 6F 6F 2A 2A   	DB	"oooooooo*****ooo"
       00000D28 2A 2A 2A 6F 6F 6F 
  4781 00000D2E 6F 6F 6F 6F 6F 6F 6F 6F 2A 2A   	DB	"oooooooo******oo"
       00000D38 2A 2A 2A 2A 6F 6F 
  4782 00000D3E 2A 2A 2A 2A 2A 2A 2A 2A 2A 2A   	DB	"***************o"
       00000D48 2A 2A 2A 2A 2A 6F 
  4783 00000D4E 2A 2A 2A 2A 2A 2A 2A 2A 2A 2A   	DB	"****************"
       00000D58 2A 2A 2A 2A 2A 2A 
  4784 00000D5E 2A 2A 2A 2A 2A 2A 2A 2A 2A 2A   	DB	"***************o"
       00000D68 2A 2A 2A 2A 2A 6F 
  4785 00000D6E 6F 6F 6F 6F 6F 6F 6F 6F 2A 2A   	DB	"oooooooo******oo"
       00000D78 2A 2A 2A 2A 6F 6F 
  4786 00000D7E 6F 6F 6F 6F 6F 6F 6F 6F 2A 2A   	DB	"oooooooo*****ooo"
       00000D88 2A 2A 2A 6F 6F 6F 
  4787 00000D8E 6F 6F 6F 6F 6F 6F 6F 6F 2A 2A   	DB	"oooooooo****oooo"
       00000D98 2A 2A 6F 6F 6F 6F 
  4788 00000D9E 6F 6F 6F 6F 6F 6F 6F 6F 2A 2A   	DB	"oooooooo***ooooo"
       00000DA8 2A 6F 6F 6F 6F 6F 
  4789 00000DAE 6F 6F 6F 6F 6F 6F 6F 6F 2A 2A   	DB	"oooooooo**oooooo"
       00000DB8 6F 6F 6F 6F 6F 6F 
  4790 00000DBE 6F 6F 6F 6F 6F 6F 6F 6F 2A 6F   	DB	"oooooooo*ooooooo"
       00000DC8 6F 6F 6F 6F 6F 6F 
  4791                                          [SECTION .text]
  4792 00003CAF                                 	GLOBAL	_bootpage
  4793 00003CAF                                 _bootpage:
  4794 00003CAF 55                              	PUSH	EBP
  4795 00003CB0 89 E5                           	MOV	EBP,ESP
  4796 00003CB2 57                              	PUSH	EDI
  4797 00003CB3 56                              	PUSH	ESI
  4798 00003CB4 BF 0000015E                     	MOV	EDI,350
  4799 00003CB9 53                              	PUSH	EBX
  4800 00003CBA 83 EC 0C                        	SUB	ESP,12
  4801 00003CBD FF 75 10                        	PUSH	DWORD [16+EBP]
  4802 00003CC0 8B 5D 0C                        	MOV	EBX,DWORD [12+EBP]
  4803 00003CC3 53                              	PUSH	EBX
  4804 00003CC4 6A 00                           	PUSH	0
  4805 00003CC6 6A 00                           	PUSH	0
  4806 00003CC8 6A 1C                           	PUSH	28
  4807 00003CCA 53                              	PUSH	EBX
  4808 00003CCB FF 75 08                        	PUSH	DWORD [8+EBP]
  4809 00003CCE E8 [00000000]                   	CALL	_boxfill8
  4810 00003CD3 68 0000012C                     	PUSH	300
  4811 00003CD8 68 000001F4                     	PUSH	500
  4812 00003CDD 6A 64                           	PUSH	100
  4813 00003CDF 68 0000012C                     	PUSH	300
  4814 00003CE4 6A 07                           	PUSH	7
  4815 00003CE6 53                              	PUSH	EBX
  4816 00003CE7 FF 75 08                        	PUSH	DWORD [8+EBP]
  4817 00003CEA E8 [00000000]                   	CALL	_boxfilly
  4818 00003CEF 83 C4 38                        	ADD	ESP,56
  4819 00003CF2 68 000000C8                     	PUSH	200
  4820 00003CF7 68 000001A9                     	PUSH	425
  4821 00003CFC 68 00000096                     	PUSH	150
  4822 00003D01 68 00000177                     	PUSH	375
  4823 00003D06 6A 08                           	PUSH	8
  4824 00003D08 53                              	PUSH	EBX
  4825 00003D09 FF 75 08                        	PUSH	DWORD [8+EBP]
  4826 00003D0C E8 [00000000]                   	CALL	_boxfilly
  4827 00003D11 68 000000C1                     	PUSH	193
  4828 00003D16 68 000001A2                     	PUSH	418
  4829 00003D1B 68 0000009D                     	PUSH	157
  4830 00003D20 68 0000017E                     	PUSH	382
  4831 00003D25 6A 07                           	PUSH	7
  4832 00003D27 53                              	PUSH	EBX
  4833 00003D28 FF 75 08                        	PUSH	DWORD [8+EBP]
  4834 00003D2B E8 [00000000]                   	CALL	_boxfilly
  4835 00003D30 83 C4 38                        	ADD	ESP,56
  4836 00003D33 BA 00000002                     	MOV	EDX,2
  4837 00003D38 89 D8                           	MOV	EAX,EBX
  4838 00003D3A 89 D1                           	MOV	ECX,EDX
  4839 00003D3C 99                              	CDQ
  4840 00003D3D F7 F9                           	IDIV	ECX
  4841 00003D3F 89 45 F0                        	MOV	DWORD [-16+EBP],EAX
  4842 00003D42                                 L439:
  4843 00003D42 89 DA                           	MOV	EDX,EBX
  4844 00003D44 8B 4D 08                        	MOV	ECX,DWORD [8+EBP]
  4845 00003D47 69 D2 000000C8                  	IMUL	EDX,EDX,200
  4846 00003D4D 8D 04 39                        	LEA	EAX,DWORD [ECX+EDI*1]
  4847 00003D50 BE 000000C8                     	MOV	ESI,200
  4848 00003D55 8D 0C 10                        	LEA	ECX,DWORD [EAX+EDX*1]
  4849 00003D58                                 L438:
  4850 00003D58 8D 97 FFFFFE70                  	LEA	EDX,DWORD [-400+EDI]
  4851 00003D5E 8D 86 FFFFFF06                  	LEA	EAX,DWORD [-250+ESI]
  4852 00003D64 0F AF D2                        	IMUL	EDX,EDX
  4853 00003D67 0F AF C0                        	IMUL	EAX,EAX
  4854 00003D6A 8D 94 10 FFFFF9C0               	LEA	EDX,DWORD [-1600+EAX+EDX*1]
  4855 00003D71 81 FA 00000384                  	CMP	EDX,900
  4856 00003D77 77 03                           	JA	L435
  4857 00003D79 C6 01 08                        	MOV	BYTE [ECX],8
  4858 00003D7C                                 L435:
  4859 00003D7C 46                              	INC	ESI
  4860 00003D7D 01 D9                           	ADD	ECX,EBX
  4861 00003D7F 81 FE 000000FA                  	CMP	ESI,250
  4862 00003D85 7E D1                           	JLE	L438
  4863 00003D87 47                              	INC	EDI
  4864 00003D88 81 FF 000001C2                  	CMP	EDI,450
  4865 00003D8E 7E B2                           	JLE	L439
  4866 00003D90 89 D8                           	MOV	EAX,EBX
  4867 00003D92 31 F6                           	XOR	ESI,ESI
  4868 00003D94 69 C0 00000136                  	IMUL	EAX,EAX,310
  4869 00003D9A 31 FF                           	XOR	EDI,EDI
  4870 00003D9C 89 45 E8                        	MOV	DWORD [-24+EBP],EAX
  4871 00003D9F                                 L450:
  4872 00003D9F 8B 4D F0                        	MOV	ECX,DWORD [-16+EBP]
  4873 00003DA2 8B 45 08                        	MOV	EAX,DWORD [8+EBP]
  4874 00003DA5 03 4D E8                        	ADD	ECX,DWORD [-24+EBP]
  4875 00003DA8 31 D2                           	XOR	EDX,EDX
  4876 00003DAA 8D 44 08 DD                     	LEA	EAX,DWORD [-35+EAX+ECX*1]
  4877 00003DAE 89 45 EC                        	MOV	DWORD [-20+EBP],EAX
  4878 00003DB1                                 L449:
  4879 00003DB1 80 BC 3A [0000064E] 2A          	CMP	BYTE [_cursor.4+EDX+EDI*1],42
  4880 00003DB9 0F 84 000000AE                  	JE	L474
  4881 00003DBF                                 L446:
  4882 00003DBF 42                              	INC	EDX
  4883 00003DC0 FF 45 EC                        	INC	DWORD [-20+EBP]
  4884 00003DC3 83 FA 45                        	CMP	EDX,69
  4885 00003DC6 7E E9                           	JLE	L449
  4886 00003DC8 46                              	INC	ESI
  4887 00003DC9 83 C7 46                        	ADD	EDI,70
  4888 00003DCC 01 5D E8                        	ADD	DWORD [-24+EBP],EBX
  4889 00003DCF 83 FE 17                        	CMP	ESI,23
  4890 00003DD2 7E CB                           	JLE	L450
  4891 00003DD4 8B 45 F0                        	MOV	EAX,DWORD [-16+EBP]
  4892 00003DD7 68 000001A6                     	PUSH	422
  4893 00003DDC 83 C0 59                        	ADD	EAX,89
  4894 00003DDF 31 F6                           	XOR	ESI,ESI
  4895 00003DE1 50                              	PUSH	EAX
  4896 00003DE2 31 FF                           	XOR	EDI,EDI
  4897 00003DE4 8B 45 F0                        	MOV	EAX,DWORD [-16+EBP]
  4898 00003DE7 68 00000190                     	PUSH	400
  4899 00003DEC 83 E8 55                        	SUB	EAX,85
  4900 00003DEF 50                              	PUSH	EAX
  4901 00003DF0 6A 08                           	PUSH	8
  4902 00003DF2 53                              	PUSH	EBX
  4903 00003DF3 FF 75 08                        	PUSH	DWORD [8+EBP]
  4904 00003DF6 E8 [00000000]                   	CALL	_boxfill8
  4905 00003DFB 8B 45 F0                        	MOV	EAX,DWORD [-16+EBP]
  4906 00003DFE 68 000001A4                     	PUSH	420
  4907 00003E03 83 C0 39                        	ADD	EAX,57
  4908 00003E06 50                              	PUSH	EAX
  4909 00003E07 8B 45 F0                        	MOV	EAX,DWORD [-16+EBP]
  4910 00003E0A 68 00000192                     	PUSH	402
  4911 00003E0F 83 E8 53                        	SUB	EAX,83
  4912 00003E12 50                              	PUSH	EAX
  4913 00003E13 6A 07                           	PUSH	7
  4914 00003E15 53                              	PUSH	EBX
  4915 00003E16 FF 75 08                        	PUSH	DWORD [8+EBP]
  4916 00003E19 E8 [00000000]                   	CALL	_boxfill8
  4917 00003E1E 89 D8                           	MOV	EAX,EBX
  4918 00003E20 69 C0 00000194                  	IMUL	EAX,EAX,404
  4919 00003E26 83 C4 38                        	ADD	ESP,56
  4920 00003E29 89 45 E8                        	MOV	DWORD [-24+EBP],EAX
  4921 00003E2C                                 L461:
  4922 00003E2C 8B 4D F0                        	MOV	ECX,DWORD [-16+EBP]
  4923 00003E2F 8B 45 08                        	MOV	EAX,DWORD [8+EBP]
  4924 00003E32 03 4D E8                        	ADD	ECX,DWORD [-24+EBP]
  4925 00003E35 31 D2                           	XOR	EDX,EDX
  4926 00003E37 8D 44 08 41                     	LEA	EAX,DWORD [65+EAX+ECX*1]
  4927 00003E3B 89 45 EC                        	MOV	DWORD [-20+EBP],EAX
  4928 00003E3E                                 L460:
  4929 00003E3E 80 BC 3A [00000CDE] 2A          	CMP	BYTE [_cursor2.5+EDX+EDI*1],42
  4930 00003E46 74 1D                           	JE	L475
  4931 00003E48                                 L457:
  4932 00003E48 42                              	INC	EDX
  4933 00003E49 FF 45 EC                        	INC	DWORD [-20+EBP]
  4934 00003E4C 83 FA 0F                        	CMP	EDX,15
  4935 00003E4F 7E ED                           	JLE	L460
  4936 00003E51 46                              	INC	ESI
  4937 00003E52 83 C7 10                        	ADD	EDI,16
  4938 00003E55 01 5D E8                        	ADD	DWORD [-24+EBP],EBX
  4939 00003E58 83 FE 0E                        	CMP	ESI,14
  4940 00003E5B 7E CF                           	JLE	L461
  4941 00003E5D 8D 65 F4                        	LEA	ESP,DWORD [-12+EBP]
  4942 00003E60 5B                              	POP	EBX
  4943 00003E61 5E                              	POP	ESI
  4944 00003E62 5F                              	POP	EDI
  4945 00003E63 5D                              	POP	EBP
  4946 00003E64 C3                              	RET
  4947 00003E65                                 L475:
  4948 00003E65 8B 4D EC                        	MOV	ECX,DWORD [-20+EBP]
  4949 00003E68 C6 01 07                        	MOV	BYTE [ECX],7
  4950 00003E6B EB DB                           	JMP	L457
  4951 00003E6D                                 L474:
  4952 00003E6D 8B 4D EC                        	MOV	ECX,DWORD [-20+EBP]
  4953 00003E70 C6 01 07                        	MOV	BYTE [ECX],7
  4954 00003E73 E9 FFFFFF47                     	JMP	L446
  4955 00003E78                                 	GLOBAL	_cin_pin
  4956 00003E78                                 _cin_pin:
  4957 00003E78 55                              	PUSH	EBP
  4958 00003E79 89 E5                           	MOV	EBP,ESP
  4959 00003E7B 57                              	PUSH	EDI
  4960 00003E7C 56                              	PUSH	ESI
  4961 00003E7D 53                              	PUSH	EBX
  4962 00003E7E 50                              	PUSH	EAX
  4963 00003E7F 8B 45 0C                        	MOV	EAX,DWORD [12+EBP]
  4964 00003E82 8B 55 10                        	MOV	EDX,DWORD [16+EBP]
  4965 00003E85 2D 00000100                     	SUB	EAX,256
  4966 00003E8A 8B 75 28                        	MOV	ESI,DWORD [40+EBP]
  4967 00003E8D 83 F8 53                        	CMP	EAX,83
  4968 00003E90 77 1C                           	JA	L477
  4969 00003E92 8B 45 0C                        	MOV	EAX,DWORD [12+EBP]
  4970 00003E95 8D 1C 10                        	LEA	EBX,DWORD [EAX+EDX*1]
  4971 00003E98 80 BB FFFFFF00 00               	CMP	BYTE [-256+EBX],0
  4972 00003E9F 74 0D                           	JE	L477
  4973 00003EA1 81 7D 14 000001C6               	CMP	DWORD [20+EBP],454
  4974 00003EA8 0F 8E 000000EB                  	JLE	L488
  4975 00003EAE                                 L477:
  4976 00003EAE 81 7D 0C 0000010E               	CMP	DWORD [12+EBP],270
  4977 00003EB5 0F 84 00000082                  	JE	L489
  4978 00003EBB                                 L483:
  4979 00003EBB 8B 5D 14                        	MOV	EBX,DWORD [20+EBP]
  4980 00003EBE 68 000001A3                     	PUSH	419
  4981 00003EC3 83 EB 09                        	SUB	EBX,9
  4982 00003EC6 8B 7D 14                        	MOV	EDI,DWORD [20+EBP]
  4983 00003EC9 53                              	PUSH	EBX
  4984 00003ECA 83 EF 0A                        	SUB	EDI,10
  4985 00003ECD 68 00000193                     	PUSH	403
  4986 00003ED2 8B 45 08                        	MOV	EAX,DWORD [8+EBP]
  4987 00003ED5 57                              	PUSH	EDI
  4988 00003ED6 6A 07                           	PUSH	7
  4989 00003ED8 FF 70 04                        	PUSH	DWORD [4+EAX]
  4990 00003EDB FF 30                           	PUSH	DWORD [EAX]
  4991 00003EDD E8 [00000000]                   	CALL	_boxfill8
  4992 00003EE2 8B 55 08                        	MOV	EDX,DWORD [8+EBP]
  4993 00003EE5 8B 75 14                        	MOV	ESI,DWORD [20+EBP]
  4994 00003EE8 68 000001A3                     	PUSH	419
  4995 00003EED 83 EE 03                        	SUB	ESI,3
  4996 00003EF0 56                              	PUSH	ESI
  4997 00003EF1 68 00000193                     	PUSH	403
  4998 00003EF6 53                              	PUSH	EBX
  4999 00003EF7 6A 07                           	PUSH	7
  5000 00003EF9 FF 72 04                        	PUSH	DWORD [4+EDX]
  5001 00003EFC FF 32                           	PUSH	DWORD [EDX]
  5002 00003EFE E8 [00000000]                   	CALL	_boxfill8
  5003 00003F03 83 C4 38                        	ADD	ESP,56
  5004 00003F06 68 000001A3                     	PUSH	419
  5005 00003F0B 56                              	PUSH	ESI
  5006 00003F0C 68 00000193                     	PUSH	403
  5007 00003F11 57                              	PUSH	EDI
  5008 00003F12 FF 75 08                        	PUSH	DWORD [8+EBP]
  5009 00003F15 E8 [00000000]                   	CALL	_sheet_refresh
  5010 00003F1A 83 C4 14                        	ADD	ESP,20
  5011 00003F1D 81 7D 0C 0000011C               	CMP	DWORD [12+EBP],284
  5012 00003F24 74 0B                           	JE	L490
  5013 00003F26                                 L487:
  5014 00003F26 8B 45 14                        	MOV	EAX,DWORD [20+EBP]
  5015 00003F29 8D 65 F4                        	LEA	ESP,DWORD [-12+EBP]
  5016 00003F2C 5B                              	POP	EBX
  5017 00003F2D 5E                              	POP	ESI
  5018 00003F2E 5F                              	POP	EDI
  5019 00003F2F 5D                              	POP	EBP
  5020 00003F30 C3                              	RET
  5021 00003F31                                 L490:
  5022 00003F31 8B 4D 2C                        	MOV	ECX,DWORD [44+EBP]
  5023 00003F34 C7 41 1C 00000001               	MOV	DWORD [28+ECX],1
  5024 00003F3B EB E9                           	JMP	L487
  5025 00003F3D                                 L489:
  5026 00003F3D 81 7D 14 00000147               	CMP	DWORD [20+EBP],327
  5027 00003F44 0F 8E FFFFFF71                  	JLE	L483
  5028 00003F4A 6A 01                           	PUSH	1
  5029 00003F4C 8B 45 14                        	MOV	EAX,DWORD [20+EBP]
  5030 00003F4F 68 [000005D7]                   	PUSH	LC13
  5031 00003F54 83 E8 0A                        	SUB	EAX,10
  5032 00003F57 6A 07                           	PUSH	7
  5033 00003F59 6A 00                           	PUSH	0
  5034 00003F5B 68 00000193                     	PUSH	403
  5035 00003F60 50                              	PUSH	EAX
  5036 00003F61 FF 75 08                        	PUSH	DWORD [8+EBP]
  5037 00003F64 E8 [00000000]                   	CALL	_putfonts8_asc_sht
  5038 00003F69 83 C4 1C                        	ADD	ESP,28
  5039 00003F6C 83 6D 14 08                     	SUB	DWORD [20+EBP],8
  5040 00003F70 8B 06                           	MOV	EAX,DWORD [ESI]
  5041 00003F72 83 F8 05                        	CMP	EAX,5
  5042 00003F75 7F 11                           	JG	L484
  5043 00003F77 8B 55 2C                        	MOV	EDX,DWORD [44+EBP]
  5044 00003F7A C7 04 82 00000000               	MOV	DWORD [EDX+EAX*4],0
  5045 00003F81                                 L485:
  5046 00003F81 FF 0E                           	DEC	DWORD [ESI]
  5047 00003F83 E9 FFFFFF33                     	JMP	L483
  5048 00003F88                                 L484:
  5049 00003F88 83 F8 06                        	CMP	EAX,6
  5050 00003F8B 75 F4                           	JNE	L485
  5051 00003F8D 8B 4D 2C                        	MOV	ECX,DWORD [44+EBP]
  5052 00003F90 C7 41 18 00000001               	MOV	DWORD [24+ECX],1
  5053 00003F97 EB E8                           	JMP	L485
  5054 00003F99                                 L488:
  5055 00003F99 8A 42 37                        	MOV	AL,BYTE [55+EDX]
  5056 00003F9C 6A 01                           	PUSH	1
  5057 00003F9E 88 45 F2                        	MOV	BYTE [-14+EBP],AL
  5058 00003FA1 8D 45 F2                        	LEA	EAX,DWORD [-14+EBP]
  5059 00003FA4 50                              	PUSH	EAX
  5060 00003FA5 8B 45 14                        	MOV	EAX,DWORD [20+EBP]
  5061 00003FA8 6A 07                           	PUSH	7
  5062 00003FAA 83 E8 0A                        	SUB	EAX,10
  5063 00003FAD 6A 00                           	PUSH	0
  5064 00003FAF 68 00000193                     	PUSH	403
  5065 00003FB4 50                              	PUSH	EAX
  5066 00003FB5 FF 75 08                        	PUSH	DWORD [8+EBP]
  5067 00003FB8 C6 45 F3 00                     	MOV	BYTE [-13+EBP],0
  5068 00003FBC E8 [00000000]                   	CALL	_putfonts8_asc_sht
  5069 00003FC1 83 C4 1C                        	ADD	ESP,28
  5070 00003FC4 83 45 14 08                     	ADD	DWORD [20+EBP],8
  5071 00003FC8 8B 16                           	MOV	EDX,DWORD [ESI]
  5072 00003FCA 83 FA 05                        	CMP	EDX,5
  5073 00003FCD 7E 11                           	JLE	L479
  5074 00003FCF 8B 55 2C                        	MOV	EDX,DWORD [44+EBP]
  5075 00003FD2 C7 42 18 00000000               	MOV	DWORD [24+EDX],0
  5076 00003FD9                                 L480:
  5077 00003FD9 FF 06                           	INC	DWORD [ESI]
  5078 00003FDB E9 FFFFFECE                     	JMP	L477
  5079 00003FE0                                 L479:
  5080 00003FE0 8B 45 24                        	MOV	EAX,DWORD [36+EBP]
  5081 00003FE3 8B 4D 2C                        	MOV	ECX,DWORD [44+EBP]
  5082 00003FE6 8A 04 02                        	MOV	AL,BYTE [EDX+EAX*1]
  5083 00003FE9 38 83 FFFFFF00                  	CMP	BYTE [-256+EBX],AL
  5084 00003FEF 0F 94 C0                        	SETE	AL
  5085 00003FF2 0F B6 C0                        	MOVZX	EAX,AL
  5086 00003FF5 89 04 91                        	MOV	DWORD [ECX+EDX*4],EAX
  5087 00003FF8 EB DF                           	JMP	L480
  5088 00003FFA                                 	GLOBAL	_if_right
  5089 00003FFA                                 _if_right:
  5090 00003FFA 55                              	PUSH	EBP
  5091 00003FFB 31 C0                           	XOR	EAX,EAX
  5092 00003FFD 89 E5                           	MOV	EBP,ESP
  5093 00003FFF 8B 55 08                        	MOV	EDX,DWORD [8+EBP]
  5094 00004002                                 L497:
  5095 00004002 83 3C 82 00                     	CMP	DWORD [EDX+EAX*4],0
  5096 00004006 74 0D                           	JE	L500
  5097 00004008 40                              	INC	EAX
  5098 00004009 83 F8 07                        	CMP	EAX,7
  5099 0000400C 7E F4                           	JLE	L497
  5100 0000400E B8 00000001                     	MOV	EAX,1
  5101 00004013                                 L491:
  5102 00004013 5D                              	POP	EBP
  5103 00004014 C3                              	RET
  5104 00004015                                 L500:
  5105 00004015 31 C0                           	XOR	EAX,EAX
  5106 00004017 EB FA                           	JMP	L491
