     1 00000000                                 [FORMAT "WCOFF"]
     2 00000000                                 [INSTRSET "i486p"]
     3 00000000                                 [OPTIMIZE 1]
     4 00000000                                 [OPTION 1]
     5 00000000                                 [BITS 32]
     6 00000000                                 	EXTERN	_task_now
     7 00000000                                 	EXTERN	_memman_alloc_4k
     8 00000000                                 	EXTERN	_timer_alloc
     9 00000000                                 	EXTERN	_timer_init
    10 00000000                                 	EXTERN	_timer_settime
    11 00000000                                 	EXTERN	_file_readfat
    12 00000000                                 	EXTERN	_io_cli
    13 00000000                                 	EXTERN	_fifo32_status
    14 00000000                                 	EXTERN	_fifo32_get
    15 00000000                                 	EXTERN	_io_sti
    16 00000000                                 	EXTERN	_boxfill8
    17 00000000                                 	EXTERN	_sheet_refresh
    18 00000000                                 	EXTERN	_newBackGround
    19 00000000                                 	EXTERN	_task_sleep
    20 00000000                                 	EXTERN	_putfonts8_asc_sht
    21 00000000                                 	EXTERN	_sprintf
    22 00000000                                 	EXTERN	_myfinfo_search
    23 00000000                                 	EXTERN	_myfread
    24 00000000                                 	EXTERN	_get_size_myfdata
    25 00000000                                 	EXTERN	_myfopen
    26 00000000                                 	EXTERN	_myfwrite
    27 00000000                                 	EXTERN	_strcat
    28 00000000                                 	EXTERN	_myfsave
    29 00000000                                 	EXTERN	_myfclose
    30 00000000                                 	EXTERN	_get_newdinfo
    31 00000000                                 	EXTERN	_get_newfdata
    32 00000000                                 	EXTERN	_memman_total
    33 00000000                                 	EXTERN	_file_loadfile
    34 00000000                                 	EXTERN	_memman_free_4k
    35 00000000                                 	EXTERN	_timer_cancel
    36 00000000                                 	EXTERN	_fifo32_put
    37 00000000                                 	EXTERN	_taskctl
    38 00000000                                 	EXTERN	_open_console
    39 00000000                                 	EXTERN	_sheet_slide
    40 00000000                                 	EXTERN	_sheet_updown
    41 00000000                                 	EXTERN	_open_constask
    42 00000000                                 	EXTERN	_file_search
    43 00000000                                 	EXTERN	_file_loadfile2
    44 00000000                                 	EXTERN	_set_segmdesc
    45 00000000                                 	EXTERN	_start_app
    46 00000000                                 	EXTERN	_timer_cancelall
    47 00000000                                 	EXTERN	_sheet_free
    48 00000000                                 	EXTERN	_sheet_alloc
    49 00000000                                 	EXTERN	_sheet_setbuf
    50 00000000                                 	EXTERN	_make_window8
    51 00000000                                 	EXTERN	_putfonts8_asc
    52 00000000                                 	EXTERN	_memman_init
    53 00000000                                 	EXTERN	_memman_free
    54 00000000                                 	EXTERN	_memman_alloc
    55 00000000                                 	EXTERN	_timer_free
    56 00000000                                 	EXTERN	_io_in8
    57 00000000                                 	EXTERN	_io_out8
    58 00000000                                 [FILE "console.c"]
    59 00000000                                 	GLOBAL	_console_id
    60                                          [SECTION .data]
    61 00000000                                 	ALIGNB	4
    62 00000000                                 _console_id:
    63 00000000 00000000                        	DD	0
    64 00000004                                 	GLOBAL	_setfdata
    65 00000004                                 	ALIGNB	4
    66 00000004                                 _setfdata:
    67 00000004 00000000                        	DD	0
    68                                          [SECTION .text]
    69 00000000                                 	GLOBAL	_debug_print
    70 00000000                                 _debug_print:
    71 00000000 55                              	PUSH	EBP
    72 00000001 89 E5                           	MOV	EBP,ESP
    73 00000003 5D                              	POP	EBP
    74 00000004 C3                              	RET
    75                                          [SECTION .data]
    76 00000008                                 LC10:
    77 00000008 74 69 6D 65 00                  	DB	"time",0x00
    78 0000000D                                 LC9:
    79 0000000D 6E 65 77 62 67 20 33 2E 6A 70   	DB	"newbg 3.jpg",0x00
       00000017 67 00 
    80 00000019                                 LC8:
    81 00000019 6E 65 77 62 67 20 32 2E 6A 70   	DB	"newbg 2.jpg",0x00
       00000023 67 00 
    82 00000025                                 LC7:
    83 00000025 75 73 65 72 00                  	DB	"user",0x00
    84 0000002A                                 LC6:
    85 0000002A 69 6E 76 61 64 65 72 00         	DB	"invader",0x00
    86 00000032                                 LC5:
    87 00000032 62 62 61 6C 6C 00               	DB	"bball",0x00
    88 00000038                                 LC4:
    89 00000038 77 61 6C 6B 00                  	DB	"walk",0x00
    90 0000003D                                 LC3:
    91 0000003D 63 6F 6C 6F 72 32 00            	DB	"color2",0x00
    92 00000044                                 LC2:
    93 00000044 73 74 61 72 31 00               	DB	"star1",0x00
    94 0000004A                                 LC1:
    95 0000004A 6E 6F 6F 64 6C 65 00            	DB	"noodle",0x00
    96 00000051                                 LC0:
    97 00000051 6C 69 6E 65 73 00               	DB	"lines",0x00
    98                                          [SECTION .text]
    99 00000005                                 	GLOBAL	_console_task
   100 00000005                                 _console_task:
   101 00000005 55                              	PUSH	EBP
   102 00000006 89 E5                           	MOV	EBP,ESP
   103 00000008 57                              	PUSH	EDI
   104 00000009 56                              	PUSH	ESI
   105 0000000A 53                              	PUSH	EBX
   106 0000000B 81 EC 00000100                  	SUB	ESP,256
   107 00000011 8B 5D 08                        	MOV	EBX,DWORD [8+EBP]
   108 00000014 E8 [00000000]                   	CALL	_task_now
   109 00000019 68 00002D00                     	PUSH	11520
   110 0000001E 68 003C0000                     	PUSH	3932160
   111 00000023 89 85 FFFFFF00                  	MOV	DWORD [-256+EBP],EAX
   112 00000029 E8 [00000000]                   	CALL	_memman_alloc_4k
   113 0000002E 8B 95 FFFFFF00                  	MOV	EDX,DWORD [-256+EBP]
   114 00000034 89 C7                           	MOV	EDI,EAX
   115 00000036 89 5D D4                        	MOV	DWORD [-44+EBP],EBX
   116 00000039 A1 00000FE8                     	MOV	EAX,DWORD [4072]
   117 0000003E 89 85 FFFFFEF8                  	MOV	DWORD [-264+EBP],EAX
   118 00000044 A1 [00000000]                   	MOV	EAX,DWORD [_console_id]
   119 00000049 89 45 EC                        	MOV	DWORD [-20+EBP],EAX
   120 0000004C 40                              	INC	EAX
   121 0000004D A3 [00000000]                   	MOV	DWORD [_console_id],EAX
   122 00000052 85 DB                           	TEST	EBX,EBX
   123 00000054 8D 45 D4                        	LEA	EAX,DWORD [-44+EBP]
   124 00000057 89 82 000000A4                  	MOV	DWORD [164+EDX],EAX
   125 0000005D 8D 85 FFFFFF04                  	LEA	EAX,DWORD [-252+EBP]
   126 00000063 89 82 000000B8                  	MOV	DWORD [184+EDX],EAX
   127 00000069 59                              	POP	ECX
   128 0000006A C7 45 D8 00000008               	MOV	DWORD [-40+EBP],8
   129 00000071 C7 45 DC 0000001C               	MOV	DWORD [-36+EBP],28
   130 00000078 C7 45 E0 FFFFFFFF               	MOV	DWORD [-32+EBP],-1
   131 0000007F C7 45 E8 00400000               	MOV	DWORD [-24+EBP],4194304
   132 00000086 5E                              	POP	ESI
   133 00000087 74 27                           	JE	L3
   134 00000089 E8 [00000000]                   	CALL	_timer_alloc
   135 0000008E 8B 95 FFFFFF00                  	MOV	EDX,DWORD [-256+EBP]
   136 00000094 6A 01                           	PUSH	1
   137 00000096 83 C2 10                        	ADD	EDX,16
   138 00000099 52                              	PUSH	EDX
   139 0000009A 89 45 E4                        	MOV	DWORD [-28+EBP],EAX
   140 0000009D 50                              	PUSH	EAX
   141 0000009E E8 [00000000]                   	CALL	_timer_init
   142 000000A3 6A 32                           	PUSH	50
   143 000000A5 FF 75 E4                        	PUSH	DWORD [-28+EBP]
   144 000000A8 E8 [00000000]                   	CALL	_timer_settime
   145 000000AD 83 C4 14                        	ADD	ESP,20
   146 000000B0                                 L3:
   147 000000B0 68 00100200                     	PUSH	1049088
   148 000000B5 BE 00000007                     	MOV	ESI,7
   149 000000BA 57                              	PUSH	EDI
   150 000000BB E8 [00000000]                   	CALL	_file_readfat
   151 000000C0 58                              	POP	EAX
   152 000000C1 5A                              	POP	EDX
   153 000000C2 31 C0                           	XOR	EAX,EAX
   154 000000C4                                 L8:
   155 000000C4 C7 84 05 FFFFFF74 00000000      	MOV	DWORD [-140+EBP+EAX*1],0
   156 000000CF 83 C0 0C                        	ADD	EAX,12
   157 000000D2 4E                              	DEC	ESI
   158 000000D3 79 EF                           	JNS	L8
   159 000000D5 8B 8D FFFFFF00                  	MOV	ECX,DWORD [-256+EBP]
   160 000000DB 8B 9D FFFFFEF8                  	MOV	EBX,DWORD [-264+EBP]
   161 000000E1 8D 85 FFFFFF74                  	LEA	EAX,DWORD [-140+EBP]
   162 000000E7 89 81 000000B0                  	MOV	DWORD [176+ECX],EAX
   163 000000ED 89 B9 000000B4                  	MOV	DWORD [180+ECX],EDI
   164 000000F3 80 BB 00001000 FF               	CMP	BYTE [4096+EBX],-1
   165 000000FA C6 81 000000BD 00               	MOV	BYTE [189+ECX],0
   166 00000101 0F 95 81 000000BC               	SETNE	BYTE [188+ECX]
   167 00000108 8B 45 EC                        	MOV	EAX,DWORD [-20+EBP]
   168 0000010B 83 F8 01                        	CMP	EAX,1
   169 0000010E 0F 84 00000463                  	JE	L55
   170 00000114 85 C0                           	TEST	EAX,EAX
   171 00000116 75 0A                           	JNE	L12
   172 00000118 8D 45 D4                        	LEA	EAX,DWORD [-44+EBP]
   173 0000011B 50                              	PUSH	EAX
   174 0000011C E8 00001973                     	CALL	_cmd_setlog
   175 00000121                                 L53:
   176 00000121 58                              	POP	EAX
   177 00000122                                 L12:
   178 00000122 8D 5D D4                        	LEA	EBX,DWORD [-44+EBP]
   179 00000125 53                              	PUSH	EBX
   180 00000126 E8 000006C9                     	CALL	_cons_putdir
   181 0000012B 6A 01                           	PUSH	1
   182 0000012D 6A 3E                           	PUSH	62
   183 0000012F 53                              	PUSH	EBX
   184 00000130 89 85 FFFFFEFC                  	MOV	DWORD [-260+EBP],EAX
   185 00000136 E8 0000044A                     	CALL	_cons_putchar
   186 0000013B 83 C4 10                        	ADD	ESP,16
   187 0000013E                                 L14:
   188 0000013E E8 [00000000]                   	CALL	_io_cli
   189 00000143 8B 9D FFFFFF00                  	MOV	EBX,DWORD [-256+EBP]
   190 00000149 83 C3 10                        	ADD	EBX,16
   191 0000014C 53                              	PUSH	EBX
   192 0000014D E8 [00000000]                   	CALL	_fifo32_status
   193 00000152 5E                              	POP	ESI
   194 00000153 85 C0                           	TEST	EAX,EAX
   195 00000155 0F 84 00000406                  	JE	L56
   196 0000015B 53                              	PUSH	EBX
   197 0000015C E8 [00000000]                   	CALL	_fifo32_get
   198 00000161 89 C6                           	MOV	ESI,EAX
   199 00000163 E8 [00000000]                   	CALL	_io_sti
   200 00000168 59                              	POP	ECX
   201 00000169 83 FE 01                        	CMP	ESI,1
   202 0000016C 0F 8E 00000398                  	JLE	L57
   203 00000172                                 L19:
   204 00000172 83 FE 02                        	CMP	ESI,2
   205 00000175 0F 84 00000383                  	JE	L58
   206 0000017B                                 L24:
   207 0000017B 83 FE 03                        	CMP	ESI,3
   208 0000017E 0F 84 00000348                  	JE	L59
   209 00000184                                 L25:
   210 00000184 83 FE 04                        	CMP	ESI,4
   211 00000187 0F 84 0000032E                  	JE	L60
   212 0000018D                                 L27:
   213 0000018D 83 FE 05                        	CMP	ESI,5
   214 00000190 0F 84 0000030E                  	JE	L61
   215 00000196                                 L28:
   216 00000196 83 FE 06                        	CMP	ESI,6
   217 00000199 0F 84 000002EE                  	JE	L62
   218 0000019F                                 L29:
   219 0000019F 83 FE 07                        	CMP	ESI,7
   220 000001A2 0F 84 000002CE                  	JE	L63
   221 000001A8                                 L30:
   222 000001A8 83 FE 08                        	CMP	ESI,8
   223 000001AB 0F 84 000002AE                  	JE	L64
   224 000001B1                                 L31:
   225 000001B1 83 FE 09                        	CMP	ESI,9
   226 000001B4 0F 84 0000028E                  	JE	L65
   227 000001BA                                 L32:
   228 000001BA 83 FE 0B                        	CMP	ESI,11
   229 000001BD 0F 84 0000026E                  	JE	L66
   230 000001C3                                 L34:
   231 000001C3 83 FE 0C                        	CMP	ESI,12
   232 000001C6 0F 84 000001F5                  	JE	L67
   233 000001CC                                 L35:
   234 000001CC 83 FE 0D                        	CMP	ESI,13
   235 000001CF 0F 84 000001D5                  	JE	L68
   236 000001D5                                 L36:
   237 000001D5 83 FE 12                        	CMP	ESI,18
   238 000001D8 0F 84 000001B5                  	JE	L69
   239 000001DE                                 L37:
   240 000001DE 83 FE 15                        	CMP	ESI,21
   241 000001E1 0F 84 00000195                  	JE	L70
   242 000001E7                                 L38:
   243 000001E7 83 FE 16                        	CMP	ESI,22
   244 000001EA 0F 84 00000175                  	JE	L71
   245 000001F0                                 L39:
   246 000001F0 83 FE 17                        	CMP	ESI,23
   247 000001F3 0F 84 00000155                  	JE	L72
   248 000001F9                                 L40:
   249 000001F9 8D 86 FFFFFF00                  	LEA	EAX,DWORD [-256+ESI]
   250 000001FF 89 85 FFFFFEF4                  	MOV	DWORD [-268+EBP],EAX
   251 00000205 3D 000000FF                     	CMP	EAX,255
   252 0000020A 77 54                           	JA	L41
   253 0000020C 81 FE 00000108                  	CMP	ESI,264
   254 00000212 0F 84 0000010A                  	JE	L73
   255 00000218 81 FE 0000010A                  	CMP	ESI,266
   256 0000021E 0F 84 0000008F                  	JE	L74
   257 00000224 8B 4D D8                        	MOV	ECX,DWORD [-40+EBP]
   258 00000227 81 F9 000000EF                  	CMP	ECX,239
   259 0000022D 7F 31                           	JG	L41
   260 0000022F 89 C8                           	MOV	EAX,ECX
   261 00000231 BA 00000008                     	MOV	EDX,8
   262 00000236 89 D3                           	MOV	EBX,EDX
   263 00000238 6A 01                           	PUSH	1
   264 0000023A 99                              	CDQ
   265 0000023B F7 FB                           	IDIV	EBX
   266 0000023D 89 C1                           	MOV	ECX,EAX
   267 0000023F 89 F0                           	MOV	EAX,ESI
   268 00000241 2B 8D FFFFFEFC                  	SUB	ECX,DWORD [-260+EBP]
   269 00000247 88 84 0D FFFFFF02               	MOV	BYTE [-254+EBP+ECX*1],AL
   270 0000024E 8D 45 D4                        	LEA	EAX,DWORD [-44+EBP]
   271 00000251 FF B5 FFFFFEF4                  	PUSH	DWORD [-268+EBP]
   272 00000257 50                              	PUSH	EAX
   273 00000258 E8 00000328                     	CALL	_cons_putchar
   274 0000025D                                 L54:
   275 0000025D 83 C4 0C                        	ADD	ESP,12
   276 00000260                                 L41:
   277 00000260 8B 5D D4                        	MOV	EBX,DWORD [-44+EBP]
   278 00000263 85 DB                           	TEST	EBX,EBX
   279 00000265 0F 84 FFFFFED3                  	JE	L14
   280 0000026B 83 7D E0 00                     	CMP	DWORD [-32+EBP],0
   281 0000026F 78 22                           	JS	L50
   282 00000271 8B 4D DC                        	MOV	ECX,DWORD [-36+EBP]
   283 00000274 8B 55 D8                        	MOV	EDX,DWORD [-40+EBP]
   284 00000277 8D 41 0F                        	LEA	EAX,DWORD [15+ECX]
   285 0000027A 50                              	PUSH	EAX
   286 0000027B 8D 42 07                        	LEA	EAX,DWORD [7+EDX]
   287 0000027E 50                              	PUSH	EAX
   288 0000027F 51                              	PUSH	ECX
   289 00000280 52                              	PUSH	EDX
   290 00000281 0F B6 45 E0                     	MOVZX	EAX,BYTE [-32+EBP]
   291 00000285 50                              	PUSH	EAX
   292 00000286 FF 73 04                        	PUSH	DWORD [4+EBX]
   293 00000289 FF 33                           	PUSH	DWORD [EBX]
   294 0000028B E8 [00000000]                   	CALL	_boxfill8
   295 00000290 83 C4 1C                        	ADD	ESP,28
   296 00000293                                 L50:
   297 00000293 8B 4D DC                        	MOV	ECX,DWORD [-36+EBP]
   298 00000296 8B 55 D8                        	MOV	EDX,DWORD [-40+EBP]
   299 00000299 8D 41 10                        	LEA	EAX,DWORD [16+ECX]
   300 0000029C 50                              	PUSH	EAX
   301 0000029D 8D 42 08                        	LEA	EAX,DWORD [8+EDX]
   302 000002A0 50                              	PUSH	EAX
   303 000002A1 51                              	PUSH	ECX
   304 000002A2 52                              	PUSH	EDX
   305 000002A3 FF 75 D4                        	PUSH	DWORD [-44+EBP]
   306 000002A6 E8 [00000000]                   	CALL	_sheet_refresh
   307 000002AB 83 C4 14                        	ADD	ESP,20
   308 000002AE E9 FFFFFE8B                     	JMP	L14
   309 000002B3                                 L74:
   310 000002B3 6A 00                           	PUSH	0
   311 000002B5 8D 5D D4                        	LEA	EBX,DWORD [-44+EBP]
   312 000002B8 6A 20                           	PUSH	32
   313 000002BA 53                              	PUSH	EBX
   314 000002BB E8 000002C5                     	CALL	_cons_putchar
   315 000002C0 53                              	PUSH	EBX
   316 000002C1 8B 45 D8                        	MOV	EAX,DWORD [-40+EBP]
   317 000002C4 BA 00000008                     	MOV	EDX,8
   318 000002C9 89 D1                           	MOV	ECX,EDX
   319 000002CB 99                              	CDQ
   320 000002CC F7 F9                           	IDIV	ECX
   321 000002CE 2B 85 FFFFFEFC                  	SUB	EAX,DWORD [-260+EBP]
   322 000002D4 C6 84 05 FFFFFF02 00            	MOV	BYTE [-254+EBP+EAX*1],0
   323 000002DC E8 0000035F                     	CALL	_cons_newline
   324 000002E1 8D 85 FFFFFF04                  	LEA	EAX,DWORD [-252+EBP]
   325 000002E7 FF 75 0C                        	PUSH	DWORD [12+EBP]
   326 000002EA 57                              	PUSH	EDI
   327 000002EB 53                              	PUSH	EBX
   328 000002EC 50                              	PUSH	EAX
   329 000002ED E8 000005E9                     	CALL	_cons_runcmd
   330 000002F2 83 C4 20                        	ADD	ESP,32
   331 000002F5 83 7D D4 00                     	CMP	DWORD [-44+EBP],0
   332 000002F9 75 09                           	JNE	L46
   333 000002FB 57                              	PUSH	EDI
   334 000002FC 53                              	PUSH	EBX
   335 000002FD E8 000020F5                     	CALL	_cmd_exit
   336 00000302 58                              	POP	EAX
   337 00000303 5A                              	POP	EDX
   338 00000304                                 L46:
   339 00000304 53                              	PUSH	EBX
   340 00000305 E8 000004EA                     	CALL	_cons_putdir
   341 0000030A 6A 01                           	PUSH	1
   342 0000030C 6A 3E                           	PUSH	62
   343 0000030E 53                              	PUSH	EBX
   344 0000030F 89 85 FFFFFEFC                  	MOV	DWORD [-260+EBP],EAX
   345 00000315 E8 0000026B                     	CALL	_cons_putchar
   346 0000031A 83 C4 10                        	ADD	ESP,16
   347 0000031D E9 FFFFFF3E                     	JMP	L41
   348 00000322                                 L73:
   349 00000322 8B 95 FFFFFEFC                  	MOV	EDX,DWORD [-260+EBP]
   350 00000328 8D 04 D5 00000010               	LEA	EAX,DWORD [16+EDX*8]
   351 0000032F 39 45 D8                        	CMP	DWORD [-40+EBP],EAX
   352 00000332 0F 8E FFFFFF28                  	JLE	L41
   353 00000338 6A 00                           	PUSH	0
   354 0000033A 8D 45 D4                        	LEA	EAX,DWORD [-44+EBP]
   355 0000033D 6A 20                           	PUSH	32
   356 0000033F 50                              	PUSH	EAX
   357 00000340 E8 00000240                     	CALL	_cons_putchar
   358 00000345 83 6D D8 08                     	SUB	DWORD [-40+EBP],8
   359 00000349 E9 FFFFFF0F                     	JMP	L54
   360 0000034E                                 L72:
   361 0000034E 68 [00000008]                   	PUSH	LC10
   362 00000353 8D 45 D4                        	LEA	EAX,DWORD [-44+EBP]
   363 00000356 57                              	PUSH	EDI
   364 00000357 50                              	PUSH	EAX
   365 00000358 E8 0000225E                     	CALL	_cmd_app
   366 0000035D 83 C4 0C                        	ADD	ESP,12
   367 00000360 E9 FFFFFE94                     	JMP	L40
   368 00000365                                 L71:
   369 00000365 8D 45 D4                        	LEA	EAX,DWORD [-44+EBP]
   370 00000368 50                              	PUSH	EAX
   371 00000369 57                              	PUSH	EDI
   372 0000036A 68 [0000000D]                   	PUSH	LC9
   373 0000036F E8 [00000000]                   	CALL	_newBackGround
   374 00000374 83 C4 0C                        	ADD	ESP,12
   375 00000377 E9 FFFFFE74                     	JMP	L39
   376 0000037C                                 L70:
   377 0000037C 8D 45 D4                        	LEA	EAX,DWORD [-44+EBP]
   378 0000037F 50                              	PUSH	EAX
   379 00000380 57                              	PUSH	EDI
   380 00000381 68 [00000019]                   	PUSH	LC8
   381 00000386 E8 [00000000]                   	CALL	_newBackGround
   382 0000038B 83 C4 0C                        	ADD	ESP,12
   383 0000038E E9 FFFFFE54                     	JMP	L38
   384 00000393                                 L69:
   385 00000393 68 [00000025]                   	PUSH	LC7
   386 00000398 8D 45 D4                        	LEA	EAX,DWORD [-44+EBP]
   387 0000039B 57                              	PUSH	EDI
   388 0000039C 50                              	PUSH	EAX
   389 0000039D E8 00002219                     	CALL	_cmd_app
   390 000003A2 83 C4 0C                        	ADD	ESP,12
   391 000003A5 E9 FFFFFE34                     	JMP	L37
   392 000003AA                                 L68:
   393 000003AA 68 [0000002A]                   	PUSH	LC6
   394 000003AF 8D 45 D4                        	LEA	EAX,DWORD [-44+EBP]
   395 000003B2 57                              	PUSH	EDI
   396 000003B3 50                              	PUSH	EAX
   397 000003B4 E8 00002202                     	CALL	_cmd_app
   398 000003B9 83 C4 0C                        	ADD	ESP,12
   399 000003BC E9 FFFFFE14                     	JMP	L36
   400 000003C1                                 L67:
   401 000003C1 FF 75 0C                        	PUSH	DWORD [12+EBP]
   402 000003C4 57                              	PUSH	EDI
   403 000003C5 8D 45 D4                        	LEA	EAX,DWORD [-44+EBP]
   404 000003C8 50                              	PUSH	EAX
   405 000003C9 8D 85 FFFFFF04                  	LEA	EAX,DWORD [-252+EBP]
   406 000003CF 50                              	PUSH	EAX
   407 000003D0 C6 85 FFFFFF04 47               	MOV	BYTE [-252+EBP],71
   408 000003D7 C6 85 FFFFFF05 56               	MOV	BYTE [-251+EBP],86
   409 000003DE C6 85 FFFFFF06 49               	MOV	BYTE [-250+EBP],73
   410 000003E5 C6 85 FFFFFF07 45               	MOV	BYTE [-249+EBP],69
   411 000003EC C6 85 FFFFFF08 57               	MOV	BYTE [-248+EBP],87
   412 000003F3 C6 85 FFFFFF09 20               	MOV	BYTE [-247+EBP],32
   413 000003FA C6 85 FFFFFF0A 35               	MOV	BYTE [-246+EBP],53
   414 00000401 C6 85 FFFFFF0B 2E               	MOV	BYTE [-245+EBP],46
   415 00000408 C6 85 FFFFFF0C 4A               	MOV	BYTE [-244+EBP],74
   416 0000040F C6 85 FFFFFF0D 50               	MOV	BYTE [-243+EBP],80
   417 00000416 C6 85 FFFFFF0E 47               	MOV	BYTE [-242+EBP],71
   418 0000041D C6 85 FFFFFF0F 00               	MOV	BYTE [-241+EBP],0
   419 00000424 E8 000004B2                     	CALL	_cons_runcmd
   420 00000429 83 C4 10                        	ADD	ESP,16
   421 0000042C E9 FFFFFD9B                     	JMP	L35
   422 00000431                                 L66:
   423 00000431 68 [00000032]                   	PUSH	LC5
   424 00000436 8D 45 D4                        	LEA	EAX,DWORD [-44+EBP]
   425 00000439 57                              	PUSH	EDI
   426 0000043A 50                              	PUSH	EAX
   427 0000043B E8 0000217B                     	CALL	_cmd_app
   428 00000440 83 C4 0C                        	ADD	ESP,12
   429 00000443 E9 FFFFFD7B                     	JMP	L34
   430 00000448                                 L65:
   431 00000448 68 [00000038]                   	PUSH	LC4
   432 0000044D 8D 45 D4                        	LEA	EAX,DWORD [-44+EBP]
   433 00000450 57                              	PUSH	EDI
   434 00000451 50                              	PUSH	EAX
   435 00000452 E8 00002164                     	CALL	_cmd_app
   436 00000457 83 C4 0C                        	ADD	ESP,12
   437 0000045A E9 FFFFFD5B                     	JMP	L32
   438 0000045F                                 L64:
   439 0000045F 68 [0000003D]                   	PUSH	LC3
   440 00000464 8D 45 D4                        	LEA	EAX,DWORD [-44+EBP]
   441 00000467 57                              	PUSH	EDI
   442 00000468 50                              	PUSH	EAX
   443 00000469 E8 0000214D                     	CALL	_cmd_app
   444 0000046E 83 C4 0C                        	ADD	ESP,12
   445 00000471 E9 FFFFFD3B                     	JMP	L31
   446 00000476                                 L63:
   447 00000476 68 [00000044]                   	PUSH	LC2
   448 0000047B 8D 45 D4                        	LEA	EAX,DWORD [-44+EBP]
   449 0000047E 57                              	PUSH	EDI
   450 0000047F 50                              	PUSH	EAX
   451 00000480 E8 00002136                     	CALL	_cmd_app
   452 00000485 83 C4 0C                        	ADD	ESP,12
   453 00000488 E9 FFFFFD1B                     	JMP	L30
   454 0000048D                                 L62:
   455 0000048D 68 [0000004A]                   	PUSH	LC1
   456 00000492 8D 45 D4                        	LEA	EAX,DWORD [-44+EBP]
   457 00000495 57                              	PUSH	EDI
   458 00000496 50                              	PUSH	EAX
   459 00000497 E8 0000211F                     	CALL	_cmd_app
   460 0000049C 83 C4 0C                        	ADD	ESP,12
   461 0000049F E9 FFFFFCFB                     	JMP	L29
   462 000004A4                                 L61:
   463 000004A4 68 [00000051]                   	PUSH	LC0
   464 000004A9 8D 45 D4                        	LEA	EAX,DWORD [-44+EBP]
   465 000004AC 57                              	PUSH	EDI
   466 000004AD 50                              	PUSH	EAX
   467 000004AE E8 00002108                     	CALL	_cmd_app
   468 000004B3 83 C4 0C                        	ADD	ESP,12
   469 000004B6 E9 FFFFFCDB                     	JMP	L28
   470 000004BB                                 L60:
   471 000004BB 57                              	PUSH	EDI
   472 000004BC 8D 45 D4                        	LEA	EAX,DWORD [-44+EBP]
   473 000004BF 50                              	PUSH	EAX
   474 000004C0 E8 00001F32                     	CALL	_cmd_exit
   475 000004C5 59                              	POP	ECX
   476 000004C6 5B                              	POP	EBX
   477 000004C7 E9 FFFFFCC1                     	JMP	L27
   478 000004CC                                 L59:
   479 000004CC 8B 5D D4                        	MOV	EBX,DWORD [-44+EBP]
   480 000004CF 85 DB                           	TEST	EBX,EBX
   481 000004D1 74 1F                           	JE	L26
   482 000004D3 8B 4D DC                        	MOV	ECX,DWORD [-36+EBP]
   483 000004D6 8B 55 D8                        	MOV	EDX,DWORD [-40+EBP]
   484 000004D9 8D 41 0F                        	LEA	EAX,DWORD [15+ECX]
   485 000004DC 50                              	PUSH	EAX
   486 000004DD 8D 42 07                        	LEA	EAX,DWORD [7+EDX]
   487 000004E0 50                              	PUSH	EAX
   488 000004E1 51                              	PUSH	ECX
   489 000004E2 52                              	PUSH	EDX
   490 000004E3 6A 00                           	PUSH	0
   491 000004E5 FF 73 04                        	PUSH	DWORD [4+EBX]
   492 000004E8 FF 33                           	PUSH	DWORD [EBX]
   493 000004EA E8 [00000000]                   	CALL	_boxfill8
   494 000004EF 83 C4 1C                        	ADD	ESP,28
   495 000004F2                                 L26:
   496 000004F2 C7 45 E0 FFFFFFFF               	MOV	DWORD [-32+EBP],-1
   497 000004F9 E9 FFFFFC86                     	JMP	L25
   498 000004FE                                 L58:
   499 000004FE C7 45 E0 00000007               	MOV	DWORD [-32+EBP],7
   500 00000505 E9 FFFFFC71                     	JMP	L24
   501 0000050A                                 L57:
   502 0000050A 83 7D D4 00                     	CMP	DWORD [-44+EBP],0
   503 0000050E 0F 84 FFFFFC5E                  	JE	L19
   504 00000514 85 F6                           	TEST	ESI,ESI
   505 00000516 74 2C                           	JE	L20
   506 00000518 6A 00                           	PUSH	0
   507 0000051A 53                              	PUSH	EBX
   508 0000051B FF 75 E4                        	PUSH	DWORD [-28+EBP]
   509 0000051E E8 [00000000]                   	CALL	_timer_init
   510 00000523 83 C4 0C                        	ADD	ESP,12
   511 00000526 83 7D E0 00                     	CMP	DWORD [-32+EBP],0
   512 0000052A 78 07                           	JS	L22
   513 0000052C C7 45 E0 00000007               	MOV	DWORD [-32+EBP],7
   514 00000533                                 L22:
   515 00000533 6A 32                           	PUSH	50
   516 00000535 FF 75 E4                        	PUSH	DWORD [-28+EBP]
   517 00000538 E8 [00000000]                   	CALL	_timer_settime
   518 0000053D 58                              	POP	EAX
   519 0000053E 5A                              	POP	EDX
   520 0000053F E9 FFFFFC2E                     	JMP	L19
   521 00000544                                 L20:
   522 00000544 6A 01                           	PUSH	1
   523 00000546 53                              	PUSH	EBX
   524 00000547 FF 75 E4                        	PUSH	DWORD [-28+EBP]
   525 0000054A E8 [00000000]                   	CALL	_timer_init
   526 0000054F 83 C4 0C                        	ADD	ESP,12
   527 00000552 83 7D E0 00                     	CMP	DWORD [-32+EBP],0
   528 00000556 78 DB                           	JS	L22
   529 00000558 C7 45 E0 00000000               	MOV	DWORD [-32+EBP],0
   530 0000055F EB D2                           	JMP	L22
   531 00000561                                 L56:
   532 00000561 FF B5 FFFFFF00                  	PUSH	DWORD [-256+EBP]
   533 00000567 E8 [00000000]                   	CALL	_task_sleep
   534 0000056C E8 [00000000]                   	CALL	_io_sti
   535 00000571 5B                              	POP	EBX
   536 00000572 E9 FFFFFBC7                     	JMP	L14
   537 00000577                                 L55:
   538 00000577 8D 45 D4                        	LEA	EAX,DWORD [-44+EBP]
   539 0000057A 50                              	PUSH	EAX
   540 0000057B E8 00001B19                     	CALL	_cmd_mkfs
   541 00000580 E9 FFFFFB9C                     	JMP	L53
   542                                          [SECTION .data]
   543 00000057                                 LC11:
   544 00000057 20 00                           	DB	" ",0x00
   545                                          [SECTION .text]
   546 00000585                                 	GLOBAL	_cons_putchar
   547 00000585                                 _cons_putchar:
   548 00000585 55                              	PUSH	EBP
   549 00000586 89 E5                           	MOV	EBP,ESP
   550 00000588 53                              	PUSH	EBX
   551 00000589 50                              	PUSH	EAX
   552 0000058A 8B 45 0C                        	MOV	EAX,DWORD [12+EBP]
   553 0000058D 8A 55 10                        	MOV	DL,BYTE [16+EBP]
   554 00000590 8B 5D 08                        	MOV	EBX,DWORD [8+EBP]
   555 00000593 88 55 F9                        	MOV	BYTE [-7+EBP],DL
   556 00000596 88 45 FA                        	MOV	BYTE [-6+EBP],AL
   557 00000599 3C 09                           	CMP	AL,9
   558 0000059B C6 45 FB 00                     	MOV	BYTE [-5+EBP],0
   559 0000059F 74 52                           	JE	L77
   560 000005A1 3C 0A                           	CMP	AL,10
   561 000005A3 74 2A                           	JE	L91
   562 000005A5 3C 0D                           	CMP	AL,13
   563 000005A7 74 21                           	JE	L75
   564 000005A9 8B 13                           	MOV	EDX,DWORD [EBX]
   565 000005AB 85 D2                           	TEST	EDX,EDX
   566 000005AD 75 29                           	JNE	L92
   567 000005AF                                 L88:
   568 000005AF 80 7D F9 00                     	CMP	BYTE [-7+EBP],0
   569 000005B3 74 15                           	JE	L75
   570 000005B5 8B 43 04                        	MOV	EAX,DWORD [4+EBX]
   571 000005B8 8B 13                           	MOV	EDX,DWORD [EBX]
   572 000005BA 83 C0 08                        	ADD	EAX,8
   573 000005BD 89 43 04                        	MOV	DWORD [4+EBX],EAX
   574 000005C0 8B 52 04                        	MOV	EDX,DWORD [4+EDX]
   575 000005C3 83 EA 08                        	SUB	EDX,8
   576 000005C6 39 D0                           	CMP	EAX,EDX
   577 000005C8 74 05                           	JE	L91
   578 000005CA                                 L75:
   579 000005CA 8B 5D FC                        	MOV	EBX,DWORD [-4+EBP]
   580 000005CD C9                              	LEAVE
   581 000005CE C3                              	RET
   582 000005CF                                 L91:
   583 000005CF 53                              	PUSH	EBX
   584 000005D0 E8 0000006B                     	CALL	_cons_newline
   585 000005D5 58                              	POP	EAX
   586 000005D6 EB F2                           	JMP	L75
   587 000005D8                                 L92:
   588 000005D8 6A 01                           	PUSH	1
   589 000005DA 8D 45 FA                        	LEA	EAX,DWORD [-6+EBP]
   590 000005DD 50                              	PUSH	EAX
   591 000005DE 6A 00                           	PUSH	0
   592 000005E0 6A 07                           	PUSH	7
   593 000005E2 FF 73 08                        	PUSH	DWORD [8+EBX]
   594 000005E5 FF 73 04                        	PUSH	DWORD [4+EBX]
   595 000005E8 52                              	PUSH	EDX
   596 000005E9 E8 [00000000]                   	CALL	_putfonts8_asc_sht
   597 000005EE 83 C4 1C                        	ADD	ESP,28
   598 000005F1 EB BC                           	JMP	L88
   599 000005F3                                 L77:
   600 000005F3 8B 03                           	MOV	EAX,DWORD [EBX]
   601 000005F5 85 C0                           	TEST	EAX,EAX
   602 000005F7 75 2B                           	JNE	L93
   603 000005F9                                 L80:
   604 000005F9 8B 43 04                        	MOV	EAX,DWORD [4+EBX]
   605 000005FC 8B 13                           	MOV	EDX,DWORD [EBX]
   606 000005FE 83 C0 08                        	ADD	EAX,8
   607 00000601 89 43 04                        	MOV	DWORD [4+EBX],EAX
   608 00000604 8B 52 04                        	MOV	EDX,DWORD [4+EDX]
   609 00000607 83 EA 08                        	SUB	EDX,8
   610 0000060A 39 D0                           	CMP	EAX,EDX
   611 0000060C 74 0D                           	JE	L94
   612 0000060E                                 L81:
   613 0000060E 8B 43 04                        	MOV	EAX,DWORD [4+EBX]
   614 00000611 83 E8 08                        	SUB	EAX,8
   615 00000614 83 E0 1F                        	AND	EAX,31
   616 00000617 75 DA                           	JNE	L77
   617 00000619 EB AF                           	JMP	L75
   618 0000061B                                 L94:
   619 0000061B 53                              	PUSH	EBX
   620 0000061C E8 0000001F                     	CALL	_cons_newline
   621 00000621 58                              	POP	EAX
   622 00000622 EB EA                           	JMP	L81
   623 00000624                                 L93:
   624 00000624 6A 01                           	PUSH	1
   625 00000626 68 [00000057]                   	PUSH	LC11
   626 0000062B 6A 00                           	PUSH	0
   627 0000062D 6A 07                           	PUSH	7
   628 0000062F FF 73 08                        	PUSH	DWORD [8+EBX]
   629 00000632 FF 73 04                        	PUSH	DWORD [4+EBX]
   630 00000635 50                              	PUSH	EAX
   631 00000636 E8 [00000000]                   	CALL	_putfonts8_asc_sht
   632 0000063B 83 C4 1C                        	ADD	ESP,28
   633 0000063E EB B9                           	JMP	L80
   634 00000640                                 	GLOBAL	_cons_newline
   635 00000640                                 _cons_newline:
   636 00000640 55                              	PUSH	EBP
   637 00000641 89 E5                           	MOV	EBP,ESP
   638 00000643 57                              	PUSH	EDI
   639 00000644 56                              	PUSH	ESI
   640 00000645 53                              	PUSH	EBX
   641 00000646 83 EC 14                        	SUB	ESP,20
   642 00000649 8B 45 08                        	MOV	EAX,DWORD [8+EBP]
   643 0000064C 8B 00                           	MOV	EAX,DWORD [EAX]
   644 0000064E 89 45 E8                        	MOV	DWORD [-24+EBP],EAX
   645 00000651 8B 58 08                        	MOV	EBX,DWORD [8+EAX]
   646 00000654 8B 50 04                        	MOV	EDX,DWORD [4+EAX]
   647 00000657 83 EA 10                        	SUB	EDX,16
   648 0000065A 8D 4B DB                        	LEA	ECX,DWORD [-37+EBX]
   649 0000065D 89 55 F0                        	MOV	DWORD [-16+EBP],EDX
   650 00000660 89 4D EC                        	MOV	DWORD [-20+EBP],ECX
   651 00000663 E8 [00000000]                   	CALL	_task_now
   652 00000668 8D 53 E7                        	LEA	EDX,DWORD [-25+EBX]
   653 0000066B 8B 5D 08                        	MOV	EBX,DWORD [8+EBP]
   654 0000066E 89 45 E4                        	MOV	DWORD [-28+EBP],EAX
   655 00000671 8B 43 08                        	MOV	EAX,DWORD [8+EBX]
   656 00000674 39 D0                           	CMP	EAX,EDX
   657 00000676 7D 36                           	JGE	L96
   658 00000678 83 C0 10                        	ADD	EAX,16
   659 0000067B 89 43 08                        	MOV	DWORD [8+EBX],EAX
   660 0000067E                                 L97:
   661 0000067E 8B 45 08                        	MOV	EAX,DWORD [8+EBP]
   662 00000681 8B 55 E4                        	MOV	EDX,DWORD [-28+EBP]
   663 00000684 C7 40 04 00000008               	MOV	DWORD [4+EAX],8
   664 0000068B 80 BA 000000BC 01               	CMP	BYTE [188+EDX],1
   665 00000692 74 08                           	JE	L128
   666 00000694                                 L95:
   667 00000694 8D 65 F4                        	LEA	ESP,DWORD [-12+EBP]
   668 00000697 5B                              	POP	EBX
   669 00000698 5E                              	POP	ESI
   670 00000699 5F                              	POP	EDI
   671 0000069A 5D                              	POP	EBP
   672 0000069B C3                              	RET
   673 0000069C                                 L128:
   674 0000069C 80 BA 000000BD 00               	CMP	BYTE [189+EDX],0
   675 000006A3 74 EF                           	JE	L95
   676 000006A5 C7 40 04 00000010               	MOV	DWORD [4+EAX],16
   677 000006AC EB E6                           	JMP	L95
   678 000006AE                                 L96:
   679 000006AE 83 7D E8 00                     	CMP	DWORD [-24+EBP],0
   680 000006B2 74 CA                           	JE	L97
   681 000006B4 BF 0000001C                     	MOV	EDI,28
   682 000006B9 39 D7                           	CMP	EDI,EDX
   683 000006BB 7D 45                           	JGE	L121
   684 000006BD                                 L108:
   685 000006BD 8B 45 F0                        	MOV	EAX,DWORD [-16+EBP]
   686 000006C0 BE 00000008                     	MOV	ESI,8
   687 000006C5 83 C0 08                        	ADD	EAX,8
   688 000006C8 89 45 E0                        	MOV	DWORD [-32+EBP],EAX
   689 000006CB 39 C6                           	CMP	ESI,EAX
   690 000006CD 7D 28                           	JGE	L123
   691 000006CF                                 L107:
   692 000006CF 8B 55 E8                        	MOV	EDX,DWORD [-24+EBP]
   693 000006D2 8B 45 E8                        	MOV	EAX,DWORD [-24+EBP]
   694 000006D5 8B 4A 04                        	MOV	ECX,DWORD [4+EDX]
   695 000006D8 8B 18                           	MOV	EBX,DWORD [EAX]
   696 000006DA 8D 47 10                        	LEA	EAX,DWORD [16+EDI]
   697 000006DD 89 FA                           	MOV	EDX,EDI
   698 000006DF 0F AF C1                        	IMUL	EAX,ECX
   699 000006E2 0F AF D1                        	IMUL	EDX,ECX
   700 000006E5 8D 04 30                        	LEA	EAX,DWORD [EAX+ESI*1]
   701 000006E8 8D 14 32                        	LEA	EDX,DWORD [EDX+ESI*1]
   702 000006EB 46                              	INC	ESI
   703 000006EC 8A 04 18                        	MOV	AL,BYTE [EAX+EBX*1]
   704 000006EF 88 04 1A                        	MOV	BYTE [EDX+EBX*1],AL
   705 000006F2 3B 75 E0                        	CMP	ESI,DWORD [-32+EBP]
   706 000006F5 7C D8                           	JL	L107
   707 000006F7                                 L123:
   708 000006F7 8B 45 EC                        	MOV	EAX,DWORD [-20+EBP]
   709 000006FA 47                              	INC	EDI
   710 000006FB 83 C0 0C                        	ADD	EAX,12
   711 000006FE 39 C7                           	CMP	EDI,EAX
   712 00000700 7C BB                           	JL	L108
   713 00000702                                 L121:
   714 00000702 8B 7D EC                        	MOV	EDI,DWORD [-20+EBP]
   715 00000705 8B 45 EC                        	MOV	EAX,DWORD [-20+EBP]
   716 00000708 83 C7 0C                        	ADD	EDI,12
   717 0000070B 83 C0 1C                        	ADD	EAX,28
   718 0000070E 39 C7                           	CMP	EDI,EAX
   719 00000710 7D 31                           	JGE	L125
   720 00000712                                 L118:
   721 00000712 8B 4D F0                        	MOV	ECX,DWORD [-16+EBP]
   722 00000715 BE 00000008                     	MOV	ESI,8
   723 0000071A 83 C1 08                        	ADD	ECX,8
   724 0000071D 39 CE                           	CMP	ESI,ECX
   725 0000071F 7D 17                           	JGE	L127
   726 00000721                                 L117:
   727 00000721 8B 55 E8                        	MOV	EDX,DWORD [-24+EBP]
   728 00000724 89 F8                           	MOV	EAX,EDI
   729 00000726 0F AF 42 04                     	IMUL	EAX,DWORD [4+EDX]
   730 0000072A 8B 12                           	MOV	EDX,DWORD [EDX]
   731 0000072C 8D 04 30                        	LEA	EAX,DWORD [EAX+ESI*1]
   732 0000072F 46                              	INC	ESI
   733 00000730 39 CE                           	CMP	ESI,ECX
   734 00000732 C6 04 10 00                     	MOV	BYTE [EAX+EDX*1],0
   735 00000736 7C E9                           	JL	L117
   736 00000738                                 L127:
   737 00000738 8B 45 EC                        	MOV	EAX,DWORD [-20+EBP]
   738 0000073B 47                              	INC	EDI
   739 0000073C 83 C0 1C                        	ADD	EAX,28
   740 0000073F 39 C7                           	CMP	EDI,EAX
   741 00000741 7C CF                           	JL	L118
   742 00000743                                 L125:
   743 00000743 8B 45 EC                        	MOV	EAX,DWORD [-20+EBP]
   744 00000746 83 C0 1C                        	ADD	EAX,28
   745 00000749 50                              	PUSH	EAX
   746 0000074A 8B 45 F0                        	MOV	EAX,DWORD [-16+EBP]
   747 0000074D 83 C0 08                        	ADD	EAX,8
   748 00000750 50                              	PUSH	EAX
   749 00000751 6A 1C                           	PUSH	28
   750 00000753 6A 08                           	PUSH	8
   751 00000755 FF 75 E8                        	PUSH	DWORD [-24+EBP]
   752 00000758 E8 [00000000]                   	CALL	_sheet_refresh
   753 0000075D 83 C4 14                        	ADD	ESP,20
   754 00000760 E9 FFFFFF19                     	JMP	L97
   755 00000765                                 	GLOBAL	_cons_putstr
   756 00000765                                 _cons_putstr:
   757 00000765 55                              	PUSH	EBP
   758 00000766 89 E5                           	MOV	EBP,ESP
   759 00000768 56                              	PUSH	ESI
   760 00000769 53                              	PUSH	EBX
   761 0000076A 8B 5D 0C                        	MOV	EBX,DWORD [12+EBP]
   762 0000076D 8B 75 08                        	MOV	ESI,DWORD [8+EBP]
   763 00000770 80 3B 00                        	CMP	BYTE [EBX],0
   764 00000773 75 07                           	JNE	L134
   765 00000775                                 L136:
   766 00000775 8D 65 F8                        	LEA	ESP,DWORD [-8+EBP]
   767 00000778 5B                              	POP	EBX
   768 00000779 5E                              	POP	ESI
   769 0000077A 5D                              	POP	EBP
   770 0000077B C3                              	RET
   771 0000077C                                 L134:
   772 0000077C 6A 01                           	PUSH	1
   773 0000077E 0F BE 03                        	MOVSX	EAX,BYTE [EBX]
   774 00000781 50                              	PUSH	EAX
   775 00000782 43                              	INC	EBX
   776 00000783 56                              	PUSH	ESI
   777 00000784 E8 FFFFFDFC                     	CALL	_cons_putchar
   778 00000789 83 C4 0C                        	ADD	ESP,12
   779 0000078C 80 3B 00                        	CMP	BYTE [EBX],0
   780 0000078F 75 EB                           	JNE	L134
   781 00000791 EB E2                           	JMP	L136
   782 00000793                                 	GLOBAL	_cons_putstr0
   783 00000793                                 _cons_putstr0:
   784 00000793 55                              	PUSH	EBP
   785 00000794 89 E5                           	MOV	EBP,ESP
   786 00000796 56                              	PUSH	ESI
   787 00000797 53                              	PUSH	EBX
   788 00000798 8B 5D 0C                        	MOV	EBX,DWORD [12+EBP]
   789 0000079B 8B 75 08                        	MOV	ESI,DWORD [8+EBP]
   790 0000079E 80 3B 00                        	CMP	BYTE [EBX],0
   791 000007A1 75 07                           	JNE	L142
   792 000007A3                                 L144:
   793 000007A3 8D 65 F8                        	LEA	ESP,DWORD [-8+EBP]
   794 000007A6 5B                              	POP	EBX
   795 000007A7 5E                              	POP	ESI
   796 000007A8 5D                              	POP	EBP
   797 000007A9 C3                              	RET
   798 000007AA                                 L142:
   799 000007AA 6A 01                           	PUSH	1
   800 000007AC 0F BE 03                        	MOVSX	EAX,BYTE [EBX]
   801 000007AF 50                              	PUSH	EAX
   802 000007B0 43                              	INC	EBX
   803 000007B1 56                              	PUSH	ESI
   804 000007B2 E8 FFFFFDCE                     	CALL	_cons_putchar
   805 000007B7 83 C4 0C                        	ADD	ESP,12
   806 000007BA 80 3B 00                        	CMP	BYTE [EBX],0
   807 000007BD 75 EB                           	JNE	L142
   808 000007BF EB E2                           	JMP	L144
   809 000007C1                                 	GLOBAL	_cons_putstr1
   810 000007C1                                 _cons_putstr1:
   811 000007C1 55                              	PUSH	EBP
   812 000007C2 89 E5                           	MOV	EBP,ESP
   813 000007C4 57                              	PUSH	EDI
   814 000007C5 56                              	PUSH	ESI
   815 000007C6 53                              	PUSH	EBX
   816 000007C7 8B 75 10                        	MOV	ESI,DWORD [16+EBP]
   817 000007CA 31 DB                           	XOR	EBX,EBX
   818 000007CC 8B 7D 0C                        	MOV	EDI,DWORD [12+EBP]
   819 000007CF 39 F3                           	CMP	EBX,ESI
   820 000007D1 7C 08                           	JL	L150
   821 000007D3                                 L152:
   822 000007D3 8D 65 F4                        	LEA	ESP,DWORD [-12+EBP]
   823 000007D6 5B                              	POP	EBX
   824 000007D7 5E                              	POP	ESI
   825 000007D8 5F                              	POP	EDI
   826 000007D9 5D                              	POP	EBP
   827 000007DA C3                              	RET
   828 000007DB                                 L150:
   829 000007DB 6A 01                           	PUSH	1
   830 000007DD 0F BE 04 3B                     	MOVSX	EAX,BYTE [EBX+EDI*1]
   831 000007E1 50                              	PUSH	EAX
   832 000007E2 43                              	INC	EBX
   833 000007E3 FF 75 08                        	PUSH	DWORD [8+EBP]
   834 000007E6 E8 FFFFFD9A                     	CALL	_cons_putchar
   835 000007EB 83 C4 0C                        	ADD	ESP,12
   836 000007EE 39 F3                           	CMP	EBX,ESI
   837 000007F0 7C E9                           	JL	L150
   838 000007F2 EB DF                           	JMP	L152
   839 000007F4                                 	GLOBAL	_cons_putdir
   840 000007F4                                 _cons_putdir:
   841 000007F4 55                              	PUSH	EBP
   842 000007F5 89 E5                           	MOV	EBP,ESP
   843 000007F7 56                              	PUSH	ESI
   844 000007F8 53                              	PUSH	EBX
   845 000007F9 31 DB                           	XOR	EBX,EBX
   846 000007FB 83 EC 40                        	SUB	ESP,64
   847 000007FE 8D 45 B8                        	LEA	EAX,DWORD [-72+EBP]
   848 00000801 8B 75 08                        	MOV	ESI,DWORD [8+EBP]
   849 00000804 FF 76 14                        	PUSH	DWORD [20+ESI]
   850 00000807 50                              	PUSH	EAX
   851 00000808 E8 00000026                     	CALL	_get_pathname
   852 0000080D 5A                              	POP	EDX
   853 0000080E 31 C0                           	XOR	EAX,EAX
   854 00000810 59                              	POP	ECX
   855 00000811 80 7D B8 00                     	CMP	BYTE [-72+EBP],0
   856 00000815 74 09                           	JE	L160
   857 00000817                                 L158:
   858 00000817 40                              	INC	EAX
   859 00000818 43                              	INC	EBX
   860 00000819 80 7C 05 B8 00                  	CMP	BYTE [-72+EBP+EAX*1],0
   861 0000081E 75 F7                           	JNE	L158
   862 00000820                                 L160:
   863 00000820 8D 45 B8                        	LEA	EAX,DWORD [-72+EBP]
   864 00000823 50                              	PUSH	EAX
   865 00000824 56                              	PUSH	ESI
   866 00000825 E8 FFFFFF3B                     	CALL	_cons_putstr
   867 0000082A 8D 65 F8                        	LEA	ESP,DWORD [-8+EBP]
   868 0000082D 89 D8                           	MOV	EAX,EBX
   869 0000082F 5B                              	POP	EBX
   870 00000830 5E                              	POP	ESI
   871 00000831 5D                              	POP	EBP
   872 00000832 C3                              	RET
   873                                          [SECTION .data]
   874 00000059                                 LC12:
   875 00000059 00                              	DB	0x00
   876 0000005A                                 LC15:
   877 0000005A 2F 25 73 00                     	DB	"/%s",0x00
   878 0000005E                                 LC14:
   879 0000005E 25 73 00                        	DB	"%s",0x00
   880 00000061                                 LC13:
   881 00000061 25 73 2F 25 73 00               	DB	"%s/%s",0x00
   882                                          [SECTION .text]
   883 00000833                                 	GLOBAL	_get_pathname
   884 00000833                                 _get_pathname:
   885 00000833 55                              	PUSH	EBP
   886 00000834 89 E5                           	MOV	EBP,ESP
   887 00000836 57                              	PUSH	EDI
   888 00000837 56                              	PUSH	ESI
   889 00000838 53                              	PUSH	EBX
   890 00000839 81 EC 000000B8                  	SUB	ESP,184
   891 0000083F 8B 7D 0C                        	MOV	EDI,DWORD [12+EBP]
   892 00000842 68 [00000059]                   	PUSH	LC12
   893 00000847 FF 75 08                        	PUSH	DWORD [8+EBP]
   894 0000084A E8 [00000000]                   	CALL	_sprintf
   895 0000084F 58                              	POP	EAX
   896 00000850 5A                              	POP	EDX
   897 00000851 83 BF 000007D8 00               	CMP	DWORD [2008+EDI],0
   898 00000858 75 27                           	JNE	L165
   899 0000085A                                 L167:
   900 0000085A FF 75 08                        	PUSH	DWORD [8+EBP]
   901 0000085D 68 [0000005A]                   	PUSH	LC15
   902 00000862 8D 5D 84                        	LEA	EBX,DWORD [-124+EBP]
   903 00000865 53                              	PUSH	EBX
   904 00000866 E8 [00000000]                   	CALL	_sprintf
   905 0000086B 53                              	PUSH	EBX
   906 0000086C 68 [0000005E]                   	PUSH	LC14
   907 00000871 FF 75 08                        	PUSH	DWORD [8+EBP]
   908 00000874 E8 [00000000]                   	CALL	_sprintf
   909 00000879 8D 65 F4                        	LEA	ESP,DWORD [-12+EBP]
   910 0000087C 5B                              	POP	EBX
   911 0000087D 5E                              	POP	ESI
   912 0000087E 5F                              	POP	EDI
   913 0000087F 5D                              	POP	EBP
   914 00000880 C3                              	RET
   915 00000881                                 L165:
   916 00000881 8D 87 000007D0                  	LEA	EAX,DWORD [2000+EDI]
   917 00000887 8D B5 FFFFFF3C                  	LEA	ESI,DWORD [-196+EBP]
   918 0000088D 50                              	PUSH	EAX
   919 0000088E 8D 9D FFFFFF44                  	LEA	EBX,DWORD [-188+EBP]
   920 00000894 56                              	PUSH	ESI
   921 00000895 E8 [00000000]                   	CALL	_sprintf
   922 0000089A FF 75 08                        	PUSH	DWORD [8+EBP]
   923 0000089D 56                              	PUSH	ESI
   924 0000089E 68 [00000061]                   	PUSH	LC13
   925 000008A3 53                              	PUSH	EBX
   926 000008A4 E8 [00000000]                   	CALL	_sprintf
   927 000008A9 8B BF 000007D8                  	MOV	EDI,DWORD [2008+EDI]
   928 000008AF 53                              	PUSH	EBX
   929 000008B0 68 [0000005E]                   	PUSH	LC14
   930 000008B5 FF 75 08                        	PUSH	DWORD [8+EBP]
   931 000008B8 E8 [00000000]                   	CALL	_sprintf
   932 000008BD 83 C4 24                        	ADD	ESP,36
   933 000008C0 68 [00000059]                   	PUSH	LC12
   934 000008C5 56                              	PUSH	ESI
   935 000008C6 E8 [00000000]                   	CALL	_sprintf
   936 000008CB 5B                              	POP	EBX
   937 000008CC 5E                              	POP	ESI
   938 000008CD 83 BF 000007D8 00               	CMP	DWORD [2008+EDI],0
   939 000008D4 75 AB                           	JNE	L165
   940 000008D6 E9 FFFFFF7F                     	JMP	L167
   941                                          [SECTION .data]
   942 00000067                                 LC16:
   943 00000067 63 61 74 20 00                  	DB	"cat ",0x00
   944 0000006C                                 LC17:
   945 0000006C 63 64 20 00                     	DB	"cd ",0x00
   946 00000070                                 LC18:
   947 00000070 63 6C 73 00                     	DB	"cls",0x00
   948 00000074                                 LC19:
   949 00000074 64 69 72 00                     	DB	"dir",0x00
   950 00000078                                 LC20:
   951 00000078 65 78 69 74 00                  	DB	"exit",0x00
   952 0000007D                                 LC21:
   953 0000007D 65 64 69 74 20 00               	DB	"edit ",0x00
   954 00000083                                 LC22:
   955 00000083 66 64 64 69 72 00               	DB	"fddir",0x00
   956 00000089                                 LC23:
   957 00000089 66 76 69 65 77 20 00            	DB	"fview ",0x00
   958 00000090                                 LC24:
   959 00000090 6C 61 6E 67 6D 6F 64 65 20 00   	DB	"langmode ",0x00
   960 0000009A                                 LC25:
   961 0000009A 6C 6F 67 00                     	DB	"log",0x00
   962 0000009E                                 LC26:
   963 0000009E 6C 6F 67 63 6C 73 00            	DB	"logcls",0x00
   964 000000A5                                 LC27:
   965 000000A5 6D 65 6D 00                     	DB	"mem",0x00
   966 000000A9                                 LC28:
   967 000000A9 6D 6B 66 73 00                  	DB	"mkfs",0x00
   968 000000AE                                 LC29:
   969 000000AE 6D 6B 64 69 72 20 00            	DB	"mkdir ",0x00
   970 000000B5                                 LC30:
   971 000000B5 6D 6B 66 69 6C 65 20 00         	DB	"mkfile ",0x00
   972 000000BD                                 LC31:
   973 000000BD 6D 65 6D 6D 61 70 00            	DB	"memmap",0x00
   974 000000C4                                 LC32:
   975 000000C4 6E 63 73 74 20 00               	DB	"ncst ",0x00
   976 000000CA                                 LC33:
   977 000000CA 73 74 61 72 74 20 00            	DB	"start ",0x00
   978 000000D1                                 LC34:
   979 000000D1 73 65 74 6C 6F 67 00            	DB	"setlog",0x00
   980 000000D8                                 LC35:
   981 000000D8 73 68 6F 77 20 00               	DB	"show ",0x00
   982 000000DE                                 LC36:
   983 000000DE 74 65 73 74 00                  	DB	"test",0x00
   984 000000E3                                 LC37:
   985 000000E3 73 74 61 6D 70 00               	DB	"stamp",0x00
   986 000000E9                                 LC38:
   987 000000E9 42 61 64 20 63 6F 6D 6D 61 6E   	DB	"Bad command.",0x0A,0x0A,0x00
       000000F3 64 2E 0A 0A 00 
   988                                          [SECTION .text]
   989 000008DB                                 	GLOBAL	_cons_runcmd
   990 000008DB                                 _cons_runcmd:
   991 000008DB 55                              	PUSH	EBP
   992 000008DC 89 E5                           	MOV	EBP,ESP
   993 000008DE 57                              	PUSH	EDI
   994 000008DF 56                              	PUSH	ESI
   995 000008E0 BF [00000067]                   	MOV	EDI,LC16
   996 000008E5 53                              	PUSH	EBX
   997 000008E6 83 EC 0C                        	SUB	ESP,12
   998 000008E9 8B 45 08                        	MOV	EAX,DWORD [8+EBP]
   999 000008EC 8B 4D 10                        	MOV	ECX,DWORD [16+EBP]
  1000 000008EF 89 45 E8                        	MOV	DWORD [-24+EBP],EAX
  1001 000008F2 89 4D F0                        	MOV	DWORD [-16+EBP],ECX
  1002 000008F5 8B 45 14                        	MOV	EAX,DWORD [20+EBP]
  1003 000008F8 8B 75 E8                        	MOV	ESI,DWORD [-24+EBP]
  1004 000008FB 89 45 EC                        	MOV	DWORD [-20+EBP],EAX
  1005 000008FE 8B 5D 0C                        	MOV	EBX,DWORD [12+EBP]
  1006 00000901 B8 00000004                     	MOV	EAX,4
  1007 00000906 FC                              	CLD
  1008 00000907 89 C1                           	MOV	ECX,EAX
  1009 00000909 F3                              	REPE
  1010 0000090A A6                              	CMPSB
  1011 0000090B 75 09                           	JNE	L169
  1012 0000090D 83 3B 00                        	CMP	DWORD [EBX],0
  1013 00000910 0F 85 000003FF                  	JNE	L215
  1014 00000916                                 L169:
  1015 00000916 B8 00000003                     	MOV	EAX,3
  1016 0000091B 8B 75 E8                        	MOV	ESI,DWORD [-24+EBP]
  1017 0000091E FC                              	CLD
  1018 0000091F BF [0000006C]                   	MOV	EDI,LC17
  1019 00000924 89 C1                           	MOV	ECX,EAX
  1020 00000926 F3                              	REPE
  1021 00000927 A6                              	CMPSB
  1022 00000928 0F 84 000003D5                  	JE	L216
  1023 0000092E B8 00000004                     	MOV	EAX,4
  1024 00000933 8B 75 E8                        	MOV	ESI,DWORD [-24+EBP]
  1025 00000936 FC                              	CLD
  1026 00000937 BF [00000070]                   	MOV	EDI,LC18
  1027 0000093C 89 C1                           	MOV	ECX,EAX
  1028 0000093E F3                              	REPE
  1029 0000093F A6                              	CMPSB
  1030 00000940 75 09                           	JNE	L173
  1031 00000942 83 3B 00                        	CMP	DWORD [EBX],0
  1032 00000945 0F 85 000003A9                  	JNE	L217
  1033 0000094B                                 L173:
  1034 0000094B B8 00000004                     	MOV	EAX,4
  1035 00000950 8B 75 E8                        	MOV	ESI,DWORD [-24+EBP]
  1036 00000953 FC                              	CLD
  1037 00000954 BF [00000074]                   	MOV	EDI,LC19
  1038 00000959 89 C1                           	MOV	ECX,EAX
  1039 0000095B F3                              	REPE
  1040 0000095C A6                              	CMPSB
  1041 0000095D 75 09                           	JNE	L175
  1042 0000095F 83 3B 00                        	CMP	DWORD [EBX],0
  1043 00000962 0F 85 0000037D                  	JNE	L218
  1044 00000968                                 L175:
  1045 00000968 B8 00000005                     	MOV	EAX,5
  1046 0000096D 8B 75 E8                        	MOV	ESI,DWORD [-24+EBP]
  1047 00000970 FC                              	CLD
  1048 00000971 BF [00000078]                   	MOV	EDI,LC20
  1049 00000976 89 C1                           	MOV	ECX,EAX
  1050 00000978 F3                              	REPE
  1051 00000979 A6                              	CMPSB
  1052 0000097A 0F 84 00000350                  	JE	L219
  1053 00000980 B8 00000005                     	MOV	EAX,5
  1054 00000985 8B 75 E8                        	MOV	ESI,DWORD [-24+EBP]
  1055 00000988 FC                              	CLD
  1056 00000989 BF [0000007D]                   	MOV	EDI,LC21
  1057 0000098E 89 C1                           	MOV	ECX,EAX
  1058 00000990 F3                              	REPE
  1059 00000991 A6                              	CMPSB
  1060 00000992 75 09                           	JNE	L179
  1061 00000994 83 3B 00                        	CMP	DWORD [EBX],0
  1062 00000997 0F 85 0000031E                  	JNE	L220
  1063 0000099D                                 L179:
  1064 0000099D B8 00000006                     	MOV	EAX,6
  1065 000009A2 8B 75 E8                        	MOV	ESI,DWORD [-24+EBP]
  1066 000009A5 FC                              	CLD
  1067 000009A6 BF [00000083]                   	MOV	EDI,LC22
  1068 000009AB 89 C1                           	MOV	ECX,EAX
  1069 000009AD F3                              	REPE
  1070 000009AE A6                              	CMPSB
  1071 000009AF 75 09                           	JNE	L181
  1072 000009B1 83 3B 00                        	CMP	DWORD [EBX],0
  1073 000009B4 0F 85 000002F2                  	JNE	L221
  1074 000009BA                                 L181:
  1075 000009BA B8 00000006                     	MOV	EAX,6
  1076 000009BF 8B 75 E8                        	MOV	ESI,DWORD [-24+EBP]
  1077 000009C2 FC                              	CLD
  1078 000009C3 BF [00000089]                   	MOV	EDI,LC23
  1079 000009C8 89 C1                           	MOV	ECX,EAX
  1080 000009CA F3                              	REPE
  1081 000009CB A6                              	CMPSB
  1082 000009CC 75 09                           	JNE	L183
  1083 000009CE 83 3B 00                        	CMP	DWORD [EBX],0
  1084 000009D1 0F 85 000002C0                  	JNE	L222
  1085 000009D7                                 L183:
  1086 000009D7 B8 00000009                     	MOV	EAX,9
  1087 000009DC 8B 75 E8                        	MOV	ESI,DWORD [-24+EBP]
  1088 000009DF FC                              	CLD
  1089 000009E0 BF [00000090]                   	MOV	EDI,LC24
  1090 000009E5 89 C1                           	MOV	ECX,EAX
  1091 000009E7 F3                              	REPE
  1092 000009E8 A6                              	CMPSB
  1093 000009E9 0F 84 00000293                  	JE	L223
  1094 000009EF B8 00000004                     	MOV	EAX,4
  1095 000009F4 8B 75 E8                        	MOV	ESI,DWORD [-24+EBP]
  1096 000009F7 FC                              	CLD
  1097 000009F8 BF [0000009A]                   	MOV	EDI,LC25
  1098 000009FD 89 C1                           	MOV	ECX,EAX
  1099 000009FF F3                              	REPE
  1100 00000A00 A6                              	CMPSB
  1101 00000A01 75 09                           	JNE	L187
  1102 00000A03 83 3B 00                        	CMP	DWORD [EBX],0
  1103 00000A06 0F 85 00000267                  	JNE	L224
  1104 00000A0C                                 L187:
  1105 00000A0C B8 00000007                     	MOV	EAX,7
  1106 00000A11 8B 75 E8                        	MOV	ESI,DWORD [-24+EBP]
  1107 00000A14 FC                              	CLD
  1108 00000A15 BF [0000009E]                   	MOV	EDI,LC26
  1109 00000A1A 89 C1                           	MOV	ECX,EAX
  1110 00000A1C F3                              	REPE
  1111 00000A1D A6                              	CMPSB
  1112 00000A1E 75 09                           	JNE	L189
  1113 00000A20 83 3B 00                        	CMP	DWORD [EBX],0
  1114 00000A23 0F 85 0000023B                  	JNE	L225
  1115 00000A29                                 L189:
  1116 00000A29 B8 00000004                     	MOV	EAX,4
  1117 00000A2E 8B 75 E8                        	MOV	ESI,DWORD [-24+EBP]
  1118 00000A31 FC                              	CLD
  1119 00000A32 BF [000000A5]                   	MOV	EDI,LC27
  1120 00000A37 89 C1                           	MOV	ECX,EAX
  1121 00000A39 F3                              	REPE
  1122 00000A3A A6                              	CMPSB
  1123 00000A3B 75 09                           	JNE	L191
  1124 00000A3D 83 3B 00                        	CMP	DWORD [EBX],0
  1125 00000A40 0F 85 00000209                  	JNE	L226
  1126 00000A46                                 L191:
  1127 00000A46 B8 00000005                     	MOV	EAX,5
  1128 00000A4B 8B 75 E8                        	MOV	ESI,DWORD [-24+EBP]
  1129 00000A4E FC                              	CLD
  1130 00000A4F BF [000000A9]                   	MOV	EDI,LC28
  1131 00000A54 89 C1                           	MOV	ECX,EAX
  1132 00000A56 F3                              	REPE
  1133 00000A57 A6                              	CMPSB
  1134 00000A58 75 09                           	JNE	L193
  1135 00000A5A 83 3B 00                        	CMP	DWORD [EBX],0
  1136 00000A5D 0F 85 000001DD                  	JNE	L227
  1137 00000A63                                 L193:
  1138 00000A63 B8 00000006                     	MOV	EAX,6
  1139 00000A68 8B 75 E8                        	MOV	ESI,DWORD [-24+EBP]
  1140 00000A6B FC                              	CLD
  1141 00000A6C BF [000000AE]                   	MOV	EDI,LC29
  1142 00000A71 89 C1                           	MOV	ECX,EAX
  1143 00000A73 F3                              	REPE
  1144 00000A74 A6                              	CMPSB
  1145 00000A75 0F 84 000001B0                  	JE	L228
  1146 00000A7B B8 00000007                     	MOV	EAX,7
  1147 00000A80 8B 75 E8                        	MOV	ESI,DWORD [-24+EBP]
  1148 00000A83 FC                              	CLD
  1149 00000A84 BF [000000B5]                   	MOV	EDI,LC30
  1150 00000A89 89 C1                           	MOV	ECX,EAX
  1151 00000A8B F3                              	REPE
  1152 00000A8C A6                              	CMPSB
  1153 00000A8D 0F 84 00000183                  	JE	L229
  1154 00000A93 B8 00000007                     	MOV	EAX,7
  1155 00000A98 8B 75 E8                        	MOV	ESI,DWORD [-24+EBP]
  1156 00000A9B FC                              	CLD
  1157 00000A9C BF [000000BD]                   	MOV	EDI,LC31
  1158 00000AA1 89 C1                           	MOV	ECX,EAX
  1159 00000AA3 F3                              	REPE
  1160 00000AA4 A6                              	CMPSB
  1161 00000AA5 75 09                           	JNE	L199
  1162 00000AA7 83 3B 00                        	CMP	DWORD [EBX],0
  1163 00000AAA 0F 85 00000151                  	JNE	L230
  1164 00000AB0                                 L199:
  1165 00000AB0 B8 00000005                     	MOV	EAX,5
  1166 00000AB5 8B 75 E8                        	MOV	ESI,DWORD [-24+EBP]
  1167 00000AB8 FC                              	CLD
  1168 00000AB9 BF [000000C4]                   	MOV	EDI,LC32
  1169 00000ABE 89 C1                           	MOV	ECX,EAX
  1170 00000AC0 F3                              	REPE
  1171 00000AC1 A6                              	CMPSB
  1172 00000AC2 0F 84 0000011E                  	JE	L231
  1173 00000AC8 B8 00000006                     	MOV	EAX,6
  1174 00000ACD 8B 75 E8                        	MOV	ESI,DWORD [-24+EBP]
  1175 00000AD0 FC                              	CLD
  1176 00000AD1 BF [000000CA]                   	MOV	EDI,LC33
  1177 00000AD6 89 C1                           	MOV	ECX,EAX
  1178 00000AD8 F3                              	REPE
  1179 00000AD9 A6                              	CMPSB
  1180 00000ADA 0F 84 000000EB                  	JE	L232
  1181 00000AE0 B8 00000007                     	MOV	EAX,7
  1182 00000AE5 8B 75 E8                        	MOV	ESI,DWORD [-24+EBP]
  1183 00000AE8 FC                              	CLD
  1184 00000AE9 BF [000000D1]                   	MOV	EDI,LC34
  1185 00000AEE 89 C1                           	MOV	ECX,EAX
  1186 00000AF0 F3                              	REPE
  1187 00000AF1 A6                              	CMPSB
  1188 00000AF2 75 09                           	JNE	L205
  1189 00000AF4 83 3B 00                        	CMP	DWORD [EBX],0
  1190 00000AF7 0F 85 000000BF                  	JNE	L233
  1191 00000AFD                                 L205:
  1192 00000AFD B8 00000005                     	MOV	EAX,5
  1193 00000B02 8B 75 E8                        	MOV	ESI,DWORD [-24+EBP]
  1194 00000B05 FC                              	CLD
  1195 00000B06 BF [000000D8]                   	MOV	EDI,LC35
  1196 00000B0B 89 C1                           	MOV	ECX,EAX
  1197 00000B0D F3                              	REPE
  1198 00000B0E A6                              	CMPSB
  1199 00000B0F 75 09                           	JNE	L207
  1200 00000B11 83 3B 00                        	CMP	DWORD [EBX],0
  1201 00000B14 0F 85 0000008D                  	JNE	L234
  1202 00000B1A                                 L207:
  1203 00000B1A B8 00000005                     	MOV	EAX,5
  1204 00000B1F 8B 75 E8                        	MOV	ESI,DWORD [-24+EBP]
  1205 00000B22 FC                              	CLD
  1206 00000B23 BF [000000DE]                   	MOV	EDI,LC36
  1207 00000B28 89 C1                           	MOV	ECX,EAX
  1208 00000B2A F3                              	REPE
  1209 00000B2B A6                              	CMPSB
  1210 00000B2C 75 05                           	JNE	L209
  1211 00000B2E 83 3B 00                        	CMP	DWORD [EBX],0
  1212 00000B31 75 65                           	JNE	L235
  1213 00000B33                                 L209:
  1214 00000B33 B8 00000006                     	MOV	EAX,6
  1215 00000B38 8B 75 E8                        	MOV	ESI,DWORD [-24+EBP]
  1216 00000B3B FC                              	CLD
  1217 00000B3C BF [000000E3]                   	MOV	EDI,LC37
  1218 00000B41 89 C1                           	MOV	ECX,EAX
  1219 00000B43 F3                              	REPE
  1220 00000B44 A6                              	CMPSB
  1221 00000B45 75 05                           	JNE	L211
  1222 00000B47 83 3B 00                        	CMP	DWORD [EBX],0
  1223 00000B4A 75 37                           	JNE	L236
  1224 00000B4C                                 L211:
  1225 00000B4C 8B 4D E8                        	MOV	ECX,DWORD [-24+EBP]
  1226 00000B4F 80 39 00                        	CMP	BYTE [ECX],0
  1227 00000B52 75 08                           	JNE	L237
  1228 00000B54                                 L168:
  1229 00000B54 8D 65 F4                        	LEA	ESP,DWORD [-12+EBP]
  1230 00000B57 5B                              	POP	EBX
  1231 00000B58 5E                              	POP	ESI
  1232 00000B59 5F                              	POP	EDI
  1233 00000B5A 5D                              	POP	EBP
  1234 00000B5B C3                              	RET
  1235 00000B5C                                 L237:
  1236 00000B5C 51                              	PUSH	ECX
  1237 00000B5D FF 75 F0                        	PUSH	DWORD [-16+EBP]
  1238 00000B60 53                              	PUSH	EBX
  1239 00000B61 E8 00001A55                     	CALL	_cmd_app
  1240 00000B66 83 C4 0C                        	ADD	ESP,12
  1241 00000B69 85 C0                           	TEST	EAX,EAX
  1242 00000B6B 75 E7                           	JNE	L168
  1243 00000B6D C7 45 0C [000000E9]             	MOV	DWORD [12+EBP],LC38
  1244 00000B74 89 5D 08                        	MOV	DWORD [8+EBP],EBX
  1245 00000B77 8D 65 F4                        	LEA	ESP,DWORD [-12+EBP]
  1246 00000B7A 5B                              	POP	EBX
  1247 00000B7B 5E                              	POP	ESI
  1248 00000B7C 5F                              	POP	EDI
  1249 00000B7D 5D                              	POP	EBP
  1250 00000B7E E9 FFFFFC10                     	JMP	_cons_putstr0
  1251 00000B83                                 L236:
  1252 00000B83 8B 45 E8                        	MOV	EAX,DWORD [-24+EBP]
  1253 00000B86 89 5D 08                        	MOV	DWORD [8+EBP],EBX
  1254 00000B89 89 45 0C                        	MOV	DWORD [12+EBP],EAX
  1255 00000B8C 8D 65 F4                        	LEA	ESP,DWORD [-12+EBP]
  1256 00000B8F 5B                              	POP	EBX
  1257 00000B90 5E                              	POP	ESI
  1258 00000B91 5F                              	POP	EDI
  1259 00000B92 5D                              	POP	EBP
  1260 00000B93 E9 000023CA                     	JMP	_cmd_stamp
  1261 00000B98                                 L235:
  1262 00000B98 89 5D 08                        	MOV	DWORD [8+EBP],EBX
  1263 00000B9B 8D 65 F4                        	LEA	ESP,DWORD [-12+EBP]
  1264 00000B9E 5B                              	POP	EBX
  1265 00000B9F 5E                              	POP	ESI
  1266 00000BA0 5F                              	POP	EDI
  1267 00000BA1 5D                              	POP	EBP
  1268 00000BA2 E9 000011F3                     	JMP	_cmd_test
  1269 00000BA7                                 L234:
  1270 00000BA7 8B 45 E8                        	MOV	EAX,DWORD [-24+EBP]
  1271 00000BAA 89 5D 08                        	MOV	DWORD [8+EBP],EBX
  1272 00000BAD 89 45 0C                        	MOV	DWORD [12+EBP],EAX
  1273 00000BB0 8D 65 F4                        	LEA	ESP,DWORD [-12+EBP]
  1274 00000BB3 5B                              	POP	EBX
  1275 00000BB4 5E                              	POP	ESI
  1276 00000BB5 5F                              	POP	EDI
  1277 00000BB6 5D                              	POP	EBP
  1278 00000BB7 E9 00001237                     	JMP	_cmd_show
  1279 00000BBC                                 L233:
  1280 00000BBC 89 5D 08                        	MOV	DWORD [8+EBP],EBX
  1281 00000BBF 8D 65 F4                        	LEA	ESP,DWORD [-12+EBP]
  1282 00000BC2 5B                              	POP	EBX
  1283 00000BC3 5E                              	POP	ESI
  1284 00000BC4 5F                              	POP	EDI
  1285 00000BC5 5D                              	POP	EBP
  1286 00000BC6 E9 00000EC9                     	JMP	_cmd_setlog
  1287 00000BCB                                 L232:
  1288 00000BCB 8B 45 EC                        	MOV	EAX,DWORD [-20+EBP]
  1289 00000BCE 8B 4D E8                        	MOV	ECX,DWORD [-24+EBP]
  1290 00000BD1 89 45 10                        	MOV	DWORD [16+EBP],EAX
  1291 00000BD4 89 4D 0C                        	MOV	DWORD [12+EBP],ECX
  1292 00000BD7 89 5D 08                        	MOV	DWORD [8+EBP],EBX
  1293 00000BDA 8D 65 F4                        	LEA	ESP,DWORD [-12+EBP]
  1294 00000BDD 5B                              	POP	EBX
  1295 00000BDE 5E                              	POP	ESI
  1296 00000BDF 5F                              	POP	EDI
  1297 00000BE0 5D                              	POP	EBP
  1298 00000BE1 E9 000018A9                     	JMP	_cmd_start
  1299 00000BE6                                 L231:
  1300 00000BE6 8B 45 EC                        	MOV	EAX,DWORD [-20+EBP]
  1301 00000BE9 8B 4D E8                        	MOV	ECX,DWORD [-24+EBP]
  1302 00000BEC 89 45 10                        	MOV	DWORD [16+EBP],EAX
  1303 00000BEF 89 4D 0C                        	MOV	DWORD [12+EBP],ECX
  1304 00000BF2 89 5D 08                        	MOV	DWORD [8+EBP],EBX
  1305 00000BF5 8D 65 F4                        	LEA	ESP,DWORD [-12+EBP]
  1306 00000BF8 5B                              	POP	EBX
  1307 00000BF9 5E                              	POP	ESI
  1308 00000BFA 5F                              	POP	EDI
  1309 00000BFB 5D                              	POP	EBP
  1310 00000BFC E9 00001918                     	JMP	_cmd_ncst
  1311 00000C01                                 L230:
  1312 00000C01 8B 45 EC                        	MOV	EAX,DWORD [-20+EBP]
  1313 00000C04 89 5D 08                        	MOV	DWORD [8+EBP],EBX
  1314 00000C07 89 45 0C                        	MOV	DWORD [12+EBP],EAX
  1315 00000C0A 8D 65 F4                        	LEA	ESP,DWORD [-12+EBP]
  1316 00000C0D 5B                              	POP	EBX
  1317 00000C0E 5E                              	POP	ESI
  1318 00000C0F 5F                              	POP	EDI
  1319 00000C10 5D                              	POP	EBP
  1320 00000C11 E9 00000F6C                     	JMP	_cmd_memmap
  1321 00000C16                                 L229:
  1322 00000C16 8B 45 E8                        	MOV	EAX,DWORD [-24+EBP]
  1323 00000C19 89 5D 08                        	MOV	DWORD [8+EBP],EBX
  1324 00000C1C 89 45 0C                        	MOV	DWORD [12+EBP],EAX
  1325 00000C1F 8D 65 F4                        	LEA	ESP,DWORD [-12+EBP]
  1326 00000C22 5B                              	POP	EBX
  1327 00000C23 5E                              	POP	ESI
  1328 00000C24 5F                              	POP	EDI
  1329 00000C25 5D                              	POP	EBP
  1330 00000C26 E9 00000C7A                     	JMP	_cmd_mkfile
  1331 00000C2B                                 L228:
  1332 00000C2B 8B 45 E8                        	MOV	EAX,DWORD [-24+EBP]
  1333 00000C2E 89 5D 08                        	MOV	DWORD [8+EBP],EBX
  1334 00000C31 89 45 0C                        	MOV	DWORD [12+EBP],EAX
  1335 00000C34 8D 65 F4                        	LEA	ESP,DWORD [-12+EBP]
  1336 00000C37 5B                              	POP	EBX
  1337 00000C38 5E                              	POP	ESI
  1338 00000C39 5F                              	POP	EDI
  1339 00000C3A 5D                              	POP	EBP
  1340 00000C3B E9 00000A79                     	JMP	_cmd_mkdir
  1341 00000C40                                 L227:
  1342 00000C40 89 5D 08                        	MOV	DWORD [8+EBP],EBX
  1343 00000C43 8D 65 F4                        	LEA	ESP,DWORD [-12+EBP]
  1344 00000C46 5B                              	POP	EBX
  1345 00000C47 5E                              	POP	ESI
  1346 00000C48 5F                              	POP	EDI
  1347 00000C49 5D                              	POP	EBP
  1348 00000C4A E9 0000144A                     	JMP	_cmd_mkfs
  1349 00000C4F                                 L226:
  1350 00000C4F 8B 45 EC                        	MOV	EAX,DWORD [-20+EBP]
  1351 00000C52 89 5D 08                        	MOV	DWORD [8+EBP],EBX
  1352 00000C55 89 45 0C                        	MOV	DWORD [12+EBP],EAX
  1353 00000C58 8D 65 F4                        	LEA	ESP,DWORD [-12+EBP]
  1354 00000C5B 5B                              	POP	EBX
  1355 00000C5C 5E                              	POP	ESI
  1356 00000C5D 5F                              	POP	EDI
  1357 00000C5E 5D                              	POP	EBP
  1358 00000C5F E9 00000E79                     	JMP	_cmd_mem
  1359 00000C64                                 L225:
  1360 00000C64 89 5D 08                        	MOV	DWORD [8+EBP],EBX
  1361 00000C67 8D 65 F4                        	LEA	ESP,DWORD [-12+EBP]
  1362 00000C6A 5B                              	POP	EBX
  1363 00000C6B 5E                              	POP	ESI
  1364 00000C6C 5F                              	POP	EDI
  1365 00000C6D 5D                              	POP	EBP
  1366 00000C6E E9 000010A0                     	JMP	_cmd_logcls
  1367 00000C73                                 L224:
  1368 00000C73 89 5D 08                        	MOV	DWORD [8+EBP],EBX
  1369 00000C76 8D 65 F4                        	LEA	ESP,DWORD [-12+EBP]
  1370 00000C79 5B                              	POP	EBX
  1371 00000C7A 5E                              	POP	ESI
  1372 00000C7B 5F                              	POP	EDI
  1373 00000C7C 5D                              	POP	EBP
  1374 00000C7D E9 00000F41                     	JMP	_cmd_log
  1375 00000C82                                 L223:
  1376 00000C82 8B 45 E8                        	MOV	EAX,DWORD [-24+EBP]
  1377 00000C85 89 5D 08                        	MOV	DWORD [8+EBP],EBX
  1378 00000C88 89 45 0C                        	MOV	DWORD [12+EBP],EAX
  1379 00000C8B 8D 65 F4                        	LEA	ESP,DWORD [-12+EBP]
  1380 00000C8E 5B                              	POP	EBX
  1381 00000C8F 5E                              	POP	ESI
  1382 00000C90 5F                              	POP	EDI
  1383 00000C91 5D                              	POP	EBP
  1384 00000C92 E9 000018E6                     	JMP	_cmd_langmode
  1385 00000C97                                 L222:
  1386 00000C97 8B 45 E8                        	MOV	EAX,DWORD [-24+EBP]
  1387 00000C9A 89 5D 08                        	MOV	DWORD [8+EBP],EBX
  1388 00000C9D 89 45 0C                        	MOV	DWORD [12+EBP],EAX
  1389 00000CA0 8D 65 F4                        	LEA	ESP,DWORD [-12+EBP]
  1390 00000CA3 5B                              	POP	EBX
  1391 00000CA4 5E                              	POP	ESI
  1392 00000CA5 5F                              	POP	EDI
  1393 00000CA6 5D                              	POP	EBP
  1394 00000CA7 E9 00001292                     	JMP	_cmd_fview
  1395 00000CAC                                 L221:
  1396 00000CAC 89 5D 08                        	MOV	DWORD [8+EBP],EBX
  1397 00000CAF 8D 65 F4                        	LEA	ESP,DWORD [-12+EBP]
  1398 00000CB2 5B                              	POP	EBX
  1399 00000CB3 5E                              	POP	ESI
  1400 00000CB4 5F                              	POP	EDI
  1401 00000CB5 5D                              	POP	EBP
  1402 00000CB6 E9 00001688                     	JMP	_cmd_fddir
  1403 00000CBB                                 L220:
  1404 00000CBB 8B 45 E8                        	MOV	EAX,DWORD [-24+EBP]
  1405 00000CBE 89 5D 08                        	MOV	DWORD [8+EBP],EBX
  1406 00000CC1 89 45 0C                        	MOV	DWORD [12+EBP],EAX
  1407 00000CC4 8D 65 F4                        	LEA	ESP,DWORD [-12+EBP]
  1408 00000CC7 5B                              	POP	EBX
  1409 00000CC8 5E                              	POP	ESI
  1410 00000CC9 5F                              	POP	EDI
  1411 00000CCA 5D                              	POP	EBP
  1412 00000CCB E9 00000418                     	JMP	_cmd_edit
  1413 00000CD0                                 L219:
  1414 00000CD0 8B 45 F0                        	MOV	EAX,DWORD [-16+EBP]
  1415 00000CD3 89 5D 08                        	MOV	DWORD [8+EBP],EBX
  1416 00000CD6 89 45 0C                        	MOV	DWORD [12+EBP],EAX
  1417 00000CD9 8D 65 F4                        	LEA	ESP,DWORD [-12+EBP]
  1418 00000CDC 5B                              	POP	EBX
  1419 00000CDD 5E                              	POP	ESI
  1420 00000CDE 5F                              	POP	EDI
  1421 00000CDF 5D                              	POP	EBP
  1422 00000CE0 E9 00001712                     	JMP	_cmd_exit
  1423 00000CE5                                 L218:
  1424 00000CE5 89 5D 08                        	MOV	DWORD [8+EBP],EBX
  1425 00000CE8 8D 65 F4                        	LEA	ESP,DWORD [-12+EBP]
  1426 00000CEB 5B                              	POP	EBX
  1427 00000CEC 5E                              	POP	ESI
  1428 00000CED 5F                              	POP	EDI
  1429 00000CEE 5D                              	POP	EBP
  1430 00000CEF E9 00001536                     	JMP	_cmd_dir
  1431 00000CF4                                 L217:
  1432 00000CF4 89 5D 08                        	MOV	DWORD [8+EBP],EBX
  1433 00000CF7 8D 65 F4                        	LEA	ESP,DWORD [-12+EBP]
  1434 00000CFA 5B                              	POP	EBX
  1435 00000CFB 5E                              	POP	ESI
  1436 00000CFC 5F                              	POP	EDI
  1437 00000CFD 5D                              	POP	EBP
  1438 00000CFE E9 00000F8D                     	JMP	_cmd_cls
  1439 00000D03                                 L216:
  1440 00000D03 8B 45 E8                        	MOV	EAX,DWORD [-24+EBP]
  1441 00000D06 89 5D 08                        	MOV	DWORD [8+EBP],EBX
  1442 00000D09 89 45 0C                        	MOV	DWORD [12+EBP],EAX
  1443 00000D0C 8D 65 F4                        	LEA	ESP,DWORD [-12+EBP]
  1444 00000D0F 5B                              	POP	EBX
  1445 00000D10 5E                              	POP	ESI
  1446 00000D11 5F                              	POP	EDI
  1447 00000D12 5D                              	POP	EBP
  1448 00000D13 EB 1B                           	JMP	_cmd_cd
  1449 00000D15                                 L215:
  1450 00000D15 8B 45 E8                        	MOV	EAX,DWORD [-24+EBP]
  1451 00000D18 8B 4D F0                        	MOV	ECX,DWORD [-16+EBP]
  1452 00000D1B 89 45 10                        	MOV	DWORD [16+EBP],EAX
  1453 00000D1E 89 4D 0C                        	MOV	DWORD [12+EBP],ECX
  1454 00000D21 89 5D 08                        	MOV	DWORD [8+EBP],EBX
  1455 00000D24 8D 65 F4                        	LEA	ESP,DWORD [-12+EBP]
  1456 00000D27 5B                              	POP	EBX
  1457 00000D28 5E                              	POP	ESI
  1458 00000D29 5F                              	POP	EDI
  1459 00000D2A 5D                              	POP	EBP
  1460 00000D2B E9 00000EC4                     	JMP	_cmd_cat
  1461 00000D30                                 	GLOBAL	_cmd_cd
  1462 00000D30                                 _cmd_cd:
  1463 00000D30 55                              	PUSH	EBP
  1464 00000D31 89 E5                           	MOV	EBP,ESP
  1465 00000D33 53                              	PUSH	EBX
  1466 00000D34 8B 45 0C                        	MOV	EAX,DWORD [12+EBP]
  1467 00000D37 8B 5D 08                        	MOV	EBX,DWORD [8+EBP]
  1468 00000D3A 83 C0 03                        	ADD	EAX,3
  1469 00000D3D 50                              	PUSH	EAX
  1470 00000D3E 53                              	PUSH	EBX
  1471 00000D3F E8 00000071                     	CALL	_parse_cdline
  1472 00000D44 59                              	POP	ECX
  1473 00000D45 5A                              	POP	EDX
  1474 00000D46 85 C0                           	TEST	EAX,EAX
  1475 00000D48 74 03                           	JE	L238
  1476 00000D4A 89 43 14                        	MOV	DWORD [20+EBX],EAX
  1477 00000D4D                                 L238:
  1478 00000D4D 8B 5D FC                        	MOV	EBX,DWORD [-4+EBP]
  1479 00000D50 C9                              	LEAVE
  1480 00000D51 C3                              	RET
  1481 00000D52                                 	GLOBAL	_get_dirname
  1482 00000D52                                 _get_dirname:
  1483 00000D52 55                              	PUSH	EBP
  1484 00000D53 A1 [00001ADC]                   	MOV	EAX,DWORD [_cp]
  1485 00000D58 89 E5                           	MOV	EBP,ESP
  1486 00000D5A 31 C9                           	XOR	ECX,ECX
  1487 00000D5C 56                              	PUSH	ESI
  1488 00000D5D 53                              	PUSH	EBX
  1489 00000D5E 8B 75 08                        	MOV	ESI,DWORD [8+EBP]
  1490 00000D61 8B 5D 0C                        	MOV	EBX,DWORD [12+EBP]
  1491 00000D64 8A 14 18                        	MOV	DL,BYTE [EAX+EBX*1]
  1492 00000D67 8D 42 BF                        	LEA	EAX,DWORD [-65+EDX]
  1493 00000D6A 3C 19                           	CMP	AL,25
  1494 00000D6C 77 37                           	JA	L247
  1495 00000D6E                                 L244:
  1496 00000D6E A1 [00001ADC]                   	MOV	EAX,DWORD [_cp]
  1497 00000D73 8A 04 18                        	MOV	AL,BYTE [EAX+EBX*1]
  1498 00000D76 88 04 31                        	MOV	BYTE [ECX+ESI*1],AL
  1499 00000D79 41                              	INC	ECX
  1500 00000D7A A1 [00001ADC]                   	MOV	EAX,DWORD [_cp]
  1501 00000D7F 40                              	INC	EAX
  1502 00000D80 A3 [00001ADC]                   	MOV	DWORD [_cp],EAX
  1503 00000D85 8A 14 18                        	MOV	DL,BYTE [EAX+EBX*1]
  1504 00000D88 8D 42 BF                        	LEA	EAX,DWORD [-65+EDX]
  1505 00000D8B 3C 19                           	CMP	AL,25
  1506 00000D8D 76 DF                           	JBE	L244
  1507 00000D8F 8D 42 9F                        	LEA	EAX,DWORD [-97+EDX]
  1508 00000D92 3C 19                           	CMP	AL,25
  1509 00000D94 76 D8                           	JBE	L244
  1510 00000D96 8D 42 D0                        	LEA	EAX,DWORD [-48+EDX]
  1511 00000D99 3C 09                           	CMP	AL,9
  1512 00000D9B 76 D1                           	JBE	L244
  1513 00000D9D                                 L246:
  1514 00000D9D C6 04 31 00                     	MOV	BYTE [ECX+ESI*1],0
  1515 00000DA1 5B                              	POP	EBX
  1516 00000DA2 5E                              	POP	ESI
  1517 00000DA3 5D                              	POP	EBP
  1518 00000DA4 C3                              	RET
  1519 00000DA5                                 L247:
  1520 00000DA5 8D 42 9F                        	LEA	EAX,DWORD [-97+EDX]
  1521 00000DA8 3C 19                           	CMP	AL,25
  1522 00000DAA 76 C2                           	JBE	L244
  1523 00000DAC 8D 42 D0                        	LEA	EAX,DWORD [-48+EDX]
  1524 00000DAF 3C 09                           	CMP	AL,9
  1525 00000DB1 76 BB                           	JBE	L244
  1526 00000DB3 EB E8                           	JMP	L246
  1527                                          [SECTION .data]
  1528 000000F8                                 LC39:
  1529 000000F8 2A 2A 2A 2A 2A 49 4E 20 46 55   	DB	"*****IN FUNC: parse_cdline()*****",0x0A,0x00
       00000102 4E 43 3A 20 70 61 72 73 65 5F 
       0000010C 63 64 6C 69 6E 65 28 29 2A 2A 
       00000116 2A 2A 2A 0A 00 
  1530 0000011B                                 LC40:
  1531 0000011B 4E 2F 41 00                     	DB	"N/A",0x00
  1532 0000011F                                 LC50:
  1533 0000011F 5B 25 64 5D 63 68 61 6E 67 65   	DB	"[%d]change directory: %s -> %s",0x0A,0x00
       00000129 20 64 69 72 65 63 74 6F 72 79 
       00000133 3A 20 25 73 20 2D 3E 20 25 73 
       0000013D 0A 00 
  1534 0000013F                                 LC51:
  1535 0000013F 5B 52 45 53 55 4C 54 5D 64 65   	DB	"[RESULT]destination: %s -> %s",0x0A,0x00
       00000149 73 74 69 6E 61 74 69 6F 6E 3A 
       00000153 20 25 73 20 2D 3E 20 25 73 0A 
       0000015D 00 
  1536 0000015E                                 LC47:
  1537 0000015E 2A 2A 2A 2A 2A 2A 2A 2A 2A 2A   	DB	"*********************************",0x0A,0x00
       00000168 2A 2A 2A 2A 2A 2A 2A 2A 2A 2A 
       00000172 2A 2A 2A 2A 2A 2A 2A 2A 2A 2A 
       0000017C 2A 2A 2A 0A 00 
  1538 00000181                                 LC49:
  1539 00000181 43 61 6E 27 74 20 66 69 6E 64   	DB	"Can't find this directory.",0x0A,0x00
       0000018B 20 74 68 69 73 20 64 69 72 65 
       00000195 63 74 6F 72 79 2E 0A 00 
  1540 0000019D                                 LC41:
  1541 0000019D 66 69 6C 65 6E 61 6D 65 20 68   	DB	"filename has found.",0x0A,0x00
       000001A7 61 73 20 66 6F 75 6E 64 2E 0A 
       000001B1 00 
  1542 000001B2                                 LC42:
  1543 000001B2 63 68 61 6E 67 65 20 64 69 72   	DB	"change directory using relative path",0x0A,0x00
       000001BC 65 63 74 6F 72 79 20 75 73 69 
       000001C6 6E 67 20 72 65 6C 61 74 69 76 
       000001D0 65 20 70 61 74 68 0A 00 
  1544 000001D8                                 LC45:
  1545 000001D8 22 2E 2E 22 20 68 61 73 20 66   	DB	0x22,"..",0x22," has found.",0x0A,0x00
       000001E2 6F 75 6E 64 2E 0A 00 
  1546 000001E9                                 LC46:
  1547 000001E9 43 61 6E 27 74 20 6D 6F 76 65   	DB	"Can't move because here is ROOT directory.",0x0A,0x00
       000001F3 20 62 65 63 61 75 73 65 20 68 
       000001FD 65 72 65 20 69 73 20 52 4F 4F 
       00000207 54 20 64 69 72 65 63 74 6F 72 
       00000211 79 2E 0A 00 
  1548 00000215                                 LC48:
  1549 00000215 49 6E 63 6F 72 72 65 63 74 20   	DB	"Incorrect initial character.",0x0A,0x00
       0000021F 69 6E 69 74 69 61 6C 20 63 68 
       00000229 61 72 61 63 74 65 72 2E 0A 00 
  1550 00000233                                 LC43:
  1551 00000233 27 2F 27 20 68 61 73 20 66 6F   	DB	"'/' has found.",0x0A,0x00
       0000023D 75 6E 64 2E 0A 00 
  1552 00000243                                 LC44:
  1553 00000243 63 68 61 6E 67 65 20 64 69 72   	DB	"change directory using absolute path",0x0A,0x00
       0000024D 65 63 74 6F 72 79 20 75 73 69 
       00000257 6E 67 20 61 62 73 6F 6C 75 74 
       00000261 65 20 70 61 74 68 0A 00 
  1554                                          [SECTION .text]
  1555 00000DB5                                 	GLOBAL	_parse_cdline
  1556 00000DB5                                 _parse_cdline:
  1557 00000DB5 55                              	PUSH	EBP
  1558 00000DB6 89 E5                           	MOV	EBP,ESP
  1559 00000DB8 57                              	PUSH	EDI
  1560 00000DB9 56                              	PUSH	ESI
  1561 00000DBA 31 FF                           	XOR	EDI,EDI
  1562 00000DBC 53                              	PUSH	EBX
  1563 00000DBD 81 EC 0000015C                  	SUB	ESP,348
  1564 00000DC3 8B 75 0C                        	MOV	ESI,DWORD [12+EBP]
  1565 00000DC6 68 [000000F8]                   	PUSH	LC39
  1566 00000DCB C7 85 FFFFFE98 00000000         	MOV	DWORD [-360+EBP],0
  1567 00000DD5 E8 FFFFF226                     	CALL	_debug_print
  1568 00000DDA 8D 85 FFFFFF14                  	LEA	EAX,DWORD [-236+EBP]
  1569 00000DE0 68 [0000011B]                   	PUSH	LC40
  1570 00000DE5 50                              	PUSH	EAX
  1571 00000DE6 C7 05 [00001ADC] 00000000       	MOV	DWORD [_cp],0
  1572 00000DF0 E8 [00000000]                   	CALL	_sprintf
  1573 00000DF5 A1 [00001ADC]                   	MOV	EAX,DWORD [_cp]
  1574 00000DFA 83 C4 0C                        	ADD	ESP,12
  1575 00000DFD 80 3C 30 00                     	CMP	BYTE [EAX+ESI*1],0
  1576 00000E01 0F 84 00000091                  	JE	L273
  1577 00000E07                                 L271:
  1578 00000E07 83 3D [00001ADC] 00             	CMP	DWORD [_cp],0
  1579 00000E0E 0F 85 0000021D                  	JNE	L275
  1580 00000E14                                 L252:
  1581 00000E14 8B 0D [00001ADC]                	MOV	ECX,DWORD [_cp]
  1582 00000E1A 8A 14 31                        	MOV	DL,BYTE [ECX+ESI*1]
  1583 00000E1D 8D 42 BF                        	LEA	EAX,DWORD [-65+EDX]
  1584 00000E20 3C 19                           	CMP	AL,25
  1585 00000E22 76 12                           	JBE	L254
  1586 00000E24 8D 42 9F                        	LEA	EAX,DWORD [-97+EDX]
  1587 00000E27 3C 19                           	CMP	AL,25
  1588 00000E29 76 0B                           	JBE	L254
  1589 00000E2B 8D 42 D0                        	LEA	EAX,DWORD [-48+EDX]
  1590 00000E2E 3C 09                           	CMP	AL,9
  1591 00000E30 0F 87 0000013F                  	JA	L253
  1592 00000E36                                 L254:
  1593 00000E36 85 C9                           	TEST	ECX,ECX
  1594 00000E38 0F 84 000000FE                  	JE	L276
  1595 00000E3E                                 L256:
  1596 00000E3E A1 [00001ADC]                   	MOV	EAX,DWORD [_cp]
  1597 00000E43 8A 14 30                        	MOV	DL,BYTE [EAX+ESI*1]
  1598 00000E46 80 FA 2E                        	CMP	DL,46
  1599 00000E49 0F 84 000000DD                  	JE	L277
  1600 00000E4F                                 L267:
  1601 00000E4F 84 D2                           	TEST	DL,DL
  1602 00000E51 0F 85 00000095                  	JNE	L278
  1603 00000E57                                 L263:
  1604 00000E57 57                              	PUSH	EDI
  1605 00000E58 8D 9D FFFFFEA4                  	LEA	EBX,DWORD [-348+EBP]
  1606 00000E5E 53                              	PUSH	EBX
  1607 00000E5F E8 FFFFF9CF                     	CALL	_get_pathname
  1608 00000E64 8D 85 FFFFFF14                  	LEA	EAX,DWORD [-236+EBP]
  1609 00000E6A 53                              	PUSH	EBX
  1610 00000E6B 8D 5D 84                        	LEA	EBX,DWORD [-124+EBP]
  1611 00000E6E 50                              	PUSH	EAX
  1612 00000E6F FF B5 FFFFFE98                  	PUSH	DWORD [-360+EBP]
  1613 00000E75 68 [0000011F]                   	PUSH	LC50
  1614 00000E7A 53                              	PUSH	EBX
  1615 00000E7B E8 [00000000]                   	CALL	_sprintf
  1616 00000E80 53                              	PUSH	EBX
  1617 00000E81 E8 FFFFF17A                     	CALL	_debug_print
  1618 00000E86 A1 [00001ADC]                   	MOV	EAX,DWORD [_cp]
  1619 00000E8B 83 C4 20                        	ADD	ESP,32
  1620 00000E8E 80 3C 30 00                     	CMP	BYTE [EAX+ESI*1],0
  1621 00000E92 0F 85 FFFFFF6F                  	JNE	L271
  1622 00000E98                                 L273:
  1623 00000E98 8B 45 08                        	MOV	EAX,DWORD [8+EBP]
  1624 00000E9B 8D 9D FFFFFF14                  	LEA	EBX,DWORD [-236+EBP]
  1625 00000EA1 8D B5 FFFFFEA4                  	LEA	ESI,DWORD [-348+EBP]
  1626 00000EA7 FF 70 14                        	PUSH	DWORD [20+EAX]
  1627 00000EAA 53                              	PUSH	EBX
  1628 00000EAB E8 FFFFF983                     	CALL	_get_pathname
  1629 00000EB0 57                              	PUSH	EDI
  1630 00000EB1 56                              	PUSH	ESI
  1631 00000EB2 E8 FFFFF97C                     	CALL	_get_pathname
  1632 00000EB7 56                              	PUSH	ESI
  1633 00000EB8 53                              	PUSH	EBX
  1634 00000EB9 8D 5D 84                        	LEA	EBX,DWORD [-124+EBP]
  1635 00000EBC 68 [0000013F]                   	PUSH	LC51
  1636 00000EC1 53                              	PUSH	EBX
  1637 00000EC2 E8 [00000000]                   	CALL	_sprintf
  1638 00000EC7 83 C4 20                        	ADD	ESP,32
  1639 00000ECA 53                              	PUSH	EBX
  1640 00000ECB E8 FFFFF130                     	CALL	_debug_print
  1641 00000ED0 68 [0000015E]                   	PUSH	LC47
  1642 00000ED5 E8 FFFFF126                     	CALL	_debug_print
  1643 00000EDA FF 75 08                        	PUSH	DWORD [8+EBP]
  1644 00000EDD E8 FFFFF75E                     	CALL	_cons_newline
  1645 00000EE2 89 F8                           	MOV	EAX,EDI
  1646 00000EE4                                 L248:
  1647 00000EE4 8D 65 F4                        	LEA	ESP,DWORD [-12+EBP]
  1648 00000EE7 5B                              	POP	EBX
  1649 00000EE8 5E                              	POP	ESI
  1650 00000EE9 5F                              	POP	EDI
  1651 00000EEA 5D                              	POP	EBP
  1652 00000EEB C3                              	RET
  1653 00000EEC                                 L278:
  1654 00000EEC 56                              	PUSH	ESI
  1655 00000EED 8D 9D FFFFFE9C                  	LEA	EBX,DWORD [-356+EBP]
  1656 00000EF3 53                              	PUSH	EBX
  1657 00000EF4 E8 FFFFFE59                     	CALL	_get_dirname
  1658 00000EF9 6A 32                           	PUSH	50
  1659 00000EFB 57                              	PUSH	EDI
  1660 00000EFC 53                              	PUSH	EBX
  1661 00000EFD E8 [00000000]                   	CALL	_myfinfo_search
  1662 00000F02 83 C4 14                        	ADD	ESP,20
  1663 00000F05 85 C0                           	TEST	EAX,EAX
  1664 00000F07 74 08                           	JE	L279
  1665 00000F09 8B 78 20                        	MOV	EDI,DWORD [32+EAX]
  1666 00000F0C E9 FFFFFF46                     	JMP	L263
  1667 00000F11                                 L279:
  1668 00000F11 68 [00000181]                   	PUSH	LC49
  1669 00000F16                                 L274:
  1670 00000F16 FF 75 08                        	PUSH	DWORD [8+EBP]
  1671 00000F19 E8 0000012D                     	CALL	_cd_error
  1672 00000F1E 68 [0000015E]                   	PUSH	LC47
  1673 00000F23 E8 FFFFF0D8                     	CALL	_debug_print
  1674 00000F28 31 C0                           	XOR	EAX,EAX
  1675 00000F2A EB B8                           	JMP	L248
  1676 00000F2C                                 L277:
  1677 00000F2C 80 7C 30 01 2E                  	CMP	BYTE [1+EAX+ESI*1],46
  1678 00000F31 0F 85 FFFFFF18                  	JNE	L267
  1679 00000F37 E9 FFFFFF1B                     	JMP	L263
  1680 00000F3C                                 L276:
  1681 00000F3C 68 [0000019D]                   	PUSH	LC41
  1682 00000F41 8D 5D 84                        	LEA	EBX,DWORD [-124+EBP]
  1683 00000F44 E8 FFFFF0B7                     	CALL	_debug_print
  1684 00000F49 68 [000001B2]                   	PUSH	LC42
  1685 00000F4E 53                              	PUSH	EBX
  1686 00000F4F E8 [00000000]                   	CALL	_sprintf
  1687 00000F54 53                              	PUSH	EBX
  1688 00000F55 E8 FFFFF0A6                     	CALL	_debug_print
  1689 00000F5A 8B 45 08                        	MOV	EAX,DWORD [8+EBP]
  1690 00000F5D 8B 78 14                        	MOV	EDI,DWORD [20+EAX]
  1691 00000F60 8D 85 FFFFFF14                  	LEA	EAX,DWORD [-236+EBP]
  1692 00000F66 57                              	PUSH	EDI
  1693 00000F67 50                              	PUSH	EAX
  1694 00000F68 E8 FFFFF8C6                     	CALL	_get_pathname
  1695 00000F6D 83 C4 18                        	ADD	ESP,24
  1696 00000F70 E9 FFFFFEC9                     	JMP	L256
  1697 00000F75                                 L253:
  1698 00000F75 80 FA 2F                        	CMP	DL,47
  1699 00000F78 74 79                           	JE	L280
  1700 00000F7A 80 FA 2E                        	CMP	DL,46
  1701 00000F7D 75 6A                           	JNE	L260
  1702 00000F7F 80 7C 31 01 2E                  	CMP	BYTE [1+ECX+ESI*1],46
  1703 00000F84 75 63                           	JNE	L260
  1704 00000F86 68 [000001D8]                   	PUSH	LC45
  1705 00000F8B E8 FFFFF070                     	CALL	_debug_print
  1706 00000F90 59                              	POP	ECX
  1707 00000F91 A1 [00001ADC]                   	MOV	EAX,DWORD [_cp]
  1708 00000F96 83 C0 02                        	ADD	EAX,2
  1709 00000F99 A3 [00001ADC]                   	MOV	DWORD [_cp],EAX
  1710 00000F9E 83 F8 02                        	CMP	EAX,2
  1711 00000FA1 74 1A                           	JE	L281
  1712 00000FA3                                 L261:
  1713 00000FA3 8B 87 000007D8                  	MOV	EAX,DWORD [2008+EDI]
  1714 00000FA9 89 C7                           	MOV	EDI,EAX
  1715 00000FAB 85 C0                           	TEST	EAX,EAX
  1716 00000FAD 0F 85 FFFFFEA4                  	JNE	L263
  1717 00000FB3 68 [000001E9]                   	PUSH	LC46
  1718 00000FB8 E9 FFFFFF59                     	JMP	L274
  1719 00000FBD                                 L281:
  1720 00000FBD 68 [000001B2]                   	PUSH	LC42
  1721 00000FC2 8D 5D 84                        	LEA	EBX,DWORD [-124+EBP]
  1722 00000FC5 53                              	PUSH	EBX
  1723 00000FC6 E8 [00000000]                   	CALL	_sprintf
  1724 00000FCB 53                              	PUSH	EBX
  1725 00000FCC E8 FFFFF02F                     	CALL	_debug_print
  1726 00000FD1 8B 45 08                        	MOV	EAX,DWORD [8+EBP]
  1727 00000FD4 8B 78 14                        	MOV	EDI,DWORD [20+EAX]
  1728 00000FD7 8D 85 FFFFFF14                  	LEA	EAX,DWORD [-236+EBP]
  1729 00000FDD 57                              	PUSH	EDI
  1730 00000FDE 50                              	PUSH	EAX
  1731 00000FDF E8 FFFFF84F                     	CALL	_get_pathname
  1732 00000FE4 83 C4 14                        	ADD	ESP,20
  1733 00000FE7 EB BA                           	JMP	L261
  1734 00000FE9                                 L260:
  1735 00000FE9 68 [00000215]                   	PUSH	LC48
  1736 00000FEE E9 FFFFFF23                     	JMP	L274
  1737 00000FF3                                 L280:
  1738 00000FF3 68 [00000233]                   	PUSH	LC43
  1739 00000FF8 E8 FFFFF003                     	CALL	_debug_print
  1740 00000FFD 5B                              	POP	EBX
  1741 00000FFE A1 [00001ADC]                   	MOV	EAX,DWORD [_cp]
  1742 00001003 40                              	INC	EAX
  1743 00001004 A3 [00001ADC]                   	MOV	DWORD [_cp],EAX
  1744 00001009 48                              	DEC	EAX
  1745 0000100A 0F 85 FFFFFE2E                  	JNE	L256
  1746 00001010 68 [00000243]                   	PUSH	LC44
  1747 00001015 8D 5D 84                        	LEA	EBX,DWORD [-124+EBP]
  1748 00001018 53                              	PUSH	EBX
  1749 00001019 BF 00400000                     	MOV	EDI,4194304
  1750 0000101E E8 [00000000]                   	CALL	_sprintf
  1751 00001023 53                              	PUSH	EBX
  1752 00001024 E8 FFFFEFD7                     	CALL	_debug_print
  1753 00001029 83 C4 0C                        	ADD	ESP,12
  1754 0000102C E9 FFFFFE0D                     	JMP	L256
  1755 00001031                                 L275:
  1756 00001031 57                              	PUSH	EDI
  1757 00001032 8D 85 FFFFFF14                  	LEA	EAX,DWORD [-236+EBP]
  1758 00001038 50                              	PUSH	EAX
  1759 00001039 E8 FFFFF7F5                     	CALL	_get_pathname
  1760 0000103E 58                              	POP	EAX
  1761 0000103F 5A                              	POP	EDX
  1762 00001040 FF 85 FFFFFE98                  	INC	DWORD [-360+EBP]
  1763 00001046 E9 FFFFFDC9                     	JMP	L252
  1764 0000104B                                 	GLOBAL	_cd_error
  1765 0000104B                                 _cd_error:
  1766 0000104B 55                              	PUSH	EBP
  1767 0000104C 89 E5                           	MOV	EBP,ESP
  1768 0000104E 57                              	PUSH	EDI
  1769 0000104F 56                              	PUSH	ESI
  1770 00001050 53                              	PUSH	EBX
  1771 00001051 8D 45 B4                        	LEA	EAX,DWORD [-76+EBP]
  1772 00001054 83 EC 40                        	SUB	ESP,64
  1773 00001057 31 DB                           	XOR	EBX,EBX
  1774 00001059 8B 7D 08                        	MOV	EDI,DWORD [8+EBP]
  1775 0000105C FF 77 14                        	PUSH	DWORD [20+EDI]
  1776 0000105F 50                              	PUSH	EAX
  1777 00001060 E8 FFFFF7CE                     	CALL	_get_pathname
  1778 00001065 59                              	POP	ECX
  1779 00001066 5E                              	POP	ESI
  1780 00001067 80 7D B4 00                     	CMP	BYTE [-76+EBP],0
  1781 0000106B 74 0D                           	JE	L302
  1782 0000106D                                 L287:
  1783 0000106D C6 44 1D B4 20                  	MOV	BYTE [-76+EBP+EBX*1],32
  1784 00001072 43                              	INC	EBX
  1785 00001073 80 7C 1D B4 00                  	CMP	BYTE [-76+EBP+EBX*1],0
  1786 00001078 75 F3                           	JNE	L287
  1787 0000107A                                 L302:
  1788 0000107A 31 D2                           	XOR	EDX,EDX
  1789 0000107C                                 L292:
  1790 0000107C 8D 4D F4                        	LEA	ECX,DWORD [-12+EBP]
  1791 0000107F 8D 04 19                        	LEA	EAX,DWORD [ECX+EBX*1]
  1792 00001082 C6 44 02 C0 20                  	MOV	BYTE [-64+EDX+EAX*1],32
  1793 00001087 42                              	INC	EDX
  1794 00001088 83 FA 02                        	CMP	EDX,2
  1795 0000108B 7E EF                           	JLE	L292
  1796 0000108D BA 00000003                     	MOV	EDX,3
  1797 00001092 31 C9                           	XOR	ECX,ECX
  1798 00001094 8B 35 [00001ADC]                	MOV	ESI,DWORD [_cp]
  1799 0000109A                                 L299:
  1800 0000109A 39 F1                           	CMP	ECX,ESI
  1801 0000109C 7D 33                           	JGE	L306
  1802 0000109E 8D 45 F4                        	LEA	EAX,DWORD [-12+EBP]
  1803 000010A1 01 D0                           	ADD	EAX,EDX
  1804 000010A3 01 C8                           	ADD	EAX,ECX
  1805 000010A5 41                              	INC	ECX
  1806 000010A6 83 F9 31                        	CMP	ECX,49
  1807 000010A9 C6 44 03 C0 20                  	MOV	BYTE [-64+EBX+EAX*1],32
  1808 000010AE 7E EA                           	JLE	L299
  1809 000010B0                                 L294:
  1810 000010B0 8D 45 B4                        	LEA	EAX,DWORD [-76+EBP]
  1811 000010B3 50                              	PUSH	EAX
  1812 000010B4 57                              	PUSH	EDI
  1813 000010B5 E8 FFFFF6AB                     	CALL	_cons_putstr
  1814 000010BA FF 75 0C                        	PUSH	DWORD [12+EBP]
  1815 000010BD 57                              	PUSH	EDI
  1816 000010BE E8 FFFFF6A2                     	CALL	_cons_putstr
  1817 000010C3 57                              	PUSH	EDI
  1818 000010C4 E8 FFFFF577                     	CALL	_cons_newline
  1819 000010C9 8D 65 F4                        	LEA	ESP,DWORD [-12+EBP]
  1820 000010CC 5B                              	POP	EBX
  1821 000010CD 5E                              	POP	ESI
  1822 000010CE 5F                              	POP	EDI
  1823 000010CF 5D                              	POP	EBP
  1824 000010D0 C3                              	RET
  1825 000010D1                                 L306:
  1826 000010D1 8D 45 F4                        	LEA	EAX,DWORD [-12+EBP]
  1827 000010D4 01 D0                           	ADD	EAX,EDX
  1828 000010D6 01 C8                           	ADD	EAX,ECX
  1829 000010D8 01 D8                           	ADD	EAX,EBX
  1830 000010DA C6 40 C0 5E                     	MOV	BYTE [-64+EAX],94
  1831 000010DE C6 40 C1 0A                     	MOV	BYTE [-63+EAX],10
  1832 000010E2 C6 40 C2 00                     	MOV	BYTE [-62+EAX],0
  1833 000010E6 EB C8                           	JMP	L294
  1834                                          [SECTION .data]
  1835 00000269                                 LC73:
  1836 00000269 43 61 6E 27 74 20 65 64 69 74   	DB	"Can't edit: There is no file being opened.",0x0A,0x00
       00000273 3A 20 54 68 65 72 65 20 69 73 
       0000027D 20 6E 6F 20 66 69 6C 65 20 62 
       00000287 65 69 6E 67 20 6F 70 65 6E 65 
       00000291 64 2E 0A 00 
  1837 00000295                                 LC81:
  1838 00000295 75 6E 65 78 70 65 63 74 65 64   	DB	"unexpected error at edit mode.",0x0A,0x00
       0000029F 20 65 72 72 6F 72 20 61 74 20 
       000002A9 65 64 69 74 20 6D 6F 64 65 2E 
       000002B3 0A 00 
  1839 000002B5                                 LC82:
  1840 000002B5 65 64 69 74 20 72 65 73 75 6C   	DB	"edit result:",0x0A,"%s[EOF]",0x0A,0x00
       000002BF 74 3A 0A 25 73 5B 45 4F 46 5D 
       000002C9 0A 00 
  1841 000002CB                                 LC65:
  1842 000002CB 73 69 7A 65 3A 20 25 64 5B 62   	DB	"size: %d[byte]",0x0A,0x00
       000002D5 79 74 65 5D 0A 00 
  1843 000002DB                                 LC78:
  1844 000002DB 63 61 6E 27 74 20 6F 70 65 6E   	DB	"can't open: There is a file being opened.",0x0A,0x00
       000002E5 3A 20 54 68 65 72 65 20 69 73 
       000002EF 20 61 20 66 69 6C 65 20 62 65 
       000002F9 69 6E 67 20 6F 70 65 6E 65 64 
       00000303 2E 0A 00 
  1845 00000306                                 LC80:
  1846 00000306 6F 70 65 6E 65 64 20 22 25 73   	DB	"opened ",0x22,"%s",0x22," file.",0x0A,0x00
       00000310 22 20 66 69 6C 65 2E 0A 00 
  1847 00000319                                 LC79:
  1848 00000319 63 61 6E 27 74 20 6F 70 65 6E   	DB	"can't open ",0x22,"%s",0x22,".",0x0A,0x00
       00000323 20 22 25 73 22 2E 0A 00 
  1849 0000032B                                 LC77:
  1850 0000032B 49 4E 53 20 4D 4F 44 45 20 52   	DB	"INS MODE RESULT: %s",0x0A,0x00
       00000335 45 53 55 4C 54 3A 20 25 73 0A 
       0000033F 00 
  1851 00000340                                 LC75:
  1852 00000340 63 68 61 72 20 2A 73 20 6F 75   	DB	"char *s out of myfwrite() is shown below.",0x0A,0x00
       0000034A 74 20 6F 66 20 6D 79 66 77 72 
       00000354 69 74 65 28 29 20 69 73 20 73 
       0000035E 68 6F 77 6E 20 62 65 6C 6F 77 
       00000368 2E 0A 00 
  1853 0000036B                                 LC76:
  1854 0000036B 0A 00                           	DB	0x0A,0x00
  1855 0000036D                                 LC74:
  1856 0000036D 65 64 69 74 20 6C 69 6E 65 20   	DB	"edit line is too long.",0x00
       00000377 69 73 20 74 6F 6F 20 6C 6F 6E 
       00000381 67 2E 00 
  1857 00000384                                 LC53:
  1858 00000384 6F 70 65 6E 00                  	DB	"open",0x00
  1859 00000389                                 LC55:
  1860 00000389 63 61 6E 27 74 20 65 64 69 74   	DB	"can't edit: There is no file being opened.",0x0A,0x00
       00000393 3A 20 54 68 65 72 65 20 69 73 
       0000039D 20 6E 6F 20 66 69 6C 65 20 62 
       000003A7 65 69 6E 67 20 6F 70 65 6E 65 
       000003B1 64 2E 0A 00 
  1861 000003B5                                 LC57:
  1862 000003B5 69 6E 73 00                     	DB	"ins",0x00
  1863 000003B9                                 LC59:
  1864 000003B9 61 64 64 00                     	DB	"add",0x00
  1865 000003BD                                 LC61:
  1866 000003BD 73 68 6F 77 00                  	DB	"show",0x00
  1867 000003C2                                 LC66:
  1868 000003C2 63 6C 6F 73 65 00               	DB	"close",0x00
  1869 000003C8                                 LC69:
  1870 000003C8 73 61 76 65 00                  	DB	"save",0x00
  1871 000003CD                                 LC72:
  1872 000003CD 69 6E 76 61 6C 69 64 20 6F 70   	DB	"invalid option.",0x0A,0x00
       000003D7 74 69 6F 6E 2E 0A 00 
  1873 000003DE                                 LC71:
  1874 000003DE 66 69 6E 69 73 68 65 64 20 73   	DB	"finished saving opened file.",0x0A,0x00
       000003E8 61 76 69 6E 67 20 6F 70 65 6E 
       000003F2 65 64 20 66 69 6C 65 2E 0A 00 
  1875 000003FC                                 LC70:
  1876 000003FC 43 61 6E 27 74 20 73 61 76 65   	DB	"Can't save because of error in myfinfo_search() in myfsave()",0x0A,0x00
       00000406 20 62 65 63 61 75 73 65 20 6F 
       00000410 66 20 65 72 72 6F 72 20 69 6E 
       0000041A 20 6D 79 66 69 6E 66 6F 5F 73 
       00000424 65 61 72 63 68 28 29 20 69 6E 
       0000042E 20 6D 79 66 73 61 76 65 28 29 
       00000438 0A 00 
  1877 0000043A                                 LC67:
  1878 0000043A 45 44 49 54 3A 63 6C 6F 73 65   	DB	"EDIT:close mode",0x0A,0x00
       00000444 20 6D 6F 64 65 0A 00 
  1879 0000044B                                 LC68:
  1880 0000044B 6F 70 65 6E 65 64 20 66 69 6C   	DB	"opened file was closed.",0x0A,0x00
       00000455 65 20 77 61 73 20 63 6C 6F 73 
       0000045F 65 64 2E 0A 00 
  1881 00000464                                 LC62:
  1882 00000464 45 44 49 54 3A 73 68 6F 77 20   	DB	"EDIT:show mode",0x0A,0x00
       0000046E 6D 6F 64 65 0A 00 
  1883 00000474                                 LC63:
  1884 00000474 73 65 74 66 64 61 74 61 2D 3E   	DB	"setfdata->head.stat=0x%02x",0x0A,0x00
       0000047E 68 65 61 64 2E 73 74 61 74 3D 
       00000488 30 78 25 30 32 78 0A 00 
  1885 00000490                                 LC64:
  1886 00000490 25 73 5B 45 4F 46 5D 0A 00      	DB	"%s[EOF]",0x0A,0x00
  1887 00000499                                 LC60:
  1888 00000499 45 44 49 54 3A 61 64 64 20 6D   	DB	"EDIT:add mode",0x0A,0x00
       000004A3 6F 64 65 0A 00 
  1889 000004A8                                 LC58:
  1890 000004A8 45 44 49 54 3A 69 6E 73 65 72   	DB	"EDIT:insert mode",0x0A,0x00
       000004B2 74 20 6D 6F 64 65 0A 00 
  1891 000004BA                                 LC56:
  1892 000004BA 45 44 49 54 3A 63 6C 65 61 72   	DB	"EDIT:clear mode",0x0A,0x00
       000004C4 20 6D 6F 64 65 0A 00 
  1893 000004CB                                 LC54:
  1894 000004CB 45 44 49 54 3A 6F 70 65 6E 20   	DB	"EDIT:open mode",0x0A,0x00
       000004D5 6D 6F 64 65 0A 00 
  1895 000004DB                                 LC52:
  1896 000004DB 6F 70 74 69 6F 6E 20 69 73 20   	DB	"option is too long.",0x0A,0x00
       000004E5 74 6F 6F 20 6C 6F 6E 67 2E 0A 
       000004EF 00 
  1897                                          [SECTION .text]
  1898 000010E8                                 	GLOBAL	_cmd_edit
  1899 000010E8                                 _cmd_edit:
  1900 000010E8 55                              	PUSH	EBP
  1901 000010E9 89 E5                           	MOV	EBP,ESP
  1902 000010EB 57                              	PUSH	EDI
  1903 000010EC 56                              	PUSH	ESI
  1904 000010ED 53                              	PUSH	EBX
  1905 000010EE 81 EC 00000ACC                  	SUB	ESP,2764
  1906 000010F4 8B 45 08                        	MOV	EAX,DWORD [8+EBP]
  1907 000010F7 C6 85 FFFFF52B 00               	MOV	BYTE [-2773+EBP],0
  1908 000010FE 8B 40 14                        	MOV	EAX,DWORD [20+EAX]
  1909 00001101 68 [00000059]                   	PUSH	LC12
  1910 00001106 89 85 FFFFF530                  	MOV	DWORD [-2768+EBP],EAX
  1911 0000110C 8D 85 FFFFFB74                  	LEA	EAX,DWORD [-1164+EBP]
  1912 00001112 50                              	PUSH	EAX
  1913 00001113 E8 [00000000]                   	CALL	_sprintf
  1914 00001118 8D 85 FFFFFB34                  	LEA	EAX,DWORD [-1228+EBP]
  1915 0000111E 68 [00000059]                   	PUSH	LC12
  1916 00001123 50                              	PUSH	EAX
  1917 00001124 E8 [00000000]                   	CALL	_sprintf
  1918 00001129 8B 55 0C                        	MOV	EDX,DWORD [12+EBP]
  1919 0000112C C7 85 FFFFF52C 00000005         	MOV	DWORD [-2772+EBP],5
  1920 00001136 83 C4 10                        	ADD	ESP,16
  1921 00001139 80 7A 05 20                     	CMP	BYTE [5+EDX],32
  1922 0000113D 0F 84 0000055C                  	JE	L311
  1923 00001143                                 L367:
  1924 00001143 8B 55 0C                        	MOV	EDX,DWORD [12+EBP]
  1925 00001146 8B 8D FFFFF52C                  	MOV	ECX,DWORD [-2772+EBP]
  1926 0000114C 80 3C 11 2D                     	CMP	BYTE [ECX+EDX*1],45
  1927 00001150 0F 84 000002B7                  	JE	L386
  1928 00001156 83 3D [00000004] 00             	CMP	DWORD [_setfdata],0
  1929 0000115D 75 33                           	JNE	L338
  1930 0000115F 80 BD FFFFF52B 08               	CMP	BYTE [-2773+EBP],8
  1931 00001166 74 2A                           	JE	L338
  1932 00001168 68 [00000269]                   	PUSH	LC73
  1933 0000116D                                 L385:
  1934 0000116D 8D 9D FFFFFB84                  	LEA	EBX,DWORD [-1148+EBP]
  1935 00001173 53                              	PUSH	EBX
  1936 00001174 E8 [00000000]                   	CALL	_sprintf
  1937 00001179                                 L376:
  1938 00001179 53                              	PUSH	EBX
  1939 0000117A FF 75 08                        	PUSH	DWORD [8+EBP]
  1940 0000117D E8 FFFFF5E3                     	CALL	_cons_putstr
  1941 00001182 FF 75 08                        	PUSH	DWORD [8+EBP]
  1942 00001185 E8 FFFFF4B6                     	CALL	_cons_newline
  1943 0000118A                                 L307:
  1944 0000118A 8D 65 F4                        	LEA	ESP,DWORD [-12+EBP]
  1945 0000118D 5B                              	POP	EBX
  1946 0000118E 5E                              	POP	ESI
  1947 0000118F 5F                              	POP	EDI
  1948 00001190 5D                              	POP	EBP
  1949 00001191 C3                              	RET
  1950 00001192                                 L338:
  1951 00001192 8B 4D 0C                        	MOV	ECX,DWORD [12+EBP]
  1952 00001195 8B 85 FFFFF52C                  	MOV	EAX,DWORD [-2772+EBP]
  1953 0000119B 31 DB                           	XOR	EBX,EBX
  1954 0000119D 80 3C 08 00                     	CMP	BYTE [EAX+ECX*1],0
  1955 000011A1 74 2A                           	JE	L370
  1956 000011A3                                 L344:
  1957 000011A3 83 FB 2F                        	CMP	EBX,47
  1958 000011A6 0F 8F 00000257                  	JG	L374
  1959 000011AC 8B 8D FFFFF52C                  	MOV	ECX,DWORD [-2772+EBP]
  1960 000011B2 8B 55 0C                        	MOV	EDX,DWORD [12+EBP]
  1961 000011B5 8A 04 11                        	MOV	AL,BYTE [ECX+EDX*1]
  1962 000011B8 41                              	INC	ECX
  1963 000011B9 88 84 1D FFFFFB34               	MOV	BYTE [-1228+EBP+EBX*1],AL
  1964 000011C0 89 8D FFFFF52C                  	MOV	DWORD [-2772+EBP],ECX
  1965 000011C6 43                              	INC	EBX
  1966 000011C7 80 3C 11 00                     	CMP	BYTE [ECX+EDX*1],0
  1967 000011CB 75 D6                           	JNE	L344
  1968 000011CD                                 L370:
  1969 000011CD C6 84 1D FFFFFB34 00            	MOV	BYTE [-1228+EBP+EBX*1],0
  1970 000011D5 80 BD FFFFF52B 00               	CMP	BYTE [-2773+EBP],0
  1971 000011DC 0F 84 000001D4                  	JE	L346
  1972 000011E2 80 BD FFFFF52B 04               	CMP	BYTE [-2773+EBP],4
  1973 000011E9 0F 84 000001C7                  	JE	L346
  1974 000011EF 80 BD FFFFF52B 01               	CMP	BYTE [-2773+EBP],1
  1975 000011F6 0F 84 0000017C                  	JE	L387
  1976 000011FC 80 BD FFFFF52B 02               	CMP	BYTE [-2773+EBP],2
  1977 00001203 0F 84 000000E3                  	JE	L388
  1978 00001209 80 BD FFFFF52B 08               	CMP	BYTE [-2773+EBP],8
  1979 00001210 74 57                           	JE	L389
  1980 00001212 68 [00000295]                   	PUSH	LC81
  1981 00001217 E8 FFFFEDE4                     	CALL	_debug_print
  1982 0000121C 5F                              	POP	EDI
  1983 0000121D                                 L347:
  1984 0000121D FF 35 [00000004]                	PUSH	DWORD [_setfdata]
  1985 00001223 8D 9D FFFFF934                  	LEA	EBX,DWORD [-1740+EBP]
  1986 00001229 53                              	PUSH	EBX
  1987 0000122A E8 [00000000]                   	CALL	_myfread
  1988 0000122F 53                              	PUSH	EBX
  1989 00001230 68 [000002B5]                   	PUSH	LC82
  1990 00001235 8D 9D FFFFFB84                  	LEA	EBX,DWORD [-1148+EBP]
  1991 0000123B 53                              	PUSH	EBX
  1992 0000123C E8 [00000000]                   	CALL	_sprintf
  1993 00001241 53                              	PUSH	EBX
  1994 00001242 FF 75 08                        	PUSH	DWORD [8+EBP]
  1995 00001245 E8 FFFFF51B                     	CALL	_cons_putstr
  1996 0000124A FF 35 [00000004]                	PUSH	DWORD [_setfdata]
  1997 00001250 E8 [00000000]                   	CALL	_get_size_myfdata
  1998 00001255 83 C4 20                        	ADD	ESP,32
  1999 00001258                                 L379:
  2000 00001258 50                              	PUSH	EAX
  2001 00001259 68 [000002CB]                   	PUSH	LC65
  2002 0000125E 53                              	PUSH	EBX
  2003 0000125F E8 [00000000]                   	CALL	_sprintf
  2004 00001264 E9 FFFFFF10                     	JMP	L376
  2005 00001269                                 L389:
  2006 00001269 83 3D [00000004] 00             	CMP	DWORD [_setfdata],0
  2007 00001270 74 0A                           	JE	L362
  2008 00001272 68 [000002DB]                   	PUSH	LC78
  2009 00001277 E9 FFFFFEF1                     	JMP	L385
  2010 0000127C                                 L362:
  2011 0000127C FF B5 FFFFF530                  	PUSH	DWORD [-2768+EBP]
  2012 00001282 8D 9D FFFFFB34                  	LEA	EBX,DWORD [-1228+EBP]
  2013 00001288 53                              	PUSH	EBX
  2014 00001289 E8 [00000000]                   	CALL	_myfopen
  2015 0000128E 89 C6                           	MOV	ESI,EAX
  2016 00001290 58                              	POP	EAX
  2017 00001291 5A                              	POP	EDX
  2018 00001292 85 F6                           	TEST	ESI,ESI
  2019 00001294 74 31                           	JE	L390
  2020 00001296 53                              	PUSH	EBX
  2021 00001297 8D 9D FFFFFB84                  	LEA	EBX,DWORD [-1148+EBP]
  2022 0000129D 68 [00000306]                   	PUSH	LC80
  2023 000012A2 53                              	PUSH	EBX
  2024 000012A3 E8 [00000000]                   	CALL	_sprintf
  2025 000012A8 53                              	PUSH	EBX
  2026 000012A9 FF 75 08                        	PUSH	DWORD [8+EBP]
  2027 000012AC E8 FFFFF4B4                     	CALL	_cons_putstr
  2028 000012B1 FF 75 08                        	PUSH	DWORD [8+EBP]
  2029 000012B4 E8 FFFFF387                     	CALL	_cons_newline
  2030 000012B9 89 35 [00000004]                	MOV	DWORD [_setfdata],ESI
  2031 000012BF                                 L377:
  2032 000012BF 83 C4 18                        	ADD	ESP,24
  2033 000012C2 E9 FFFFFEC3                     	JMP	L307
  2034 000012C7                                 L390:
  2035 000012C7 53                              	PUSH	EBX
  2036 000012C8 8D 9D FFFFFB84                  	LEA	EBX,DWORD [-1148+EBP]
  2037 000012CE 68 [00000319]                   	PUSH	LC79
  2038 000012D3 53                              	PUSH	EBX
  2039 000012D4 E8 [00000000]                   	CALL	_sprintf
  2040 000012D9 53                              	PUSH	EBX
  2041 000012DA FF 75 08                        	PUSH	DWORD [8+EBP]
  2042 000012DD E8 FFFFF483                     	CALL	_cons_putstr
  2043 000012E2 FF 75 08                        	PUSH	DWORD [8+EBP]
  2044 000012E5 E8 FFFFF356                     	CALL	_cons_newline
  2045 000012EA EB D3                           	JMP	L377
  2046 000012EC                                 L388:
  2047 000012EC FF 35 [00000004]                	PUSH	DWORD [_setfdata]
  2048 000012F2 8D 85 FFFFF534                  	LEA	EAX,DWORD [-2764+EBP]
  2049 000012F8 31 F6                           	XOR	ESI,ESI
  2050 000012FA 50                              	PUSH	EAX
  2051 000012FB E8 [00000000]                   	CALL	_myfread
  2052 00001300 59                              	POP	ECX
  2053 00001301 31 C0                           	XOR	EAX,EAX
  2054 00001303 5F                              	POP	EDI
  2055 00001304 39 D8                           	CMP	EAX,EBX
  2056 00001306 7D 18                           	JGE	L372
  2057 00001308                                 L358:
  2058 00001308 8A 94 05 FFFFFB34               	MOV	DL,BYTE [-1228+EBP+EAX*1]
  2059 0000130F 80 FA 20                        	CMP	DL,32
  2060 00001312 74 4B                           	JE	L355
  2061 00001314 88 94 05 FFFFF534               	MOV	BYTE [-2764+EBP+EAX*1],DL
  2062 0000131B                                 L353:
  2063 0000131B 40                              	INC	EAX
  2064 0000131C 39 D8                           	CMP	EAX,EBX
  2065 0000131E 7C E8                           	JL	L358
  2066 00001320                                 L372:
  2067 00001320 4E                              	DEC	ESI
  2068 00001321 74 32                           	JE	L391
  2069 00001323                                 L359:
  2070 00001323 8D B5 FFFFF534                  	LEA	ESI,DWORD [-2764+EBP]
  2071 00001329 8D 9D FFFFFB84                  	LEA	EBX,DWORD [-1148+EBP]
  2072 0000132F 56                              	PUSH	ESI
  2073 00001330 68 [0000032B]                   	PUSH	LC77
  2074 00001335 53                              	PUSH	EBX
  2075 00001336 E8 [00000000]                   	CALL	_sprintf
  2076 0000133B 53                              	PUSH	EBX
  2077 0000133C E8 FFFFECBF                     	CALL	_debug_print
  2078 00001341 56                              	PUSH	ESI
  2079 00001342 FF 35 [00000004]                	PUSH	DWORD [_setfdata]
  2080 00001348 E8 [00000000]                   	CALL	_myfwrite
  2081 0000134D 83 C4 18                        	ADD	ESP,24
  2082 00001350 E9 FFFFFEC8                     	JMP	L347
  2083 00001355                                 L391:
  2084 00001355 C6 84 05 FFFFF534 00            	MOV	BYTE [-2764+EBP+EAX*1],0
  2085 0000135D EB C4                           	JMP	L359
  2086 0000135F                                 L355:
  2087 0000135F 80 BC 05 FFFFF534 00            	CMP	BYTE [-2764+EBP+EAX*1],0
  2088 00001367 75 B2                           	JNE	L353
  2089 00001369 C6 84 05 FFFFF534 20            	MOV	BYTE [-2764+EBP+EAX*1],32
  2090 00001371 BE 00000001                     	MOV	ESI,1
  2091 00001376 EB A3                           	JMP	L353
  2092 00001378                                 L387:
  2093 00001378 FF 35 [00000004]                	PUSH	DWORD [_setfdata]
  2094 0000137E 8D 9D FFFFF534                  	LEA	EBX,DWORD [-2764+EBP]
  2095 00001384 53                              	PUSH	EBX
  2096 00001385 E8 [00000000]                   	CALL	_myfread
  2097 0000138A 68 [00000059]                   	PUSH	LC12
  2098 0000138F 53                              	PUSH	EBX
  2099 00001390 E8 [00000000]                   	CALL	_sprintf
  2100 00001395 8D 85 FFFFFB34                  	LEA	EAX,DWORD [-1228+EBP]
  2101 0000139B 50                              	PUSH	EAX
  2102 0000139C 53                              	PUSH	EBX
  2103 0000139D E8 [00000000]                   	CALL	_strcat
  2104 000013A2 53                              	PUSH	EBX
  2105 000013A3 FF 35 [00000004]                	PUSH	DWORD [_setfdata]
  2106 000013A9 E8 [00000000]                   	CALL	_myfwrite
  2107 000013AE 83 C4 20                        	ADD	ESP,32
  2108 000013B1 E9 FFFFFE67                     	JMP	L347
  2109 000013B6                                 L346:
  2110 000013B6 FF 35 [00000004]                	PUSH	DWORD [_setfdata]
  2111 000013BC 8D 9D FFFFFB84                  	LEA	EBX,DWORD [-1148+EBP]
  2112 000013C2 53                              	PUSH	EBX
  2113 000013C3 E8 [00000000]                   	CALL	_myfread
  2114 000013C8 8D 85 FFFFFB34                  	LEA	EAX,DWORD [-1228+EBP]
  2115 000013CE 50                              	PUSH	EAX
  2116 000013CF 53                              	PUSH	EBX
  2117 000013D0 E8 [00000000]                   	CALL	_strcat
  2118 000013D5 68 [00000340]                   	PUSH	LC75
  2119 000013DA E8 FFFFEC21                     	CALL	_debug_print
  2120 000013DF 53                              	PUSH	EBX
  2121 000013E0 E8 FFFFEC1B                     	CALL	_debug_print
  2122 000013E5 68 [0000036B]                   	PUSH	LC76
  2123 000013EA E8 FFFFEC11                     	CALL	_debug_print
  2124 000013EF 53                              	PUSH	EBX
  2125 000013F0 FF 35 [00000004]                	PUSH	DWORD [_setfdata]
  2126 000013F6 E8 [00000000]                   	CALL	_myfwrite
  2127 000013FB 83 C4 24                        	ADD	ESP,36
  2128 000013FE E9 FFFFFE1A                     	JMP	L347
  2129 00001403                                 L374:
  2130 00001403 68 [0000036D]                   	PUSH	LC74
  2131 00001408 E9 FFFFFD60                     	JMP	L385
  2132 0000140D                                 L386:
  2133 0000140D 41                              	INC	ECX
  2134 0000140E 31 DB                           	XOR	EBX,EBX
  2135 00001410 89 8D FFFFF52C                  	MOV	DWORD [-2772+EBP],ECX
  2136 00001416 8A 04 11                        	MOV	AL,BYTE [ECX+EDX*1]
  2137 00001419 3C 20                           	CMP	AL,32
  2138 0000141B 74 33                           	JE	L314
  2139 0000141D 84 C0                           	TEST	AL,AL
  2140 0000141F 74 2F                           	JE	L314
  2141 00001421                                 L318:
  2142 00001421 83 FB 09                        	CMP	EBX,9
  2143 00001424 0F 8F 0000026B                  	JG	L373
  2144 0000142A 8B 8D FFFFF52C                  	MOV	ECX,DWORD [-2772+EBP]
  2145 00001430 8B 55 0C                        	MOV	EDX,DWORD [12+EBP]
  2146 00001433 8A 04 11                        	MOV	AL,BYTE [ECX+EDX*1]
  2147 00001436 41                              	INC	ECX
  2148 00001437 88 84 1D FFFFFB74               	MOV	BYTE [-1164+EBP+EBX*1],AL
  2149 0000143E 89 8D FFFFF52C                  	MOV	DWORD [-2772+EBP],ECX
  2150 00001444 8A 04 11                        	MOV	AL,BYTE [ECX+EDX*1]
  2151 00001447 43                              	INC	EBX
  2152 00001448 3C 20                           	CMP	AL,32
  2153 0000144A 74 04                           	JE	L314
  2154 0000144C 84 C0                           	TEST	AL,AL
  2155 0000144E 75 D1                           	JNE	L318
  2156 00001450                                 L314:
  2157 00001450 FC                              	CLD
  2158 00001451 C6 84 1D FFFFFB74 00            	MOV	BYTE [-1164+EBP+EBX*1],0
  2159 00001459 8D B5 FFFFFB74                  	LEA	ESI,DWORD [-1164+EBP]
  2160 0000145F BF [00000384]                   	MOV	EDI,LC53
  2161 00001464 B9 00000005                     	MOV	ECX,5
  2162 00001469 F3                              	REPE
  2163 0000146A A6                              	CMPSB
  2164 0000146B 0F 84 0000020D                  	JE	L392
  2165 00001471                                 L319:
  2166 00001471 83 3D [00000004] 00             	CMP	DWORD [_setfdata],0
  2167 00001478 75 13                           	JNE	L320
  2168 0000147A 80 BD FFFFF52B 08               	CMP	BYTE [-2773+EBP],8
  2169 00001481 74 0A                           	JE	L320
  2170 00001483 68 [00000389]                   	PUSH	LC55
  2171 00001488 E9 FFFFFCE0                     	JMP	L385
  2172 0000148D                                 L320:
  2173 0000148D FC                              	CLD
  2174 0000148E 8D B5 FFFFFB74                  	LEA	ESI,DWORD [-1164+EBP]
  2175 00001494 BF [00000070]                   	MOV	EDI,LC18
  2176 00001499 B9 00000004                     	MOV	ECX,4
  2177 0000149E F3                              	REPE
  2178 0000149F A6                              	CMPSB
  2179 000014A0 0F 84 000001AF                  	JE	L393
  2180 000014A6 FC                              	CLD
  2181 000014A7 8D B5 FFFFFB74                  	LEA	ESI,DWORD [-1164+EBP]
  2182 000014AD BF [000003B5]                   	MOV	EDI,LC57
  2183 000014B2 B9 00000004                     	MOV	ECX,4
  2184 000014B7 F3                              	REPE
  2185 000014B8 A6                              	CMPSB
  2186 000014B9 0F 84 00000183                  	JE	L394
  2187 000014BF FC                              	CLD
  2188 000014C0 8D B5 FFFFFB74                  	LEA	ESI,DWORD [-1164+EBP]
  2189 000014C6 BF [000003B9]                   	MOV	EDI,LC59
  2190 000014CB B9 00000004                     	MOV	ECX,4
  2191 000014D0 F3                              	REPE
  2192 000014D1 A6                              	CMPSB
  2193 000014D2 0F 84 00000153                  	JE	L395
  2194 000014D8 FC                              	CLD
  2195 000014D9 8D B5 FFFFFB74                  	LEA	ESI,DWORD [-1164+EBP]
  2196 000014DF BF [000003BD]                   	MOV	EDI,LC61
  2197 000014E4 B9 00000005                     	MOV	ECX,5
  2198 000014E9 F3                              	REPE
  2199 000014EA A6                              	CMPSB
  2200 000014EB 0F 84 000000D5                  	JE	L396
  2201 000014F1 FC                              	CLD
  2202 000014F2 8D B5 FFFFFB74                  	LEA	ESI,DWORD [-1164+EBP]
  2203 000014F8 BF [000003C2]                   	MOV	EDI,LC66
  2204 000014FD B9 00000006                     	MOV	ECX,6
  2205 00001502 F3                              	REPE
  2206 00001503 A6                              	CMPSB
  2207 00001504 0F 84 00000093                  	JE	L397
  2208 0000150A FC                              	CLD
  2209 0000150B 8D B5 FFFFFB74                  	LEA	ESI,DWORD [-1164+EBP]
  2210 00001511 BF [000003C8]                   	MOV	EDI,LC69
  2211 00001516 B9 00000005                     	MOV	ECX,5
  2212 0000151B F3                              	REPE
  2213 0000151C A6                              	CMPSB
  2214 0000151D 74 3E                           	JE	L398
  2215 0000151F FC                              	CLD
  2216 00001520 8D B5 FFFFFB74                  	LEA	ESI,DWORD [-1164+EBP]
  2217 00001526 BF [00000384]                   	MOV	EDI,LC53
  2218 0000152B B9 00000005                     	MOV	ECX,5
  2219 00001530 F3                              	REPE
  2220 00001531 A6                              	CMPSB
  2221 00001532 75 1F                           	JNE	L399
  2222 00001534                                 L322:
  2223 00001534 8B 45 0C                        	MOV	EAX,DWORD [12+EBP]
  2224 00001537 8B 95 FFFFF52C                  	MOV	EDX,DWORD [-2772+EBP]
  2225 0000153D 80 3C 02 20                     	CMP	BYTE [EDX+EAX*1],32
  2226 00001541 0F 85 FFFFFC4B                  	JNE	L338
  2227 00001547 42                              	INC	EDX
  2228 00001548 89 95 FFFFF52C                  	MOV	DWORD [-2772+EBP],EDX
  2229 0000154E E9 FFFFFC3F                     	JMP	L338
  2230 00001553                                 L399:
  2231 00001553 68 [000003CD]                   	PUSH	LC72
  2232 00001558 E9 FFFFFC10                     	JMP	L385
  2233 0000155D                                 L398:
  2234 0000155D FF 35 [00000004]                	PUSH	DWORD [_setfdata]
  2235 00001563 E8 [00000000]                   	CALL	_myfsave
  2236 00001568 5A                              	POP	EDX
  2237 00001569 40                              	INC	EAX
  2238 0000156A 74 0A                           	JE	L400
  2239 0000156C 68 [000003DE]                   	PUSH	LC71
  2240 00001571 E9 FFFFFBF7                     	JMP	L385
  2241 00001576                                 L400:
  2242 00001576 68 [000003FC]                   	PUSH	LC70
  2243 0000157B 8D 9D FFFFFB84                  	LEA	EBX,DWORD [-1148+EBP]
  2244 00001581 53                              	PUSH	EBX
  2245 00001582 E8 [00000000]                   	CALL	_sprintf
  2246 00001587 53                              	PUSH	EBX
  2247 00001588 FF 75 08                        	PUSH	DWORD [8+EBP]
  2248 0000158B E8 FFFFF1D5                     	CALL	_cons_putstr
  2249 00001590 FF 75 08                        	PUSH	DWORD [8+EBP]
  2250 00001593 E8 FFFFF0A8                     	CALL	_cons_newline
  2251 00001598 83 C4 14                        	ADD	ESP,20
  2252 0000159B EB 97                           	JMP	L322
  2253 0000159D                                 L397:
  2254 0000159D 68 [0000043A]                   	PUSH	LC67
  2255 000015A2 E8 FFFFEA59                     	CALL	_debug_print
  2256 000015A7 FF 35 [00000004]                	PUSH	DWORD [_setfdata]
  2257 000015AD E8 [00000000]                   	CALL	_myfclose
  2258 000015B2 68 [0000044B]                   	PUSH	LC68
  2259 000015B7 C7 05 [00000004] 00000000       	MOV	DWORD [_setfdata],0
  2260 000015C1 E9 FFFFFBA7                     	JMP	L385
  2261 000015C6                                 L396:
  2262 000015C6 68 [00000464]                   	PUSH	LC62
  2263 000015CB 8D B5 FFFFF934                  	LEA	ESI,DWORD [-1740+EBP]
  2264 000015D1 8D 9D FFFFFB84                  	LEA	EBX,DWORD [-1148+EBP]
  2265 000015D7 E8 FFFFEA24                     	CALL	_debug_print
  2266 000015DC FF 35 [00000004]                	PUSH	DWORD [_setfdata]
  2267 000015E2 56                              	PUSH	ESI
  2268 000015E3 E8 [00000000]                   	CALL	_myfread
  2269 000015E8 A1 [00000004]                   	MOV	EAX,DWORD [_setfdata]
  2270 000015ED 0F B6 00                        	MOVZX	EAX,BYTE [EAX]
  2271 000015F0 50                              	PUSH	EAX
  2272 000015F1 68 [00000474]                   	PUSH	LC63
  2273 000015F6 53                              	PUSH	EBX
  2274 000015F7 E8 [00000000]                   	CALL	_sprintf
  2275 000015FC 53                              	PUSH	EBX
  2276 000015FD E8 FFFFE9FE                     	CALL	_debug_print
  2277 00001602 56                              	PUSH	ESI
  2278 00001603 68 [00000490]                   	PUSH	LC64
  2279 00001608 53                              	PUSH	EBX
  2280 00001609 E8 [00000000]                   	CALL	_sprintf
  2281 0000160E 83 C4 28                        	ADD	ESP,40
  2282 00001611 53                              	PUSH	EBX
  2283 00001612 FF 75 08                        	PUSH	DWORD [8+EBP]
  2284 00001615 E8 FFFFF14B                     	CALL	_cons_putstr
  2285 0000161A FF 35 [00000004]                	PUSH	DWORD [_setfdata]
  2286 00001620 E8 [00000000]                   	CALL	_get_size_myfdata
  2287 00001625 59                              	POP	ECX
  2288 00001626 E9 FFFFFC2D                     	JMP	L379
  2289 0000162B                                 L395:
  2290 0000162B 68 [00000499]                   	PUSH	LC60
  2291 00001630 E8 FFFFE9CB                     	CALL	_debug_print
  2292 00001635 C6 85 FFFFF52B 04               	MOV	BYTE [-2773+EBP],4
  2293 0000163C                                 L375:
  2294 0000163C 5B                              	POP	EBX
  2295 0000163D E9 FFFFFEF2                     	JMP	L322
  2296 00001642                                 L394:
  2297 00001642 68 [000004A8]                   	PUSH	LC58
  2298 00001647 E8 FFFFE9B4                     	CALL	_debug_print
  2299 0000164C C6 85 FFFFF52B 02               	MOV	BYTE [-2773+EBP],2
  2300 00001653 EB E7                           	JMP	L375
  2301 00001655                                 L393:
  2302 00001655 68 [000004BA]                   	PUSH	LC56
  2303 0000165A E8 FFFFE9A1                     	CALL	_debug_print
  2304 0000165F 68 [00000059]                   	PUSH	LC12
  2305 00001664 FF 35 [00000004]                	PUSH	DWORD [_setfdata]
  2306 0000166A C6 85 FFFFF52B 01               	MOV	BYTE [-2773+EBP],1
  2307 00001671 E8 [00000000]                   	CALL	_myfwrite
  2308 00001676 83 C4 0C                        	ADD	ESP,12
  2309 00001679 E9 FFFFFEB6                     	JMP	L322
  2310 0000167E                                 L392:
  2311 0000167E 68 [000004CB]                   	PUSH	LC54
  2312 00001683 E8 FFFFE978                     	CALL	_debug_print
  2313 00001688 5E                              	POP	ESI
  2314 00001689 C6 85 FFFFF52B 08               	MOV	BYTE [-2773+EBP],8
  2315 00001690 E9 FFFFFDDC                     	JMP	L319
  2316 00001695                                 L373:
  2317 00001695 68 [000004DB]                   	PUSH	LC52
  2318 0000169A E9 FFFFFACE                     	JMP	L385
  2319 0000169F                                 L311:
  2320 0000169F 8B 4D 0C                        	MOV	ECX,DWORD [12+EBP]
  2321 000016A2 FF 85 FFFFF52C                  	INC	DWORD [-2772+EBP]
  2322 000016A8 8B 85 FFFFF52C                  	MOV	EAX,DWORD [-2772+EBP]
  2323 000016AE 80 3C 08 20                     	CMP	BYTE [EAX+ECX*1],32
  2324 000016B2 74 EB                           	JE	L311
  2325 000016B4 E9 FFFFFA8A                     	JMP	L367
  2326                                          [SECTION .data]
  2327 000004F0                                 LC83:
  2328 000004F0 64 69 72 65 63 74 6F 72 79 20   	DB	"directory name shoule be within 8 letters.",0x0A,0x00
       000004FA 6E 61 6D 65 20 73 68 6F 75 6C 
       00000504 65 20 62 65 20 77 69 74 68 69 
       0000050E 6E 20 38 20 6C 65 74 74 65 72 
       00000518 73 2E 0A 00 
  2329 0000051C                                 LC84:
  2330 0000051C 74 68 69 73 20 64 69 72 65 63   	DB	"this directory name is already used, please use other name.",0x0A,0x00
       00000526 74 6F 72 79 20 6E 61 6D 65 20 
       00000530 69 73 20 61 6C 72 65 61 64 79 
       0000053A 20 75 73 65 64 2C 20 70 6C 65 
       00000544 61 73 65 20 75 73 65 20 6F 74 
       0000054E 68 65 72 20 6E 61 6D 65 2E 0A 
       00000558 00 
  2331 00000559                                 LC85:
  2332 00000559 09 6E 61 6D 65 20 3D 20 25 73   	DB	0x09,"name = %s",0x0A,0x09,"ext = %s",0x0A,0x09,"type = 0x%02x",0x0A,0x00
       00000563 0A 09 65 78 74 20 3D 20 25 73 
       0000056D 0A 09 74 79 70 65 20 3D 20 30 
       00000577 78 25 30 32 78 0A 00 
  2333 0000057E                                 LC86:
  2334 0000057E 63 72 65 61 74 65 64 20 64 69   	DB	"created directory: name = %s",0x0A,0x00
       00000588 72 65 63 74 6F 72 79 3A 20 6E 
       00000592 61 6D 65 20 3D 20 25 73 0A 00 
  2335 0000059C                                 LC87:
  2336 0000059C 09 63 68 69 6C 64 20 64 69 72   	DB	0x09,"child dir address = 0x%08x",0x0A,0x00
       000005A6 20 61 64 64 72 65 73 73 20 3D 
       000005B0 20 30 78 25 30 38 78 0A 00 
  2337 000005B9                                 LC88:
  2338 000005B9 09 74 79 70 65 3D 30 78 25 30   	DB	0x09,"type=0x%02x",0x0A,0x00
       000005C3 32 78 0A 00 
  2339 000005C7                                 LC89:
  2340 000005C7 09 63 68 69 6C 64 20 64 69 6E   	DB	0x09,"child dinfo addr = 0x%08x",0x0A,0x00
       000005D1 66 6F 20 61 64 64 72 20 3D 20 
       000005DB 30 78 25 30 38 78 0A 00 
  2341 000005E3                                 LC90:
  2342 000005E3 09 63 68 69 6C 64 20 64 69 6E   	DB	0x09,"child dinfo name = %s",0x0A,0x00
       000005ED 66 6F 20 6E 61 6D 65 20 3D 20 
       000005F7 25 73 0A 00 
  2343 000005FB                                 LC91:
  2344 000005FB 09 63 68 69 6C 64 20 64 69 6E   	DB	0x09,"child dinfo parent addr = 0x%08x",0x0A,0x00
       00000605 66 6F 20 70 61 72 65 6E 74 20 
       0000060F 61 64 64 72 20 3D 20 30 78 25 
       00000619 30 38 78 0A 00 
  2345                                          [SECTION .text]
  2346 000016B9                                 	GLOBAL	_cmd_mkdir
  2347 000016B9                                 _cmd_mkdir:
  2348 000016B9 55                              	PUSH	EBP
  2349 000016BA 89 E5                           	MOV	EBP,ESP
  2350 000016BC 57                              	PUSH	EDI
  2351 000016BD 56                              	PUSH	ESI
  2352 000016BE 53                              	PUSH	EBX
  2353 000016BF 31 DB                           	XOR	EBX,EBX
  2354 000016C1 83 EC 48                        	SUB	ESP,72
  2355 000016C4 8B 45 0C                        	MOV	EAX,DWORD [12+EBP]
  2356 000016C7 8B 55 08                        	MOV	EDX,DWORD [8+EBP]
  2357 000016CA 8D 70 06                        	LEA	ESI,DWORD [6+EAX]
  2358 000016CD 8B 52 14                        	MOV	EDX,DWORD [20+EDX]
  2359 000016D0 89 55 AC                        	MOV	DWORD [-84+EBP],EDX
  2360 000016D3 89 75 B0                        	MOV	DWORD [-80+EBP],ESI
  2361 000016D6 80 78 06 00                     	CMP	BYTE [6+EAX],0
  2362 000016DA 74 0A                           	JE	L428
  2363 000016DC                                 L406:
  2364 000016DC 43                              	INC	EBX
  2365 000016DD 8B 45 B0                        	MOV	EAX,DWORD [-80+EBP]
  2366 000016E0 80 3C 03 00                     	CMP	BYTE [EBX+EAX*1],0
  2367 000016E4 75 F6                           	JNE	L406
  2368 000016E6                                 L428:
  2369 000016E6 83 FB 08                        	CMP	EBX,8
  2370 000016E9 7E 27                           	JLE	L407
  2371 000016EB 68 [000004F0]                   	PUSH	LC83
  2372 000016F0 8D 5D B4                        	LEA	EBX,DWORD [-76+EBP]
  2373 000016F3 53                              	PUSH	EBX
  2374 000016F4 E8 [00000000]                   	CALL	_sprintf
  2375 000016F9 53                              	PUSH	EBX
  2376 000016FA FF 75 08                        	PUSH	DWORD [8+EBP]
  2377 000016FD E8 FFFFF063                     	CALL	_cons_putstr
  2378 00001702                                 L435:
  2379 00001702 FF 75 08                        	PUSH	DWORD [8+EBP]
  2380 00001705 E8 FFFFEF36                     	CALL	_cons_newline
  2381 0000170A 8D 65 F4                        	LEA	ESP,DWORD [-12+EBP]
  2382 0000170D 5B                              	POP	EBX
  2383 0000170E 5E                              	POP	ESI
  2384 0000170F 5F                              	POP	EDI
  2385 00001710 5D                              	POP	EBP
  2386 00001711 C3                              	RET
  2387 00001712                                 L407:
  2388 00001712 6A 32                           	PUSH	50
  2389 00001714 FF 75 AC                        	PUSH	DWORD [-84+EBP]
  2390 00001717 FF 75 B0                        	PUSH	DWORD [-80+EBP]
  2391 0000171A E8 [00000000]                   	CALL	_myfinfo_search
  2392 0000171F 83 C4 0C                        	ADD	ESP,12
  2393 00001722 89 C6                           	MOV	ESI,EAX
  2394 00001724 85 C0                           	TEST	EAX,EAX
  2395 00001726 74 37                           	JE	L408
  2396 00001728 68 [0000051C]                   	PUSH	LC84
  2397 0000172D 8D 5D B4                        	LEA	EBX,DWORD [-76+EBP]
  2398 00001730 53                              	PUSH	EBX
  2399 00001731 E8 [00000000]                   	CALL	_sprintf
  2400 00001736 53                              	PUSH	EBX
  2401 00001737 FF 75 08                        	PUSH	DWORD [8+EBP]
  2402 0000173A E8 FFFFF026                     	CALL	_cons_putstr
  2403 0000173F 0F B6 46 0B                     	MOVZX	EAX,BYTE [11+ESI]
  2404 00001743 50                              	PUSH	EAX
  2405 00001744 8D 46 08                        	LEA	EAX,DWORD [8+ESI]
  2406 00001747 50                              	PUSH	EAX
  2407 00001748 56                              	PUSH	ESI
  2408 00001749 68 [00000559]                   	PUSH	LC85
  2409 0000174E 53                              	PUSH	EBX
  2410 0000174F E8 [00000000]                   	CALL	_sprintf
  2411 00001754 83 C4 24                        	ADD	ESP,36
  2412 00001757                                 L434:
  2413 00001757 53                              	PUSH	EBX
  2414 00001758 E8 FFFFE8A3                     	CALL	_debug_print
  2415 0000175D EB A3                           	JMP	L435
  2416 0000175F                                 L408:
  2417 0000175F 31 DB                           	XOR	EBX,EBX
  2418 00001761 8B 45 AC                        	MOV	EAX,DWORD [-84+EBP]
  2419 00001764                                 L415:
  2420 00001764 80 38 00                        	CMP	BYTE [EAX],0
  2421 00001767 74 09                           	JE	L411
  2422 00001769 43                              	INC	EBX
  2423 0000176A 83 C0 28                        	ADD	EAX,40
  2424 0000176D 83 FB 31                        	CMP	EBX,49
  2425 00001770 7E F2                           	JLE	L415
  2426 00001772                                 L411:
  2427 00001772 8B 55 B0                        	MOV	EDX,DWORD [-80+EBP]
  2428 00001775 31 C9                           	XOR	ECX,ECX
  2429 00001777 80 3A 00                        	CMP	BYTE [EDX],0
  2430 0000177A 74 29                           	JE	L431
  2431 0000177C                                 L421:
  2432 0000177C 8B 75 B0                        	MOV	ESI,DWORD [-80+EBP]
  2433 0000177F 8A 14 31                        	MOV	DL,BYTE [ECX+ESI*1]
  2434 00001782 8D 42 9F                        	LEA	EAX,DWORD [-97+EDX]
  2435 00001785 3C 19                           	CMP	AL,25
  2436 00001787 77 06                           	JA	L420
  2437 00001789 8D 42 E0                        	LEA	EAX,DWORD [-32+EDX]
  2438 0000178C 88 04 31                        	MOV	BYTE [ECX+ESI*1],AL
  2439 0000178F                                 L420:
  2440 0000178F 6B C3 28                        	IMUL	EAX,EBX,40
  2441 00001792 8B 75 B0                        	MOV	ESI,DWORD [-80+EBP]
  2442 00001795 03 45 AC                        	ADD	EAX,DWORD [-84+EBP]
  2443 00001798 8A 14 31                        	MOV	DL,BYTE [ECX+ESI*1]
  2444 0000179B 88 14 01                        	MOV	BYTE [ECX+EAX*1],DL
  2445 0000179E 41                              	INC	ECX
  2446 0000179F 80 3C 31 00                     	CMP	BYTE [ECX+ESI*1],0
  2447 000017A3 75 D7                           	JNE	L421
  2448 000017A5                                 L431:
  2449 000017A5 83 F9 07                        	CMP	ECX,7
  2450 000017A8 7F 10                           	JG	L433
  2451 000017AA                                 L426:
  2452 000017AA 6B C3 28                        	IMUL	EAX,EBX,40
  2453 000017AD 03 45 AC                        	ADD	EAX,DWORD [-84+EBP]
  2454 000017B0 C6 04 01 20                     	MOV	BYTE [ECX+EAX*1],32
  2455 000017B4 41                              	INC	ECX
  2456 000017B5 83 F9 07                        	CMP	ECX,7
  2457 000017B8 7E F0                           	JLE	L426
  2458 000017BA                                 L433:
  2459 000017BA 6B FB 28                        	IMUL	EDI,EBX,40
  2460 000017BD 8B 45 AC                        	MOV	EAX,DWORD [-84+EBP]
  2461 000017C0 8D 5D B4                        	LEA	EBX,DWORD [-76+EBP]
  2462 000017C3 8D 34 38                        	LEA	ESI,DWORD [EAX+EDI*1]
  2463 000017C6 E8 [00000000]                   	CALL	_get_newdinfo
  2464 000017CB 8B 55 AC                        	MOV	EDX,DWORD [-84+EBP]
  2465 000017CE 89 46 20                        	MOV	DWORD [32+ESI],EAX
  2466 000017D1 8D 46 10                        	LEA	EAX,DWORD [16+ESI]
  2467 000017D4 C6 44 3A 0B 10                  	MOV	BYTE [11+EDX+EDI*1],16
  2468 000017D9 C7 46 1C 00000028               	MOV	DWORD [28+ESI],40
  2469 000017E0 C7 46 24 00000000               	MOV	DWORD [36+ESI],0
  2470 000017E7 66 C7 40 0A 0000                	MOV	WORD [10+EAX],0
  2471 000017ED 66 C7 40 08 0000                	MOV	WORD [8+EAX],0
  2472 000017F3 56                              	PUSH	ESI
  2473 000017F4 68 [0000057E]                   	PUSH	LC86
  2474 000017F9 53                              	PUSH	EBX
  2475 000017FA E8 [00000000]                   	CALL	_sprintf
  2476 000017FF 53                              	PUSH	EBX
  2477 00001800 FF 75 08                        	PUSH	DWORD [8+EBP]
  2478 00001803 E8 FFFFEF5D                     	CALL	_cons_putstr
  2479 00001808 FF 76 20                        	PUSH	DWORD [32+ESI]
  2480 0000180B 68 [0000059C]                   	PUSH	LC87
  2481 00001810 53                              	PUSH	EBX
  2482 00001811 E8 [00000000]                   	CALL	_sprintf
  2483 00001816 83 C4 20                        	ADD	ESP,32
  2484 00001819 53                              	PUSH	EBX
  2485 0000181A E8 FFFFE7E1                     	CALL	_debug_print
  2486 0000181F 8B 55 AC                        	MOV	EDX,DWORD [-84+EBP]
  2487 00001822 0F B6 44 3A 0B                  	MOVZX	EAX,BYTE [11+EDX+EDI*1]
  2488 00001827 50                              	PUSH	EAX
  2489 00001828 68 [000005B9]                   	PUSH	LC88
  2490 0000182D 53                              	PUSH	EBX
  2491 0000182E E8 [00000000]                   	CALL	_sprintf
  2492 00001833 53                              	PUSH	EBX
  2493 00001834 E8 FFFFE7C7                     	CALL	_debug_print
  2494 00001839 8B 76 20                        	MOV	ESI,DWORD [32+ESI]
  2495 0000183C 89 B6 000007DC                  	MOV	DWORD [2012+ESI],ESI
  2496 00001842 8D BE 000007D0                  	LEA	EDI,DWORD [2000+ESI]
  2497 00001848 FF 75 B0                        	PUSH	DWORD [-80+EBP]
  2498 0000184B 57                              	PUSH	EDI
  2499 0000184C E8 [00000000]                   	CALL	_sprintf
  2500 00001851 8B 55 AC                        	MOV	EDX,DWORD [-84+EBP]
  2501 00001854 8B 82 000007DC                  	MOV	EAX,DWORD [2012+EDX]
  2502 0000185A 89 86 000007D8                  	MOV	DWORD [2008+ESI],EAX
  2503 00001860 FF B6 000007DC                  	PUSH	DWORD [2012+ESI]
  2504 00001866 68 [000005C7]                   	PUSH	LC89
  2505 0000186B 53                              	PUSH	EBX
  2506 0000186C E8 [00000000]                   	CALL	_sprintf
  2507 00001871 83 C4 28                        	ADD	ESP,40
  2508 00001874 53                              	PUSH	EBX
  2509 00001875 E8 FFFFE786                     	CALL	_debug_print
  2510 0000187A 57                              	PUSH	EDI
  2511 0000187B 68 [000005E3]                   	PUSH	LC90
  2512 00001880 53                              	PUSH	EBX
  2513 00001881 E8 [00000000]                   	CALL	_sprintf
  2514 00001886 53                              	PUSH	EBX
  2515 00001887 E8 FFFFE774                     	CALL	_debug_print
  2516 0000188C FF B6 000007D8                  	PUSH	DWORD [2008+ESI]
  2517 00001892 68 [000005FB]                   	PUSH	LC91
  2518 00001897 53                              	PUSH	EBX
  2519 00001898 E8 [00000000]                   	CALL	_sprintf
  2520 0000189D 83 C4 20                        	ADD	ESP,32
  2521 000018A0 E9 FFFFFEB2                     	JMP	L434
  2522                                          [SECTION .data]
  2523 0000061E                                 LC94:
  2524 0000061E 74 68 69 73 20 66 69 6C 65 20   	DB	"this file name is already used, please use other name.",0x0A,0x00
       00000628 6E 61 6D 65 20 69 73 20 61 6C 
       00000632 72 65 61 64 79 20 75 73 65 64 
       0000063C 2C 20 70 6C 65 61 73 65 20 75 
       00000646 73 65 20 6F 74 68 65 72 20 6E 
       00000650 61 6D 65 2E 0A 00 
  2525 00000656                                 LC95:
  2526 00000656 63 72 65 61 74 65 64 20 66 69   	DB	"created file name = %s[EOF]",0x0A,0x00
       00000660 6C 65 20 6E 61 6D 65 20 3D 20 
       0000066A 25 73 5B 45 4F 46 5D 0A 00 
  2527 00000673                                 LC96:
  2528 00000673 66 69 6C 65 20 6E 61 6D 65 20   	DB	"file name = %s",0x0A,0x00
       0000067D 3D 20 25 73 0A 00 
  2529 00000683                                 LC97:
  2530 00000683 66 69 6C 65 20 74 79 70 65 3D   	DB	"file type=0x%02x",0x0A,0x00
       0000068D 30 78 25 30 32 78 0A 00 
  2531 00000695                                 LC92:
  2532 00000695 66 69 6C 65 20 6E 61 6D 65 20   	DB	"file name should be within 8 letters,",0x0A,0x00
       0000069F 73 68 6F 75 6C 64 20 62 65 20 
       000006A9 77 69 74 68 69 6E 20 38 20 6C 
       000006B3 65 74 74 65 72 73 2C 0A 00 
  2533 000006BC                                 LC93:
  2534 000006BC 61 6E 64 20 65 78 74 65 6E 73   	DB	"and extension should be within 3 letters.",0x0A,0x00
       000006C6 69 6F 6E 20 73 68 6F 75 6C 64 
       000006D0 20 62 65 20 77 69 74 68 69 6E 
       000006DA 20 33 20 6C 65 74 74 65 72 73 
       000006E4 2E 0A 00 
  2535                                          [SECTION .text]
  2536 000018A5                                 	GLOBAL	_cmd_mkfile
  2537 000018A5                                 _cmd_mkfile:
  2538 000018A5 55                              	PUSH	EBP
  2539 000018A6 31 C9                           	XOR	ECX,ECX
  2540 000018A8 89 E5                           	MOV	EBP,ESP
  2541 000018AA 57                              	PUSH	EDI
  2542 000018AB 56                              	PUSH	ESI
  2543 000018AC 53                              	PUSH	EBX
  2544 000018AD 81 EC 00000454                  	SUB	ESP,1108
  2545 000018B3 8B 45 08                        	MOV	EAX,DWORD [8+EBP]
  2546 000018B6 8B 75 0C                        	MOV	ESI,DWORD [12+EBP]
  2547 000018B9 83 C6 07                        	ADD	ESI,7
  2548 000018BC 8B 78 14                        	MOV	EDI,DWORD [20+EAX]
  2549 000018BF                                 L441:
  2550 000018BF C6 44 0D A4 20                  	MOV	BYTE [-92+EBP+ECX*1],32
  2551 000018C4 41                              	INC	ECX
  2552 000018C5 83 F9 0A                        	CMP	ECX,10
  2553 000018C8 7E F5                           	JLE	L441
  2554 000018CA 31 C9                           	XOR	ECX,ECX
  2555 000018CC 31 DB                           	XOR	EBX,EBX
  2556 000018CE 80 3E 00                        	CMP	BYTE [ESI],0
  2557 000018D1 74 2F                           	JE	L471
  2558 000018D3                                 L450:
  2559 000018D3 83 F9 0A                        	CMP	ECX,10
  2560 000018D6 0F 8F 00000185                  	JG	L477
  2561 000018DC 8A 14 33                        	MOV	DL,BYTE [EBX+ESI*1]
  2562 000018DF 80 FA 2E                        	CMP	DL,46
  2563 000018E2 0F 84 00000166                  	JE	L479
  2564 000018E8                                 L447:
  2565 000018E8 8D 42 9F                        	LEA	EAX,DWORD [-97+EDX]
  2566 000018EB 88 54 0D A4                     	MOV	BYTE [-92+EBP+ECX*1],DL
  2567 000018EF 3C 19                           	CMP	AL,25
  2568 000018F1 77 07                           	JA	L449
  2569 000018F3 8D 42 E0                        	LEA	EAX,DWORD [-32+EDX]
  2570 000018F6 88 44 0D A4                     	MOV	BYTE [-92+EBP+ECX*1],AL
  2571 000018FA                                 L449:
  2572 000018FA 41                              	INC	ECX
  2573 000018FB                                 L444:
  2574 000018FB 43                              	INC	EBX
  2575 000018FC 80 3C 33 00                     	CMP	BYTE [EBX+ESI*1],0
  2576 00001900 75 D1                           	JNE	L450
  2577 00001902                                 L471:
  2578 00001902 6A 32                           	PUSH	50
  2579 00001904 8D 45 A4                        	LEA	EAX,DWORD [-92+EBP]
  2580 00001907 57                              	PUSH	EDI
  2581 00001908 50                              	PUSH	EAX
  2582 00001909 E8 [00000000]                   	CALL	_myfinfo_search
  2583 0000190E 83 C4 0C                        	ADD	ESP,12
  2584 00001911 89 C6                           	MOV	ESI,EAX
  2585 00001913 85 C0                           	TEST	EAX,EAX
  2586 00001915 74 50                           	JE	L451
  2587 00001917 68 [0000061E]                   	PUSH	LC94
  2588 0000191C 8D 5D B4                        	LEA	EBX,DWORD [-76+EBP]
  2589 0000191F 53                              	PUSH	EBX
  2590 00001920 E8 [00000000]                   	CALL	_sprintf
  2591 00001925 53                              	PUSH	EBX
  2592 00001926 FF 75 08                        	PUSH	DWORD [8+EBP]
  2593 00001929 E8 FFFFEE37                     	CALL	_cons_putstr
  2594 0000192E 0F B6 46 0B                     	MOVZX	EAX,BYTE [11+ESI]
  2595 00001932 50                              	PUSH	EAX
  2596 00001933 8D 46 08                        	LEA	EAX,DWORD [8+ESI]
  2597 00001936 50                              	PUSH	EAX
  2598 00001937 56                              	PUSH	ESI
  2599 00001938 68 [00000559]                   	PUSH	LC85
  2600 0000193D 53                              	PUSH	EBX
  2601 0000193E E8 [00000000]                   	CALL	_sprintf
  2602 00001943 83 C4 24                        	ADD	ESP,36
  2603 00001946 53                              	PUSH	EBX
  2604 00001947 FF 75 08                        	PUSH	DWORD [8+EBP]
  2605 0000194A E8 FFFFEE16                     	CALL	_cons_putstr
  2606 0000194F FF 75 08                        	PUSH	DWORD [8+EBP]
  2607 00001952 E8 FFFFECE9                     	CALL	_cons_newline
  2608 00001957                                 L478:
  2609 00001957 FF 75 08                        	PUSH	DWORD [8+EBP]
  2610 0000195A E8 FFFFECE1                     	CALL	_cons_newline
  2611 0000195F 8D 65 F4                        	LEA	ESP,DWORD [-12+EBP]
  2612 00001962 5B                              	POP	EBX
  2613 00001963 5E                              	POP	ESI
  2614 00001964 5F                              	POP	EDI
  2615 00001965 5D                              	POP	EBP
  2616 00001966 C3                              	RET
  2617 00001967                                 L451:
  2618 00001967 31 DB                           	XOR	EBX,EBX
  2619 00001969 89 F8                           	MOV	EAX,EDI
  2620 0000196B                                 L457:
  2621 0000196B 80 38 00                        	CMP	BYTE [EAX],0
  2622 0000196E 74 09                           	JE	L453
  2623 00001970 43                              	INC	EBX
  2624 00001971 83 C0 28                        	ADD	EAX,40
  2625 00001974 83 FB 31                        	CMP	EBX,49
  2626 00001977 7E F2                           	JLE	L457
  2627 00001979                                 L453:
  2628 00001979 31 C9                           	XOR	ECX,ECX
  2629 0000197B                                 L462:
  2630 0000197B 6B C3 28                        	IMUL	EAX,EBX,40
  2631 0000197E 01 F8                           	ADD	EAX,EDI
  2632 00001980 8A 54 0D A4                     	MOV	DL,BYTE [-92+EBP+ECX*1]
  2633 00001984 88 14 01                        	MOV	BYTE [ECX+EAX*1],DL
  2634 00001987 41                              	INC	ECX
  2635 00001988 83 F9 07                        	CMP	ECX,7
  2636 0000198B 7E EE                           	JLE	L462
  2637 0000198D 31 C9                           	XOR	ECX,ECX
  2638 0000198F                                 L467:
  2639 0000198F 6B D3 28                        	IMUL	EDX,EBX,40
  2640 00001992 89 D6                           	MOV	ESI,EDX
  2641 00001994 89 95 FFFFFBA0                  	MOV	DWORD [-1120+EBP],EDX
  2642 0000199A 01 FE                           	ADD	ESI,EDI
  2643 0000199C 8A 44 0D AC                     	MOV	AL,BYTE [-84+EBP+ECX*1]
  2644 000019A0 88 44 31 08                     	MOV	BYTE [8+ECX+ESI*1],AL
  2645 000019A4 41                              	INC	ECX
  2646 000019A5 83 F9 02                        	CMP	ECX,2
  2647 000019A8 7E E5                           	JLE	L467
  2648 000019AA 8D 46 10                        	LEA	EAX,DWORD [16+ESI]
  2649 000019AD 8D 5D B4                        	LEA	EBX,DWORD [-76+EBP]
  2650 000019B0 C6 44 17 0B 20                  	MOV	BYTE [11+EDI+EDX*1],32
  2651 000019B5 66 C7 40 0A 0000                	MOV	WORD [10+EAX],0
  2652 000019BB 66 C7 40 08 0000                	MOV	WORD [8+EAX],0
  2653 000019C1 C7 46 1C 00000000               	MOV	DWORD [28+ESI],0
  2654 000019C8 C6 85 FFFFFBA4 FF               	MOV	BYTE [-1116+EBP],-1
  2655 000019CF 8B 87 000007DC                  	MOV	EAX,DWORD [2012+EDI]
  2656 000019D5 89 85 FFFFFBB8                  	MOV	DWORD [-1096+EBP],EAX
  2657 000019DB 8D 85 FFFFFBA4                  	LEA	EAX,DWORD [-1116+EBP]
  2658 000019E1 50                              	PUSH	EAX
  2659 000019E2 E8 [00000000]                   	CALL	_get_newfdata
  2660 000019E7 C6 00 01                        	MOV	BYTE [EAX],1
  2661 000019EA 89 40 10                        	MOV	DWORD [16+EAX],EAX
  2662 000019ED 8B 97 000007DC                  	MOV	EDX,DWORD [2012+EDI]
  2663 000019F3 89 46 24                        	MOV	DWORD [36+ESI],EAX
  2664 000019F6 89 50 14                        	MOV	DWORD [20+EAX],EDX
  2665 000019F9 8D 45 A4                        	LEA	EAX,DWORD [-92+EBP]
  2666 000019FC 50                              	PUSH	EAX
  2667 000019FD 68 [00000656]                   	PUSH	LC95
  2668 00001A02 53                              	PUSH	EBX
  2669 00001A03 E8 [00000000]                   	CALL	_sprintf
  2670 00001A08 53                              	PUSH	EBX
  2671 00001A09 FF 75 08                        	PUSH	DWORD [8+EBP]
  2672 00001A0C E8 FFFFED54                     	CALL	_cons_putstr
  2673 00001A11 56                              	PUSH	ESI
  2674 00001A12 68 [00000673]                   	PUSH	LC96
  2675 00001A17 53                              	PUSH	EBX
  2676 00001A18 E8 [00000000]                   	CALL	_sprintf
  2677 00001A1D 83 C4 24                        	ADD	ESP,36
  2678 00001A20 53                              	PUSH	EBX
  2679 00001A21 FF 75 08                        	PUSH	DWORD [8+EBP]
  2680 00001A24 E8 FFFFED3C                     	CALL	_cons_putstr
  2681 00001A29 8B 95 FFFFFBA0                  	MOV	EDX,DWORD [-1120+EBP]
  2682 00001A2F 0F B6 44 17 0B                  	MOVZX	EAX,BYTE [11+EDI+EDX*1]
  2683 00001A34 50                              	PUSH	EAX
  2684 00001A35 68 [00000683]                   	PUSH	LC97
  2685 00001A3A 53                              	PUSH	EBX
  2686 00001A3B E8 [00000000]                   	CALL	_sprintf
  2687 00001A40 53                              	PUSH	EBX
  2688 00001A41 FF 75 08                        	PUSH	DWORD [8+EBP]
  2689 00001A44 E8 FFFFED1C                     	CALL	_cons_putstr
  2690 00001A49 E9 FFFFFF09                     	JMP	L478
  2691 00001A4E                                 L479:
  2692 00001A4E 83 F9 08                        	CMP	ECX,8
  2693 00001A51 0F 8F FFFFFE91                  	JG	L447
  2694 00001A57 B9 00000008                     	MOV	ECX,8
  2695 00001A5C E9 FFFFFE9A                     	JMP	L444
  2696 00001A61                                 L477:
  2697 00001A61 68 [00000695]                   	PUSH	LC92
  2698 00001A66 8D 5D B4                        	LEA	EBX,DWORD [-76+EBP]
  2699 00001A69 53                              	PUSH	EBX
  2700 00001A6A E8 [00000000]                   	CALL	_sprintf
  2701 00001A6F 53                              	PUSH	EBX
  2702 00001A70 FF 75 08                        	PUSH	DWORD [8+EBP]
  2703 00001A73 E8 FFFFECED                     	CALL	_cons_putstr
  2704 00001A78 68 [000006BC]                   	PUSH	LC93
  2705 00001A7D 53                              	PUSH	EBX
  2706 00001A7E E8 [00000000]                   	CALL	_sprintf
  2707 00001A83 53                              	PUSH	EBX
  2708 00001A84 FF 75 08                        	PUSH	DWORD [8+EBP]
  2709 00001A87 E8 FFFFECD9                     	CALL	_cons_putstr
  2710 00001A8C 83 C4 20                        	ADD	ESP,32
  2711 00001A8F E9 FFFFFEC3                     	JMP	L478
  2712                                          [SECTION .data]
  2713 000006E7                                 LC98:
  2714 000006E7 20 20 20 20 6C 6F 67 20 63 6F   	DB	"    log cons",0x0A,"mem:%d %d",0x0A,"sht:%d %d",0x0A,0x00
       000006F1 6E 73 0A 6D 65 6D 3A 25 64 20 
       000006FB 25 64 0A 73 68 74 3A 25 64 20 
       00000705 25 64 0A 00 
  2715                                          [SECTION .text]
  2716 00001A94                                 	GLOBAL	_cmd_setlog
  2717 00001A94                                 _cmd_setlog:
  2718 00001A94 55                              	PUSH	EBP
  2719 00001A95 89 E5                           	MOV	EBP,ESP
  2720 00001A97 53                              	PUSH	EBX
  2721 00001A98 83 EC 70                        	SUB	ESP,112
  2722 00001A9B 8B 45 08                        	MOV	EAX,DWORD [8+EBP]
  2723 00001A9E 8D 5D 8C                        	LEA	EBX,DWORD [-116+EBP]
  2724 00001AA1 A3 [00001AD8]                   	MOV	DWORD [_log],EAX
  2725 00001AA6 FF 30                           	PUSH	DWORD [EAX]
  2726 00001AA8 FF 30                           	PUSH	DWORD [EAX]
  2727 00001AAA 8D 45 08                        	LEA	EAX,DWORD [8+EBP]
  2728 00001AAD 50                              	PUSH	EAX
  2729 00001AAE 68 [00001AD8]                   	PUSH	_log
  2730 00001AB3 68 [000006E7]                   	PUSH	LC98
  2731 00001AB8 53                              	PUSH	EBX
  2732 00001AB9 E8 [00000000]                   	CALL	_sprintf
  2733 00001ABE 53                              	PUSH	EBX
  2734 00001ABF FF 35 [00001AD8]                	PUSH	DWORD [_log]
  2735 00001AC5 E8 FFFFECC9                     	CALL	_cons_putstr0
  2736 00001ACA 83 C4 20                        	ADD	ESP,32
  2737 00001ACD FF 35 [00001AD8]                	PUSH	DWORD [_log]
  2738 00001AD3 E8 FFFFEB68                     	CALL	_cons_newline
  2739 00001AD8 8B 5D FC                        	MOV	EBX,DWORD [-4+EBP]
  2740 00001ADB C9                              	LEAVE
  2741 00001ADC C3                              	RET
  2742                                          [SECTION .data]
  2743 00000709                                 LC99:
  2744 00000709 66 72 65 65 73 20 20 25 64 0A   	DB	"frees  %d",0x0A,0x00
       00000713 00 
  2745 00000714                                 LC101:
  2746 00000714 74 6F 74 61 6C 20 20 20 25 64   	DB	"total   %dMB",0x0A,"free %dKB",0x0A,0x0A,0x00
       0000071E 4D 42 0A 66 72 65 65 20 25 64 
       00000728 4B 42 0A 0A 00 
  2747 0000072D                                 LC100:
  2748 0000072D 28 25 64 29 20 73 69 7A 65 3D   	DB	"(%d) size=%dKB addr=0x%x",0x0A,0x00
       00000737 25 64 4B 42 20 61 64 64 72 3D 
       00000741 30 78 25 78 0A 00 
  2749                                          [SECTION .text]
  2750 00001ADD                                 	GLOBAL	_cmd_mem
  2751 00001ADD                                 _cmd_mem:
  2752 00001ADD 55                              	PUSH	EBP
  2753 00001ADE 89 E5                           	MOV	EBP,ESP
  2754 00001AE0 57                              	PUSH	EDI
  2755 00001AE1 56                              	PUSH	ESI
  2756 00001AE2 31 F6                           	XOR	ESI,ESI
  2757 00001AE4 53                              	PUSH	EBX
  2758 00001AE5 8D 5D B4                        	LEA	EBX,DWORD [-76+EBP]
  2759 00001AE8 83 EC 40                        	SUB	ESP,64
  2760 00001AEB FF 35 003C0000                  	PUSH	DWORD [3932160]
  2761 00001AF1 68 [00000709]                   	PUSH	LC99
  2762 00001AF6 8B 7D 08                        	MOV	EDI,DWORD [8+EBP]
  2763 00001AF9 53                              	PUSH	EBX
  2764 00001AFA E8 [00000000]                   	CALL	_sprintf
  2765 00001AFF 53                              	PUSH	EBX
  2766 00001B00 57                              	PUSH	EDI
  2767 00001B01 E8 FFFFEC8D                     	CALL	_cons_putstr0
  2768 00001B06 83 C4 14                        	ADD	ESP,20
  2769 00001B09 3B 35 003C0000                  	CMP	ESI,DWORD [3932160]
  2770 00001B0F 72 3B                           	JB	L486
  2771 00001B11                                 L488:
  2772 00001B11 68 003C0000                     	PUSH	3932160
  2773 00001B16 E8 [00000000]                   	CALL	_memman_total
  2774 00001B1B BA 00100000                     	MOV	EDX,1048576
  2775 00001B20 C1 E8 0A                        	SHR	EAX,10
  2776 00001B23 89 D3                           	MOV	EBX,EDX
  2777 00001B25 89 04 24                        	MOV	DWORD [ESP],EAX
  2778 00001B28 8B 45 0C                        	MOV	EAX,DWORD [12+EBP]
  2779 00001B2B 99                              	CDQ
  2780 00001B2C F7 FB                           	IDIV	EBX
  2781 00001B2E 50                              	PUSH	EAX
  2782 00001B2F 8D 5D B4                        	LEA	EBX,DWORD [-76+EBP]
  2783 00001B32 68 [00000714]                   	PUSH	LC101
  2784 00001B37 53                              	PUSH	EBX
  2785 00001B38 E8 [00000000]                   	CALL	_sprintf
  2786 00001B3D 53                              	PUSH	EBX
  2787 00001B3E 57                              	PUSH	EDI
  2788 00001B3F E8 FFFFEC4F                     	CALL	_cons_putstr0
  2789 00001B44 8D 65 F4                        	LEA	ESP,DWORD [-12+EBP]
  2790 00001B47 5B                              	POP	EBX
  2791 00001B48 5E                              	POP	ESI
  2792 00001B49 5F                              	POP	EDI
  2793 00001B4A 5D                              	POP	EBP
  2794 00001B4B C3                              	RET
  2795 00001B4C                                 L486:
  2796 00001B4C FF 34 F5 003C0010               	PUSH	DWORD [3932176+ESI*8]
  2797 00001B53 8B 04 F5 003C0014               	MOV	EAX,DWORD [3932180+ESI*8]
  2798 00001B5A 8D 5D B4                        	LEA	EBX,DWORD [-76+EBP]
  2799 00001B5D C1 E8 0A                        	SHR	EAX,10
  2800 00001B60 50                              	PUSH	EAX
  2801 00001B61 56                              	PUSH	ESI
  2802 00001B62 46                              	INC	ESI
  2803 00001B63 68 [0000072D]                   	PUSH	LC100
  2804 00001B68 53                              	PUSH	EBX
  2805 00001B69 E8 [00000000]                   	CALL	_sprintf
  2806 00001B6E 53                              	PUSH	EBX
  2807 00001B6F 57                              	PUSH	EDI
  2808 00001B70 E8 FFFFEBF0                     	CALL	_cons_putstr
  2809 00001B75 83 C4 1C                        	ADD	ESP,28
  2810 00001B78 3B 35 003C0000                  	CMP	ESI,DWORD [3932160]
  2811 00001B7E 72 CC                           	JB	L486
  2812 00001B80 EB 8F                           	JMP	L488
  2813 00001B82                                 	GLOBAL	_cmd_memmap
  2814 00001B82                                 _cmd_memmap:
  2815 00001B82 55                              	PUSH	EBP
  2816 00001B83 89 E5                           	MOV	EBP,ESP
  2817 00001B85 53                              	PUSH	EBX
  2818 00001B86 83 EC 40                        	SUB	ESP,64
  2819 00001B89 68 003C0000                     	PUSH	3932160
  2820 00001B8E E8 [00000000]                   	CALL	_memman_total
  2821 00001B93 BA 00100000                     	MOV	EDX,1048576
  2822 00001B98 C1 E8 0A                        	SHR	EAX,10
  2823 00001B9B 89 D3                           	MOV	EBX,EDX
  2824 00001B9D 89 04 24                        	MOV	DWORD [ESP],EAX
  2825 00001BA0 8B 45 0C                        	MOV	EAX,DWORD [12+EBP]
  2826 00001BA3 99                              	CDQ
  2827 00001BA4 F7 FB                           	IDIV	EBX
  2828 00001BA6 50                              	PUSH	EAX
  2829 00001BA7 8D 5D BC                        	LEA	EBX,DWORD [-68+EBP]
  2830 00001BAA 68 [00000714]                   	PUSH	LC101
  2831 00001BAF 53                              	PUSH	EBX
  2832 00001BB0 E8 [00000000]                   	CALL	_sprintf
  2833 00001BB5 53                              	PUSH	EBX
  2834 00001BB6 FF 75 08                        	PUSH	DWORD [8+EBP]
  2835 00001BB9 E8 FFFFEBD5                     	CALL	_cons_putstr0
  2836 00001BBE 8B 5D FC                        	MOV	EBX,DWORD [-4+EBP]
  2837 00001BC1 C9                              	LEAVE
  2838 00001BC2 C3                              	RET
  2839                                          [SECTION .data]
  2840 00000747                                 LC102:
  2841 00000747 6C 6F 67 20 74 65 73 74 00      	DB	"log test",0x00
  2842                                          [SECTION .text]
  2843 00001BC3                                 	GLOBAL	_cmd_log
  2844 00001BC3                                 _cmd_log:
  2845 00001BC3 55                              	PUSH	EBP
  2846 00001BC4 89 E5                           	MOV	EBP,ESP
  2847 00001BC6 53                              	PUSH	EBX
  2848 00001BC7 83 EC 70                        	SUB	ESP,112
  2849 00001BCA 8D 5D 8C                        	LEA	EBX,DWORD [-116+EBP]
  2850 00001BCD 68 [00000747]                   	PUSH	LC102
  2851 00001BD2 53                              	PUSH	EBX
  2852 00001BD3 E8 [00000000]                   	CALL	_sprintf
  2853 00001BD8 53                              	PUSH	EBX
  2854 00001BD9 FF 35 [00001AD8]                	PUSH	DWORD [_log]
  2855 00001BDF E8 FFFFEBAF                     	CALL	_cons_putstr0
  2856 00001BE4 FF 35 [00001AD8]                	PUSH	DWORD [_log]
  2857 00001BEA E8 FFFFEA51                     	CALL	_cons_newline
  2858 00001BEF 8B 5D FC                        	MOV	EBX,DWORD [-4+EBP]
  2859 00001BF2 C9                              	LEAVE
  2860 00001BF3 C3                              	RET
  2861                                          [SECTION .data]
  2862 00000750                                 LC103:
  2863 00000750 66 69 6C 65 6E 61 6D 65 3D 25   	DB	"filename=%s",0x0A,0x00
       0000075A 73 0A 00 
  2864 0000075D                                 LC104:
  2865 0000075D 46 69 6C 65 20 6E 6F 74 20 66   	DB	"File not found.",0x0A,0x00
       00000767 6F 75 6E 64 2E 0A 00 
  2866                                          [SECTION .text]
  2867 00001BF4                                 	GLOBAL	_cmd_cat
  2868 00001BF4                                 _cmd_cat:
  2869 00001BF4 55                              	PUSH	EBP
  2870 00001BF5 89 E5                           	MOV	EBP,ESP
  2871 00001BF7 57                              	PUSH	EDI
  2872 00001BF8 56                              	PUSH	ESI
  2873 00001BF9 53                              	PUSH	EBX
  2874 00001BFA 8D 5D D4                        	LEA	EBX,DWORD [-44+EBP]
  2875 00001BFD 83 EC 20                        	SUB	ESP,32
  2876 00001C00 8B 7D 08                        	MOV	EDI,DWORD [8+EBP]
  2877 00001C03 8B 45 10                        	MOV	EAX,DWORD [16+EBP]
  2878 00001C06 6A 32                           	PUSH	50
  2879 00001C08 83 C0 04                        	ADD	EAX,4
  2880 00001C0B FF 77 14                        	PUSH	DWORD [20+EDI]
  2881 00001C0E 50                              	PUSH	EAX
  2882 00001C0F E8 [00000000]                   	CALL	_myfinfo_search
  2883 00001C14 89 C6                           	MOV	ESI,EAX
  2884 00001C16 50                              	PUSH	EAX
  2885 00001C17 68 [00000750]                   	PUSH	LC103
  2886 00001C1C 53                              	PUSH	EBX
  2887 00001C1D E8 [00000000]                   	CALL	_sprintf
  2888 00001C22 53                              	PUSH	EBX
  2889 00001C23 57                              	PUSH	EDI
  2890 00001C24 E8 FFFFEB3C                     	CALL	_cons_putstr
  2891 00001C29 83 C4 20                        	ADD	ESP,32
  2892 00001C2C 85 F6                           	TEST	ESI,ESI
  2893 00001C2E 74 51                           	JE	L492
  2894 00001C30 FF 76 1C                        	PUSH	DWORD [28+ESI]
  2895 00001C33 68 003C0000                     	PUSH	3932160
  2896 00001C38 E8 [00000000]                   	CALL	_memman_alloc_4k
  2897 00001C3D 68 00103E00                     	PUSH	1064448
  2898 00001C42 FF 75 0C                        	PUSH	DWORD [12+EBP]
  2899 00001C45 50                              	PUSH	EAX
  2900 00001C46 89 C3                           	MOV	EBX,EAX
  2901 00001C48 FF 76 1C                        	PUSH	DWORD [28+ESI]
  2902 00001C4B 0F B7 46 1A                     	MOVZX	EAX,WORD [26+ESI]
  2903 00001C4F 50                              	PUSH	EAX
  2904 00001C50 E8 [00000000]                   	CALL	_file_loadfile
  2905 00001C55 FF 76 1C                        	PUSH	DWORD [28+ESI]
  2906 00001C58 53                              	PUSH	EBX
  2907 00001C59 57                              	PUSH	EDI
  2908 00001C5A E8 FFFFEB62                     	CALL	_cons_putstr1
  2909 00001C5F 83 C4 28                        	ADD	ESP,40
  2910 00001C62 FF 76 1C                        	PUSH	DWORD [28+ESI]
  2911 00001C65 53                              	PUSH	EBX
  2912 00001C66 68 003C0000                     	PUSH	3932160
  2913 00001C6B E8 [00000000]                   	CALL	_memman_free_4k
  2914 00001C70 83 C4 0C                        	ADD	ESP,12
  2915 00001C73                                 L493:
  2916 00001C73 57                              	PUSH	EDI
  2917 00001C74 E8 FFFFE9C7                     	CALL	_cons_newline
  2918 00001C79 8D 65 F4                        	LEA	ESP,DWORD [-12+EBP]
  2919 00001C7C 5B                              	POP	EBX
  2920 00001C7D 5E                              	POP	ESI
  2921 00001C7E 5F                              	POP	EDI
  2922 00001C7F 5D                              	POP	EBP
  2923 00001C80 C3                              	RET
  2924 00001C81                                 L492:
  2925 00001C81 68 [0000075D]                   	PUSH	LC104
  2926 00001C86 57                              	PUSH	EDI
  2927 00001C87 E8 FFFFEB07                     	CALL	_cons_putstr0
  2928 00001C8C 58                              	POP	EAX
  2929 00001C8D 5A                              	POP	EDX
  2930 00001C8E EB E3                           	JMP	L493
  2931 00001C90                                 	GLOBAL	_cmd_cls
  2932 00001C90                                 _cmd_cls:
  2933 00001C90 55                              	PUSH	EBP
  2934 00001C91 89 E5                           	MOV	EBP,ESP
  2935 00001C93 57                              	PUSH	EDI
  2936 00001C94 56                              	PUSH	ESI
  2937 00001C95 BE 0000001C                     	MOV	ESI,28
  2938 00001C9A 53                              	PUSH	EBX
  2939 00001C9B 51                              	PUSH	ECX
  2940 00001C9C 51                              	PUSH	ECX
  2941 00001C9D 8B 45 08                        	MOV	EAX,DWORD [8+EBP]
  2942 00001CA0 8B 18                           	MOV	EBX,DWORD [EAX]
  2943 00001CA2 8B 43 08                        	MOV	EAX,DWORD [8+EBX]
  2944 00001CA5 8B 53 04                        	MOV	EDX,DWORD [4+EBX]
  2945 00001CA8 83 EA 10                        	SUB	EDX,16
  2946 00001CAB 89 55 F0                        	MOV	DWORD [-16+EBP],EDX
  2947 00001CAE 8D 50 DB                        	LEA	EDX,DWORD [-37+EAX]
  2948 00001CB1 83 E8 09                        	SUB	EAX,9
  2949 00001CB4 89 55 EC                        	MOV	DWORD [-20+EBP],EDX
  2950 00001CB7 39 C6                           	CMP	ESI,EAX
  2951 00001CB9 7D 2E                           	JGE	L506
  2952 00001CBB                                 L504:
  2953 00001CBB 8B 7D F0                        	MOV	EDI,DWORD [-16+EBP]
  2954 00001CBE B9 00000008                     	MOV	ECX,8
  2955 00001CC3 83 C7 08                        	ADD	EDI,8
  2956 00001CC6 39 F9                           	CMP	ECX,EDI
  2957 00001CC8 7D 14                           	JGE	L508
  2958 00001CCA                                 L503:
  2959 00001CCA 89 F0                           	MOV	EAX,ESI
  2960 00001CCC 8B 13                           	MOV	EDX,DWORD [EBX]
  2961 00001CCE 0F AF 43 04                     	IMUL	EAX,DWORD [4+EBX]
  2962 00001CD2 8D 04 08                        	LEA	EAX,DWORD [EAX+ECX*1]
  2963 00001CD5 41                              	INC	ECX
  2964 00001CD6 39 F9                           	CMP	ECX,EDI
  2965 00001CD8 C6 04 10 00                     	MOV	BYTE [EAX+EDX*1],0
  2966 00001CDC 7C EC                           	JL	L503
  2967 00001CDE                                 L508:
  2968 00001CDE 8B 45 EC                        	MOV	EAX,DWORD [-20+EBP]
  2969 00001CE1 46                              	INC	ESI
  2970 00001CE2 83 C0 1C                        	ADD	EAX,28
  2971 00001CE5 39 C6                           	CMP	ESI,EAX
  2972 00001CE7 7C D2                           	JL	L504
  2973 00001CE9                                 L506:
  2974 00001CE9 8B 45 EC                        	MOV	EAX,DWORD [-20+EBP]
  2975 00001CEC 83 C0 1C                        	ADD	EAX,28
  2976 00001CEF 50                              	PUSH	EAX
  2977 00001CF0 8B 45 F0                        	MOV	EAX,DWORD [-16+EBP]
  2978 00001CF3 83 C0 08                        	ADD	EAX,8
  2979 00001CF6 50                              	PUSH	EAX
  2980 00001CF7 6A 1C                           	PUSH	28
  2981 00001CF9 6A 08                           	PUSH	8
  2982 00001CFB 53                              	PUSH	EBX
  2983 00001CFC E8 [00000000]                   	CALL	_sheet_refresh
  2984 00001D01 8B 45 08                        	MOV	EAX,DWORD [8+EBP]
  2985 00001D04 C7 40 08 0000001C               	MOV	DWORD [8+EAX],28
  2986 00001D0B 8D 65 F4                        	LEA	ESP,DWORD [-12+EBP]
  2987 00001D0E 5B                              	POP	EBX
  2988 00001D0F 5E                              	POP	ESI
  2989 00001D10 5F                              	POP	EDI
  2990 00001D11 5D                              	POP	EBP
  2991 00001D12 C3                              	RET
  2992 00001D13                                 	GLOBAL	_cmd_logcls
  2993 00001D13                                 _cmd_logcls:
  2994 00001D13 55                              	PUSH	EBP
  2995 00001D14 89 E5                           	MOV	EBP,ESP
  2996 00001D16 57                              	PUSH	EDI
  2997 00001D17 56                              	PUSH	ESI
  2998 00001D18 BE 0000001C                     	MOV	ESI,28
  2999 00001D1D 53                              	PUSH	EBX
  3000 00001D1E 53                              	PUSH	EBX
  3001 00001D1F 53                              	PUSH	EBX
  3002 00001D20 A1 [00001AD8]                   	MOV	EAX,DWORD [_log]
  3003 00001D25 8B 18                           	MOV	EBX,DWORD [EAX]
  3004 00001D27 8B 43 04                        	MOV	EAX,DWORD [4+EBX]
  3005 00001D2A 83 E8 10                        	SUB	EAX,16
  3006 00001D2D 89 45 F0                        	MOV	DWORD [-16+EBP],EAX
  3007 00001D30 8B 43 08                        	MOV	EAX,DWORD [8+EBX]
  3008 00001D33 8D 50 DB                        	LEA	EDX,DWORD [-37+EAX]
  3009 00001D36 83 E8 09                        	SUB	EAX,9
  3010 00001D39 89 55 EC                        	MOV	DWORD [-20+EBP],EDX
  3011 00001D3C 39 C6                           	CMP	ESI,EAX
  3012 00001D3E 7D 2E                           	JGE	L521
  3013 00001D40                                 L519:
  3014 00001D40 8B 7D F0                        	MOV	EDI,DWORD [-16+EBP]
  3015 00001D43 B9 00000008                     	MOV	ECX,8
  3016 00001D48 83 C7 08                        	ADD	EDI,8
  3017 00001D4B 39 F9                           	CMP	ECX,EDI
  3018 00001D4D 7D 14                           	JGE	L523
  3019 00001D4F                                 L518:
  3020 00001D4F 89 F0                           	MOV	EAX,ESI
  3021 00001D51 8B 13                           	MOV	EDX,DWORD [EBX]
  3022 00001D53 0F AF 43 04                     	IMUL	EAX,DWORD [4+EBX]
  3023 00001D57 8D 04 08                        	LEA	EAX,DWORD [EAX+ECX*1]
  3024 00001D5A 41                              	INC	ECX
  3025 00001D5B 39 F9                           	CMP	ECX,EDI
  3026 00001D5D C6 04 10 00                     	MOV	BYTE [EAX+EDX*1],0
  3027 00001D61 7C EC                           	JL	L518
  3028 00001D63                                 L523:
  3029 00001D63 8B 45 EC                        	MOV	EAX,DWORD [-20+EBP]
  3030 00001D66 46                              	INC	ESI
  3031 00001D67 83 C0 1C                        	ADD	EAX,28
  3032 00001D6A 39 C6                           	CMP	ESI,EAX
  3033 00001D6C 7C D2                           	JL	L519
  3034 00001D6E                                 L521:
  3035 00001D6E 8B 45 EC                        	MOV	EAX,DWORD [-20+EBP]
  3036 00001D71 83 C0 1C                        	ADD	EAX,28
  3037 00001D74 50                              	PUSH	EAX
  3038 00001D75 8B 45 F0                        	MOV	EAX,DWORD [-16+EBP]
  3039 00001D78 83 C0 08                        	ADD	EAX,8
  3040 00001D7B 50                              	PUSH	EAX
  3041 00001D7C 6A 1C                           	PUSH	28
  3042 00001D7E 6A 08                           	PUSH	8
  3043 00001D80 53                              	PUSH	EBX
  3044 00001D81 E8 [00000000]                   	CALL	_sheet_refresh
  3045 00001D86 A1 [00001AD8]                   	MOV	EAX,DWORD [_log]
  3046 00001D8B C7 40 08 0000001C               	MOV	DWORD [8+EAX],28
  3047 00001D92 8D 65 F4                        	LEA	ESP,DWORD [-12+EBP]
  3048 00001D95 5B                              	POP	EBX
  3049 00001D96 5E                              	POP	ESI
  3050 00001D97 5F                              	POP	EDI
  3051 00001D98 5D                              	POP	EBP
  3052 00001D99 C3                              	RET
  3053                                          [SECTION .data]
  3054 0000076E                                 LC105:
  3055 0000076E 42 4C 4F 43 4B 5F 53 49 5A 45   	DB	"BLOCK_SIZE = %d",0x0A,0x00
       00000778 20 3D 20 25 64 0A 00 
  3056 0000077F                                 LC106:
  3057 0000077F 73 69 7A 65 6F 66 28 73 74 72   	DB	"sizeof(struct HEAD) = %d",0x0A,0x00
       00000789 75 63 74 20 48 45 41 44 29 20 
       00000793 3D 20 25 64 0A 00 
  3058 00000799                                 LC107:
  3059 00000799 42 4F 44 59 5F 53 49 5A 45 20   	DB	"BODY_SIZE = BLOCK_SIZE - sizeof(struct HEAD) = %d",0x0A,0x00
       000007A3 3D 20 42 4C 4F 43 4B 5F 53 49 
       000007AD 5A 45 20 2D 20 73 69 7A 65 6F 
       000007B7 66 28 73 74 72 75 63 74 20 48 
       000007C1 45 41 44 29 20 3D 20 25 64 0A 
       000007CB 00 
  3060                                          [SECTION .text]
  3061 00001D9A                                 	GLOBAL	_cmd_test
  3062 00001D9A                                 _cmd_test:
  3063 00001D9A 55                              	PUSH	EBP
  3064 00001D9B 89 E5                           	MOV	EBP,ESP
  3065 00001D9D 53                              	PUSH	EBX
  3066 00001D9E 83 EC 70                        	SUB	ESP,112
  3067 00001DA1 8D 5D 8C                        	LEA	EBX,DWORD [-116+EBP]
  3068 00001DA4 68 00000400                     	PUSH	1024
  3069 00001DA9 68 [0000076E]                   	PUSH	LC105
  3070 00001DAE 53                              	PUSH	EBX
  3071 00001DAF E8 [00000000]                   	CALL	_sprintf
  3072 00001DB4 53                              	PUSH	EBX
  3073 00001DB5 E8 FFFFE246                     	CALL	_debug_print
  3074 00001DBA 6A 1C                           	PUSH	28
  3075 00001DBC 68 [0000077F]                   	PUSH	LC106
  3076 00001DC1 53                              	PUSH	EBX
  3077 00001DC2 E8 [00000000]                   	CALL	_sprintf
  3078 00001DC7 53                              	PUSH	EBX
  3079 00001DC8 E8 FFFFE233                     	CALL	_debug_print
  3080 00001DCD 83 C4 20                        	ADD	ESP,32
  3081 00001DD0 68 000003E4                     	PUSH	996
  3082 00001DD5 68 [00000799]                   	PUSH	LC107
  3083 00001DDA 53                              	PUSH	EBX
  3084 00001DDB E8 [00000000]                   	CALL	_sprintf
  3085 00001DE0 53                              	PUSH	EBX
  3086 00001DE1 E8 FFFFE21A                     	CALL	_debug_print
  3087 00001DE6 FF 75 08                        	PUSH	DWORD [8+EBP]
  3088 00001DE9 E8 FFFFE852                     	CALL	_cons_newline
  3089 00001DEE 8B 5D FC                        	MOV	EBX,DWORD [-4+EBP]
  3090 00001DF1 C9                              	LEAVE
  3091 00001DF2 C3                              	RET
  3092                                          [SECTION .data]
  3093 000007CC                                 LC108:
  3094 000007CC 09 66 69 6E 66 6F 20 61 64 64   	DB	0x09,"finfo addr = 0x%08x",0x0A,0x00
       000007D6 72 20 3D 20 30 78 25 30 38 78 
       000007E0 0A 00 
  3095 000007E2                                 LC111:
  3096 000007E2 09 6E 61 6D 65 3D 25 73 5B 45   	DB	0x09,"name=%s[EOF]",0x0A,0x09,"ext=%s[EOF]",0x0A,0x09,"clustno=%d",0x0A,0x09,"date=%d",0x0A,0x09,"size=%d[byte]",0x0A,0x09,"time=%d",0x0A,0x09,"type=0x%02x",0x0A,0x00
       000007EC 4F 46 5D 0A 09 65 78 74 3D 25 
       000007F6 73 5B 45 4F 46 5D 0A 09 63 6C 
       00000800 75 73 74 6E 6F 3D 25 64 0A 09 
       0000080A 64 61 74 65 3D 25 64 0A 09 73 
       00000814 69 7A 65 3D 25 64 5B 62 79 74 
       0000081E 65 5D 0A 09 74 69 6D 65 3D 25 
       00000828 64 0A 09 74 79 70 65 3D 30 78 
       00000832 25 30 32 78 0A 00 
  3097 00000838                                 LC112:
  3098 00000838 09 64 65 74 61 69 6C 20 66 69   	DB	0x09,"detail file type: ",0x00
       00000842 6C 65 20 74 79 70 65 3A 20 00 
  3099 0000084C                                 LC117:
  3100 0000084C 25 73 0A 00                     	DB	"%s",0x0A,0x00
  3101 00000850                                 LC116:
  3102 00000850 25 73 20 6F 74 68 65 72 20 00   	DB	"%s other ",0x00
  3103 0000085A                                 LC115:
  3104 0000085A 25 73 20 73 79 73 74 65 6D 20   	DB	"%s system ",0x00
       00000864 00 
  3105 00000865                                 LC114:
  3106 00000865 25 73 20 66 69 6C 65 20 00      	DB	"%s file ",0x00
  3107 0000086E                                 LC113:
  3108 0000086E 25 73 20 64 69 72 65 63 74 6F   	DB	"%s directory/readonly ",0x00
       00000878 72 79 2F 72 65 61 64 6F 6E 6C 
       00000882 79 20 00 
  3109 00000885                                 LC109:
  3110 00000885 09 25 73 20 77 61 73 20 6E 6F   	DB	0x09,"%s was not found.",0x0A,0x00
       0000088F 74 20 66 6F 75 6E 64 2E 0A 00 
  3111 00000899                                 LC110:
  3112 00000899 09 66 69 6E 66 6F 20 6E 75 6D   	DB	0x09,"finfo number was %d.",0x0A,0x00
       000008A3 62 65 72 20 77 61 73 20 25 64 
       000008AD 2E 0A 00 
  3113                                          [SECTION .text]
  3114 00001DF3                                 	GLOBAL	_cmd_show
  3115 00001DF3                                 _cmd_show:
  3116 00001DF3 55                              	PUSH	EBP
  3117 00001DF4 89 E5                           	MOV	EBP,ESP
  3118 00001DF6 57                              	PUSH	EDI
  3119 00001DF7 56                              	PUSH	ESI
  3120 00001DF8 53                              	PUSH	EBX
  3121 00001DF9 8D B5 FFFFFF54                  	LEA	ESI,DWORD [-172+EBP]
  3122 00001DFF 81 EC 000000A0                  	SUB	ESP,160
  3123 00001E05 8B 45 08                        	MOV	EAX,DWORD [8+EBP]
  3124 00001E08 8B 7D 0C                        	MOV	EDI,DWORD [12+EBP]
  3125 00001E0B 6A 32                           	PUSH	50
  3126 00001E0D 83 C7 05                        	ADD	EDI,5
  3127 00001E10 FF 70 14                        	PUSH	DWORD [20+EAX]
  3128 00001E13 57                              	PUSH	EDI
  3129 00001E14 E8 [00000000]                   	CALL	_myfinfo_search
  3130 00001E19 89 C3                           	MOV	EBX,EAX
  3131 00001E1B 50                              	PUSH	EAX
  3132 00001E1C 68 [000007CC]                   	PUSH	LC108
  3133 00001E21 56                              	PUSH	ESI
  3134 00001E22 E8 [00000000]                   	CALL	_sprintf
  3135 00001E27 56                              	PUSH	ESI
  3136 00001E28 FF 75 08                        	PUSH	DWORD [8+EBP]
  3137 00001E2B E8 FFFFE935                     	CALL	_cons_putstr
  3138 00001E30 83 C4 20                        	ADD	ESP,32
  3139 00001E33 85 DB                           	TEST	EBX,EBX
  3140 00001E35 0F 84 000000D0                  	JE	L533
  3141 00001E3B 0F B6 43 0B                     	MOVZX	EAX,BYTE [11+EBX]
  3142 00001E3F 50                              	PUSH	EAX
  3143 00001E40 0F B7 43 16                     	MOVZX	EAX,WORD [22+EBX]
  3144 00001E44 50                              	PUSH	EAX
  3145 00001E45 FF 73 1C                        	PUSH	DWORD [28+EBX]
  3146 00001E48 0F B7 43 18                     	MOVZX	EAX,WORD [24+EBX]
  3147 00001E4C 50                              	PUSH	EAX
  3148 00001E4D 0F B7 43 1A                     	MOVZX	EAX,WORD [26+EBX]
  3149 00001E51 50                              	PUSH	EAX
  3150 00001E52 8D 43 08                        	LEA	EAX,DWORD [8+EBX]
  3151 00001E55 50                              	PUSH	EAX
  3152 00001E56 53                              	PUSH	EBX
  3153 00001E57 68 [000007E2]                   	PUSH	LC111
  3154 00001E5C 56                              	PUSH	ESI
  3155 00001E5D E8 [00000000]                   	CALL	_sprintf
  3156 00001E62 83 C4 24                        	ADD	ESP,36
  3157 00001E65 56                              	PUSH	ESI
  3158 00001E66 FF 75 08                        	PUSH	DWORD [8+EBP]
  3159 00001E69 E8 FFFFE8F7                     	CALL	_cons_putstr
  3160 00001E6E 8A 5B 0B                        	MOV	BL,BYTE [11+EBX]
  3161 00001E71 59                              	POP	ECX
  3162 00001E72 5F                              	POP	EDI
  3163 00001E73 68 [00000838]                   	PUSH	LC112
  3164 00001E78 56                              	PUSH	ESI
  3165 00001E79 E8 [00000000]                   	CALL	_sprintf
  3166 00001E7E 5F                              	POP	EDI
  3167 00001E7F 88 D8                           	MOV	AL,BL
  3168 00001E81 5A                              	POP	EDX
  3169 00001E82 83 E0 10                        	AND	EAX,16
  3170 00001E85 84 C0                           	TEST	AL,AL
  3171 00001E87 75 6E                           	JNE	L534
  3172 00001E89                                 L528:
  3173 00001E89 88 D8                           	MOV	AL,BL
  3174 00001E8B 83 E0 20                        	AND	EAX,32
  3175 00001E8E 84 C0                           	TEST	AL,AL
  3176 00001E90 75 54                           	JNE	L535
  3177 00001E92                                 L529:
  3178 00001E92 88 D8                           	MOV	AL,BL
  3179 00001E94 83 E0 40                        	AND	EAX,64
  3180 00001E97 84 C0                           	TEST	AL,AL
  3181 00001E99 75 3A                           	JNE	L536
  3182 00001E9B                                 L530:
  3183 00001E9B 84 DB                           	TEST	BL,BL
  3184 00001E9D 78 25                           	JS	L537
  3185 00001E9F                                 L531:
  3186 00001E9F 56                              	PUSH	ESI
  3187 00001EA0 68 [0000084C]                   	PUSH	LC117
  3188 00001EA5 56                              	PUSH	ESI
  3189 00001EA6 E8 [00000000]                   	CALL	_sprintf
  3190 00001EAB 56                              	PUSH	ESI
  3191 00001EAC FF 75 08                        	PUSH	DWORD [8+EBP]
  3192 00001EAF E8 FFFFE8DF                     	CALL	_cons_putstr0
  3193 00001EB4                                 L532:
  3194 00001EB4 FF 75 08                        	PUSH	DWORD [8+EBP]
  3195 00001EB7 E8 FFFFE784                     	CALL	_cons_newline
  3196 00001EBC 8D 65 F4                        	LEA	ESP,DWORD [-12+EBP]
  3197 00001EBF 5B                              	POP	EBX
  3198 00001EC0 5E                              	POP	ESI
  3199 00001EC1 5F                              	POP	EDI
  3200 00001EC2 5D                              	POP	EBP
  3201 00001EC3 C3                              	RET
  3202 00001EC4                                 L537:
  3203 00001EC4 56                              	PUSH	ESI
  3204 00001EC5 68 [00000850]                   	PUSH	LC116
  3205 00001ECA 56                              	PUSH	ESI
  3206 00001ECB E8 [00000000]                   	CALL	_sprintf
  3207 00001ED0 83 C4 0C                        	ADD	ESP,12
  3208 00001ED3 EB CA                           	JMP	L531
  3209 00001ED5                                 L536:
  3210 00001ED5 56                              	PUSH	ESI
  3211 00001ED6 68 [0000085A]                   	PUSH	LC115
  3212 00001EDB 56                              	PUSH	ESI
  3213 00001EDC E8 [00000000]                   	CALL	_sprintf
  3214 00001EE1 83 C4 0C                        	ADD	ESP,12
  3215 00001EE4 EB B5                           	JMP	L530
  3216 00001EE6                                 L535:
  3217 00001EE6 56                              	PUSH	ESI
  3218 00001EE7 68 [00000865]                   	PUSH	LC114
  3219 00001EEC 56                              	PUSH	ESI
  3220 00001EED E8 [00000000]                   	CALL	_sprintf
  3221 00001EF2 83 C4 0C                        	ADD	ESP,12
  3222 00001EF5 EB 9B                           	JMP	L529
  3223 00001EF7                                 L534:
  3224 00001EF7 56                              	PUSH	ESI
  3225 00001EF8 68 [0000086E]                   	PUSH	LC113
  3226 00001EFD 56                              	PUSH	ESI
  3227 00001EFE E8 [00000000]                   	CALL	_sprintf
  3228 00001F03 83 C4 0C                        	ADD	ESP,12
  3229 00001F06 E9 FFFFFF7E                     	JMP	L528
  3230 00001F0B                                 L533:
  3231 00001F0B 57                              	PUSH	EDI
  3232 00001F0C 68 [00000885]                   	PUSH	LC109
  3233 00001F11 56                              	PUSH	ESI
  3234 00001F12 E8 [00000000]                   	CALL	_sprintf
  3235 00001F17 56                              	PUSH	ESI
  3236 00001F18 FF 75 08                        	PUSH	DWORD [8+EBP]
  3237 00001F1B E8 FFFFE845                     	CALL	_cons_putstr
  3238 00001F20 6A 00                           	PUSH	0
  3239 00001F22 68 [00000899]                   	PUSH	LC110
  3240 00001F27 56                              	PUSH	ESI
  3241 00001F28 E8 [00000000]                   	CALL	_sprintf
  3242 00001F2D 83 C4 20                        	ADD	ESP,32
  3243 00001F30 56                              	PUSH	ESI
  3244 00001F31 FF 75 08                        	PUSH	DWORD [8+EBP]
  3245 00001F34 E8 FFFFE82C                     	CALL	_cons_putstr
  3246 00001F39 E9 FFFFFF76                     	JMP	L532
  3247                                          [SECTION .data]
  3248 000008B0                                 LC118:
  3249 000008B0 66 69 6E 66 6F 20 61 64 64 72   	DB	"finfo addr = 0x%08x",0x0A,0x00
       000008BA 20 3D 20 30 78 25 30 38 78 0A 
       000008C4 00 
  3250 000008C5                                 LC119:
  3251 000008C5 66 64 61 74 61 20 61 64 64 72   	DB	"fdata addr = 0x%08x",0x0A,0x00
       000008CF 20 3D 20 30 78 25 30 38 78 0A 
       000008D9 00 
  3252 000008DA                                 LC120:
  3253 000008DA 68 65 61 64 2E 64 61 74 61 5F   	DB	"head.data_addr=0x%08x",0x0A,0x00
       000008E4 61 64 64 72 3D 30 78 25 30 38 
       000008EE 78 0A 00 
  3254 000008F1                                 LC121:
  3255 000008F1 68 65 61 64 2E 64 69 72 5F 61   	DB	"head.dir_addr=0x%08x",0x0A,0x00
       000008FB 64 64 72 3D 30 78 25 30 38 78 
       00000905 0A 00 
  3256 00000907                                 LC122:
  3257 00000907 68 65 61 64 2E 73 74 61 74 3D   	DB	"head.stat=0x%02x",0x0A,0x00
       00000911 30 78 25 30 32 78 0A 00 
  3258 00000919                                 LC123:
  3259 00000919 5B 45 4F 46 5D 0A 00            	DB	"[EOF]",0x0A,0x00
  3260 00000920                                 LC124:
  3261 00000920 73 69 7A 65 3A 20 25 64 0A 00   	DB	"size: %d",0x0A,0x00
  3262 0000092A                                 LC125:
  3263 0000092A 09 74 68 69 73 20 69 73 20 6E   	DB	0x09,"this is not file.",0x0A,0x00
       00000934 6F 74 20 66 69 6C 65 2E 0A 00 
  3264                                          [SECTION .text]
  3265 00001F3E                                 	GLOBAL	_cmd_fview
  3266 00001F3E                                 _cmd_fview:
  3267 00001F3E 55                              	PUSH	EBP
  3268 00001F3F 89 E5                           	MOV	EBP,ESP
  3269 00001F41 57                              	PUSH	EDI
  3270 00001F42 56                              	PUSH	ESI
  3271 00001F43 53                              	PUSH	EBX
  3272 00001F44 8D 9D FFFFFF64                  	LEA	EBX,DWORD [-156+EBP]
  3273 00001F4A 81 EC 00000090                  	SUB	ESP,144
  3274 00001F50 8B 45 08                        	MOV	EAX,DWORD [8+EBP]
  3275 00001F53 8B 7D 0C                        	MOV	EDI,DWORD [12+EBP]
  3276 00001F56 6A 32                           	PUSH	50
  3277 00001F58 83 C7 06                        	ADD	EDI,6
  3278 00001F5B FF 70 14                        	PUSH	DWORD [20+EAX]
  3279 00001F5E 57                              	PUSH	EDI
  3280 00001F5F E8 [00000000]                   	CALL	_myfinfo_search
  3281 00001F64 89 C6                           	MOV	ESI,EAX
  3282 00001F66 50                              	PUSH	EAX
  3283 00001F67 68 [000008B0]                   	PUSH	LC118
  3284 00001F6C 53                              	PUSH	EBX
  3285 00001F6D E8 [00000000]                   	CALL	_sprintf
  3286 00001F72 53                              	PUSH	EBX
  3287 00001F73 E8 FFFFE088                     	CALL	_debug_print
  3288 00001F78 83 C4 1C                        	ADD	ESP,28
  3289 00001F7B 85 F6                           	TEST	ESI,ESI
  3290 00001F7D 0F 84 000000DE                  	JE	L543
  3291 00001F83 8B 46 24                        	MOV	EAX,DWORD [36+ESI]
  3292 00001F86 85 C0                           	TEST	EAX,EAX
  3293 00001F88 0F 84 000000B2                  	JE	L541
  3294 00001F8E 50                              	PUSH	EAX
  3295 00001F8F 68 [000008C5]                   	PUSH	LC119
  3296 00001F94 53                              	PUSH	EBX
  3297 00001F95 E8 [00000000]                   	CALL	_sprintf
  3298 00001F9A 53                              	PUSH	EBX
  3299 00001F9B E8 FFFFE060                     	CALL	_debug_print
  3300 00001FA0 8B 46 24                        	MOV	EAX,DWORD [36+ESI]
  3301 00001FA3 FF 70 10                        	PUSH	DWORD [16+EAX]
  3302 00001FA6 68 [000008DA]                   	PUSH	LC120
  3303 00001FAB 53                              	PUSH	EBX
  3304 00001FAC E8 [00000000]                   	CALL	_sprintf
  3305 00001FB1 53                              	PUSH	EBX
  3306 00001FB2 E8 FFFFE049                     	CALL	_debug_print
  3307 00001FB7 8B 46 24                        	MOV	EAX,DWORD [36+ESI]
  3308 00001FBA 83 C4 20                        	ADD	ESP,32
  3309 00001FBD FF 70 14                        	PUSH	DWORD [20+EAX]
  3310 00001FC0 68 [000008F1]                   	PUSH	LC121
  3311 00001FC5 53                              	PUSH	EBX
  3312 00001FC6 E8 [00000000]                   	CALL	_sprintf
  3313 00001FCB 53                              	PUSH	EBX
  3314 00001FCC E8 FFFFE02F                     	CALL	_debug_print
  3315 00001FD1 8B 46 24                        	MOV	EAX,DWORD [36+ESI]
  3316 00001FD4 0F B6 00                        	MOVZX	EAX,BYTE [EAX]
  3317 00001FD7 50                              	PUSH	EAX
  3318 00001FD8 68 [00000907]                   	PUSH	LC122
  3319 00001FDD 53                              	PUSH	EBX
  3320 00001FDE E8 [00000000]                   	CALL	_sprintf
  3321 00001FE3 53                              	PUSH	EBX
  3322 00001FE4 E8 FFFFE017                     	CALL	_debug_print
  3323 00001FE9 83 C4 20                        	ADD	ESP,32
  3324 00001FEC FF 76 24                        	PUSH	DWORD [36+ESI]
  3325 00001FEF 53                              	PUSH	EBX
  3326 00001FF0 E8 [00000000]                   	CALL	_myfread
  3327 00001FF5 53                              	PUSH	EBX
  3328 00001FF6 FF 75 08                        	PUSH	DWORD [8+EBP]
  3329 00001FF9 E8 FFFFE767                     	CALL	_cons_putstr
  3330 00001FFE 68 [00000919]                   	PUSH	LC123
  3331 00002003 FF 75 08                        	PUSH	DWORD [8+EBP]
  3332 00002006 E8 FFFFE75A                     	CALL	_cons_putstr
  3333 0000200B FF 76 24                        	PUSH	DWORD [36+ESI]
  3334 0000200E E8 [00000000]                   	CALL	_get_size_myfdata
  3335 00002013 89 04 24                        	MOV	DWORD [ESP],EAX
  3336 00002016 68 [00000920]                   	PUSH	LC124
  3337 0000201B 53                              	PUSH	EBX
  3338 0000201C E8 [00000000]                   	CALL	_sprintf
  3339 00002021 83 C4 24                        	ADD	ESP,36
  3340 00002024 53                              	PUSH	EBX
  3341 00002025 FF 75 08                        	PUSH	DWORD [8+EBP]
  3342 00002028 E8 FFFFE738                     	CALL	_cons_putstr
  3343 0000202D FF 75 08                        	PUSH	DWORD [8+EBP]
  3344 00002030 E8 FFFFE60B                     	CALL	_cons_newline
  3345 00002035 83 C4 0C                        	ADD	ESP,12
  3346 00002038                                 L538:
  3347 00002038 8D 65 F4                        	LEA	ESP,DWORD [-12+EBP]
  3348 0000203B 5B                              	POP	EBX
  3349 0000203C 5E                              	POP	ESI
  3350 0000203D 5F                              	POP	EDI
  3351 0000203E 5D                              	POP	EBP
  3352 0000203F C3                              	RET
  3353 00002040                                 L541:
  3354 00002040 68 [0000092A]                   	PUSH	LC125
  3355 00002045 53                              	PUSH	EBX
  3356 00002046 E8 [00000000]                   	CALL	_sprintf
  3357 0000204B 53                              	PUSH	EBX
  3358 0000204C FF 75 08                        	PUSH	DWORD [8+EBP]
  3359 0000204F E8 FFFFE711                     	CALL	_cons_putstr
  3360 00002054 FF 75 08                        	PUSH	DWORD [8+EBP]
  3361 00002057 E8 FFFFE5E4                     	CALL	_cons_newline
  3362 0000205C 83 C4 14                        	ADD	ESP,20
  3363 0000205F EB D7                           	JMP	L538
  3364 00002061                                 L543:
  3365 00002061 57                              	PUSH	EDI
  3366 00002062 68 [00000885]                   	PUSH	LC109
  3367 00002067 53                              	PUSH	EBX
  3368 00002068 E8 [00000000]                   	CALL	_sprintf
  3369 0000206D 53                              	PUSH	EBX
  3370 0000206E FF 75 08                        	PUSH	DWORD [8+EBP]
  3371 00002071 E8 FFFFE6EF                     	CALL	_cons_putstr
  3372 00002076 6A 00                           	PUSH	0
  3373 00002078 68 [00000899]                   	PUSH	LC110
  3374 0000207D 53                              	PUSH	EBX
  3375 0000207E E8 [00000000]                   	CALL	_sprintf
  3376 00002083 83 C4 20                        	ADD	ESP,32
  3377 00002086 53                              	PUSH	EBX
  3378 00002087 FF 75 08                        	PUSH	DWORD [8+EBP]
  3379 0000208A E8 FFFFE6D6                     	CALL	_cons_putstr
  3380 0000208F FF 75 08                        	PUSH	DWORD [8+EBP]
  3381 00002092 E8 FFFFE5A9                     	CALL	_cons_newline
  3382 00002097 EB 9F                           	JMP	L538
  3383                                          [SECTION .data]
  3384 0000093E                                 LC126:
  3385 0000093E 52 4F 4F 54 20 20 20 20 00      	DB	"ROOT    ",0x00
  3386 00000947                                 LC128:
  3387 00000947 6D 61 6B 65 20 66 69 6C 65 73   	DB	"make filesystem!",0x0A,0x00
       00000951 79 73 74 65 6D 21 0A 00 
  3388 00000959                                 LC127:
  3389 00000959 66 69 6C 65 6E 61 6D 65 2E 65   	DB	"filename.ext   %7d",0x0A,0x00
       00000963 78 74 20 20 20 25 37 64 0A 00 
  3390                                          [SECTION .text]
  3391 00002099                                 	GLOBAL	_cmd_mkfs
  3392 00002099                                 _cmd_mkfs:
  3393 00002099 55                              	PUSH	EBP
  3394 0000209A 89 E5                           	MOV	EBP,ESP
  3395 0000209C 57                              	PUSH	EDI
  3396 0000209D 56                              	PUSH	ESI
  3397 0000209E 31 FF                           	XOR	EDI,EDI
  3398 000020A0 53                              	PUSH	EBX
  3399 000020A1 8D 45 E4                        	LEA	EAX,DWORD [-28+EBP]
  3400 000020A4 81 EC 00000800                  	SUB	ESP,2048
  3401 000020AA 8D 75 F4                        	LEA	ESI,DWORD [-12+EBP]
  3402 000020AD 68 [0000093E]                   	PUSH	LC126
  3403 000020B2 50                              	PUSH	EAX
  3404 000020B3 E8 [00000000]                   	CALL	_sprintf
  3405 000020B8 8B 45 08                        	MOV	EAX,DWORD [8+EBP]
  3406 000020BB C7 45 EC 00000000               	MOV	DWORD [-20+EBP],0
  3407 000020C2 C7 45 F0 00400000               	MOV	DWORD [-16+EBP],4194304
  3408 000020C9 C7 40 14 00400000               	MOV	DWORD [20+EAX],4194304
  3409 000020D0 59                              	POP	ECX
  3410 000020D1 5B                              	POP	EBX
  3411 000020D2 31 DB                           	XOR	EBX,EBX
  3412 000020D4                                 L572:
  3413 000020D4 8A 83 00102600                  	MOV	AL,BYTE [1058304+EBX]
  3414 000020DA 84 C0                           	TEST	AL,AL
  3415 000020DC 74 19                           	JE	L546
  3416 000020DE 3C E5                           	CMP	AL,-27
  3417 000020E0 74 09                           	JE	L547
  3418 000020E2 F6 83 0010260B 18               	TEST	BYTE [1058315+EBX],24
  3419 000020E9 74 49                           	JE	L582
  3420 000020EB                                 L547:
  3421 000020EB 47                              	INC	EDI
  3422 000020EC 83 C3 20                        	ADD	EBX,32
  3423 000020EF 83 C6 28                        	ADD	ESI,40
  3424 000020F2 83 FF 09                        	CMP	EDI,9
  3425 000020F5 7E DD                           	JLE	L572
  3426 000020F7                                 L546:
  3427 000020F7 FC                              	CLD
  3428 000020F8 8D B5 FFFFF814                  	LEA	ESI,DWORD [-2028+EBP]
  3429 000020FE BF 00400000                     	MOV	EDI,4194304
  3430 00002103 B9 000001F8                     	MOV	ECX,504
  3431 00002108 8D 9D FFFFF7F4                  	LEA	EBX,DWORD [-2060+EBP]
  3432 0000210E F3                              	REP
  3433 0000210F A5                              	MOVSD
  3434 00002110 68 [00000947]                   	PUSH	LC128
  3435 00002115 53                              	PUSH	EBX
  3436 00002116 E8 [00000000]                   	CALL	_sprintf
  3437 0000211B 53                              	PUSH	EBX
  3438 0000211C FF 75 08                        	PUSH	DWORD [8+EBP]
  3439 0000211F E8 FFFFE66F                     	CALL	_cons_putstr0
  3440 00002124 FF 75 08                        	PUSH	DWORD [8+EBP]
  3441 00002127 E8 FFFFE514                     	CALL	_cons_newline
  3442 0000212C 8D 65 F4                        	LEA	ESP,DWORD [-12+EBP]
  3443 0000212F 5B                              	POP	EBX
  3444 00002130 5E                              	POP	ESI
  3445 00002131 5F                              	POP	EDI
  3446 00002132 5D                              	POP	EBP
  3447 00002133 C3                              	RET
  3448 00002134                                 L582:
  3449 00002134 FF B3 0010261C                  	PUSH	DWORD [1058332+EBX]
  3450 0000213A 68 [00000959]                   	PUSH	LC127
  3451 0000213F 8D 85 FFFFF7F4                  	LEA	EAX,DWORD [-2060+EBP]
  3452 00002145 50                              	PUSH	EAX
  3453 00002146 E8 [00000000]                   	CALL	_sprintf
  3454 0000214B 8D 8B 00102600                  	LEA	ECX,DWORD [1058304+EBX]
  3455 00002151 31 D2                           	XOR	EDX,EDX
  3456 00002153 83 C4 0C                        	ADD	ESP,12
  3457 00002156                                 L556:
  3458 00002156 8A 01                           	MOV	AL,BYTE [ECX]
  3459 00002158 41                              	INC	ECX
  3460 00002159 88 84 15 FFFFF7F4               	MOV	BYTE [-2060+EBP+EDX*1],AL
  3461 00002160 42                              	INC	EDX
  3462 00002161 83 FA 07                        	CMP	EDX,7
  3463 00002164 7E F0                           	JLE	L556
  3464 00002166 8A 83 00102608                  	MOV	AL,BYTE [1058312+EBX]
  3465 0000216C 31 D2                           	XOR	EDX,EDX
  3466 0000216E 88 85 FFFFF7FD                  	MOV	BYTE [-2051+EBP],AL
  3467 00002174 8D 8E FFFFF828                  	LEA	ECX,DWORD [-2008+ESI]
  3468 0000217A 8A 83 00102609                  	MOV	AL,BYTE [1058313+EBX]
  3469 00002180 88 85 FFFFF7FE                  	MOV	BYTE [-2050+EBP],AL
  3470 00002186 8A 83 0010260A                  	MOV	AL,BYTE [1058314+EBX]
  3471 0000218C 88 85 FFFFF7FF                  	MOV	BYTE [-2049+EBP],AL
  3472 00002192 66 8B 83 0010261A               	MOV	AX,WORD [1058330+EBX]
  3473 00002199 66 89 86 FFFFF83A               	MOV	WORD [-1990+ESI],AX
  3474 000021A0 66 8B 83 00102618               	MOV	AX,WORD [1058328+EBX]
  3475 000021A7 66 89 86 FFFFF838               	MOV	WORD [-1992+ESI],AX
  3476 000021AE                                 L561:
  3477 000021AE 8A 84 13 00102608               	MOV	AL,BYTE [1058312+EBX+EDX*1]
  3478 000021B5 42                              	INC	EDX
  3479 000021B6 88 01                           	MOV	BYTE [ECX],AL
  3480 000021B8 41                              	INC	ECX
  3481 000021B9 83 FA 02                        	CMP	EDX,2
  3482 000021BC 7E F0                           	JLE	L561
  3483 000021BE 31 D2                           	XOR	EDX,EDX
  3484 000021C0 8D 8B 00102600                  	LEA	ECX,DWORD [1058304+EBX]
  3485 000021C6                                 L566:
  3486 000021C6 8A 01                           	MOV	AL,BYTE [ECX]
  3487 000021C8 41                              	INC	ECX
  3488 000021C9 88 84 32 FFFFF820               	MOV	BYTE [-2016+EDX+ESI*1],AL
  3489 000021D0 42                              	INC	EDX
  3490 000021D1 83 FA 07                        	CMP	EDX,7
  3491 000021D4 7E F0                           	JLE	L566
  3492 000021D6 31 D2                           	XOR	EDX,EDX
  3493 000021D8 8D 8E FFFFF82C                  	LEA	ECX,DWORD [-2004+ESI]
  3494 000021DE                                 L571:
  3495 000021DE 8A 84 13 0010260C               	MOV	AL,BYTE [1058316+EBX+EDX*1]
  3496 000021E5 42                              	INC	EDX
  3497 000021E6 88 01                           	MOV	BYTE [ECX],AL
  3498 000021E8 41                              	INC	ECX
  3499 000021E9 83 FA 09                        	CMP	EDX,9
  3500 000021EC 7E F0                           	JLE	L571
  3501 000021EE 8B 83 0010261C                  	MOV	EAX,DWORD [1058332+EBX]
  3502 000021F4 89 86 FFFFF83C                  	MOV	DWORD [-1988+ESI],EAX
  3503 000021FA 66 8B 83 00102616               	MOV	AX,WORD [1058326+EBX]
  3504 00002201 66 89 86 FFFFF836               	MOV	WORD [-1994+ESI],AX
  3505 00002208 8A 83 0010260B                  	MOV	AL,BYTE [1058315+EBX]
  3506 0000220E 88 86 FFFFF82B                  	MOV	BYTE [-2005+ESI],AL
  3507 00002214 8D 85 FFFFF7F4                  	LEA	EAX,DWORD [-2060+EBP]
  3508 0000221A 50                              	PUSH	EAX
  3509 0000221B FF 75 08                        	PUSH	DWORD [8+EBP]
  3510 0000221E E8 FFFFE570                     	CALL	_cons_putstr0
  3511 00002223 58                              	POP	EAX
  3512 00002224 5A                              	POP	EDX
  3513 00002225 E9 FFFFFEC1                     	JMP	L547
  3514                                          [SECTION .data]
  3515 0000096D                                 LC129:
  3516 0000096D 64 69 72 65 63 74 6F 72 79 20   	DB	"directory name",0x09,"%s",0x0A,0x00
       00000977 6E 61 6D 65 09 25 73 0A 00 
  3517 00000980                                 LC130:
  3518 00000980 63 75 72 72 65 6E 74 20 64 69   	DB	"current dir addr",0x09
       0000098A 72 20 61 64 64 72 09 
  3519 00000991 30 78 25 30 38 78 0A 00         	DB	"0x%08x",0x0A,0x00
  3520 00000999                                 LC131:
  3521 00000999 70 61 72 65 6E 74 20 64 69 72   	DB	"parent dir addr",0x09
       000009A3 20 61 64 64 72 09 
  3522 000009A9 30 78 25 30 38 78 0A 00         	DB	"0x%08x",0x0A,0x00
  3523 000009B1                                 LC134:
  3524 000009B1 74 68 69 73 20 64 69 72 65 63   	DB	"this directory has no file...",0x0A,0x00
       000009BB 74 6F 72 79 20 68 61 73 20 6E 
       000009C5 6F 20 66 69 6C 65 2E 2E 2E 0A 
       000009CF 00 
  3525 000009D0                                 LC133:
  3526 000009D0 66 69 6C 65 6E 61 6D 65 20 20   	DB	"filename    ",0x09,"%7d [DIR]",0x0A,0x00
       000009DA 20 20 09 25 37 64 20 5B 44 49 
       000009E4 52 5D 0A 00 
  3527 000009E8                                 LC132:
  3528 000009E8 66 69 6C 65 6E 61 6D 65 2E 65   	DB	"filename.ext",0x09,"%7d [FILE]",0x0A,0x00
       000009F2 78 74 09 25 37 64 20 5B 46 49 
       000009FC 4C 45 5D 0A 00 
  3529                                          [SECTION .text]
  3530 0000222A                                 	GLOBAL	_cmd_dir
  3531 0000222A                                 _cmd_dir:
  3532 0000222A 55                              	PUSH	EBP
  3533 0000222B 89 E5                           	MOV	EBP,ESP
  3534 0000222D 57                              	PUSH	EDI
  3535 0000222E 56                              	PUSH	ESI
  3536 0000222F 53                              	PUSH	EBX
  3537 00002230 8D 75 B4                        	LEA	ESI,DWORD [-76+EBP]
  3538 00002233 83 EC 40                        	SUB	ESP,64
  3539 00002236 8B 7D 08                        	MOV	EDI,DWORD [8+EBP]
  3540 00002239 8B 5F 14                        	MOV	EBX,DWORD [20+EDI]
  3541 0000223C 8D 83 000007D0                  	LEA	EAX,DWORD [2000+EBX]
  3542 00002242 50                              	PUSH	EAX
  3543 00002243 68 [0000096D]                   	PUSH	LC129
  3544 00002248 56                              	PUSH	ESI
  3545 00002249 E8 [00000000]                   	CALL	_sprintf
  3546 0000224E 56                              	PUSH	ESI
  3547 0000224F 57                              	PUSH	EDI
  3548 00002250 E8 FFFFE510                     	CALL	_cons_putstr
  3549 00002255 FF B3 000007DC                  	PUSH	DWORD [2012+EBX]
  3550 0000225B 68 [00000980]                   	PUSH	LC130
  3551 00002260 56                              	PUSH	ESI
  3552 00002261 E8 [00000000]                   	CALL	_sprintf
  3553 00002266 83 C4 20                        	ADD	ESP,32
  3554 00002269 56                              	PUSH	ESI
  3555 0000226A E8 FFFFDD91                     	CALL	_debug_print
  3556 0000226F FF B3 000007D8                  	PUSH	DWORD [2008+EBX]
  3557 00002275 68 [00000999]                   	PUSH	LC131
  3558 0000227A 56                              	PUSH	ESI
  3559 0000227B E8 [00000000]                   	CALL	_sprintf
  3560 00002280 56                              	PUSH	ESI
  3561 00002281 31 F6                           	XOR	ESI,ESI
  3562 00002283 E8 FFFFDD78                     	CALL	_debug_print
  3563 00002288 83 C4 14                        	ADD	ESP,20
  3564 0000228B                                 L603:
  3565 0000228B 8A 03                           	MOV	AL,BYTE [EBX]
  3566 0000228D 84 C0                           	TEST	AL,AL
  3567 0000228F 74 1E                           	JE	L585
  3568 00002291 3C E5                           	CMP	AL,-27
  3569 00002293 74 11                           	JE	L586
  3570 00002295 8A 43 0B                        	MOV	AL,BYTE [11+EBX]
  3571 00002298 A9 00000018                     	TEST	EAX,24
  3572 0000229D 74 6D                           	JE	L611
  3573 0000229F 83 E0 10                        	AND	EAX,16
  3574 000022A2 84 C0                           	TEST	AL,AL
  3575 000022A4 75 35                           	JNE	L612
  3576 000022A6                                 L586:
  3577 000022A6 46                              	INC	ESI
  3578 000022A7 83 C3 28                        	ADD	EBX,40
  3579 000022AA 83 FE 31                        	CMP	ESI,49
  3580 000022AD 7E DC                           	JLE	L603
  3581 000022AF                                 L585:
  3582 000022AF 85 F6                           	TEST	ESI,ESI
  3583 000022B1 74 0E                           	JE	L613
  3584 000022B3                                 L604:
  3585 000022B3 57                              	PUSH	EDI
  3586 000022B4 E8 FFFFE387                     	CALL	_cons_newline
  3587 000022B9 8D 65 F4                        	LEA	ESP,DWORD [-12+EBP]
  3588 000022BC 5B                              	POP	EBX
  3589 000022BD 5E                              	POP	ESI
  3590 000022BE 5F                              	POP	EDI
  3591 000022BF 5D                              	POP	EBP
  3592 000022C0 C3                              	RET
  3593 000022C1                                 L613:
  3594 000022C1 68 [000009B1]                   	PUSH	LC134
  3595 000022C6 8D 5D B4                        	LEA	EBX,DWORD [-76+EBP]
  3596 000022C9 53                              	PUSH	EBX
  3597 000022CA E8 [00000000]                   	CALL	_sprintf
  3598 000022CF 53                              	PUSH	EBX
  3599 000022D0 57                              	PUSH	EDI
  3600 000022D1 E8 FFFFE48F                     	CALL	_cons_putstr
  3601 000022D6 83 C4 10                        	ADD	ESP,16
  3602 000022D9 EB D8                           	JMP	L604
  3603 000022DB                                 L612:
  3604 000022DB FF 73 1C                        	PUSH	DWORD [28+EBX]
  3605 000022DE 68 [000009D0]                   	PUSH	LC133
  3606 000022E3 8D 45 B4                        	LEA	EAX,DWORD [-76+EBP]
  3607 000022E6 50                              	PUSH	EAX
  3608 000022E7 E8 [00000000]                   	CALL	_sprintf
  3609 000022EC 83 C4 0C                        	ADD	ESP,12
  3610 000022EF 31 D2                           	XOR	EDX,EDX
  3611 000022F1                                 L602:
  3612 000022F1 8A 04 1A                        	MOV	AL,BYTE [EDX+EBX*1]
  3613 000022F4 88 44 15 B4                     	MOV	BYTE [-76+EBP+EDX*1],AL
  3614 000022F8 42                              	INC	EDX
  3615 000022F9 83 FA 07                        	CMP	EDX,7
  3616 000022FC 7E F3                           	JLE	L602
  3617 000022FE                                 L610:
  3618 000022FE 8D 45 B4                        	LEA	EAX,DWORD [-76+EBP]
  3619 00002301 50                              	PUSH	EAX
  3620 00002302 57                              	PUSH	EDI
  3621 00002303 E8 FFFFE45D                     	CALL	_cons_putstr
  3622 00002308 58                              	POP	EAX
  3623 00002309 5A                              	POP	EDX
  3624 0000230A EB 9A                           	JMP	L586
  3625 0000230C                                 L611:
  3626 0000230C FF 73 1C                        	PUSH	DWORD [28+EBX]
  3627 0000230F 68 [000009E8]                   	PUSH	LC132
  3628 00002314 8D 45 B4                        	LEA	EAX,DWORD [-76+EBP]
  3629 00002317 50                              	PUSH	EAX
  3630 00002318 E8 [00000000]                   	CALL	_sprintf
  3631 0000231D 83 C4 0C                        	ADD	ESP,12
  3632 00002320 31 D2                           	XOR	EDX,EDX
  3633 00002322                                 L595:
  3634 00002322 8A 04 1A                        	MOV	AL,BYTE [EDX+EBX*1]
  3635 00002325 88 44 15 B4                     	MOV	BYTE [-76+EBP+EDX*1],AL
  3636 00002329 42                              	INC	EDX
  3637 0000232A 83 FA 07                        	CMP	EDX,7
  3638 0000232D 7E F3                           	JLE	L595
  3639 0000232F 8A 43 08                        	MOV	AL,BYTE [8+EBX]
  3640 00002332 88 45 BD                        	MOV	BYTE [-67+EBP],AL
  3641 00002335 8A 43 09                        	MOV	AL,BYTE [9+EBX]
  3642 00002338 88 45 BE                        	MOV	BYTE [-66+EBP],AL
  3643 0000233B 8A 43 0A                        	MOV	AL,BYTE [10+EBX]
  3644 0000233E 88 45 BF                        	MOV	BYTE [-65+EBP],AL
  3645 00002341 EB BB                           	JMP	L610
  3646                                          [SECTION .data]
  3647 00000A01                                 LC135:
  3648 00000A01 66 69 6C 65 74 79 70 65 3D 30   	DB	"filetype=0x%02x",0x0A,0x00
       00000A0B 78 25 30 32 78 0A 00 
  3649                                          [SECTION .text]
  3650 00002343                                 	GLOBAL	_cmd_fddir
  3651 00002343                                 _cmd_fddir:
  3652 00002343 55                              	PUSH	EBP
  3653 00002344 89 E5                           	MOV	EBP,ESP
  3654 00002346 57                              	PUSH	EDI
  3655 00002347 56                              	PUSH	ESI
  3656 00002348 31 FF                           	XOR	EDI,EDI
  3657 0000234A 53                              	PUSH	EBX
  3658 0000234B 31 F6                           	XOR	ESI,ESI
  3659 0000234D 83 EC 20                        	SUB	ESP,32
  3660 00002350                                 L627:
  3661 00002350 8A 86 00102600                  	MOV	AL,BYTE [1058304+ESI]
  3662 00002356 84 C0                           	TEST	AL,AL
  3663 00002358 74 16                           	JE	L616
  3664 0000235A 3C E5                           	CMP	AL,-27
  3665 0000235C 74 09                           	JE	L617
  3666 0000235E F6 86 0010260B 18               	TEST	BYTE [1058315+ESI],24
  3667 00002365 74 19                           	JE	L631
  3668 00002367                                 L617:
  3669 00002367 47                              	INC	EDI
  3670 00002368 83 C6 20                        	ADD	ESI,32
  3671 0000236B 83 FF 31                        	CMP	EDI,49
  3672 0000236E 7E E0                           	JLE	L627
  3673 00002370                                 L616:
  3674 00002370 FF 75 08                        	PUSH	DWORD [8+EBP]
  3675 00002373 E8 FFFFE2C8                     	CALL	_cons_newline
  3676 00002378 8D 65 F4                        	LEA	ESP,DWORD [-12+EBP]
  3677 0000237B 5B                              	POP	EBX
  3678 0000237C 5E                              	POP	ESI
  3679 0000237D 5F                              	POP	EDI
  3680 0000237E 5D                              	POP	EBP
  3681 0000237F C3                              	RET
  3682 00002380                                 L631:
  3683 00002380 FF B6 0010261C                  	PUSH	DWORD [1058332+ESI]
  3684 00002386 68 [00000959]                   	PUSH	LC127
  3685 0000238B 8D 45 D4                        	LEA	EAX,DWORD [-44+EBP]
  3686 0000238E 50                              	PUSH	EAX
  3687 0000238F E8 [00000000]                   	CALL	_sprintf
  3688 00002394 8D 96 00102600                  	LEA	EDX,DWORD [1058304+ESI]
  3689 0000239A 31 C9                           	XOR	ECX,ECX
  3690 0000239C 83 C4 0C                        	ADD	ESP,12
  3691 0000239F                                 L626:
  3692 0000239F 8A 02                           	MOV	AL,BYTE [EDX]
  3693 000023A1 42                              	INC	EDX
  3694 000023A2 88 44 0D D4                     	MOV	BYTE [-44+EBP+ECX*1],AL
  3695 000023A6 41                              	INC	ECX
  3696 000023A7 83 F9 07                        	CMP	ECX,7
  3697 000023AA 7E F3                           	JLE	L626
  3698 000023AC 8A 86 00102608                  	MOV	AL,BYTE [1058312+ESI]
  3699 000023B2 8D 5D D4                        	LEA	EBX,DWORD [-44+EBP]
  3700 000023B5 88 45 DD                        	MOV	BYTE [-35+EBP],AL
  3701 000023B8 8A 86 00102609                  	MOV	AL,BYTE [1058313+ESI]
  3702 000023BE 88 45 DE                        	MOV	BYTE [-34+EBP],AL
  3703 000023C1 8A 86 0010260A                  	MOV	AL,BYTE [1058314+ESI]
  3704 000023C7 53                              	PUSH	EBX
  3705 000023C8 FF 75 08                        	PUSH	DWORD [8+EBP]
  3706 000023CB 88 45 DF                        	MOV	BYTE [-33+EBP],AL
  3707 000023CE E8 FFFFE3C0                     	CALL	_cons_putstr0
  3708 000023D3 0F B6 86 0010260B               	MOVZX	EAX,BYTE [1058315+ESI]
  3709 000023DA 50                              	PUSH	EAX
  3710 000023DB 68 [00000A01]                   	PUSH	LC135
  3711 000023E0 53                              	PUSH	EBX
  3712 000023E1 E8 [00000000]                   	CALL	_sprintf
  3713 000023E6 53                              	PUSH	EBX
  3714 000023E7 FF 75 08                        	PUSH	DWORD [8+EBP]
  3715 000023EA E8 FFFFE3A4                     	CALL	_cons_putstr0
  3716 000023EF 83 C4 1C                        	ADD	ESP,28
  3717 000023F2 E9 FFFFFF70                     	JMP	L617
  3718 000023F7                                 	GLOBAL	_cmd_exit
  3719 000023F7                                 _cmd_exit:
  3720 000023F7 55                              	PUSH	EBP
  3721 000023F8 89 E5                           	MOV	EBP,ESP
  3722 000023FA 57                              	PUSH	EDI
  3723 000023FB 56                              	PUSH	ESI
  3724 000023FC 53                              	PUSH	EBX
  3725 000023FD 50                              	PUSH	EAX
  3726 000023FE 8B 5D 08                        	MOV	EBX,DWORD [8+EBP]
  3727 00002401 E8 [00000000]                   	CALL	_task_now
  3728 00002406 8B 35 00000FE4                  	MOV	ESI,DWORD [4068]
  3729 0000240C 8B 3D 00000FEC                  	MOV	EDI,DWORD [4076]
  3730 00002412 89 45 F0                        	MOV	DWORD [-16+EBP],EAX
  3731 00002415 83 3B 00                        	CMP	DWORD [EBX],0
  3732 00002418 74 09                           	JE	L633
  3733 0000241A FF 73 10                        	PUSH	DWORD [16+EBX]
  3734 0000241D E8 [00000000]                   	CALL	_timer_cancel
  3735 00002422 58                              	POP	EAX
  3736 00002423                                 L633:
  3737 00002423 68 00002D00                     	PUSH	11520
  3738 00002428 FF 75 0C                        	PUSH	DWORD [12+EBP]
  3739 0000242B 68 003C0000                     	PUSH	3932160
  3740 00002430 E8 [00000000]                   	CALL	_memman_free_4k
  3741 00002435 E8 [00000000]                   	CALL	_io_cli
  3742 0000243A 8B 03                           	MOV	EAX,DWORD [EBX]
  3743 0000243C 83 C4 0C                        	ADD	ESP,12
  3744 0000243F 85 C0                           	TEST	EAX,EAX
  3745 00002441 74 2E                           	JE	L634
  3746 00002443 29 F0                           	SUB	EAX,ESI
  3747 00002445 2D 00000414                     	SUB	EAX,1044
  3748 0000244A C1 F8 03                        	SAR	EAX,3
  3749 0000244D 69 C0 CCCCCCCD                  	IMUL	EAX,EAX,-858993459
  3750 00002453 05 00000300                     	ADD	EAX,768
  3751 00002458                                 L639:
  3752 00002458 50                              	PUSH	EAX
  3753 00002459 57                              	PUSH	EDI
  3754 0000245A E8 [00000000]                   	CALL	_fifo32_put
  3755 0000245F 5B                              	POP	EBX
  3756 00002460 5E                              	POP	ESI
  3757 00002461 E8 [00000000]                   	CALL	_io_sti
  3758 00002466                                 L636:
  3759 00002466 FF 75 F0                        	PUSH	DWORD [-16+EBP]
  3760 00002469 E8 [00000000]                   	CALL	_task_sleep
  3761 0000246E 59                              	POP	ECX
  3762 0000246F EB F5                           	JMP	L636
  3763 00002471                                 L634:
  3764 00002471 8B 45 F0                        	MOV	EAX,DWORD [-16+EBP]
  3765 00002474 2B 05 [00000000]                	SUB	EAX,DWORD [_taskctl]
  3766 0000247A 2D 00000FF8                     	SUB	EAX,4088
  3767 0000247F C1 F8 06                        	SAR	EAX,6
  3768 00002482 69 C0 AAAAAAAB                  	IMUL	EAX,EAX,-1431655765
  3769 00002488 05 00000400                     	ADD	EAX,1024
  3770 0000248D EB C9                           	JMP	L639
  3771 0000248F                                 	GLOBAL	_cmd_start
  3772 0000248F                                 _cmd_start:
  3773 0000248F 55                              	PUSH	EBP
  3774 00002490 89 E5                           	MOV	EBP,ESP
  3775 00002492 57                              	PUSH	EDI
  3776 00002493 56                              	PUSH	ESI
  3777 00002494 53                              	PUSH	EBX
  3778 00002495 57                              	PUSH	EDI
  3779 00002496 57                              	PUSH	EDI
  3780 00002497 8B 45 08                        	MOV	EAX,DWORD [8+EBP]
  3781 0000249A 8B 7D 0C                        	MOV	EDI,DWORD [12+EBP]
  3782 0000249D 8B 35 00000FE4                  	MOV	ESI,DWORD [4068]
  3783 000024A3 89 45 F0                        	MOV	DWORD [-16+EBP],EAX
  3784 000024A6 FF 75 10                        	PUSH	DWORD [16+EBP]
  3785 000024A9 56                              	PUSH	ESI
  3786 000024AA E8 [00000000]                   	CALL	_open_console
  3787 000024AF 89 C3                           	MOV	EBX,EAX
  3788 000024B1 8B 40 24                        	MOV	EAX,DWORD [36+EAX]
  3789 000024B4 83 C0 10                        	ADD	EAX,16
  3790 000024B7 89 45 EC                        	MOV	DWORD [-20+EBP],EAX
  3791 000024BA 6A 04                           	PUSH	4
  3792 000024BC 6A 20                           	PUSH	32
  3793 000024BE 53                              	PUSH	EBX
  3794 000024BF E8 [00000000]                   	CALL	_sheet_slide
  3795 000024C4 FF 76 10                        	PUSH	DWORD [16+ESI]
  3796 000024C7 53                              	PUSH	EBX
  3797 000024C8 BB 00000006                     	MOV	EBX,6
  3798 000024CD E8 [00000000]                   	CALL	_sheet_updown
  3799 000024D2 83 C4 1C                        	ADD	ESP,28
  3800 000024D5 80 7F 06 00                     	CMP	BYTE [6+EDI],0
  3801 000024D9 75 21                           	JNE	L645
  3802 000024DB                                 L647:
  3803 000024DB 68 0000010A                     	PUSH	266
  3804 000024E0 FF 75 EC                        	PUSH	DWORD [-20+EBP]
  3805 000024E3 E8 [00000000]                   	CALL	_fifo32_put
  3806 000024E8 58                              	POP	EAX
  3807 000024E9 8B 45 F0                        	MOV	EAX,DWORD [-16+EBP]
  3808 000024EC 5A                              	POP	EDX
  3809 000024ED 89 45 08                        	MOV	DWORD [8+EBP],EAX
  3810 000024F0 8D 65 F4                        	LEA	ESP,DWORD [-12+EBP]
  3811 000024F3 5B                              	POP	EBX
  3812 000024F4 5E                              	POP	ESI
  3813 000024F5 5F                              	POP	EDI
  3814 000024F6 5D                              	POP	EBP
  3815 000024F7 E9 FFFFE144                     	JMP	_cons_newline
  3816 000024FC                                 L645:
  3817 000024FC 0F BE 04 3B                     	MOVSX	EAX,BYTE [EBX+EDI*1]
  3818 00002500 05 00000100                     	ADD	EAX,256
  3819 00002505 43                              	INC	EBX
  3820 00002506 50                              	PUSH	EAX
  3821 00002507 FF 75 EC                        	PUSH	DWORD [-20+EBP]
  3822 0000250A E8 [00000000]                   	CALL	_fifo32_put
  3823 0000250F 80 3C 3B 00                     	CMP	BYTE [EBX+EDI*1],0
  3824 00002513 59                              	POP	ECX
  3825 00002514 5E                              	POP	ESI
  3826 00002515 75 E5                           	JNE	L645
  3827 00002517 EB C2                           	JMP	L647
  3828 00002519                                 	GLOBAL	_cmd_ncst
  3829 00002519                                 _cmd_ncst:
  3830 00002519 55                              	PUSH	EBP
  3831 0000251A 89 E5                           	MOV	EBP,ESP
  3832 0000251C 57                              	PUSH	EDI
  3833 0000251D 56                              	PUSH	ESI
  3834 0000251E BE 00000005                     	MOV	ESI,5
  3835 00002523 53                              	PUSH	EBX
  3836 00002524 51                              	PUSH	ECX
  3837 00002525 8B 45 08                        	MOV	EAX,DWORD [8+EBP]
  3838 00002528 8B 5D 0C                        	MOV	EBX,DWORD [12+EBP]
  3839 0000252B 89 45 F0                        	MOV	DWORD [-16+EBP],EAX
  3840 0000252E FF 75 10                        	PUSH	DWORD [16+EBP]
  3841 00002531 6A 00                           	PUSH	0
  3842 00002533 E8 [00000000]                   	CALL	_open_constask
  3843 00002538 80 7B 05 00                     	CMP	BYTE [5+EBX],0
  3844 0000253C 8D 78 10                        	LEA	EDI,DWORD [16+EAX]
  3845 0000253F 58                              	POP	EAX
  3846 00002540 5A                              	POP	EDX
  3847 00002541 75 1F                           	JNE	L653
  3848 00002543                                 L655:
  3849 00002543 68 0000010A                     	PUSH	266
  3850 00002548 57                              	PUSH	EDI
  3851 00002549 E8 [00000000]                   	CALL	_fifo32_put
  3852 0000254E 58                              	POP	EAX
  3853 0000254F 8B 45 F0                        	MOV	EAX,DWORD [-16+EBP]
  3854 00002552 5A                              	POP	EDX
  3855 00002553 89 45 08                        	MOV	DWORD [8+EBP],EAX
  3856 00002556 8D 65 F4                        	LEA	ESP,DWORD [-12+EBP]
  3857 00002559 5B                              	POP	EBX
  3858 0000255A 5E                              	POP	ESI
  3859 0000255B 5F                              	POP	EDI
  3860 0000255C 5D                              	POP	EBP
  3861 0000255D E9 FFFFE0DE                     	JMP	_cons_newline
  3862 00002562                                 L653:
  3863 00002562 0F BE 04 1E                     	MOVSX	EAX,BYTE [ESI+EBX*1]
  3864 00002566 05 00000100                     	ADD	EAX,256
  3865 0000256B 46                              	INC	ESI
  3866 0000256C 50                              	PUSH	EAX
  3867 0000256D 57                              	PUSH	EDI
  3868 0000256E E8 [00000000]                   	CALL	_fifo32_put
  3869 00002573 80 3C 1E 00                     	CMP	BYTE [ESI+EBX*1],0
  3870 00002577 59                              	POP	ECX
  3871 00002578 58                              	POP	EAX
  3872 00002579 75 E7                           	JNE	L653
  3873 0000257B EB C6                           	JMP	L655
  3874                                          [SECTION .data]
  3875 00000A12                                 LC136:
  3876 00000A12 6D 6F 64 65 20 6E 75 6D 62 65   	DB	"mode number error.",0x0A,0x00
       00000A1C 72 20 65 72 72 6F 72 2E 0A 00 
  3877                                          [SECTION .text]
  3878 0000257D                                 	GLOBAL	_cmd_langmode
  3879 0000257D                                 _cmd_langmode:
  3880 0000257D 55                              	PUSH	EBP
  3881 0000257E 89 E5                           	MOV	EBP,ESP
  3882 00002580 56                              	PUSH	ESI
  3883 00002581 53                              	PUSH	EBX
  3884 00002582 8B 5D 0C                        	MOV	EBX,DWORD [12+EBP]
  3885 00002585 8B 75 08                        	MOV	ESI,DWORD [8+EBP]
  3886 00002588 E8 [00000000]                   	CALL	_task_now
  3887 0000258D 8A 53 09                        	MOV	DL,BYTE [9+EBX]
  3888 00002590 83 EA 30                        	SUB	EDX,48
  3889 00002593 80 FA 02                        	CMP	DL,2
  3890 00002596 77 14                           	JA	L657
  3891 00002598 88 90 000000BC                  	MOV	BYTE [188+EAX],DL
  3892 0000259E                                 L658:
  3893 0000259E 89 75 08                        	MOV	DWORD [8+EBP],ESI
  3894 000025A1 8D 65 F8                        	LEA	ESP,DWORD [-8+EBP]
  3895 000025A4 5B                              	POP	EBX
  3896 000025A5 5E                              	POP	ESI
  3897 000025A6 5D                              	POP	EBP
  3898 000025A7 E9 FFFFE094                     	JMP	_cons_newline
  3899 000025AC                                 L657:
  3900 000025AC 68 [00000A12]                   	PUSH	LC136
  3901 000025B1 56                              	PUSH	ESI
  3902 000025B2 E8 FFFFE1DC                     	CALL	_cons_putstr0
  3903 000025B7 5B                              	POP	EBX
  3904 000025B8 58                              	POP	EAX
  3905 000025B9 EB E3                           	JMP	L658
  3906                                          [SECTION .data]
  3907 00000A26                                 LC137:
  3908 00000A26 48 61 72 69 00                  	DB	"Hari",0x00
  3909 00000A2B                                 LC138:
  3910 00000A2B 2E 68 72 62 20 66 69 6C 65 20   	DB	".hrb file format error.",0x0A,0x00
       00000A35 66 6F 72 6D 61 74 20 65 72 72 
       00000A3F 6F 72 2E 0A 00 
  3911                                          [SECTION .text]
  3912 000025BB                                 	GLOBAL	_cmd_app
  3913 000025BB                                 _cmd_app:
  3914 000025BB 55                              	PUSH	EBP
  3915 000025BC 89 E5                           	MOV	EBP,ESP
  3916 000025BE 57                              	PUSH	EDI
  3917 000025BF 56                              	PUSH	ESI
  3918 000025C0 31 F6                           	XOR	ESI,ESI
  3919 000025C2 53                              	PUSH	EBX
  3920 000025C3 83 EC 34                        	SUB	ESP,52
  3921 000025C6 8B 5D 10                        	MOV	EBX,DWORD [16+EBP]
  3922 000025C9 E8 [00000000]                   	CALL	_task_now
  3923 000025CE 89 45 C8                        	MOV	DWORD [-56+EBP],EAX
  3924 000025D1                                 L665:
  3925 000025D1 8A 04 1E                        	MOV	AL,BYTE [ESI+EBX*1]
  3926 000025D4 3C 20                           	CMP	AL,32
  3927 000025D6 7E 0A                           	JLE	L661
  3928 000025D8 88 44 35 D4                     	MOV	BYTE [-44+EBP+ESI*1],AL
  3929 000025DC 46                              	INC	ESI
  3930 000025DD 83 FE 0C                        	CMP	ESI,12
  3931 000025E0 7E EF                           	JLE	L665
  3932 000025E2                                 L661:
  3933 000025E2 68 000000E0                     	PUSH	224
  3934 000025E7 8D 5D D4                        	LEA	EBX,DWORD [-44+EBP]
  3935 000025EA 68 00102600                     	PUSH	1058304
  3936 000025EF 53                              	PUSH	EBX
  3937 000025F0 C6 44 35 D4 00                  	MOV	BYTE [-44+EBP+ESI*1],0
  3938 000025F5 E8 [00000000]                   	CALL	_file_search
  3939 000025FA 83 C4 0C                        	ADD	ESP,12
  3940 000025FD 89 C2                           	MOV	EDX,EAX
  3941 000025FF 85 C0                           	TEST	EAX,EAX
  3942 00002601 0F 84 000001B6                  	JE	L695
  3943 00002607                                 L694:
  3944 00002607 8B 42 1C                        	MOV	EAX,DWORD [28+EDX]
  3945 0000260A 89 45 D0                        	MOV	DWORD [-48+EBP],EAX
  3946 0000260D 8D 45 D0                        	LEA	EAX,DWORD [-48+EBP]
  3947 00002610 FF 75 0C                        	PUSH	DWORD [12+EBP]
  3948 00002613 50                              	PUSH	EAX
  3949 00002614 0F B7 42 1A                     	MOVZX	EAX,WORD [26+EDX]
  3950 00002618 50                              	PUSH	EAX
  3951 00002619 E8 [00000000]                   	CALL	_file_loadfile2
  3952 0000261E 83 C4 0C                        	ADD	ESP,12
  3953 00002621 83 7D D0 23                     	CMP	DWORD [-48+EBP],35
  3954 00002625 89 45 CC                        	MOV	DWORD [-52+EBP],EAX
  3955 00002628 7E 1C                           	JLE	L668
  3956 0000262A 89 C6                           	MOV	ESI,EAX
  3957 0000262C BF [00000A26]                   	MOV	EDI,LC137
  3958 00002631 FC                              	CLD
  3959 00002632 83 C6 04                        	ADD	ESI,4
  3960 00002635 B9 00000004                     	MOV	ECX,4
  3961 0000263A F3                              	REPE
  3962 0000263B A6                              	CMPSB
  3963 0000263C 75 08                           	JNE	L668
  3964 0000263E 8B 45 CC                        	MOV	EAX,DWORD [-52+EBP]
  3965 00002641 80 38 00                        	CMP	BYTE [EAX],0
  3966 00002644 74 34                           	JE	L696
  3967 00002646                                 L668:
  3968 00002646 68 [00000A2B]                   	PUSH	LC138
  3969 0000264B FF 75 08                        	PUSH	DWORD [8+EBP]
  3970 0000264E E8 FFFFE140                     	CALL	_cons_putstr0
  3971 00002653 58                              	POP	EAX
  3972 00002654 5A                              	POP	EDX
  3973 00002655                                 L686:
  3974 00002655 FF 75 D0                        	PUSH	DWORD [-48+EBP]
  3975 00002658 FF 75 CC                        	PUSH	DWORD [-52+EBP]
  3976 0000265B 68 003C0000                     	PUSH	3932160
  3977 00002660 E8 [00000000]                   	CALL	_memman_free_4k
  3978 00002665 FF 75 08                        	PUSH	DWORD [8+EBP]
  3979 00002668 E8 FFFFDFD3                     	CALL	_cons_newline
  3980 0000266D B8 00000001                     	MOV	EAX,1
  3981 00002672                                 L659:
  3982 00002672 8D 65 F4                        	LEA	ESP,DWORD [-12+EBP]
  3983 00002675 5B                              	POP	EBX
  3984 00002676 5E                              	POP	ESI
  3985 00002677 5F                              	POP	EDI
  3986 00002678 5D                              	POP	EBP
  3987 00002679 C3                              	RET
  3988 0000267A                                 L696:
  3989 0000267A 8B 10                           	MOV	EDX,DWORD [EAX]
  3990 0000267C 8B 40 0C                        	MOV	EAX,DWORD [12+EAX]
  3991 0000267F 89 55 C4                        	MOV	DWORD [-60+EBP],EDX
  3992 00002682 89 45 C0                        	MOV	DWORD [-64+EBP],EAX
  3993 00002685 8B 55 CC                        	MOV	EDX,DWORD [-52+EBP]
  3994 00002688 8B 5A 10                        	MOV	EBX,DWORD [16+EDX]
  3995 0000268B 8B 72 14                        	MOV	ESI,DWORD [20+EDX]
  3996 0000268E FF 75 C4                        	PUSH	DWORD [-60+EBP]
  3997 00002691 68 003C0000                     	PUSH	3932160
  3998 00002696 E8 [00000000]                   	CALL	_memman_alloc_4k
  3999 0000269B 89 C7                           	MOV	EDI,EAX
  4000 0000269D 8B 45 C8                        	MOV	EAX,DWORD [-56+EBP]
  4001 000026A0 89 B8 000000A8                  	MOV	DWORD [168+EAX],EDI
  4002 000026A6 8B 45 D0                        	MOV	EAX,DWORD [-48+EBP]
  4003 000026A9 68 000040FA                     	PUSH	16634
  4004 000026AE 48                              	DEC	EAX
  4005 000026AF FF 75 CC                        	PUSH	DWORD [-52+EBP]
  4006 000026B2 50                              	PUSH	EAX
  4007 000026B3 8B 45 C8                        	MOV	EAX,DWORD [-56+EBP]
  4008 000026B6 05 00000094                     	ADD	EAX,148
  4009 000026BB 50                              	PUSH	EAX
  4010 000026BC E8 [00000000]                   	CALL	_set_segmdesc
  4011 000026C1 8B 45 C4                        	MOV	EAX,DWORD [-60+EBP]
  4012 000026C4 68 000040F2                     	PUSH	16626
  4013 000026C9 48                              	DEC	EAX
  4014 000026CA 57                              	PUSH	EDI
  4015 000026CB 50                              	PUSH	EAX
  4016 000026CC 8B 45 C8                        	MOV	EAX,DWORD [-56+EBP]
  4017 000026CF 05 0000009C                     	ADD	EAX,156
  4018 000026D4 50                              	PUSH	EAX
  4019 000026D5 E8 [00000000]                   	CALL	_set_segmdesc
  4020 000026DA 83 C4 28                        	ADD	ESP,40
  4021 000026DD 85 DB                           	TEST	EBX,EBX
  4022 000026DF 7E 16                           	JLE	L689
  4023 000026E1 8B 45 CC                        	MOV	EAX,DWORD [-52+EBP]
  4024 000026E4 8B 4D C0                        	MOV	ECX,DWORD [-64+EBP]
  4025 000026E7 01 F9                           	ADD	ECX,EDI
  4026 000026E9 8D 14 30                        	LEA	EDX,DWORD [EAX+ESI*1]
  4027 000026EC 89 DE                           	MOV	ESI,EBX
  4028 000026EE                                 L673:
  4029 000026EE 8A 02                           	MOV	AL,BYTE [EDX]
  4030 000026F0 42                              	INC	EDX
  4031 000026F1 88 01                           	MOV	BYTE [ECX],AL
  4032 000026F3 41                              	INC	ECX
  4033 000026F4 4E                              	DEC	ESI
  4034 000026F5 75 F7                           	JNE	L673
  4035 000026F7                                 L689:
  4036 000026F7 8B 45 C8                        	MOV	EAX,DWORD [-56+EBP]
  4037 000026FA BE 000000FF                     	MOV	ESI,255
  4038 000026FF 83 C0 30                        	ADD	EAX,48
  4039 00002702 50                              	PUSH	EAX
  4040 00002703 6A 0C                           	PUSH	12
  4041 00002705 FF 75 C0                        	PUSH	DWORD [-64+EBP]
  4042 00002708 6A 04                           	PUSH	4
  4043 0000270A 6A 1B                           	PUSH	27
  4044 0000270C E8 [00000000]                   	CALL	_start_app
  4045 00002711 8B 1D 00000FE4                  	MOV	EBX,DWORD [4068]
  4046 00002717 83 C4 14                        	ADD	ESP,20
  4047 0000271A 81 C3 00000414                  	ADD	EBX,1044
  4048 00002720                                 L679:
  4049 00002720 8B 43 1C                        	MOV	EAX,DWORD [28+EBX]
  4050 00002723 83 E0 11                        	AND	EAX,17
  4051 00002726 83 F8 11                        	CMP	EAX,17
  4052 00002729 74 7A                           	JE	L697
  4053 0000272B                                 L676:
  4054 0000272B 83 C3 28                        	ADD	EBX,40
  4055 0000272E 4E                              	DEC	ESI
  4056 0000272F 79 EF                           	JNS	L679
  4057 00002731 31 DB                           	XOR	EBX,EBX
  4058 00002733 BE 00000007                     	MOV	ESI,7
  4059 00002738                                 L685:
  4060 00002738 8B 55 C8                        	MOV	EDX,DWORD [-56+EBP]
  4061 0000273B 8B 82 000000B0                  	MOV	EAX,DWORD [176+EDX]
  4062 00002741 83 3C 18 00                     	CMP	DWORD [EAX+EBX*1],0
  4063 00002745 75 32                           	JNE	L698
  4064 00002747                                 L682:
  4065 00002747 83 C3 0C                        	ADD	EBX,12
  4066 0000274A 4E                              	DEC	ESI
  4067 0000274B 79 EB                           	JNS	L685
  4068 0000274D 8B 45 C8                        	MOV	EAX,DWORD [-56+EBP]
  4069 00002750 83 C0 10                        	ADD	EAX,16
  4070 00002753 50                              	PUSH	EAX
  4071 00002754 E8 [00000000]                   	CALL	_timer_cancelall
  4072 00002759 FF 75 C4                        	PUSH	DWORD [-60+EBP]
  4073 0000275C 57                              	PUSH	EDI
  4074 0000275D 68 003C0000                     	PUSH	3932160
  4075 00002762 E8 [00000000]                   	CALL	_memman_free_4k
  4076 00002767 83 C4 10                        	ADD	ESP,16
  4077 0000276A 8B 45 C8                        	MOV	EAX,DWORD [-56+EBP]
  4078 0000276D C6 80 000000BD 00               	MOV	BYTE [189+EAX],0
  4079 00002774 E9 FFFFFEDC                     	JMP	L686
  4080 00002779                                 L698:
  4081 00002779 FF 74 18 04                     	PUSH	DWORD [4+EAX+EBX*1]
  4082 0000277D 8B 82 000000B0                  	MOV	EAX,DWORD [176+EDX]
  4083 00002783 FF 34 18                        	PUSH	DWORD [EAX+EBX*1]
  4084 00002786 68 003C0000                     	PUSH	3932160
  4085 0000278B E8 [00000000]                   	CALL	_memman_free_4k
  4086 00002790 83 C4 0C                        	ADD	ESP,12
  4087 00002793 8B 55 C8                        	MOV	EDX,DWORD [-56+EBP]
  4088 00002796 8B 82 000000B0                  	MOV	EAX,DWORD [176+EDX]
  4089 0000279C C7 04 18 00000000               	MOV	DWORD [EAX+EBX*1],0
  4090 000027A3 EB A2                           	JMP	L682
  4091 000027A5                                 L697:
  4092 000027A5 8B 55 C8                        	MOV	EDX,DWORD [-56+EBP]
  4093 000027A8 39 53 24                        	CMP	DWORD [36+EBX],EDX
  4094 000027AB 0F 85 FFFFFF7A                  	JNE	L676
  4095 000027B1 53                              	PUSH	EBX
  4096 000027B2 E8 [00000000]                   	CALL	_sheet_free
  4097 000027B7 59                              	POP	ECX
  4098 000027B8 E9 FFFFFF6E                     	JMP	L676
  4099 000027BD                                 L695:
  4100 000027BD 80 7C 35 D3 2E                  	CMP	BYTE [-45+EBP+ESI*1],46
  4101 000027C2 74 2E                           	JE	L666
  4102 000027C4 68 000000E0                     	PUSH	224
  4103 000027C9 68 00102600                     	PUSH	1058304
  4104 000027CE 53                              	PUSH	EBX
  4105 000027CF C6 44 35 D4 2E                  	MOV	BYTE [-44+EBP+ESI*1],46
  4106 000027D4 C6 44 35 D5 48                  	MOV	BYTE [-43+EBP+ESI*1],72
  4107 000027D9 C6 44 35 D6 52                  	MOV	BYTE [-42+EBP+ESI*1],82
  4108 000027DE C6 44 35 D7 42                  	MOV	BYTE [-41+EBP+ESI*1],66
  4109 000027E3 C6 44 35 D8 00                  	MOV	BYTE [-40+EBP+ESI*1],0
  4110 000027E8 E8 [00000000]                   	CALL	_file_search
  4111 000027ED 83 C4 0C                        	ADD	ESP,12
  4112 000027F0 89 C2                           	MOV	EDX,EAX
  4113 000027F2                                 L666:
  4114 000027F2 85 D2                           	TEST	EDX,EDX
  4115 000027F4 0F 85 FFFFFE0D                  	JNE	L694
  4116 000027FA 31 C0                           	XOR	EAX,EAX
  4117 000027FC E9 FFFFFE71                     	JMP	L659
  4118 00002801                                 	GLOBAL	_hrb_api
  4119 00002801                                 _hrb_api:
  4120 00002801 55                              	PUSH	EBP
  4121 00002802 89 E5                           	MOV	EBP,ESP
  4122 00002804 57                              	PUSH	EDI
  4123 00002805 56                              	PUSH	ESI
  4124 00002806 53                              	PUSH	EBX
  4125 00002807 83 EC 18                        	SUB	ESP,24
  4126 0000280A 8B 75 10                        	MOV	ESI,DWORD [16+EBP]
  4127 0000280D 8B 7D 20                        	MOV	EDI,DWORD [32+EBP]
  4128 00002810 E8 [00000000]                   	CALL	_task_now
  4129 00002815 8B 0D 00000FE4                  	MOV	ECX,DWORD [4068]
  4130 0000281B 89 4D E8                        	MOV	DWORD [-24+EBP],ECX
  4131 0000281E 89 45 F0                        	MOV	DWORD [-16+EBP],EAX
  4132 00002821 8B 80 000000A8                  	MOV	EAX,DWORD [168+EAX]
  4133 00002827 89 45 EC                        	MOV	DWORD [-20+EBP],EAX
  4134 0000282A 8B 55 F0                        	MOV	EDX,DWORD [-16+EBP]
  4135 0000282D A1 00000FEC                     	MOV	EAX,DWORD [4076]
  4136 00002832 89 45 E0                        	MOV	DWORD [-32+EBP],EAX
  4137 00002835 8B 9A 000000A4                  	MOV	EBX,DWORD [164+EDX]
  4138 0000283B 8B 45 1C                        	MOV	EAX,DWORD [28+EBP]
  4139 0000283E 48                              	DEC	EAX
  4140 0000283F 83 F8 1D                        	CMP	EAX,29
  4141 00002842 77 17                           	JA	L700
  4142 00002844 FF 24 85 [00000A44]             	JMP	DWORD [L782+EAX*4]
  4143                                          [SECTION .data]
  4144 00000A44                                 	ALIGNB	4
  4145 00000A44                                 L782:
  4146 00000A44 [0000284B]                      	DD	L701
  4147 00000A48 [00002865]                      	DD	L702
  4148 00000A4C [00002876]                      	DD	L703
  4149 00000A50 [00002886]                      	DD	L704
  4150 00000A54 [0000288E]                      	DD	L705
  4151 00000A58 [00002914]                      	DD	L706
  4152 00000A5C [00002968]                      	DD	L708
  4153 00000A60 [000029AE]                      	DD	L710
  4154 00000A64 [000029CF]                      	DD	L711
  4155 00000A68 [000029EA]                      	DD	L712
  4156 00000A6C [00002A05]                      	DD	L713
  4157 00000A70 [00002A43]                      	DD	L715
  4158 00000A74 [00002A55]                      	DD	L716
  4159 00000A78 [00002AA6]                      	DD	L720
  4160 00000A7C [00002AB4]                      	DD	L722
  4161 00000A80 [00002B9E]                      	DD	L733
  4162 00000A84 [00002BAF]                      	DD	L734
  4163 00000A88 [00002BCC]                      	DD	L735
  4164 00000A8C [00002BDC]                      	DD	L736
  4165 00000A90 [00002BE9]                      	DD	L737
  4166 00000A94 [00002C5C]                      	DD	L740
  4167 00000A98 [00002CDF]                      	DD	L749
  4168 00000A9C [00002CFC]                      	DD	L750
  4169 00000AA0 [00002D46]                      	DD	L758
  4170 00000AA4 [00002D76]                      	DD	L764
  4171 00000AA8 [00002DA5]                      	DD	L771
  4172 00000AAC [00002DCF]                      	DD	L777
  4173 00000AB0 [0000285B]                      	DD	L700
  4174 00000AB4 [0000285B]                      	DD	L700
  4175 00000AB8 [0000285B]                      	DD	L700
  4176                                          [SECTION .text]
  4177 0000284B                                 L701:
  4178 0000284B 6A 01                           	PUSH	1
  4179 0000284D 0F B6 45 24                     	MOVZX	EAX,BYTE [36+EBP]
  4180 00002851 50                              	PUSH	EAX
  4181 00002852 53                              	PUSH	EBX
  4182 00002853 E8 FFFFDD2D                     	CALL	_cons_putchar
  4183 00002858                                 L787:
  4184 00002858 83 C4 0C                        	ADD	ESP,12
  4185 0000285B                                 L700:
  4186 0000285B 31 C0                           	XOR	EAX,EAX
  4187 0000285D                                 L699:
  4188 0000285D 8D 65 F4                        	LEA	ESP,DWORD [-12+EBP]
  4189 00002860 5B                              	POP	EBX
  4190 00002861 5E                              	POP	ESI
  4191 00002862 5F                              	POP	EDI
  4192 00002863 5D                              	POP	EBP
  4193 00002864 C3                              	RET
  4194 00002865                                 L702:
  4195 00002865 8B 45 18                        	MOV	EAX,DWORD [24+EBP]
  4196 00002868 03 45 EC                        	ADD	EAX,DWORD [-20+EBP]
  4197 0000286B 50                              	PUSH	EAX
  4198 0000286C 53                              	PUSH	EBX
  4199 0000286D E8 FFFFDF21                     	CALL	_cons_putstr0
  4200 00002872                                 L790:
  4201 00002872 5E                              	POP	ESI
  4202 00002873 5F                              	POP	EDI
  4203 00002874 EB E5                           	JMP	L700
  4204 00002876                                 L703:
  4205 00002876 8B 45 18                        	MOV	EAX,DWORD [24+EBP]
  4206 00002879 57                              	PUSH	EDI
  4207 0000287A 03 45 EC                        	ADD	EAX,DWORD [-20+EBP]
  4208 0000287D 50                              	PUSH	EAX
  4209 0000287E 53                              	PUSH	EBX
  4210 0000287F E8 FFFFDF3D                     	CALL	_cons_putstr1
  4211 00002884 EB D2                           	JMP	L787
  4212 00002886                                 L704:
  4213 00002886 8B 45 F0                        	MOV	EAX,DWORD [-16+EBP]
  4214 00002889 83 C0 30                        	ADD	EAX,48
  4215 0000288C EB CF                           	JMP	L699
  4216 0000288E                                 L705:
  4217 0000288E FF 75 E8                        	PUSH	DWORD [-24+EBP]
  4218 00002891 E8 [00000000]                   	CALL	_sheet_alloc
  4219 00002896 8B 5D 18                        	MOV	EBX,DWORD [24+EBP]
  4220 00002899 8B 55 F0                        	MOV	EDX,DWORD [-16+EBP]
  4221 0000289C 03 5D EC                        	ADD	EBX,DWORD [-20+EBP]
  4222 0000289F 89 50 24                        	MOV	DWORD [36+EAX],EDX
  4223 000028A2 83 48 1C 10                     	OR	DWORD [28+EAX],16
  4224 000028A6 FF 75 24                        	PUSH	DWORD [36+EBP]
  4225 000028A9 FF 75 08                        	PUSH	DWORD [8+EBP]
  4226 000028AC FF 75 0C                        	PUSH	DWORD [12+EBP]
  4227 000028AF 53                              	PUSH	EBX
  4228 000028B0 89 45 E4                        	MOV	DWORD [-28+EBP],EAX
  4229 000028B3 50                              	PUSH	EAX
  4230 000028B4 E8 [00000000]                   	CALL	_sheet_setbuf
  4231 000028B9 8B 55 EC                        	MOV	EDX,DWORD [-20+EBP]
  4232 000028BC 6A 00                           	PUSH	0
  4233 000028BE 8D 04 3A                        	LEA	EAX,DWORD [EDX+EDI*1]
  4234 000028C1 50                              	PUSH	EAX
  4235 000028C2 FF 75 08                        	PUSH	DWORD [8+EBP]
  4236 000028C5 FF 75 0C                        	PUSH	DWORD [12+EBP]
  4237 000028C8 53                              	PUSH	EBX
  4238 000028C9 BB 00000002                     	MOV	EBX,2
  4239 000028CE E8 [00000000]                   	CALL	_make_window8
  4240 000028D3 8B 4D E8                        	MOV	ECX,DWORD [-24+EBP]
  4241 000028D6 83 C4 2C                        	ADD	ESP,44
  4242 000028D9 8B 41 0C                        	MOV	EAX,DWORD [12+ECX]
  4243 000028DC 2B 45 08                        	SUB	EAX,DWORD [8+EBP]
  4244 000028DF 99                              	CDQ
  4245 000028E0 F7 FB                           	IDIV	EBX
  4246 000028E2 50                              	PUSH	EAX
  4247 000028E3 8B 41 08                        	MOV	EAX,DWORD [8+ECX]
  4248 000028E6 2B 45 0C                        	SUB	EAX,DWORD [12+EBP]
  4249 000028E9 99                              	CDQ
  4250 000028EA F7 FB                           	IDIV	EBX
  4251 000028EC 83 E0 FC                        	AND	EAX,-4
  4252 000028EF 50                              	PUSH	EAX
  4253 000028F0 FF 75 E4                        	PUSH	DWORD [-28+EBP]
  4254 000028F3 E8 [00000000]                   	CALL	_sheet_slide
  4255 000028F8 8B 4D E8                        	MOV	ECX,DWORD [-24+EBP]
  4256 000028FB FF 71 10                        	PUSH	DWORD [16+ECX]
  4257 000028FE FF 75 E4                        	PUSH	DWORD [-28+EBP]
  4258 00002901 E8 [00000000]                   	CALL	_sheet_updown
  4259 00002906 8B 5D E4                        	MOV	EBX,DWORD [-28+EBP]
  4260 00002909 89 5D 44                        	MOV	DWORD [68+EBP],EBX
  4261 0000290C                                 L791:
  4262 0000290C 83 C4 14                        	ADD	ESP,20
  4263 0000290F E9 FFFFFF47                     	JMP	L700
  4264 00002914                                 L706:
  4265 00002914 8B 45 18                        	MOV	EAX,DWORD [24+EBP]
  4266 00002917 8B 55 EC                        	MOV	EDX,DWORD [-20+EBP]
  4267 0000291A 83 E0 FE                        	AND	EAX,-2
  4268 0000291D 89 45 E4                        	MOV	DWORD [-28+EBP],EAX
  4269 00002920 8D 04 32                        	LEA	EAX,DWORD [EDX+ESI*1]
  4270 00002923 50                              	PUSH	EAX
  4271 00002924 8B 4D E4                        	MOV	ECX,DWORD [-28+EBP]
  4272 00002927 0F BE 45 24                     	MOVSX	EAX,BYTE [36+EBP]
  4273 0000292B 50                              	PUSH	EAX
  4274 0000292C FF 75 08                        	PUSH	DWORD [8+EBP]
  4275 0000292F FF 75 0C                        	PUSH	DWORD [12+EBP]
  4276 00002932 FF 71 04                        	PUSH	DWORD [4+ECX]
  4277 00002935 FF 31                           	PUSH	DWORD [ECX]
  4278 00002937 E8 [00000000]                   	CALL	_putfonts8_asc
  4279 0000293C 83 C4 18                        	ADD	ESP,24
  4280 0000293F F7 45 18 00000001               	TEST	DWORD [24+EBP],1
  4281 00002946 0F 85 FFFFFF0F                  	JNE	L700
  4282 0000294C 8B 5D 0C                        	MOV	EBX,DWORD [12+EBP]
  4283 0000294F 8B 45 08                        	MOV	EAX,DWORD [8+EBP]
  4284 00002952 83 C0 10                        	ADD	EAX,16
  4285 00002955 50                              	PUSH	EAX
  4286 00002956 8D 04 FB                        	LEA	EAX,DWORD [EBX+EDI*8]
  4287 00002959 50                              	PUSH	EAX
  4288 0000295A FF 75 08                        	PUSH	DWORD [8+EBP]
  4289 0000295D 53                              	PUSH	EBX
  4290 0000295E                                 L792:
  4291 0000295E FF 75 E4                        	PUSH	DWORD [-28+EBP]
  4292 00002961                                 L789:
  4293 00002961 E8 [00000000]                   	CALL	_sheet_refresh
  4294 00002966 EB A4                           	JMP	L791
  4295 00002968                                 L708:
  4296 00002968 FF 75 08                        	PUSH	DWORD [8+EBP]
  4297 0000296B 8B 45 18                        	MOV	EAX,DWORD [24+EBP]
  4298 0000296E 89 F2                           	MOV	EDX,ESI
  4299 00002970 FF 75 0C                        	PUSH	DWORD [12+EBP]
  4300 00002973 83 E0 FE                        	AND	EAX,-2
  4301 00002976 57                              	PUSH	EDI
  4302 00002977 89 45 E4                        	MOV	DWORD [-28+EBP],EAX
  4303 0000297A FF 75 24                        	PUSH	DWORD [36+EBP]
  4304 0000297D 8B 4D E4                        	MOV	ECX,DWORD [-28+EBP]
  4305 00002980 0F B6 C2                        	MOVZX	EAX,DL
  4306 00002983 50                              	PUSH	EAX
  4307 00002984 FF 71 04                        	PUSH	DWORD [4+ECX]
  4308 00002987 FF 31                           	PUSH	DWORD [ECX]
  4309 00002989 E8 [00000000]                   	CALL	_boxfill8
  4310 0000298E 83 C4 1C                        	ADD	ESP,28
  4311 00002991 F7 45 18 00000001               	TEST	DWORD [24+EBP],1
  4312 00002998 0F 85 FFFFFEBD                  	JNE	L700
  4313 0000299E                                 L719:
  4314 0000299E 8B 45 08                        	MOV	EAX,DWORD [8+EBP]
  4315 000029A1 40                              	INC	EAX
  4316 000029A2 50                              	PUSH	EAX
  4317 000029A3 8B 45 0C                        	MOV	EAX,DWORD [12+EBP]
  4318 000029A6 40                              	INC	EAX
  4319 000029A7 50                              	PUSH	EAX
  4320 000029A8 57                              	PUSH	EDI
  4321 000029A9 FF 75 24                        	PUSH	DWORD [36+EBP]
  4322 000029AC EB B0                           	JMP	L792
  4323 000029AE                                 L710:
  4324 000029AE 8B 5D 18                        	MOV	EBX,DWORD [24+EBP]
  4325 000029B1 83 E7 F0                        	AND	EDI,-16
  4326 000029B4 03 5D EC                        	ADD	EBX,DWORD [-20+EBP]
  4327 000029B7 53                              	PUSH	EBX
  4328 000029B8 E8 [00000000]                   	CALL	_memman_init
  4329 000029BD 57                              	PUSH	EDI
  4330 000029BE FF 75 24                        	PUSH	DWORD [36+EBP]
  4331 000029C1 53                              	PUSH	EBX
  4332 000029C2 E8 [00000000]                   	CALL	_memman_free
  4333 000029C7 83 C4 10                        	ADD	ESP,16
  4334 000029CA E9 FFFFFE8C                     	JMP	L700
  4335 000029CF                                 L711:
  4336 000029CF 8D 47 0F                        	LEA	EAX,DWORD [15+EDI]
  4337 000029D2 83 E0 F0                        	AND	EAX,-16
  4338 000029D5 50                              	PUSH	EAX
  4339 000029D6 8B 45 18                        	MOV	EAX,DWORD [24+EBP]
  4340 000029D9 03 45 EC                        	ADD	EAX,DWORD [-20+EBP]
  4341 000029DC 50                              	PUSH	EAX
  4342 000029DD E8 [00000000]                   	CALL	_memman_alloc
  4343 000029E2 89 45 44                        	MOV	DWORD [68+EBP],EAX
  4344 000029E5 E9 FFFFFE88                     	JMP	L790
  4345 000029EA                                 L712:
  4346 000029EA 8D 47 0F                        	LEA	EAX,DWORD [15+EDI]
  4347 000029ED 83 E0 F0                        	AND	EAX,-16
  4348 000029F0 50                              	PUSH	EAX
  4349 000029F1 8B 45 18                        	MOV	EAX,DWORD [24+EBP]
  4350 000029F4 03 45 EC                        	ADD	EAX,DWORD [-20+EBP]
  4351 000029F7 FF 75 24                        	PUSH	DWORD [36+EBP]
  4352 000029FA 50                              	PUSH	EAX
  4353 000029FB E8 [00000000]                   	CALL	_memman_free
  4354 00002A00 E9 FFFFFE53                     	JMP	L787
  4355 00002A05                                 L713:
  4356 00002A05 8B 5D 18                        	MOV	EBX,DWORD [24+EBP]
  4357 00002A08 8B 45 08                        	MOV	EAX,DWORD [8+EBP]
  4358 00002A0B 83 E3 FE                        	AND	EBX,-2
  4359 00002A0E 8A 55 24                        	MOV	DL,BYTE [36+EBP]
  4360 00002A11 89 5D E4                        	MOV	DWORD [-28+EBP],EBX
  4361 00002A14 0F AF 43 04                     	IMUL	EAX,DWORD [4+EBX]
  4362 00002A18 03 45 0C                        	ADD	EAX,DWORD [12+EBP]
  4363 00002A1B 8B 0B                           	MOV	ECX,DWORD [EBX]
  4364 00002A1D 88 14 08                        	MOV	BYTE [EAX+ECX*1],DL
  4365 00002A20 F7 45 18 00000001               	TEST	DWORD [24+EBP],1
  4366 00002A27 0F 85 FFFFFE2E                  	JNE	L700
  4367 00002A2D 8B 45 08                        	MOV	EAX,DWORD [8+EBP]
  4368 00002A30 40                              	INC	EAX
  4369 00002A31 50                              	PUSH	EAX
  4370 00002A32 8B 45 0C                        	MOV	EAX,DWORD [12+EBP]
  4371 00002A35 40                              	INC	EAX
  4372 00002A36 50                              	PUSH	EAX
  4373 00002A37 FF 75 08                        	PUSH	DWORD [8+EBP]
  4374 00002A3A FF 75 0C                        	PUSH	DWORD [12+EBP]
  4375 00002A3D 53                              	PUSH	EBX
  4376 00002A3E E9 FFFFFF1E                     	JMP	L789
  4377 00002A43                                 L715:
  4378 00002A43 FF 75 08                        	PUSH	DWORD [8+EBP]
  4379 00002A46 FF 75 0C                        	PUSH	DWORD [12+EBP]
  4380 00002A49 57                              	PUSH	EDI
  4381 00002A4A FF 75 24                        	PUSH	DWORD [36+EBP]
  4382 00002A4D FF 75 18                        	PUSH	DWORD [24+EBP]
  4383 00002A50 E9 FFFFFF0C                     	JMP	L789
  4384 00002A55                                 L716:
  4385 00002A55 56                              	PUSH	ESI
  4386 00002A56 8B 45 18                        	MOV	EAX,DWORD [24+EBP]
  4387 00002A59 FF 75 08                        	PUSH	DWORD [8+EBP]
  4388 00002A5C FF 75 0C                        	PUSH	DWORD [12+EBP]
  4389 00002A5F 57                              	PUSH	EDI
  4390 00002A60 83 E0 FE                        	AND	EAX,-2
  4391 00002A63 FF 75 24                        	PUSH	DWORD [36+EBP]
  4392 00002A66 50                              	PUSH	EAX
  4393 00002A67 89 45 E4                        	MOV	DWORD [-28+EBP],EAX
  4394 00002A6A E8 00000401                     	CALL	_hrb_api_linewin
  4395 00002A6F 83 C4 18                        	ADD	ESP,24
  4396 00002A72 F7 45 18 00000001               	TEST	DWORD [24+EBP],1
  4397 00002A79 0F 85 FFFFFDDC                  	JNE	L700
  4398 00002A7F 8B 45 24                        	MOV	EAX,DWORD [36+EBP]
  4399 00002A82 3B 45 0C                        	CMP	EAX,DWORD [12+EBP]
  4400 00002A85 7E 09                           	JLE	L718
  4401 00002A87 8B 55 0C                        	MOV	EDX,DWORD [12+EBP]
  4402 00002A8A 89 45 0C                        	MOV	DWORD [12+EBP],EAX
  4403 00002A8D 89 55 24                        	MOV	DWORD [36+EBP],EDX
  4404 00002A90                                 L718:
  4405 00002A90 3B 7D 08                        	CMP	EDI,DWORD [8+EBP]
  4406 00002A93 0F 8E FFFFFF05                  	JLE	L719
  4407 00002A99 89 FE                           	MOV	ESI,EDI
  4408 00002A9B 8B 7D 08                        	MOV	EDI,DWORD [8+EBP]
  4409 00002A9E 89 75 08                        	MOV	DWORD [8+EBP],ESI
  4410 00002AA1 E9 FFFFFEF8                     	JMP	L719
  4411 00002AA6                                 L720:
  4412 00002AA6 FF 75 18                        	PUSH	DWORD [24+EBP]
  4413 00002AA9 E8 [00000000]                   	CALL	_sheet_free
  4414 00002AAE                                 L788:
  4415 00002AAE 5B                              	POP	EBX
  4416 00002AAF E9 FFFFFDA7                     	JMP	L700
  4417 00002AB4                                 L722:
  4418 00002AB4 E8 [00000000]                   	CALL	_io_cli
  4419 00002AB9 8B 45 F0                        	MOV	EAX,DWORD [-16+EBP]
  4420 00002ABC 83 C0 10                        	ADD	EAX,16
  4421 00002ABF 50                              	PUSH	EAX
  4422 00002AC0 E8 [00000000]                   	CALL	_fifo32_status
  4423 00002AC5 5A                              	POP	EDX
  4424 00002AC6 85 C0                           	TEST	EAX,EAX
  4425 00002AC8 75 13                           	JNE	L725
  4426 00002ACA 83 7D 24 00                     	CMP	DWORD [36+EBP],0
  4427 00002ACE 0F 84 000000B9                  	JE	L726
  4428 00002AD4 FF 75 F0                        	PUSH	DWORD [-16+EBP]
  4429 00002AD7 E8 [00000000]                   	CALL	_task_sleep
  4430 00002ADC 58                              	POP	EAX
  4431 00002ADD                                 L725:
  4432 00002ADD 8B 7D F0                        	MOV	EDI,DWORD [-16+EBP]
  4433 00002AE0 83 C7 10                        	ADD	EDI,16
  4434 00002AE3 57                              	PUSH	EDI
  4435 00002AE4 E8 [00000000]                   	CALL	_fifo32_get
  4436 00002AE9 89 C6                           	MOV	ESI,EAX
  4437 00002AEB E8 [00000000]                   	CALL	_io_sti
  4438 00002AF0 58                              	POP	EAX
  4439 00002AF1 83 FE 01                        	CMP	ESI,1
  4440 00002AF4 7E 75                           	JLE	L793
  4441 00002AF6                                 L728:
  4442 00002AF6 83 FE 02                        	CMP	ESI,2
  4443 00002AF9 74 67                           	JE	L794
  4444 00002AFB                                 L729:
  4445 00002AFB 83 FE 03                        	CMP	ESI,3
  4446 00002AFE 74 59                           	JE	L795
  4447 00002B00                                 L730:
  4448 00002B00 83 FE 04                        	CMP	ESI,4
  4449 00002B03 74 16                           	JE	L796
  4450 00002B05                                 L731:
  4451 00002B05 8D 86 FFFFFF00                  	LEA	EAX,DWORD [-256+ESI]
  4452 00002B0B 81 FE 000000FF                  	CMP	ESI,255
  4453 00002B11 7E A1                           	JLE	L722
  4454 00002B13                                 L786:
  4455 00002B13 89 45 44                        	MOV	DWORD [68+EBP],EAX
  4456 00002B16 E9 FFFFFD40                     	JMP	L700
  4457 00002B1B                                 L796:
  4458 00002B1B FF 73 10                        	PUSH	DWORD [16+EBX]
  4459 00002B1E E8 [00000000]                   	CALL	_timer_cancel
  4460 00002B23 E8 [00000000]                   	CALL	_io_cli
  4461 00002B28 8B 03                           	MOV	EAX,DWORD [EBX]
  4462 00002B2A 2B 45 E8                        	SUB	EAX,DWORD [-24+EBP]
  4463 00002B2D 2D 00000414                     	SUB	EAX,1044
  4464 00002B32 C1 F8 03                        	SAR	EAX,3
  4465 00002B35 69 C0 CCCCCCCD                  	IMUL	EAX,EAX,-858993459
  4466 00002B3B 05 000007E8                     	ADD	EAX,2024
  4467 00002B40 50                              	PUSH	EAX
  4468 00002B41 FF 75 E0                        	PUSH	DWORD [-32+EBP]
  4469 00002B44 E8 [00000000]                   	CALL	_fifo32_put
  4470 00002B49 C7 03 00000000                  	MOV	DWORD [EBX],0
  4471 00002B4F E8 [00000000]                   	CALL	_io_sti
  4472 00002B54 83 C4 0C                        	ADD	ESP,12
  4473 00002B57 EB AC                           	JMP	L731
  4474 00002B59                                 L795:
  4475 00002B59 C7 43 0C FFFFFFFF               	MOV	DWORD [12+EBX],-1
  4476 00002B60 EB 9E                           	JMP	L730
  4477 00002B62                                 L794:
  4478 00002B62 C7 43 0C 00000007               	MOV	DWORD [12+EBX],7
  4479 00002B69 EB 90                           	JMP	L729
  4480 00002B6B                                 L793:
  4481 00002B6B 83 3B 00                        	CMP	DWORD [EBX],0
  4482 00002B6E 74 86                           	JE	L728
  4483 00002B70 6A 01                           	PUSH	1
  4484 00002B72 57                              	PUSH	EDI
  4485 00002B73 FF 73 10                        	PUSH	DWORD [16+EBX]
  4486 00002B76 E8 [00000000]                   	CALL	_timer_init
  4487 00002B7B 6A 32                           	PUSH	50
  4488 00002B7D FF 73 10                        	PUSH	DWORD [16+EBX]
  4489 00002B80 E8 [00000000]                   	CALL	_timer_settime
  4490 00002B85 83 C4 14                        	ADD	ESP,20
  4491 00002B88 E9 FFFFFF69                     	JMP	L728
  4492 00002B8D                                 L726:
  4493 00002B8D E8 [00000000]                   	CALL	_io_sti
  4494 00002B92 C7 45 44 FFFFFFFF               	MOV	DWORD [68+EBP],-1
  4495 00002B99 E9 FFFFFCBD                     	JMP	L700
  4496 00002B9E                                 L733:
  4497 00002B9E E8 [00000000]                   	CALL	_timer_alloc
  4498 00002BA3 89 45 44                        	MOV	DWORD [68+EBP],EAX
  4499 00002BA6 C6 40 09 01                     	MOV	BYTE [9+EAX],1
  4500 00002BAA E9 FFFFFCAC                     	JMP	L700
  4501 00002BAF                                 L734:
  4502 00002BAF 8B 45 24                        	MOV	EAX,DWORD [36+EBP]
  4503 00002BB2 05 00000100                     	ADD	EAX,256
  4504 00002BB7 50                              	PUSH	EAX
  4505 00002BB8 8B 45 F0                        	MOV	EAX,DWORD [-16+EBP]
  4506 00002BBB 83 C0 10                        	ADD	EAX,16
  4507 00002BBE 50                              	PUSH	EAX
  4508 00002BBF FF 75 18                        	PUSH	DWORD [24+EBP]
  4509 00002BC2 E8 [00000000]                   	CALL	_timer_init
  4510 00002BC7 E9 FFFFFC8C                     	JMP	L787
  4511 00002BCC                                 L735:
  4512 00002BCC FF 75 24                        	PUSH	DWORD [36+EBP]
  4513 00002BCF FF 75 18                        	PUSH	DWORD [24+EBP]
  4514 00002BD2 E8 [00000000]                   	CALL	_timer_settime
  4515 00002BD7 E9 FFFFFC96                     	JMP	L790
  4516 00002BDC                                 L736:
  4517 00002BDC FF 75 18                        	PUSH	DWORD [24+EBP]
  4518 00002BDF E8 [00000000]                   	CALL	_timer_free
  4519 00002BE4 E9 FFFFFEC5                     	JMP	L788
  4520 00002BE9                                 L737:
  4521 00002BE9 8B 55 24                        	MOV	EDX,DWORD [36+EBP]
  4522 00002BEC 85 D2                           	TEST	EDX,EDX
  4523 00002BEE 75 19                           	JNE	L738
  4524 00002BF0 6A 61                           	PUSH	97
  4525 00002BF2 E8 [00000000]                   	CALL	_io_in8
  4526 00002BF7 89 C6                           	MOV	ESI,EAX
  4527 00002BF9 83 E6 0D                        	AND	ESI,13
  4528 00002BFC 56                              	PUSH	ESI
  4529 00002BFD 6A 61                           	PUSH	97
  4530 00002BFF E8 [00000000]                   	CALL	_io_out8
  4531 00002C04 E9 FFFFFC4F                     	JMP	L787
  4532 00002C09                                 L738:
  4533 00002C09 B9 471E7B60                     	MOV	ECX,1193180000
  4534 00002C0E 89 D3                           	MOV	EBX,EDX
  4535 00002C10 89 C8                           	MOV	EAX,ECX
  4536 00002C12 68 000000B6                     	PUSH	182
  4537 00002C17 99                              	CDQ
  4538 00002C18 F7 FB                           	IDIV	EBX
  4539 00002C1A 6A 43                           	PUSH	67
  4540 00002C1C 89 C6                           	MOV	ESI,EAX
  4541 00002C1E E8 [00000000]                   	CALL	_io_out8
  4542 00002C23 89 F0                           	MOV	EAX,ESI
  4543 00002C25 C1 FE 08                        	SAR	ESI,8
  4544 00002C28 25 000000FF                     	AND	EAX,255
  4545 00002C2D 50                              	PUSH	EAX
  4546 00002C2E 6A 42                           	PUSH	66
  4547 00002C30 E8 [00000000]                   	CALL	_io_out8
  4548 00002C35 56                              	PUSH	ESI
  4549 00002C36 6A 42                           	PUSH	66
  4550 00002C38 E8 [00000000]                   	CALL	_io_out8
  4551 00002C3D 6A 61                           	PUSH	97
  4552 00002C3F E8 [00000000]                   	CALL	_io_in8
  4553 00002C44 89 C6                           	MOV	ESI,EAX
  4554 00002C46 83 CE 03                        	OR	ESI,3
  4555 00002C49 83 E6 0F                        	AND	ESI,15
  4556 00002C4C 56                              	PUSH	ESI
  4557 00002C4D 6A 61                           	PUSH	97
  4558 00002C4F E8 [00000000]                   	CALL	_io_out8
  4559 00002C54 83 C4 24                        	ADD	ESP,36
  4560 00002C57 E9 FFFFFBFF                     	JMP	L700
  4561 00002C5C                                 L740:
  4562 00002C5C 31 F6                           	XOR	ESI,ESI
  4563 00002C5E 31 C0                           	XOR	EAX,EAX
  4564 00002C60                                 L746:
  4565 00002C60 8B 4D F0                        	MOV	ECX,DWORD [-16+EBP]
  4566 00002C63 8B 91 000000B0                  	MOV	EDX,DWORD [176+ECX]
  4567 00002C69 83 3C 02 00                     	CMP	DWORD [EDX+EAX*1],0
  4568 00002C6D 74 09                           	JE	L742
  4569 00002C6F 46                              	INC	ESI
  4570 00002C70 83 C0 0C                        	ADD	EAX,12
  4571 00002C73 83 FE 07                        	CMP	ESI,7
  4572 00002C76 7E E8                           	JLE	L746
  4573 00002C78                                 L742:
  4574 00002C78 6B C6 0C                        	IMUL	EAX,ESI,12
  4575 00002C7B C7 45 44 00000000               	MOV	DWORD [68+EBP],0
  4576 00002C82 8D 1C 10                        	LEA	EBX,DWORD [EAX+EDX*1]
  4577 00002C85 83 FE 07                        	CMP	ESI,7
  4578 00002C88 0F 8F FFFFFBCD                  	JG	L700
  4579 00002C8E 8B 45 18                        	MOV	EAX,DWORD [24+EBP]
  4580 00002C91 68 000000E0                     	PUSH	224
  4581 00002C96 03 45 EC                        	ADD	EAX,DWORD [-20+EBP]
  4582 00002C99 68 00102600                     	PUSH	1058304
  4583 00002C9E 50                              	PUSH	EAX
  4584 00002C9F E8 [00000000]                   	CALL	_file_search
  4585 00002CA4 83 C4 0C                        	ADD	ESP,12
  4586 00002CA7 89 C2                           	MOV	EDX,EAX
  4587 00002CA9 85 C0                           	TEST	EAX,EAX
  4588 00002CAB 0F 84 FFFFFBAA                  	JE	L700
  4589 00002CB1 89 5D 44                        	MOV	DWORD [68+EBP],EBX
  4590 00002CB4 8B 40 1C                        	MOV	EAX,DWORD [28+EAX]
  4591 00002CB7 89 43 04                        	MOV	DWORD [4+EBX],EAX
  4592 00002CBA 8B 45 F0                        	MOV	EAX,DWORD [-16+EBP]
  4593 00002CBD C7 43 08 00000000               	MOV	DWORD [8+EBX],0
  4594 00002CC4 FF B0 000000B4                  	PUSH	DWORD [180+EAX]
  4595 00002CCA 8D 43 04                        	LEA	EAX,DWORD [4+EBX]
  4596 00002CCD 50                              	PUSH	EAX
  4597 00002CCE 0F B7 42 1A                     	MOVZX	EAX,WORD [26+EDX]
  4598 00002CD2 50                              	PUSH	EAX
  4599 00002CD3 E8 [00000000]                   	CALL	_file_loadfile2
  4600 00002CD8 89 03                           	MOV	DWORD [EBX],EAX
  4601 00002CDA E9 FFFFFB79                     	JMP	L787
  4602 00002CDF                                 L749:
  4603 00002CDF 8B 5D 24                        	MOV	EBX,DWORD [36+EBP]
  4604 00002CE2 FF 73 04                        	PUSH	DWORD [4+EBX]
  4605 00002CE5 FF 33                           	PUSH	DWORD [EBX]
  4606 00002CE7 68 003C0000                     	PUSH	3932160
  4607 00002CEC E8 [00000000]                   	CALL	_memman_free_4k
  4608 00002CF1 C7 03 00000000                  	MOV	DWORD [EBX],0
  4609 00002CF7 E9 FFFFFB5C                     	JMP	L787
  4610 00002CFC                                 L750:
  4611 00002CFC 8B 5D 24                        	MOV	EBX,DWORD [36+EBP]
  4612 00002CFF 85 FF                           	TEST	EDI,EDI
  4613 00002D01 74 33                           	JE	L785
  4614 00002D03 83 FF 01                        	CMP	EDI,1
  4615 00002D06 74 36                           	JE	L797
  4616 00002D08 83 FF 02                        	CMP	EDI,2
  4617 00002D0B 74 23                           	JE	L798
  4618 00002D0D                                 L752:
  4619 00002D0D 83 7B 08 00                     	CMP	DWORD [8+EBX],0
  4620 00002D11 78 14                           	JS	L799
  4621 00002D13                                 L756:
  4622 00002D13 8B 43 04                        	MOV	EAX,DWORD [4+EBX]
  4623 00002D16 39 43 08                        	CMP	DWORD [8+EBX],EAX
  4624 00002D19 0F 8E FFFFFB3C                  	JLE	L700
  4625 00002D1F 89 43 08                        	MOV	DWORD [8+EBX],EAX
  4626 00002D22 E9 FFFFFB34                     	JMP	L700
  4627 00002D27                                 L799:
  4628 00002D27 C7 43 08 00000000               	MOV	DWORD [8+EBX],0
  4629 00002D2E EB E3                           	JMP	L756
  4630 00002D30                                 L798:
  4631 00002D30 8B 43 04                        	MOV	EAX,DWORD [4+EBX]
  4632 00002D33 01 45 18                        	ADD	DWORD [24+EBP],EAX
  4633 00002D36                                 L785:
  4634 00002D36 8B 55 18                        	MOV	EDX,DWORD [24+EBP]
  4635 00002D39 89 53 08                        	MOV	DWORD [8+EBX],EDX
  4636 00002D3C EB CF                           	JMP	L752
  4637 00002D3E                                 L797:
  4638 00002D3E 8B 4D 18                        	MOV	ECX,DWORD [24+EBP]
  4639 00002D41 01 4B 08                        	ADD	DWORD [8+EBX],ECX
  4640 00002D44 EB C7                           	JMP	L752
  4641 00002D46                                 L758:
  4642 00002D46 8B 5D 24                        	MOV	EBX,DWORD [36+EBP]
  4643 00002D49 85 FF                           	TEST	EDI,EDI
  4644 00002D4B 75 08                           	JNE	L759
  4645 00002D4D 8B 43 04                        	MOV	EAX,DWORD [4+EBX]
  4646 00002D50 E9 FFFFFDBE                     	JMP	L786
  4647 00002D55                                 L759:
  4648 00002D55 83 FF 01                        	CMP	EDI,1
  4649 00002D58 74 14                           	JE	L800
  4650 00002D5A 83 FF 02                        	CMP	EDI,2
  4651 00002D5D 0F 85 FFFFFAF8                  	JNE	L700
  4652 00002D63 8B 43 08                        	MOV	EAX,DWORD [8+EBX]
  4653 00002D66 2B 43 04                        	SUB	EAX,DWORD [4+EBX]
  4654 00002D69 E9 FFFFFDA5                     	JMP	L786
  4655 00002D6E                                 L800:
  4656 00002D6E 8B 43 08                        	MOV	EAX,DWORD [8+EBX]
  4657 00002D71 E9 FFFFFD9D                     	JMP	L786
  4658 00002D76                                 L764:
  4659 00002D76 31 F6                           	XOR	ESI,ESI
  4660 00002D78 8B 5D 24                        	MOV	EBX,DWORD [36+EBP]
  4661 00002D7B 39 FE                           	CMP	ESI,EDI
  4662 00002D7D 7D 1E                           	JGE	L773
  4663 00002D7F                                 L770:
  4664 00002D7F 8B 4B 08                        	MOV	ECX,DWORD [8+EBX]
  4665 00002D82 3B 4B 04                        	CMP	ECX,DWORD [4+EBX]
  4666 00002D85 74 16                           	JE	L773
  4667 00002D87 8B 45 18                        	MOV	EAX,DWORD [24+EBP]
  4668 00002D8A 8B 13                           	MOV	EDX,DWORD [EBX]
  4669 00002D8C 03 45 EC                        	ADD	EAX,DWORD [-20+EBP]
  4670 00002D8F 8A 14 11                        	MOV	DL,BYTE [ECX+EDX*1]
  4671 00002D92 88 14 06                        	MOV	BYTE [ESI+EAX*1],DL
  4672 00002D95 46                              	INC	ESI
  4673 00002D96 FF 43 08                        	INC	DWORD [8+EBX]
  4674 00002D99 39 FE                           	CMP	ESI,EDI
  4675 00002D9B 7C E2                           	JL	L770
  4676 00002D9D                                 L773:
  4677 00002D9D 89 75 44                        	MOV	DWORD [68+EBP],ESI
  4678 00002DA0 E9 FFFFFAB6                     	JMP	L700
  4679 00002DA5                                 L771:
  4680 00002DA5 31 F6                           	XOR	ESI,ESI
  4681 00002DA7                                 L772:
  4682 00002DA7 8B 4D F0                        	MOV	ECX,DWORD [-16+EBP]
  4683 00002DAA 8B 55 18                        	MOV	EDX,DWORD [24+EBP]
  4684 00002DAD 03 55 EC                        	ADD	EDX,DWORD [-20+EBP]
  4685 00002DB0 8B 81 000000B8                  	MOV	EAX,DWORD [184+ECX]
  4686 00002DB6 8A 04 06                        	MOV	AL,BYTE [ESI+EAX*1]
  4687 00002DB9 88 04 16                        	MOV	BYTE [ESI+EDX*1],AL
  4688 00002DBC 8B 81 000000B8                  	MOV	EAX,DWORD [184+ECX]
  4689 00002DC2 80 3C 06 00                     	CMP	BYTE [ESI+EAX*1],0
  4690 00002DC6 74 D5                           	JE	L773
  4691 00002DC8 39 FE                           	CMP	ESI,EDI
  4692 00002DCA 7D D1                           	JGE	L773
  4693 00002DCC 46                              	INC	ESI
  4694 00002DCD EB D8                           	JMP	L772
  4695 00002DCF                                 L777:
  4696 00002DCF 8B 5D F0                        	MOV	EBX,DWORD [-16+EBP]
  4697 00002DD2 0F B6 83 000000BC               	MOVZX	EAX,BYTE [188+EBX]
  4698 00002DD9 E9 FFFFFD35                     	JMP	L786
  4699                                          [SECTION .data]
  4700 00000ABC                                 LC139:
  4701 00000ABC 0A 49 4E 54 20 30 43 20 3A 0A   	DB	0x0A,"INT 0C :",0x0A," Stack Exception.",0x0A,0x00
       00000AC6 20 53 74 61 63 6B 20 45 78 63 
       00000AD0 65 70 74 69 6F 6E 2E 0A 00 
  4702 00000AD9                                 LC140:
  4703 00000AD9 45 49 50 20 3D 20 25 30 38 58   	DB	"EIP = %08X",0x0A,0x00
       00000AE3 0A 00 
  4704                                          [SECTION .text]
  4705 00002DDE                                 	GLOBAL	_inthandler0c
  4706 00002DDE                                 _inthandler0c:
  4707 00002DDE 55                              	PUSH	EBP
  4708 00002DDF 89 E5                           	MOV	EBP,ESP
  4709 00002DE1 57                              	PUSH	EDI
  4710 00002DE2 56                              	PUSH	ESI
  4711 00002DE3 53                              	PUSH	EBX
  4712 00002DE4 8D 5D D4                        	LEA	EBX,DWORD [-44+EBP]
  4713 00002DE7 83 EC 20                        	SUB	ESP,32
  4714 00002DEA E8 [00000000]                   	CALL	_task_now
  4715 00002DEF 89 C6                           	MOV	ESI,EAX
  4716 00002DF1 8B B8 000000A4                  	MOV	EDI,DWORD [164+EAX]
  4717 00002DF7 83 C6 30                        	ADD	ESI,48
  4718 00002DFA 68 [00000ABC]                   	PUSH	LC139
  4719 00002DFF 57                              	PUSH	EDI
  4720 00002E00 E8 FFFFD98E                     	CALL	_cons_putstr0
  4721 00002E05 8B 45 08                        	MOV	EAX,DWORD [8+EBP]
  4722 00002E08 FF 70 2C                        	PUSH	DWORD [44+EAX]
  4723 00002E0B 68 [00000AD9]                   	PUSH	LC140
  4724 00002E10 53                              	PUSH	EBX
  4725 00002E11 E8 [00000000]                   	CALL	_sprintf
  4726 00002E16 53                              	PUSH	EBX
  4727 00002E17 57                              	PUSH	EDI
  4728 00002E18 E8 FFFFD976                     	CALL	_cons_putstr0
  4729 00002E1D 8D 65 F4                        	LEA	ESP,DWORD [-12+EBP]
  4730 00002E20 5B                              	POP	EBX
  4731 00002E21 89 F0                           	MOV	EAX,ESI
  4732 00002E23 5E                              	POP	ESI
  4733 00002E24 5F                              	POP	EDI
  4734 00002E25 5D                              	POP	EBP
  4735 00002E26 C3                              	RET
  4736                                          [SECTION .data]
  4737 00000AE5                                 LC141:
  4738 00000AE5 0A 49 4E 54 20 30 44 20 3A 0A   	DB	0x0A,"INT 0D :",0x0A," General Protected Exception.",0x0A,0x00
       00000AEF 20 47 65 6E 65 72 61 6C 20 50 
       00000AF9 72 6F 74 65 63 74 65 64 20 45 
       00000B03 78 63 65 70 74 69 6F 6E 2E 0A 
       00000B0D 00 
  4739                                          [SECTION .text]
  4740 00002E27                                 	GLOBAL	_inthandler0d
  4741 00002E27                                 _inthandler0d:
  4742 00002E27 55                              	PUSH	EBP
  4743 00002E28 89 E5                           	MOV	EBP,ESP
  4744 00002E2A 57                              	PUSH	EDI
  4745 00002E2B 56                              	PUSH	ESI
  4746 00002E2C 53                              	PUSH	EBX
  4747 00002E2D 8D 5D D4                        	LEA	EBX,DWORD [-44+EBP]
  4748 00002E30 83 EC 20                        	SUB	ESP,32
  4749 00002E33 E8 [00000000]                   	CALL	_task_now
  4750 00002E38 89 C6                           	MOV	ESI,EAX
  4751 00002E3A 8B B8 000000A4                  	MOV	EDI,DWORD [164+EAX]
  4752 00002E40 83 C6 30                        	ADD	ESI,48
  4753 00002E43 68 [00000AE5]                   	PUSH	LC141
  4754 00002E48 57                              	PUSH	EDI
  4755 00002E49 E8 FFFFD945                     	CALL	_cons_putstr0
  4756 00002E4E 8B 45 08                        	MOV	EAX,DWORD [8+EBP]
  4757 00002E51 FF 70 2C                        	PUSH	DWORD [44+EAX]
  4758 00002E54 68 [00000AD9]                   	PUSH	LC140
  4759 00002E59 53                              	PUSH	EBX
  4760 00002E5A E8 [00000000]                   	CALL	_sprintf
  4761 00002E5F 53                              	PUSH	EBX
  4762 00002E60 57                              	PUSH	EDI
  4763 00002E61 E8 FFFFD92D                     	CALL	_cons_putstr0
  4764 00002E66 8D 65 F4                        	LEA	ESP,DWORD [-12+EBP]
  4765 00002E69 5B                              	POP	EBX
  4766 00002E6A 89 F0                           	MOV	EAX,ESI
  4767 00002E6C 5E                              	POP	ESI
  4768 00002E6D 5F                              	POP	EDI
  4769 00002E6E 5D                              	POP	EBP
  4770 00002E6F C3                              	RET
  4771 00002E70                                 	GLOBAL	_hrb_api_linewin
  4772 00002E70                                 _hrb_api_linewin:
  4773 00002E70 55                              	PUSH	EBP
  4774 00002E71 89 E5                           	MOV	EBP,ESP
  4775 00002E73 57                              	PUSH	EDI
  4776 00002E74 56                              	PUSH	ESI
  4777 00002E75 53                              	PUSH	EBX
  4778 00002E76 83 EC 0C                        	SUB	ESP,12
  4779 00002E79 8B 5D 0C                        	MOV	EBX,DWORD [12+EBP]
  4780 00002E7C 8B 45 14                        	MOV	EAX,DWORD [20+EBP]
  4781 00002E7F 89 D9                           	MOV	ECX,EBX
  4782 00002E81 8B 55 18                        	MOV	EDX,DWORD [24+EBP]
  4783 00002E84 C1 E1 0A                        	SAL	ECX,10
  4784 00002E87 89 D7                           	MOV	EDI,EDX
  4785 00002E89 89 4D F0                        	MOV	DWORD [-16+EBP],ECX
  4786 00002E8C 89 C6                           	MOV	ESI,EAX
  4787 00002E8E 8B 4D 10                        	MOV	ECX,DWORD [16+EBP]
  4788 00002E91 2B 7D 10                        	SUB	EDI,DWORD [16+EBP]
  4789 00002E94 C1 E1 0A                        	SAL	ECX,10
  4790 00002E97 29 DE                           	SUB	ESI,EBX
  4791 00002E99 89 4D EC                        	MOV	DWORD [-20+EBP],ECX
  4792 00002E9C 0F 88 000000A3                  	JS	L825
  4793 00002EA2                                 L804:
  4794 00002EA2 85 FF                           	TEST	EDI,EDI
  4795 00002EA4 0F 88 00000094                  	JS	L826
  4796 00002EAA                                 L805:
  4797 00002EAA 39 FE                           	CMP	ESI,EDI
  4798 00002EAC 7C 62                           	JL	L806
  4799 00002EAE 8D 4E 01                        	LEA	ECX,DWORD [1+ESI]
  4800 00002EB1 39 C3                           	CMP	EBX,EAX
  4801 00002EB3 BE FFFFFC00                     	MOV	ESI,-1024
  4802 00002EB8 7F 05                           	JG	L808
  4803 00002EBA BE 00000400                     	MOV	ESI,1024
  4804 00002EBF                                 L808:
  4805 00002EBF 39 55 10                        	CMP	DWORD [16+EBP],EDX
  4806 00002EC2 7F 46                           	JG	L809
  4807 00002EC4 2B 55 10                        	SUB	EDX,DWORD [16+EBP]
  4808 00002EC7 42                              	INC	EDX
  4809 00002EC8                                 L824:
  4810 00002EC8 C1 E2 0A                        	SAL	EDX,10
  4811 00002ECB 89 D0                           	MOV	EAX,EDX
  4812 00002ECD 99                              	CDQ
  4813 00002ECE F7 F9                           	IDIV	ECX
  4814 00002ED0 89 C7                           	MOV	EDI,EAX
  4815 00002ED2                                 L811:
  4816 00002ED2 85 C9                           	TEST	ECX,ECX
  4817 00002ED4 7E 2C                           	JLE	L822
  4818 00002ED6 89 CB                           	MOV	EBX,ECX
  4819 00002ED8                                 L820:
  4820 00002ED8 8B 55 08                        	MOV	EDX,DWORD [8+EBP]
  4821 00002EDB 8B 45 EC                        	MOV	EAX,DWORD [-20+EBP]
  4822 00002EDE C1 F8 0A                        	SAR	EAX,10
  4823 00002EE1 8B 4D F0                        	MOV	ECX,DWORD [-16+EBP]
  4824 00002EE4 0F AF 42 04                     	IMUL	EAX,DWORD [4+EDX]
  4825 00002EE8 C1 F9 0A                        	SAR	ECX,10
  4826 00002EEB 89 4D E8                        	MOV	DWORD [-24+EBP],ECX
  4827 00002EEE 8B 0A                           	MOV	ECX,DWORD [EDX]
  4828 00002EF0 03 45 E8                        	ADD	EAX,DWORD [-24+EBP]
  4829 00002EF3 8A 55 1C                        	MOV	DL,BYTE [28+EBP]
  4830 00002EF6 88 14 08                        	MOV	BYTE [EAX+ECX*1],DL
  4831 00002EF9 01 75 F0                        	ADD	DWORD [-16+EBP],ESI
  4832 00002EFC 01 7D EC                        	ADD	DWORD [-20+EBP],EDI
  4833 00002EFF 4B                              	DEC	EBX
  4834 00002F00 75 D6                           	JNE	L820
  4835 00002F02                                 L822:
  4836 00002F02 83 C4 0C                        	ADD	ESP,12
  4837 00002F05 5B                              	POP	EBX
  4838 00002F06 5E                              	POP	ESI
  4839 00002F07 5F                              	POP	EDI
  4840 00002F08 5D                              	POP	EBP
  4841 00002F09 C3                              	RET
  4842 00002F0A                                 L809:
  4843 00002F0A 2B 55 10                        	SUB	EDX,DWORD [16+EBP]
  4844 00002F0D 4A                              	DEC	EDX
  4845 00002F0E EB B8                           	JMP	L824
  4846 00002F10                                 L806:
  4847 00002F10 8D 4F 01                        	LEA	ECX,DWORD [1+EDI]
  4848 00002F13 39 55 10                        	CMP	DWORD [16+EBP],EDX
  4849 00002F16 BF FFFFFC00                     	MOV	EDI,-1024
  4850 00002F1B 7F 05                           	JG	L813
  4851 00002F1D BF 00000400                     	MOV	EDI,1024
  4852 00002F22                                 L813:
  4853 00002F22 39 C3                           	CMP	EBX,EAX
  4854 00002F24 7F 11                           	JG	L814
  4855 00002F26 29 D8                           	SUB	EAX,EBX
  4856 00002F28 8D 50 01                        	LEA	EDX,DWORD [1+EAX]
  4857 00002F2B                                 L823:
  4858 00002F2B C1 E2 0A                        	SAL	EDX,10
  4859 00002F2E 89 D0                           	MOV	EAX,EDX
  4860 00002F30 99                              	CDQ
  4861 00002F31 F7 F9                           	IDIV	ECX
  4862 00002F33 89 C6                           	MOV	ESI,EAX
  4863 00002F35 EB 9B                           	JMP	L811
  4864 00002F37                                 L814:
  4865 00002F37 29 D8                           	SUB	EAX,EBX
  4866 00002F39 8D 50 FF                        	LEA	EDX,DWORD [-1+EAX]
  4867 00002F3C EB ED                           	JMP	L823
  4868 00002F3E                                 L826:
  4869 00002F3E F7 DF                           	NEG	EDI
  4870 00002F40 E9 FFFFFF65                     	JMP	L805
  4871 00002F45                                 L825:
  4872 00002F45 F7 DE                           	NEG	ESI
  4873 00002F47 E9 FFFFFF56                     	JMP	L804
  4874 00002F4C                                 	GLOBAL	_cmd_clearline
  4875 00002F4C                                 _cmd_clearline:
  4876 00002F4C 55                              	PUSH	EBP
  4877 00002F4D 89 E5                           	MOV	EBP,ESP
  4878 00002F4F 8B 45 0C                        	MOV	EAX,DWORD [12+EBP]
  4879 00002F52 80 38 00                        	CMP	BYTE [EAX],0
  4880 00002F55 74 09                           	JE	L827
  4881 00002F57                                 L834:
  4882 00002F57 C6 00 00                        	MOV	BYTE [EAX],0
  4883 00002F5A 40                              	INC	EAX
  4884 00002F5B 80 38 00                        	CMP	BYTE [EAX],0
  4885 00002F5E 75 F7                           	JNE	L834
  4886 00002F60                                 L827:
  4887 00002F60 5D                              	POP	EBP
  4888 00002F61 C3                              	RET
  4889                                          [SECTION .data]
  4890 00000B0E 00 00                           	ALIGNB	16
  4891 00000B10                                 _s.0:
  4892 00000B10 00 00 00 00 00 00 00 00 00 00   	RESB	4000
       00000B1A 00 00 00 00 00 00 00 00 00 00 
       00000B24 00 00 00 00 00 00 00 00 00 00 
       00000B2E 00 00 00 00 00 00 00 00 00 00 
       00000B38 00 00 00 00 00 00 00 00 00 00 
       00000B42 00 00 00 00 00 00 00 00 00 00 
       00000B4C 00 00 00 00 00 00 00 00 00 00 
       00000B56 00 00 00 00 00 00 00 00 00 00 
       00000B60 00 00 00 00 00 00 00 00 00 00 
       00000B6A 00 00 00 00 00 00 00 00 00 00 
       00000B74 00 00 00 00 00 00 00 00 00 00 
       00000B7E 00 00 00 00 00 00 00 00 00 00 
       00000B88 00 00 00 00 00 00 00 00 00 00 
       00000B92 00 00 00 00 00 00 00 00 00 00 
       00000B9C 00 00 00 00 00 00 00 00 00 00 
       00000BA6 00 00 00 00 00 00 00 00 00 00 
       00000BB0 00 00 00 00 00 00 00 00 00 00 
       00000BBA 00 00 00 00 00 00 00 00 00 00 
       00000BC4 00 00 00 00 00 00 00 00 00 00 
       00000BCE 00 00 00 00 00 00 00 00 00 00 
       00000BD8 00 00 00 00 00 00 00 00 00 00 
       00000BE2 00 00 00 00 00 00 00 00 00 00 
       00000BEC 00 00 00 00 00 00 00 00 00 00 
       00000BF6 00 00 00 00 00 00 00 00 00 00 
       00000C00 00 00 00 00 00 00 00 00 00 00 
       00000C0A 00 00 00 00 00 00 00 00 00 00 
       00000C14 00 00 00 00 00 00 00 00 00 00 
       00000C1E 00 00 00 00 00 00 00 00 00 00 
       00000C28 00 00 00 00 00 00 00 00 00 00 
       00000C32 00 00 00 00 00 00 00 00 00 00 
       00000C3C 00 00 00 00 00 00 00 00 00 00 
       00000C46 00 00 00 00 00 00 00 00 00 00 
       00000C50 00 00 00 00 00 00 00 00 00 00 
       00000C5A 00 00 00 00 00 00 00 00 00 00 
       00000C64 00 00 00 00 00 00 00 00 00 00 
       00000C6E 00 00 00 00 00 00 00 00 00 00 
       00000C78 00 00 00 00 00 00 00 00 00 00 
       00000C82 00 00 00 00 00 00 00 00 00 00 
       00000C8C 00 00 00 00 00 00 00 00 00 00 
       00000C96 00 00 00 00 00 00 00 00 00 00 
       00000CA0 00 00 00 00 00 00 00 00 00 00 
       00000CAA 00 00 00 00 00 00 00 00 00 00 
       00000CB4 00 00 00 00 00 00 00 00 00 00 
       00000CBE 00 00 00 00 00 00 00 00 00 00 
       00000CC8 00 00 00 00 00 00 00 00 00 00 
       00000CD2 00 00 00 00 00 00 00 00 00 00 
       00000CDC 00 00 00 00 00 00 00 00 00 00 
       00000CE6 00 00 00 00 00 00 00 00 00 00 
       00000CF0 00 00 00 00 00 00 00 00 00 00 
       00000CFA 00 00 00 00 00 00 00 00 00 00 
       00000D04 00 00 00 00 00 00 00 00 00 00 
       00000D0E 00 00 00 00 00 00 00 00 00 00 
       00000D18 00 00 00 00 00 00 00 00 00 00 
       00000D22 00 00 00 00 00 00 00 00 00 00 
       00000D2C 00 00 00 00 00 00 00 00 00 00 
       00000D36 00 00 00 00 00 00 00 00 00 00 
       00000D40 00 00 00 00 00 00 00 00 00 00 
       00000D4A 00 00 00 00 00 00 00 00 00 00 
       00000D54 00 00 00 00 00 00 00 00 00 00 
       00000D5E 00 00 00 00 00 00 00 00 00 00 
       00000D68 00 00 00 00 00 00 00 00 00 00 
       00000D72 00 00 00 00 00 00 00 00 00 00 
       00000D7C 00 00 00 00 00 00 00 00 00 00 
       00000D86 00 00 00 00 00 00 00 00 00 00 
       00000D90 00 00 00 00 00 00 00 00 00 00 
       00000D9A 00 00 00 00 00 00 00 00 00 00 
       00000DA4 00 00 00 00 00 00 00 00 00 00 
       00000DAE 00 00 00 00 00 00 00 00 00 00 
       00000DB8 00 00 00 00 00 00 00 00 00 00 
       00000DC2 00 00 00 00 00 00 00 00 00 00 
       00000DCC 00 00 00 00 00 00 00 00 00 00 
       00000DD6 00 00 00 00 00 00 00 00 00 00 
       00000DE0 00 00 00 00 00 00 00 00 00 00 
       00000DEA 00 00 00 00 00 00 00 00 00 00 
       00000DF4 00 00 00 00 00 00 00 00 00 00 
       00000DFE 00 00 00 00 00 00 00 00 00 00 
       00000E08 00 00 00 00 00 00 00 00 00 00 
       00000E12 00 00 00 00 00 00 00 00 00 00 
       00000E1C 00 00 00 00 00 00 00 00 00 00 
       00000E26 00 00 00 00 00 00 00 00 00 00 
       00000E30 00 00 00 00 00 00 00 00 00 00 
       00000E3A 00 00 00 00 00 00 00 00 00 00 
       00000E44 00 00 00 00 00 00 00 00 00 00 
       00000E4E 00 00 00 00 00 00 00 00 00 00 
       00000E58 00 00 00 00 00 00 00 00 00 00 
       00000E62 00 00 00 00 00 00 00 00 00 00 
       00000E6C 00 00 00 00 00 00 00 00 00 00 
       00000E76 00 00 00 00 00 00 00 00 00 00 
       00000E80 00 00 00 00 00 00 00 00 00 00 
       00000E8A 00 00 00 00 00 00 00 00 00 00 
       00000E94 00 00 00 00 00 00 00 00 00 00 
       00000E9E 00 00 00 00 00 00 00 00 00 00 
       00000EA8 00 00 00 00 00 00 00 00 00 00 
       00000EB2 00 00 00 00 00 00 00 00 00 00 
       00000EBC 00 00 00 00 00 00 00 00 00 00 
       00000EC6 00 00 00 00 00 00 00 00 00 00 
       00000ED0 00 00 00 00 00 00 00 00 00 00 
       00000EDA 00 00 00 00 00 00 00 00 00 00 
       00000EE4 00 00 00 00 00 00 00 00 00 00 
       00000EEE 00 00 00 00 00 00 00 00 00 00 
       00000EF8 00 00 00 00 00 00 00 00 00 00 
       00000F02 00 00 00 00 00 00 00 00 00 00 
       00000F0C 00 00 00 00 00 00 00 00 00 00 
       00000F16 00 00 00 00 00 00 00 00 00 00 
       00000F20 00 00 00 00 00 00 00 00 00 00 
       00000F2A 00 00 00 00 00 00 00 00 00 00 
       00000F34 00 00 00 00 00 00 00 00 00 00 
       00000F3E 00 00 00 00 00 00 00 00 00 00 
       00000F48 00 00 00 00 00 00 00 00 00 00 
       00000F52 00 00 00 00 00 00 00 00 00 00 
       00000F5C 00 00 00 00 00 00 00 00 00 00 
       00000F66 00 00 00 00 00 00 00 00 00 00 
       00000F70 00 00 00 00 00 00 00 00 00 00 
       00000F7A 00 00 00 00 00 00 00 00 00 00 
       00000F84 00 00 00 00 00 00 00 00 00 00 
       00000F8E 00 00 00 00 00 00 00 00 00 00 
       00000F98 00 00 00 00 00 00 00 00 00 00 
       00000FA2 00 00 00 00 00 00 00 00 00 00 
       00000FAC 00 00 00 00 00 00 00 00 00 00 
       00000FB6 00 00 00 00 00 00 00 00 00 00 
       00000FC0 00 00 00 00 00 00 00 00 00 00 
       00000FCA 00 00 00 00 00 00 00 00 00 00 
       00000FD4 00 00 00 00 00 00 00 00 00 00 
       00000FDE 00 00 00 00 00 00 00 00 00 00 
       00000FE8 00 00 00 00 00 00 00 00 00 00 
       00000FF2 00 00 00 00 00 00 00 00 00 00 
       00000FFC 00 00 00 00 00 00 00 00 00 00 
       00001006 00 00 00 00 00 00 00 00 00 00 
       00001010 00 00 00 00 00 00 00 00 00 00 
       0000101A 00 00 00 00 00 00 00 00 00 00 
       00001024 00 00 00 00 00 00 00 00 00 00 
       0000102E 00 00 00 00 00 00 00 00 00 00 
       00001038 00 00 00 00 00 00 00 00 00 00 
       00001042 00 00 00 00 00 00 00 00 00 00 
       0000104C 00 00 00 00 00 00 00 00 00 00 
       00001056 00 00 00 00 00 00 00 00 00 00 
       00001060 00 00 00 00 00 00 00 00 00 00 
       0000106A 00 00 00 00 00 00 00 00 00 00 
       00001074 00 00 00 00 00 00 00 00 00 00 
       0000107E 00 00 00 00 00 00 00 00 00 00 
       00001088 00 00 00 00 00 00 00 00 00 00 
       00001092 00 00 00 00 00 00 00 00 00 00 
       0000109C 00 00 00 00 00 00 00 00 00 00 
       000010A6 00 00 00 00 00 00 00 00 00 00 
       000010B0 00 00 00 00 00 00 00 00 00 00 
       000010BA 00 00 00 00 00 00 00 00 00 00 
       000010C4 00 00 00 00 00 00 00 00 00 00 
       000010CE 00 00 00 00 00 00 00 00 00 00 
       000010D8 00 00 00 00 00 00 00 00 00 00 
       000010E2 00 00 00 00 00 00 00 00 00 00 
       000010EC 00 00 00 00 00 00 00 00 00 00 
       000010F6 00 00 00 00 00 00 00 00 00 00 
       00001100 00 00 00 00 00 00 00 00 00 00 
       0000110A 00 00 00 00 00 00 00 00 00 00 
       00001114 00 00 00 00 00 00 00 00 00 00 
       0000111E 00 00 00 00 00 00 00 00 00 00 
       00001128 00 00 00 00 00 00 00 00 00 00 
       00001132 00 00 00 00 00 00 00 00 00 00 
       0000113C 00 00 00 00 00 00 00 00 00 00 
       00001146 00 00 00 00 00 00 00 00 00 00 
       00001150 00 00 00 00 00 00 00 00 00 00 
       0000115A 00 00 00 00 00 00 00 00 00 00 
       00001164 00 00 00 00 00 00 00 00 00 00 
       0000116E 00 00 00 00 00 00 00 00 00 00 
       00001178 00 00 00 00 00 00 00 00 00 00 
       00001182 00 00 00 00 00 00 00 00 00 00 
       0000118C 00 00 00 00 00 00 00 00 00 00 
       00001196 00 00 00 00 00 00 00 00 00 00 
       000011A0 00 00 00 00 00 00 00 00 00 00 
       000011AA 00 00 00 00 00 00 00 00 00 00 
       000011B4 00 00 00 00 00 00 00 00 00 00 
       000011BE 00 00 00 00 00 00 00 00 00 00 
       000011C8 00 00 00 00 00 00 00 00 00 00 
       000011D2 00 00 00 00 00 00 00 00 00 00 
       000011DC 00 00 00 00 00 00 00 00 00 00 
       000011E6 00 00 00 00 00 00 00 00 00 00 
       000011F0 00 00 00 00 00 00 00 00 00 00 
       000011FA 00 00 00 00 00 00 00 00 00 00 
       00001204 00 00 00 00 00 00 00 00 00 00 
       0000120E 00 00 00 00 00 00 00 00 00 00 
       00001218 00 00 00 00 00 00 00 00 00 00 
       00001222 00 00 00 00 00 00 00 00 00 00 
       0000122C 00 00 00 00 00 00 00 00 00 00 
       00001236 00 00 00 00 00 00 00 00 00 00 
       00001240 00 00 00 00 00 00 00 00 00 00 
       0000124A 00 00 00 00 00 00 00 00 00 00 
       00001254 00 00 00 00 00 00 00 00 00 00 
       0000125E 00 00 00 00 00 00 00 00 00 00 
       00001268 00 00 00 00 00 00 00 00 00 00 
       00001272 00 00 00 00 00 00 00 00 00 00 
       0000127C 00 00 00 00 00 00 00 00 00 00 
       00001286 00 00 00 00 00 00 00 00 00 00 
       00001290 00 00 00 00 00 00 00 00 00 00 
       0000129A 00 00 00 00 00 00 00 00 00 00 
       000012A4 00 00 00 00 00 00 00 00 00 00 
       000012AE 00 00 00 00 00 00 00 00 00 00 
       000012B8 00 00 00 00 00 00 00 00 00 00 
       000012C2 00 00 00 00 00 00 00 00 00 00 
       000012CC 00 00 00 00 00 00 00 00 00 00 
       000012D6 00 00 00 00 00 00 00 00 00 00 
       000012E0 00 00 00 00 00 00 00 00 00 00 
       000012EA 00 00 00 00 00 00 00 00 00 00 
       000012F4 00 00 00 00 00 00 00 00 00 00 
       000012FE 00 00 00 00 00 00 00 00 00 00 
       00001308 00 00 00 00 00 00 00 00 00 00 
       00001312 00 00 00 00 00 00 00 00 00 00 
       0000131C 00 00 00 00 00 00 00 00 00 00 
       00001326 00 00 00 00 00 00 00 00 00 00 
       00001330 00 00 00 00 00 00 00 00 00 00 
       0000133A 00 00 00 00 00 00 00 00 00 00 
       00001344 00 00 00 00 00 00 00 00 00 00 
       0000134E 00 00 00 00 00 00 00 00 00 00 
       00001358 00 00 00 00 00 00 00 00 00 00 
       00001362 00 00 00 00 00 00 00 00 00 00 
       0000136C 00 00 00 00 00 00 00 00 00 00 
       00001376 00 00 00 00 00 00 00 00 00 00 
       00001380 00 00 00 00 00 00 00 00 00 00 
       0000138A 00 00 00 00 00 00 00 00 00 00 
       00001394 00 00 00 00 00 00 00 00 00 00 
       0000139E 00 00 00 00 00 00 00 00 00 00 
       000013A8 00 00 00 00 00 00 00 00 00 00 
       000013B2 00 00 00 00 00 00 00 00 00 00 
       000013BC 00 00 00 00 00 00 00 00 00 00 
       000013C6 00 00 00 00 00 00 00 00 00 00 
       000013D0 00 00 00 00 00 00 00 00 00 00 
       000013DA 00 00 00 00 00 00 00 00 00 00 
       000013E4 00 00 00 00 00 00 00 00 00 00 
       000013EE 00 00 00 00 00 00 00 00 00 00 
       000013F8 00 00 00 00 00 00 00 00 00 00 
       00001402 00 00 00 00 00 00 00 00 00 00 
       0000140C 00 00 00 00 00 00 00 00 00 00 
       00001416 00 00 00 00 00 00 00 00 00 00 
       00001420 00 00 00 00 00 00 00 00 00 00 
       0000142A 00 00 00 00 00 00 00 00 00 00 
       00001434 00 00 00 00 00 00 00 00 00 00 
       0000143E 00 00 00 00 00 00 00 00 00 00 
       00001448 00 00 00 00 00 00 00 00 00 00 
       00001452 00 00 00 00 00 00 00 00 00 00 
       0000145C 00 00 00 00 00 00 00 00 00 00 
       00001466 00 00 00 00 00 00 00 00 00 00 
       00001470 00 00 00 00 00 00 00 00 00 00 
       0000147A 00 00 00 00 00 00 00 00 00 00 
       00001484 00 00 00 00 00 00 00 00 00 00 
       0000148E 00 00 00 00 00 00 00 00 00 00 
       00001498 00 00 00 00 00 00 00 00 00 00 
       000014A2 00 00 00 00 00 00 00 00 00 00 
       000014AC 00 00 00 00 00 00 00 00 00 00 
       000014B6 00 00 00 00 00 00 00 00 00 00 
       000014C0 00 00 00 00 00 00 00 00 00 00 
       000014CA 00 00 00 00 00 00 00 00 00 00 
       000014D4 00 00 00 00 00 00 00 00 00 00 
       000014DE 00 00 00 00 00 00 00 00 00 00 
       000014E8 00 00 00 00 00 00 00 00 00 00 
       000014F2 00 00 00 00 00 00 00 00 00 00 
       000014FC 00 00 00 00 00 00 00 00 00 00 
       00001506 00 00 00 00 00 00 00 00 00 00 
       00001510 00 00 00 00 00 00 00 00 00 00 
       0000151A 00 00 00 00 00 00 00 00 00 00 
       00001524 00 00 00 00 00 00 00 00 00 00 
       0000152E 00 00 00 00 00 00 00 00 00 00 
       00001538 00 00 00 00 00 00 00 00 00 00 
       00001542 00 00 00 00 00 00 00 00 00 00 
       0000154C 00 00 00 00 00 00 00 00 00 00 
       00001556 00 00 00 00 00 00 00 00 00 00 
       00001560 00 00 00 00 00 00 00 00 00 00 
       0000156A 00 00 00 00 00 00 00 00 00 00 
       00001574 00 00 00 00 00 00 00 00 00 00 
       0000157E 00 00 00 00 00 00 00 00 00 00 
       00001588 00 00 00 00 00 00 00 00 00 00 
       00001592 00 00 00 00 00 00 00 00 00 00 
       0000159C 00 00 00 00 00 00 00 00 00 00 
       000015A6 00 00 00 00 00 00 00 00 00 00 
       000015B0 00 00 00 00 00 00 00 00 00 00 
       000015BA 00 00 00 00 00 00 00 00 00 00 
       000015C4 00 00 00 00 00 00 00 00 00 00 
       000015CE 00 00 00 00 00 00 00 00 00 00 
       000015D8 00 00 00 00 00 00 00 00 00 00 
       000015E2 00 00 00 00 00 00 00 00 00 00 
       000015EC 00 00 00 00 00 00 00 00 00 00 
       000015F6 00 00 00 00 00 00 00 00 00 00 
       00001600 00 00 00 00 00 00 00 00 00 00 
       0000160A 00 00 00 00 00 00 00 00 00 00 
       00001614 00 00 00 00 00 00 00 00 00 00 
       0000161E 00 00 00 00 00 00 00 00 00 00 
       00001628 00 00 00 00 00 00 00 00 00 00 
       00001632 00 00 00 00 00 00 00 00 00 00 
       0000163C 00 00 00 00 00 00 00 00 00 00 
       00001646 00 00 00 00 00 00 00 00 00 00 
       00001650 00 00 00 00 00 00 00 00 00 00 
       0000165A 00 00 00 00 00 00 00 00 00 00 
       00001664 00 00 00 00 00 00 00 00 00 00 
       0000166E 00 00 00 00 00 00 00 00 00 00 
       00001678 00 00 00 00 00 00 00 00 00 00 
       00001682 00 00 00 00 00 00 00 00 00 00 
       0000168C 00 00 00 00 00 00 00 00 00 00 
       00001696 00 00 00 00 00 00 00 00 00 00 
       000016A0 00 00 00 00 00 00 00 00 00 00 
       000016AA 00 00 00 00 00 00 00 00 00 00 
       000016B4 00 00 00 00 00 00 00 00 00 00 
       000016BE 00 00 00 00 00 00 00 00 00 00 
       000016C8 00 00 00 00 00 00 00 00 00 00 
       000016D2 00 00 00 00 00 00 00 00 00 00 
       000016DC 00 00 00 00 00 00 00 00 00 00 
       000016E6 00 00 00 00 00 00 00 00 00 00 
       000016F0 00 00 00 00 00 00 00 00 00 00 
       000016FA 00 00 00 00 00 00 00 00 00 00 
       00001704 00 00 00 00 00 00 00 00 00 00 
       0000170E 00 00 00 00 00 00 00 00 00 00 
       00001718 00 00 00 00 00 00 00 00 00 00 
       00001722 00 00 00 00 00 00 00 00 00 00 
       0000172C 00 00 00 00 00 00 00 00 00 00 
       00001736 00 00 00 00 00 00 00 00 00 00 
       00001740 00 00 00 00 00 00 00 00 00 00 
       0000174A 00 00 00 00 00 00 00 00 00 00 
       00001754 00 00 00 00 00 00 00 00 00 00 
       0000175E 00 00 00 00 00 00 00 00 00 00 
       00001768 00 00 00 00 00 00 00 00 00 00 
       00001772 00 00 00 00 00 00 00 00 00 00 
       0000177C 00 00 00 00 00 00 00 00 00 00 
       00001786 00 00 00 00 00 00 00 00 00 00 
       00001790 00 00 00 00 00 00 00 00 00 00 
       0000179A 00 00 00 00 00 00 00 00 00 00 
       000017A4 00 00 00 00 00 00 00 00 00 00 
       000017AE 00 00 00 00 00 00 00 00 00 00 
       000017B8 00 00 00 00 00 00 00 00 00 00 
       000017C2 00 00 00 00 00 00 00 00 00 00 
       000017CC 00 00 00 00 00 00 00 00 00 00 
       000017D6 00 00 00 00 00 00 00 00 00 00 
       000017E0 00 00 00 00 00 00 00 00 00 00 
       000017EA 00 00 00 00 00 00 00 00 00 00 
       000017F4 00 00 00 00 00 00 00 00 00 00 
       000017FE 00 00 00 00 00 00 00 00 00 00 
       00001808 00 00 00 00 00 00 00 00 00 00 
       00001812 00 00 00 00 00 00 00 00 00 00 
       0000181C 00 00 00 00 00 00 00 00 00 00 
       00001826 00 00 00 00 00 00 00 00 00 00 
       00001830 00 00 00 00 00 00 00 00 00 00 
       0000183A 00 00 00 00 00 00 00 00 00 00 
       00001844 00 00 00 00 00 00 00 00 00 00 
       0000184E 00 00 00 00 00 00 00 00 00 00 
       00001858 00 00 00 00 00 00 00 00 00 00 
       00001862 00 00 00 00 00 00 00 00 00 00 
       0000186C 00 00 00 00 00 00 00 00 00 00 
       00001876 00 00 00 00 00 00 00 00 00 00 
       00001880 00 00 00 00 00 00 00 00 00 00 
       0000188A 00 00 00 00 00 00 00 00 00 00 
       00001894 00 00 00 00 00 00 00 00 00 00 
       0000189E 00 00 00 00 00 00 00 00 00 00 
       000018A8 00 00 00 00 00 00 00 00 00 00 
       000018B2 00 00 00 00 00 00 00 00 00 00 
       000018BC 00 00 00 00 00 00 00 00 00 00 
       000018C6 00 00 00 00 00 00 00 00 00 00 
       000018D0 00 00 00 00 00 00 00 00 00 00 
       000018DA 00 00 00 00 00 00 00 00 00 00 
       000018E4 00 00 00 00 00 00 00 00 00 00 
       000018EE 00 00 00 00 00 00 00 00 00 00 
       000018F8 00 00 00 00 00 00 00 00 00 00 
       00001902 00 00 00 00 00 00 00 00 00 00 
       0000190C 00 00 00 00 00 00 00 00 00 00 
       00001916 00 00 00 00 00 00 00 00 00 00 
       00001920 00 00 00 00 00 00 00 00 00 00 
       0000192A 00 00 00 00 00 00 00 00 00 00 
       00001934 00 00 00 00 00 00 00 00 00 00 
       0000193E 00 00 00 00 00 00 00 00 00 00 
       00001948 00 00 00 00 00 00 00 00 00 00 
       00001952 00 00 00 00 00 00 00 00 00 00 
       0000195C 00 00 00 00 00 00 00 00 00 00 
       00001966 00 00 00 00 00 00 00 00 00 00 
       00001970 00 00 00 00 00 00 00 00 00 00 
       0000197A 00 00 00 00 00 00 00 00 00 00 
       00001984 00 00 00 00 00 00 00 00 00 00 
       0000198E 00 00 00 00 00 00 00 00 00 00 
       00001998 00 00 00 00 00 00 00 00 00 00 
       000019A2 00 00 00 00 00 00 00 00 00 00 
       000019AC 00 00 00 00 00 00 00 00 00 00 
       000019B6 00 00 00 00 00 00 00 00 00 00 
       000019C0 00 00 00 00 00 00 00 00 00 00 
       000019CA 00 00 00 00 00 00 00 00 00 00 
       000019D4 00 00 00 00 00 00 00 00 00 00 
       000019DE 00 00 00 00 00 00 00 00 00 00 
       000019E8 00 00 00 00 00 00 00 00 00 00 
       000019F2 00 00 00 00 00 00 00 00 00 00 
       000019FC 00 00 00 00 00 00 00 00 00 00 
       00001A06 00 00 00 00 00 00 00 00 00 00 
       00001A10 00 00 00 00 00 00 00 00 00 00 
       00001A1A 00 00 00 00 00 00 00 00 00 00 
       00001A24 00 00 00 00 00 00 00 00 00 00 
       00001A2E 00 00 00 00 00 00 00 00 00 00 
       00001A38 00 00 00 00 00 00 00 00 00 00 
       00001A42 00 00 00 00 00 00 00 00 00 00 
       00001A4C 00 00 00 00 00 00 00 00 00 00 
       00001A56 00 00 00 00 00 00 00 00 00 00 
       00001A60 00 00 00 00 00 00 00 00 00 00 
       00001A6A 00 00 00 00 00 00 00 00 00 00 
       00001A74 00 00 00 00 00 00 00 00 00 00 
       00001A7E 00 00 00 00 00 00 00 00 00 00 
       00001A88 00 00 00 00 00 00 00 00 00 00 
       00001A92 00 00 00 00 00 00 00 00 00 00 
       00001A9C 00 00 00 00 00 00 00 00 00 00 
       00001AA6 00 00 00 00 00 00 00 00 00 00 
  4893                                          [SECTION .data]
  4894 00001AB0                                 LC142:
  4895 00001AB0 69 6E 70 75 74 20 34 20 73 74   	DB	"input 4 stamp values:",0x00
       00001ABA 61 6D 70 20 76 61 6C 75 65 73 
       00001AC4 3A 00 
  4896 00001AC6                                 LC143:
  4897 00001AC6 54 68 65 20 6D 61 78 20 69 73   	DB	"The max is %d",0x0A,0x00
       00001AD0 20 25 64 0A 00 
  4898                                          [SECTION .text]
  4899 00002F62                                 	GLOBAL	_cmd_stamp
  4900 00002F62                                 _cmd_stamp:
  4901 00002F62 55                              	PUSH	EBP
  4902 00002F63 89 E5                           	MOV	EBP,ESP
  4903 00002F65 57                              	PUSH	EDI
  4904 00002F66 56                              	PUSH	ESI
  4905 00002F67 53                              	PUSH	EBX
  4906 00002F68 8D 7D D4                        	LEA	EDI,DWORD [-44+EBP]
  4907 00002F6B 81 EC 000000AC                  	SUB	ESP,172
  4908 00002F71 E8 [00000000]                   	CALL	_task_now
  4909 00002F76 68 [00001AB0]                   	PUSH	LC142
  4910 00002F7B 89 C3                           	MOV	EBX,EAX
  4911 00002F7D FF 75 08                        	PUSH	DWORD [8+EBP]
  4912 00002F80 E8 FFFFD80E                     	CALL	_cons_putstr0
  4913 00002F85 FF 75 0C                        	PUSH	DWORD [12+EBP]
  4914 00002F88 FF 75 08                        	PUSH	DWORD [8+EBP]
  4915 00002F8B E8 FFFFFFBC                     	CALL	_cmd_clearline
  4916 00002F90 FF B3 000000B8                  	PUSH	DWORD [184+EBX]
  4917 00002F96 FF 75 08                        	PUSH	DWORD [8+EBP]
  4918 00002F99 31 DB                           	XOR	EBX,EBX
  4919 00002F9B E8 FFFFFFAC                     	CALL	_cmd_clearline
  4920 00002FA0 FC                              	CLD
  4921 00002FA1 B8 00000007                     	MOV	EAX,7
  4922 00002FA6 8B 75 08                        	MOV	ESI,DWORD [8+EBP]
  4923 00002FA9 89 C1                           	MOV	ECX,EAX
  4924 00002FAB F3                              	REP
  4925 00002FAC A5                              	MOVSD
  4926 00002FAD FF 75 0C                        	PUSH	DWORD [12+EBP]
  4927 00002FB0 83 EC 1C                        	SUB	ESP,28
  4928 00002FB3 89 C1                           	MOV	ECX,EAX
  4929 00002FB5 89 E7                           	MOV	EDI,ESP
  4930 00002FB7 8D 75 D4                        	LEA	ESI,DWORD [-44+EBP]
  4931 00002FBA F3                              	REP
  4932 00002FBB A5                              	MOVSD
  4933 00002FBC 31 F6                           	XOR	ESI,ESI
  4934 00002FBE E8 00000201                     	CALL	_get_1_line
  4935 00002FC3 8B 55 08                        	MOV	EDX,DWORD [8+EBP]
  4936 00002FC6 89 C1                           	MOV	ECX,EAX
  4937 00002FC8 83 C4 38                        	ADD	ESP,56
  4938 00002FCB 83 42 08 20                     	ADD	DWORD [8+EDX],32
  4939 00002FCF 80 38 20                        	CMP	BYTE [EAX],32
  4940 00002FD2 7F 06                           	JG	L881
  4941 00002FD4                                 L841:
  4942 00002FD4 41                              	INC	ECX
  4943 00002FD5 80 39 20                        	CMP	BYTE [ECX],32
  4944 00002FD8 7E FA                           	JLE	L841
  4945 00002FDA                                 L881:
  4946 00002FDA 80 39 00                        	CMP	BYTE [ECX],0
  4947 00002FDD 74 45                           	JE	L883
  4948 00002FDF                                 L852:
  4949 00002FDF 8A 14 0B                        	MOV	DL,BYTE [EBX+ECX*1]
  4950 00002FE2 8D 42 D0                        	LEA	EAX,DWORD [-48+EDX]
  4951 00002FE5 3C 09                           	CMP	AL,9
  4952 00002FE7 0F 87 000001D1                  	JA	L846
  4953 00002FED 0F BE C2                        	MOVSX	EAX,DL
  4954 00002FF0 83 E8 30                        	SUB	EAX,48
  4955 00002FF3 43                              	INC	EBX
  4956 00002FF4 89 44 B5 A4                     	MOV	DWORD [-92+EBP+ESI*4],EAX
  4957 00002FF8 8A 14 0B                        	MOV	DL,BYTE [EBX+ECX*1]
  4958 00002FFB 8D 42 D0                        	LEA	EAX,DWORD [-48+EDX]
  4959 00002FFE 3C 09                           	CMP	AL,9
  4960 00003000 77 1B                           	JA	L885
  4961 00003002                                 L850:
  4962 00003002 6B 44 B5 A4 0A                  	IMUL	EAX,DWORD [-92+EBP+ESI*4],10
  4963 00003007 0F BE D2                        	MOVSX	EDX,DL
  4964 0000300A 43                              	INC	EBX
  4965 0000300B 8D 44 02 D0                     	LEA	EAX,DWORD [-48+EDX+EAX*1]
  4966 0000300F 89 44 B5 A4                     	MOV	DWORD [-92+EBP+ESI*4],EAX
  4967 00003013 8A 14 0B                        	MOV	DL,BYTE [EBX+ECX*1]
  4968 00003016 8D 42 D0                        	LEA	EAX,DWORD [-48+EDX]
  4969 00003019 3C 09                           	CMP	AL,9
  4970 0000301B 76 E5                           	JBE	L850
  4971 0000301D                                 L885:
  4972 0000301D 46                              	INC	ESI
  4973 0000301E                                 L842:
  4974 0000301E 80 3C 0B 00                     	CMP	BYTE [EBX+ECX*1],0
  4975 00003022 75 BB                           	JNE	L852
  4976 00003024                                 L883:
  4977 00003024 8B 4D AC                        	MOV	ECX,DWORD [-84+EBP]
  4978 00003027 8B 75 B0                        	MOV	ESI,DWORD [-80+EBP]
  4979 0000302A 8B 45 A4                        	MOV	EAX,DWORD [-92+EBP]
  4980 0000302D 8B 55 A8                        	MOV	EDX,DWORD [-88+EBP]
  4981 00003030 31 DB                           	XOR	EBX,EBX
  4982 00003032 89 8D FFFFFF58                  	MOV	DWORD [-168+EBP],ECX
  4983 00003038 89 B5 FFFFFF54                  	MOV	DWORD [-172+EBP],ESI
  4984 0000303E 89 85 FFFFFF50                  	MOV	DWORD [-176+EBP],EAX
  4985 00003044 89 95 FFFFFF4C                  	MOV	DWORD [-180+EBP],EDX
  4986 0000304A                                 L873:
  4987 0000304A C7 45 98 00000000               	MOV	DWORD [-104+EBP],0
  4988 00003051 83 FB 05                        	CMP	EBX,5
  4989 00003054 0F 8F 00000121                  	JG	L889
  4990 0000305A 8B 8D FFFFFF58                  	MOV	ECX,DWORD [-168+EBP]
  4991 00003060 8B B5 FFFFFF54                  	MOV	ESI,DWORD [-172+EBP]
  4992 00003066 8B 85 FFFFFF50                  	MOV	EAX,DWORD [-176+EBP]
  4993 0000306C 8B 95 FFFFFF4C                  	MOV	EDX,DWORD [-180+EBP]
  4994 00003072 89 8D FFFFFF68                  	MOV	DWORD [-152+EBP],ECX
  4995 00003078 89 B5 FFFFFF64                  	MOV	DWORD [-156+EBP],ESI
  4996 0000307E 89 85 FFFFFF60                  	MOV	DWORD [-160+EBP],EAX
  4997 00003084 89 95 FFFFFF5C                  	MOV	DWORD [-164+EBP],EDX
  4998 0000308A                                 L872:
  4999 0000308A 8B 4D 98                        	MOV	ECX,DWORD [-104+EBP]
  5000 0000308D C7 45 94 00000000               	MOV	DWORD [-108+EBP],0
  5001 00003094 8D 04 19                        	LEA	EAX,DWORD [ECX+EBX*1]
  5002 00003097 83 F8 05                        	CMP	EAX,5
  5003 0000309A 0F 8F 000000C9                  	JG	L891
  5004 000030A0 8B B5 FFFFFF68                  	MOV	ESI,DWORD [-152+EBP]
  5005 000030A6 8B 95 FFFFFF64                  	MOV	EDX,DWORD [-156+EBP]
  5006 000030AC 89 B5 FFFFFF7C                  	MOV	DWORD [-132+EBP],ESI
  5007 000030B2 8B 8D FFFFFF60                  	MOV	ECX,DWORD [-160+EBP]
  5008 000030B8 8B B5 FFFFFF5C                  	MOV	ESI,DWORD [-164+EBP]
  5009 000030BE 89 95 FFFFFF78                  	MOV	DWORD [-136+EBP],EDX
  5010 000030C4 89 B5 FFFFFF70                  	MOV	DWORD [-144+EBP],ESI
  5011 000030CA 89 8D FFFFFF74                  	MOV	DWORD [-140+EBP],ECX
  5012 000030D0 89 C6                           	MOV	ESI,EAX
  5013 000030D2 89 85 FFFFFF6C                  	MOV	DWORD [-148+EBP],EAX
  5014 000030D8 89 C7                           	MOV	EDI,EAX
  5015 000030DA                                 L871:
  5016 000030DA C7 45 90 00000000               	MOV	DWORD [-112+EBP],0
  5017 000030E1 83 FF 05                        	CMP	EDI,5
  5018 000030E4 7F 6F                           	JG	L893
  5019 000030E6 8B 85 FFFFFF7C                  	MOV	EAX,DWORD [-132+EBP]
  5020 000030EC 8B 95 FFFFFF78                  	MOV	EDX,DWORD [-136+EBP]
  5021 000030F2 89 45 8C                        	MOV	DWORD [-116+EBP],EAX
  5022 000030F5 8B 8D FFFFFF74                  	MOV	ECX,DWORD [-140+EBP]
  5023 000030FB 8B 85 FFFFFF70                  	MOV	EAX,DWORD [-144+EBP]
  5024 00003101 89 55 88                        	MOV	DWORD [-120+EBP],EDX
  5025 00003104 89 4D 84                        	MOV	DWORD [-124+EBP],ECX
  5026 00003107 89 45 80                        	MOV	DWORD [-128+EBP],EAX
  5027 0000310A C7 85 FFFFFF48 00000000         	MOV	DWORD [-184+EBP],0
  5028 00003114                                 L870:
  5029 00003114 8B 45 8C                        	MOV	EAX,DWORD [-116+EBP]
  5030 00003117 8B 55 84                        	MOV	EDX,DWORD [-124+EBP]
  5031 0000311A 0F AF 45 94                     	IMUL	EAX,DWORD [-108+EBP]
  5032 0000311E 8B 4D 80                        	MOV	ECX,DWORD [-128+EBP]
  5033 00003121 03 85 FFFFFF48                  	ADD	EAX,DWORD [-184+EBP]
  5034 00003127 0F AF D3                        	IMUL	EDX,EBX
  5035 0000312A 0F AF 4D 98                     	IMUL	ECX,DWORD [-104+EBP]
  5036 0000312E 01 CA                           	ADD	EDX,ECX
  5037 00003130 01 D0                           	ADD	EAX,EDX
  5038 00003132 74 07                           	JE	L867
  5039 00003134 FF 04 85 [00000B10]             	INC	DWORD [_s.0+EAX*4]
  5040 0000313B                                 L867:
  5041 0000313B 8B 85 FFFFFF6C                  	MOV	EAX,DWORD [-148+EBP]
  5042 00003141 FF 45 90                        	INC	DWORD [-112+EBP]
  5043 00003144 03 45 90                        	ADD	EAX,DWORD [-112+EBP]
  5044 00003147 8B 55 88                        	MOV	EDX,DWORD [-120+EBP]
  5045 0000314A 01 95 FFFFFF48                  	ADD	DWORD [-184+EBP],EDX
  5046 00003150 83 F8 05                        	CMP	EAX,5
  5047 00003153 7E BF                           	JLE	L870
  5048 00003155                                 L893:
  5049 00003155 46                              	INC	ESI
  5050 00003156 FF 85 FFFFFF6C                  	INC	DWORD [-148+EBP]
  5051 0000315C 47                              	INC	EDI
  5052 0000315D FF 45 94                        	INC	DWORD [-108+EBP]
  5053 00003160 83 FE 05                        	CMP	ESI,5
  5054 00003163 0F 8E FFFFFF71                  	JLE	L871
  5055 00003169                                 L891:
  5056 00003169 FF 45 98                        	INC	DWORD [-104+EBP]
  5057 0000316C 8B 4D 98                        	MOV	ECX,DWORD [-104+EBP]
  5058 0000316F 8D 04 19                        	LEA	EAX,DWORD [ECX+EBX*1]
  5059 00003172 83 F8 05                        	CMP	EAX,5
  5060 00003175 0F 8E FFFFFF0F                  	JLE	L872
  5061 0000317B                                 L889:
  5062 0000317B 43                              	INC	EBX
  5063 0000317C 83 FB 05                        	CMP	EBX,5
  5064 0000317F 0F 8E FFFFFEC5                  	JLE	L873
  5065 00003185 BB 00000001                     	MOV	EBX,1
  5066 0000318A                                 L879:
  5067 0000318A 83 3C 9D [00000B10] 00          	CMP	DWORD [_s.0+EBX*4],0
  5068 00003192 74 09                           	JE	L875
  5069 00003194 43                              	INC	EBX
  5070 00003195 81 FB 000003E8                  	CMP	EBX,1000
  5071 0000319B 7E ED                           	JLE	L879
  5072 0000319D                                 L875:
  5073 0000319D 4B                              	DEC	EBX
  5074 0000319E 53                              	PUSH	EBX
  5075 0000319F 8D 5D B4                        	LEA	EBX,DWORD [-76+EBP]
  5076 000031A2 68 [00001AC6]                   	PUSH	LC143
  5077 000031A7 53                              	PUSH	EBX
  5078 000031A8 E8 [00000000]                   	CALL	_sprintf
  5079 000031AD 53                              	PUSH	EBX
  5080 000031AE FF 75 08                        	PUSH	DWORD [8+EBP]
  5081 000031B1 E8 FFFFD5DD                     	CALL	_cons_putstr0
  5082 000031B6 8D 65 F4                        	LEA	ESP,DWORD [-12+EBP]
  5083 000031B9 5B                              	POP	EBX
  5084 000031BA 5E                              	POP	ESI
  5085 000031BB 5F                              	POP	EDI
  5086 000031BC 5D                              	POP	EBP
  5087 000031BD C3                              	RET
  5088 000031BE                                 L846:
  5089 000031BE 43                              	INC	EBX
  5090 000031BF E9 FFFFFE5A                     	JMP	L842
  5091 000031C4                                 	GLOBAL	_get_1_line
  5092 000031C4                                 _get_1_line:
  5093 000031C4 55                              	PUSH	EBP
  5094 000031C5 89 E5                           	MOV	EBP,ESP
  5095 000031C7 57                              	PUSH	EDI
  5096 000031C8 56                              	PUSH	ESI
  5097 000031C9 53                              	PUSH	EBX
  5098 000031CA 51                              	PUSH	ECX
  5099 000031CB E8 [00000000]                   	CALL	_task_now
  5100 000031D0 89 C7                           	MOV	EDI,EAX
  5101 000031D2                                 L896:
  5102 000031D2 8D 5F 10                        	LEA	EBX,DWORD [16+EDI]
  5103 000031D5 E8 [00000000]                   	CALL	_io_cli
  5104 000031DA 53                              	PUSH	EBX
  5105 000031DB E8 [00000000]                   	CALL	_fifo32_status
  5106 000031E0 5A                              	POP	EDX
  5107 000031E1 85 C0                           	TEST	EAX,EAX
  5108 000031E3 0F 84 000001FE                  	JE	L921
  5109 000031E9 53                              	PUSH	EBX
  5110 000031EA E8 [00000000]                   	CALL	_fifo32_get
  5111 000031EF 89 C6                           	MOV	ESI,EAX
  5112 000031F1 E8 [00000000]                   	CALL	_io_sti
  5113 000031F6 58                              	POP	EAX
  5114 000031F7 83 FE 01                        	CMP	ESI,1
  5115 000031FA 0F 8E 00000190                  	JLE	L922
  5116 00003200                                 L901:
  5117 00003200 83 FE 02                        	CMP	ESI,2
  5118 00003203 0F 84 0000017B                  	JE	L923
  5119 00003209                                 L906:
  5120 00003209 83 FE 03                        	CMP	ESI,3
  5121 0000320C 0F 84 0000013E                  	JE	L924
  5122 00003212                                 L907:
  5123 00003212 83 FE 04                        	CMP	ESI,4
  5124 00003215 0F 84 0000011F                  	JE	L925
  5125 0000321B                                 L909:
  5126 0000321B 8D 86 FFFFFF00                  	LEA	EAX,DWORD [-256+ESI]
  5127 00003221 89 45 F0                        	MOV	DWORD [-16+EBP],EAX
  5128 00003224 3D 000000FF                     	CMP	EAX,255
  5129 00003229 77 23                           	JA	L910
  5130 0000322B 81 FE 00000108                  	CMP	ESI,264
  5131 00003231 0F 84 000000E6                  	JE	L926
  5132 00003237 81 FE 0000010A                  	CMP	ESI,266
  5133 0000323D 0F 84 00000088                  	JE	L927
  5134 00003243 8B 4D 0C                        	MOV	ECX,DWORD [12+EBP]
  5135 00003246 81 F9 0000010F                  	CMP	ECX,271
  5136 0000324C 7E 53                           	JLE	L928
  5137 0000324E                                 L910:
  5138 0000324E 8B 5D 08                        	MOV	EBX,DWORD [8+EBP]
  5139 00003251 85 DB                           	TEST	EBX,EBX
  5140 00003253 0F 84 FFFFFF79                  	JE	L896
  5141 00003259 83 7D 14 00                     	CMP	DWORD [20+EBP],0
  5142 0000325D 78 22                           	JS	L919
  5143 0000325F 8B 4D 10                        	MOV	ECX,DWORD [16+EBP]
  5144 00003262 8B 55 0C                        	MOV	EDX,DWORD [12+EBP]
  5145 00003265 8D 41 0F                        	LEA	EAX,DWORD [15+ECX]
  5146 00003268 50                              	PUSH	EAX
  5147 00003269 8D 42 07                        	LEA	EAX,DWORD [7+EDX]
  5148 0000326C 50                              	PUSH	EAX
  5149 0000326D 51                              	PUSH	ECX
  5150 0000326E 52                              	PUSH	EDX
  5151 0000326F 0F B6 45 14                     	MOVZX	EAX,BYTE [20+EBP]
  5152 00003273 50                              	PUSH	EAX
  5153 00003274 FF 73 04                        	PUSH	DWORD [4+EBX]
  5154 00003277 FF 33                           	PUSH	DWORD [EBX]
  5155 00003279 E8 [00000000]                   	CALL	_boxfill8
  5156 0000327E 83 C4 1C                        	ADD	ESP,28
  5157 00003281                                 L919:
  5158 00003281 8B 4D 10                        	MOV	ECX,DWORD [16+EBP]
  5159 00003284 8B 55 0C                        	MOV	EDX,DWORD [12+EBP]
  5160 00003287 8D 41 10                        	LEA	EAX,DWORD [16+ECX]
  5161 0000328A 50                              	PUSH	EAX
  5162 0000328B 8D 42 08                        	LEA	EAX,DWORD [8+EDX]
  5163 0000328E 50                              	PUSH	EAX
  5164 0000328F 51                              	PUSH	ECX
  5165 00003290 52                              	PUSH	EDX
  5166 00003291 FF 75 08                        	PUSH	DWORD [8+EBP]
  5167 00003294 E8 [00000000]                   	CALL	_sheet_refresh
  5168 00003299 83 C4 14                        	ADD	ESP,20
  5169 0000329C E9 FFFFFF31                     	JMP	L896
  5170 000032A1                                 L928:
  5171 000032A1 89 C8                           	MOV	EAX,ECX
  5172 000032A3 BA 00000008                     	MOV	EDX,8
  5173 000032A8 89 D3                           	MOV	EBX,EDX
  5174 000032AA 99                              	CDQ
  5175 000032AB F7 FB                           	IDIV	EBX
  5176 000032AD 8B 55 24                        	MOV	EDX,DWORD [36+EBP]
  5177 000032B0 89 C1                           	MOV	ECX,EAX
  5178 000032B2 89 F0                           	MOV	EAX,ESI
  5179 000032B4 88 44 11 FE                     	MOV	BYTE [-2+ECX+EDX*1],AL
  5180 000032B8 8D 45 08                        	LEA	EAX,DWORD [8+EBP]
  5181 000032BB 6A 01                           	PUSH	1
  5182 000032BD FF 75 F0                        	PUSH	DWORD [-16+EBP]
  5183 000032C0 50                              	PUSH	EAX
  5184 000032C1 E8 FFFFD2BF                     	CALL	_cons_putchar
  5185 000032C6                                 L920:
  5186 000032C6 83 C4 0C                        	ADD	ESP,12
  5187 000032C9 EB 83                           	JMP	L910
  5188 000032CB                                 L927:
  5189 000032CB 6A 00                           	PUSH	0
  5190 000032CD 8D 45 08                        	LEA	EAX,DWORD [8+EBP]
  5191 000032D0 6A 20                           	PUSH	32
  5192 000032D2 50                              	PUSH	EAX
  5193 000032D3 E8 FFFFD2AD                     	CALL	_cons_putchar
  5194 000032D8 8B 5D 24                        	MOV	EBX,DWORD [36+EBP]
  5195 000032DB 8B 45 0C                        	MOV	EAX,DWORD [12+EBP]
  5196 000032DE BA 00000008                     	MOV	EDX,8
  5197 000032E3 89 D1                           	MOV	ECX,EDX
  5198 000032E5 99                              	CDQ
  5199 000032E6 F7 F9                           	IDIV	ECX
  5200 000032E8 C6 44 18 FE 00                  	MOV	BYTE [-2+EAX+EBX*1],0
  5201 000032ED 8D 45 08                        	LEA	EAX,DWORD [8+EBP]
  5202 000032F0 50                              	PUSH	EAX
  5203 000032F1 E8 FFFFD34A                     	CALL	_cons_newline
  5204 000032F6 83 C4 10                        	ADD	ESP,16
  5205 000032F9 83 7D 08 00                     	CMP	DWORD [8+EBP],0
  5206 000032FD 74 0B                           	JE	L929
  5207 000032FF                                 L897:
  5208 000032FF 8B 45 24                        	MOV	EAX,DWORD [36+EBP]
  5209 00003302 8D 65 F4                        	LEA	ESP,DWORD [-12+EBP]
  5210 00003305 5B                              	POP	EBX
  5211 00003306 5E                              	POP	ESI
  5212 00003307 5F                              	POP	EDI
  5213 00003308 5D                              	POP	EBP
  5214 00003309 C3                              	RET
  5215 0000330A                                 L929:
  5216 0000330A FF B7 000000B4                  	PUSH	DWORD [180+EDI]
  5217 00003310 8D 45 08                        	LEA	EAX,DWORD [8+EBP]
  5218 00003313 50                              	PUSH	EAX
  5219 00003314 E8 FFFFF0DE                     	CALL	_cmd_exit
  5220 00003319 59                              	POP	ECX
  5221 0000331A 5B                              	POP	EBX
  5222 0000331B EB E2                           	JMP	L897
  5223 0000331D                                 L926:
  5224 0000331D 83 7D 0C 10                     	CMP	DWORD [12+EBP],16
  5225 00003321 0F 8E FFFFFF27                  	JLE	L910
  5226 00003327 6A 00                           	PUSH	0
  5227 00003329 8D 45 08                        	LEA	EAX,DWORD [8+EBP]
  5228 0000332C 6A 20                           	PUSH	32
  5229 0000332E 50                              	PUSH	EAX
  5230 0000332F E8 FFFFD251                     	CALL	_cons_putchar
  5231 00003334 83 6D 0C 08                     	SUB	DWORD [12+EBP],8
  5232 00003338 EB 8C                           	JMP	L920
  5233 0000333A                                 L925:
  5234 0000333A FF B7 000000B4                  	PUSH	DWORD [180+EDI]
  5235 00003340 8D 45 08                        	LEA	EAX,DWORD [8+EBP]
  5236 00003343 50                              	PUSH	EAX
  5237 00003344 E8 FFFFF0AE                     	CALL	_cmd_exit
  5238 00003349 58                              	POP	EAX
  5239 0000334A 5A                              	POP	EDX
  5240 0000334B E9 FFFFFECB                     	JMP	L909
  5241 00003350                                 L924:
  5242 00003350 8B 5D 08                        	MOV	EBX,DWORD [8+EBP]
  5243 00003353 85 DB                           	TEST	EBX,EBX
  5244 00003355 75 0C                           	JNE	L930
  5245 00003357                                 L908:
  5246 00003357 C7 45 14 FFFFFFFF               	MOV	DWORD [20+EBP],-1
  5247 0000335E E9 FFFFFEAF                     	JMP	L907
  5248 00003363                                 L930:
  5249 00003363 8B 4D 10                        	MOV	ECX,DWORD [16+EBP]
  5250 00003366 8B 55 0C                        	MOV	EDX,DWORD [12+EBP]
  5251 00003369 8D 41 0F                        	LEA	EAX,DWORD [15+ECX]
  5252 0000336C 50                              	PUSH	EAX
  5253 0000336D 8D 42 07                        	LEA	EAX,DWORD [7+EDX]
  5254 00003370 50                              	PUSH	EAX
  5255 00003371 51                              	PUSH	ECX
  5256 00003372 52                              	PUSH	EDX
  5257 00003373 6A 00                           	PUSH	0
  5258 00003375 FF 73 04                        	PUSH	DWORD [4+EBX]
  5259 00003378 FF 33                           	PUSH	DWORD [EBX]
  5260 0000337A E8 [00000000]                   	CALL	_boxfill8
  5261 0000337F 83 C4 1C                        	ADD	ESP,28
  5262 00003382 EB D3                           	JMP	L908
  5263 00003384                                 L923:
  5264 00003384 C7 45 14 00000007               	MOV	DWORD [20+EBP],7
  5265 0000338B E9 FFFFFE79                     	JMP	L906
  5266 00003390                                 L922:
  5267 00003390 83 7D 08 00                     	CMP	DWORD [8+EBP],0
  5268 00003394 0F 84 FFFFFE66                  	JE	L901
  5269 0000339A 85 F6                           	TEST	ESI,ESI
  5270 0000339C 74 2C                           	JE	L902
  5271 0000339E 6A 00                           	PUSH	0
  5272 000033A0 53                              	PUSH	EBX
  5273 000033A1 FF 75 18                        	PUSH	DWORD [24+EBP]
  5274 000033A4 E8 [00000000]                   	CALL	_timer_init
  5275 000033A9 83 C4 0C                        	ADD	ESP,12
  5276 000033AC 83 7D 14 00                     	CMP	DWORD [20+EBP],0
  5277 000033B0 78 07                           	JS	L904
  5278 000033B2 C7 45 14 00000007               	MOV	DWORD [20+EBP],7
  5279 000033B9                                 L904:
  5280 000033B9 6A 32                           	PUSH	50
  5281 000033BB FF 75 18                        	PUSH	DWORD [24+EBP]
  5282 000033BE E8 [00000000]                   	CALL	_timer_settime
  5283 000033C3 59                              	POP	ECX
  5284 000033C4 5B                              	POP	EBX
  5285 000033C5 E9 FFFFFE36                     	JMP	L901
  5286 000033CA                                 L902:
  5287 000033CA 6A 01                           	PUSH	1
  5288 000033CC 53                              	PUSH	EBX
  5289 000033CD FF 75 18                        	PUSH	DWORD [24+EBP]
  5290 000033D0 E8 [00000000]                   	CALL	_timer_init
  5291 000033D5 83 C4 0C                        	ADD	ESP,12
  5292 000033D8 83 7D 14 00                     	CMP	DWORD [20+EBP],0
  5293 000033DC 78 DB                           	JS	L904
  5294 000033DE C7 45 14 00000000               	MOV	DWORD [20+EBP],0
  5295 000033E5 EB D2                           	JMP	L904
  5296 000033E7                                 L921:
  5297 000033E7 57                              	PUSH	EDI
  5298 000033E8 E8 [00000000]                   	CALL	_task_sleep
  5299 000033ED E8 [00000000]                   	CALL	_io_sti
  5300 000033F2 58                              	POP	EAX
  5301 000033F3 E9 FFFFFDDA                     	JMP	L896
  5302 000033F8                                 	GLOBAL	_log
  5303                                          [SECTION .data]
  5304 00001AD5 00 00 00                        	ALIGNB	4
  5305 00001AD8                                 _log:
  5306 00001AD8 00 00 00 00                     	RESB	4
  5307 00001ADC                                 	GLOBAL	_cp
  5308                                          [SECTION .data]
  5309 00001ADC                                 	ALIGNB	4
  5310 00001ADC                                 _cp:
  5311 00001ADC 00 00 00 00                     	RESB	4
