     1 00000000                                 [FORMAT "WCOFF"]
     2 00000000                                 [INSTRSET "i486p"]
     3 00000000                                 [OPTIMIZE 1]
     4 00000000                                 [OPTION 1]
     5 00000000                                 [BITS 32]
     6 00000000                                 	EXTERN	_task_now
     7 00000000                                 	EXTERN	_memman_alloc_4k
     8 00000000                                 	EXTERN	_timer_alloc
     9 00000000                                 	EXTERN	_timer_init
    10 00000000                                 	EXTERN	_timer_settime
    11 00000000                                 	EXTERN	_file_readfat
    12 00000000                                 	EXTERN	_io_cli
    13 00000000                                 	EXTERN	_fifo32_status
    14 00000000                                 	EXTERN	_fifo32_get
    15 00000000                                 	EXTERN	_io_sti
    16 00000000                                 	EXTERN	_boxfill8
    17 00000000                                 	EXTERN	_sheet_refresh
    18 00000000                                 	EXTERN	_newBackGround
    19 00000000                                 	EXTERN	_task_sleep
    20 00000000                                 	EXTERN	_putfonts8_asc_sht
    21 00000000                                 	EXTERN	_sprintf
    22 00000000                                 	EXTERN	_myfinfo_search
    23 00000000                                 	EXTERN	_myfread
    24 00000000                                 	EXTERN	_get_size_myfdata
    25 00000000                                 	EXTERN	_myfopen
    26 00000000                                 	EXTERN	_myfwrite
    27 00000000                                 	EXTERN	_strcat
    28 00000000                                 	EXTERN	_myfsave
    29 00000000                                 	EXTERN	_myfclose
    30 00000000                                 	EXTERN	_get_newdinfo
    31 00000000                                 	EXTERN	_get_newfdata
    32 00000000                                 	EXTERN	_strcpy
    33 00000000                                 	EXTERN	_memman_total
    34 00000000                                 	EXTERN	_file_loadfile
    35 00000000                                 	EXTERN	_memman_free_4k
    36 00000000                                 	EXTERN	_timer_cancel
    37 00000000                                 	EXTERN	_fifo32_put
    38 00000000                                 	EXTERN	_taskctl
    39 00000000                                 	EXTERN	_open_console
    40 00000000                                 	EXTERN	_sheet_slide
    41 00000000                                 	EXTERN	_sheet_updown
    42 00000000                                 	EXTERN	_open_constask
    43 00000000                                 	EXTERN	_file_search
    44 00000000                                 	EXTERN	_file_loadfile2
    45 00000000                                 	EXTERN	_set_segmdesc
    46 00000000                                 	EXTERN	_start_app
    47 00000000                                 	EXTERN	_timer_cancelall
    48 00000000                                 	EXTERN	_sheet_free
    49 00000000                                 	EXTERN	_sheet_alloc
    50 00000000                                 	EXTERN	_sheet_setbuf
    51 00000000                                 	EXTERN	_make_window8
    52 00000000                                 	EXTERN	_putfonts8_asc
    53 00000000                                 	EXTERN	_memman_init
    54 00000000                                 	EXTERN	_memman_free
    55 00000000                                 	EXTERN	_memman_alloc
    56 00000000                                 	EXTERN	_timer_free
    57 00000000                                 	EXTERN	_io_in8
    58 00000000                                 	EXTERN	_io_out8
    59 00000000                                 [FILE "console.c"]
    60 00000000                                 	GLOBAL	_console_id
    61                                          [SECTION .data]
    62 00000000                                 	ALIGNB	4
    63 00000000                                 _console_id:
    64 00000000 00000000                        	DD	0
    65 00000004                                 	GLOBAL	_setfdata
    66 00000004                                 	ALIGNB	4
    67 00000004                                 _setfdata:
    68 00000004 00000000                        	DD	0
    69                                          [SECTION .text]
    70 00000000                                 	GLOBAL	_debug_print
    71 00000000                                 _debug_print:
    72 00000000 55                              	PUSH	EBP
    73 00000001 89 E5                           	MOV	EBP,ESP
    74 00000003 5D                              	POP	EBP
    75 00000004 C3                              	RET
    76                                          [SECTION .data]
    77 00000008                                 LC5:
    78 00000008 74 69 6D 65 00                  	DB	"time",0x00
    79 0000000D                                 LC4:
    80 0000000D 6E 65 77 62 67 20 33 2E 6A 70   	DB	"newbg 3.jpg",0x00
       00000017 67 00 
    81 00000019                                 LC3:
    82 00000019 6E 65 77 62 67 20 32 2E 6A 70   	DB	"newbg 2.jpg",0x00
       00000023 67 00 
    83 00000025                                 LC2:
    84 00000025 75 73 65 72 00                  	DB	"user",0x00
    85 0000002A                                 LC1:
    86 0000002A 69 6E 76 61 64 65 72 00         	DB	"invader",0x00
    87 00000032                                 LC0:
    88 00000032 6E 6F 6F 64 6C 65 00            	DB	"noodle",0x00
    89                                          [SECTION .text]
    90 00000005                                 	GLOBAL	_console_task
    91 00000005                                 _console_task:
    92 00000005 55                              	PUSH	EBP
    93 00000006 89 E5                           	MOV	EBP,ESP
    94 00000008 57                              	PUSH	EDI
    95 00000009 56                              	PUSH	ESI
    96 0000000A 53                              	PUSH	EBX
    97 0000000B 81 EC 00000100                  	SUB	ESP,256
    98 00000011 8B 5D 08                        	MOV	EBX,DWORD [8+EBP]
    99 00000014 E8 [00000000]                   	CALL	_task_now
   100 00000019 68 00002D00                     	PUSH	11520
   101 0000001E 68 003C0000                     	PUSH	3932160
   102 00000023 89 85 FFFFFF00                  	MOV	DWORD [-256+EBP],EAX
   103 00000029 E8 [00000000]                   	CALL	_memman_alloc_4k
   104 0000002E 8B 95 FFFFFF00                  	MOV	EDX,DWORD [-256+EBP]
   105 00000034 89 C7                           	MOV	EDI,EAX
   106 00000036 89 5D D4                        	MOV	DWORD [-44+EBP],EBX
   107 00000039 A1 00000FE8                     	MOV	EAX,DWORD [4072]
   108 0000003E 89 85 FFFFFEF8                  	MOV	DWORD [-264+EBP],EAX
   109 00000044 A1 [00000000]                   	MOV	EAX,DWORD [_console_id]
   110 00000049 89 45 EC                        	MOV	DWORD [-20+EBP],EAX
   111 0000004C 40                              	INC	EAX
   112 0000004D A3 [00000000]                   	MOV	DWORD [_console_id],EAX
   113 00000052 85 DB                           	TEST	EBX,EBX
   114 00000054 8D 45 D4                        	LEA	EAX,DWORD [-44+EBP]
   115 00000057 89 82 000000A4                  	MOV	DWORD [164+EDX],EAX
   116 0000005D 8D 85 FFFFFF04                  	LEA	EAX,DWORD [-252+EBP]
   117 00000063 89 82 000000B8                  	MOV	DWORD [184+EDX],EAX
   118 00000069 59                              	POP	ECX
   119 0000006A C7 45 D8 00000008               	MOV	DWORD [-40+EBP],8
   120 00000071 C7 45 DC 0000001C               	MOV	DWORD [-36+EBP],28
   121 00000078 C7 45 E0 FFFFFFFF               	MOV	DWORD [-32+EBP],-1
   122 0000007F C7 45 E8 00400000               	MOV	DWORD [-24+EBP],4194304
   123 00000086 5E                              	POP	ESI
   124 00000087 74 27                           	JE	L3
   125 00000089 E8 [00000000]                   	CALL	_timer_alloc
   126 0000008E 8B 95 FFFFFF00                  	MOV	EDX,DWORD [-256+EBP]
   127 00000094 6A 01                           	PUSH	1
   128 00000096 83 C2 10                        	ADD	EDX,16
   129 00000099 52                              	PUSH	EDX
   130 0000009A 89 45 E4                        	MOV	DWORD [-28+EBP],EAX
   131 0000009D 50                              	PUSH	EAX
   132 0000009E E8 [00000000]                   	CALL	_timer_init
   133 000000A3 6A 32                           	PUSH	50
   134 000000A5 FF 75 E4                        	PUSH	DWORD [-28+EBP]
   135 000000A8 E8 [00000000]                   	CALL	_timer_settime
   136 000000AD 83 C4 14                        	ADD	ESP,20
   137 000000B0                                 L3:
   138 000000B0 68 00100200                     	PUSH	1049088
   139 000000B5 BE 00000007                     	MOV	ESI,7
   140 000000BA 57                              	PUSH	EDI
   141 000000BB E8 [00000000]                   	CALL	_file_readfat
   142 000000C0 58                              	POP	EAX
   143 000000C1 5A                              	POP	EDX
   144 000000C2 31 C0                           	XOR	EAX,EAX
   145 000000C4                                 L8:
   146 000000C4 C7 84 05 FFFFFF74 00000000      	MOV	DWORD [-140+EBP+EAX*1],0
   147 000000CF 83 C0 0C                        	ADD	EAX,12
   148 000000D2 4E                              	DEC	ESI
   149 000000D3 79 EF                           	JNS	L8
   150 000000D5 8B 8D FFFFFF00                  	MOV	ECX,DWORD [-256+EBP]
   151 000000DB 8B 9D FFFFFEF8                  	MOV	EBX,DWORD [-264+EBP]
   152 000000E1 8D 85 FFFFFF74                  	LEA	EAX,DWORD [-140+EBP]
   153 000000E7 89 81 000000B0                  	MOV	DWORD [176+ECX],EAX
   154 000000ED 89 B9 000000B4                  	MOV	DWORD [180+ECX],EDI
   155 000000F3 80 BB 00001000 FF               	CMP	BYTE [4096+EBX],-1
   156 000000FA C6 81 000000C1 00               	MOV	BYTE [193+ECX],0
   157 00000101 0F 95 81 000000C0               	SETNE	BYTE [192+ECX]
   158 00000108 8B 45 EC                        	MOV	EAX,DWORD [-20+EBP]
   159 0000010B 83 F8 01                        	CMP	EAX,1
   160 0000010E 0F 84 000003C3                  	JE	L55
   161 00000114 85 C0                           	TEST	EAX,EAX
   162 00000116 75 0A                           	JNE	L12
   163 00000118 8D 45 D4                        	LEA	EAX,DWORD [-44+EBP]
   164 0000011B 50                              	PUSH	EAX
   165 0000011C E8 000019EC                     	CALL	_cmd_setlog
   166 00000121                                 L53:
   167 00000121 58                              	POP	EAX
   168 00000122                                 L12:
   169 00000122 8D 5D D4                        	LEA	EBX,DWORD [-44+EBP]
   170 00000125 53                              	PUSH	EBX
   171 00000126 E8 00000629                     	CALL	_cons_putdir
   172 0000012B 6A 01                           	PUSH	1
   173 0000012D 6A 3E                           	PUSH	62
   174 0000012F 53                              	PUSH	EBX
   175 00000130 89 85 FFFFFEFC                  	MOV	DWORD [-260+EBP],EAX
   176 00000136 E8 000003AA                     	CALL	_cons_putchar
   177 0000013B 83 C4 10                        	ADD	ESP,16
   178 0000013E                                 L14:
   179 0000013E E8 [00000000]                   	CALL	_io_cli
   180 00000143 8B 9D FFFFFF00                  	MOV	EBX,DWORD [-256+EBP]
   181 00000149 83 C3 10                        	ADD	EBX,16
   182 0000014C 53                              	PUSH	EBX
   183 0000014D E8 [00000000]                   	CALL	_fifo32_status
   184 00000152 5E                              	POP	ESI
   185 00000153 85 C0                           	TEST	EAX,EAX
   186 00000155 0F 84 00000366                  	JE	L56
   187 0000015B 53                              	PUSH	EBX
   188 0000015C E8 [00000000]                   	CALL	_fifo32_get
   189 00000161 89 C6                           	MOV	ESI,EAX
   190 00000163 E8 [00000000]                   	CALL	_io_sti
   191 00000168 59                              	POP	ECX
   192 00000169 83 FE 01                        	CMP	ESI,1
   193 0000016C 0F 8E 000002F8                  	JLE	L57
   194 00000172                                 L19:
   195 00000172 83 FE 02                        	CMP	ESI,2
   196 00000175 0F 84 000002E3                  	JE	L58
   197 0000017B                                 L24:
   198 0000017B 83 FE 03                        	CMP	ESI,3
   199 0000017E 0F 84 000002A8                  	JE	L59
   200 00000184                                 L25:
   201 00000184 83 FE 04                        	CMP	ESI,4
   202 00000187 0F 84 0000028E                  	JE	L60
   203 0000018D                                 L27:
   204 0000018D 83 FE 06                        	CMP	ESI,6
   205 00000190 0F 84 0000026E                  	JE	L61
   206 00000196                                 L29:
   207 00000196 83 FE 0C                        	CMP	ESI,12
   208 00000199 0F 84 000001F5                  	JE	L62
   209 0000019F                                 L35:
   210 0000019F 83 FE 0D                        	CMP	ESI,13
   211 000001A2 0F 84 000001D5                  	JE	L63
   212 000001A8                                 L36:
   213 000001A8 83 FE 12                        	CMP	ESI,18
   214 000001AB 0F 84 000001B5                  	JE	L64
   215 000001B1                                 L37:
   216 000001B1 83 FE 15                        	CMP	ESI,21
   217 000001B4 0F 84 00000195                  	JE	L65
   218 000001BA                                 L38:
   219 000001BA 83 FE 16                        	CMP	ESI,22
   220 000001BD 0F 84 00000175                  	JE	L66
   221 000001C3                                 L39:
   222 000001C3 83 FE 17                        	CMP	ESI,23
   223 000001C6 0F 84 00000155                  	JE	L67
   224 000001CC                                 L40:
   225 000001CC 8D 86 FFFFFF00                  	LEA	EAX,DWORD [-256+ESI]
   226 000001D2 89 85 FFFFFEF4                  	MOV	DWORD [-268+EBP],EAX
   227 000001D8 3D 000000FF                     	CMP	EAX,255
   228 000001DD 77 54                           	JA	L41
   229 000001DF 81 FE 00000108                  	CMP	ESI,264
   230 000001E5 0F 84 0000010A                  	JE	L68
   231 000001EB 81 FE 0000010A                  	CMP	ESI,266
   232 000001F1 0F 84 0000008F                  	JE	L69
   233 000001F7 8B 4D D8                        	MOV	ECX,DWORD [-40+EBP]
   234 000001FA 81 F9 000000EF                  	CMP	ECX,239
   235 00000200 7F 31                           	JG	L41
   236 00000202 89 C8                           	MOV	EAX,ECX
   237 00000204 BA 00000008                     	MOV	EDX,8
   238 00000209 89 D3                           	MOV	EBX,EDX
   239 0000020B 6A 01                           	PUSH	1
   240 0000020D 99                              	CDQ
   241 0000020E F7 FB                           	IDIV	EBX
   242 00000210 89 C1                           	MOV	ECX,EAX
   243 00000212 89 F0                           	MOV	EAX,ESI
   244 00000214 2B 8D FFFFFEFC                  	SUB	ECX,DWORD [-260+EBP]
   245 0000021A 88 84 0D FFFFFF02               	MOV	BYTE [-254+EBP+ECX*1],AL
   246 00000221 8D 45 D4                        	LEA	EAX,DWORD [-44+EBP]
   247 00000224 FF B5 FFFFFEF4                  	PUSH	DWORD [-268+EBP]
   248 0000022A 50                              	PUSH	EAX
   249 0000022B E8 000002B5                     	CALL	_cons_putchar
   250 00000230                                 L54:
   251 00000230 83 C4 0C                        	ADD	ESP,12
   252 00000233                                 L41:
   253 00000233 8B 5D D4                        	MOV	EBX,DWORD [-44+EBP]
   254 00000236 85 DB                           	TEST	EBX,EBX
   255 00000238 0F 84 FFFFFF00                  	JE	L14
   256 0000023E 83 7D E0 00                     	CMP	DWORD [-32+EBP],0
   257 00000242 78 22                           	JS	L50
   258 00000244 8B 4D DC                        	MOV	ECX,DWORD [-36+EBP]
   259 00000247 8B 55 D8                        	MOV	EDX,DWORD [-40+EBP]
   260 0000024A 8D 41 0F                        	LEA	EAX,DWORD [15+ECX]
   261 0000024D 50                              	PUSH	EAX
   262 0000024E 8D 42 07                        	LEA	EAX,DWORD [7+EDX]
   263 00000251 50                              	PUSH	EAX
   264 00000252 51                              	PUSH	ECX
   265 00000253 52                              	PUSH	EDX
   266 00000254 0F B6 45 E0                     	MOVZX	EAX,BYTE [-32+EBP]
   267 00000258 50                              	PUSH	EAX
   268 00000259 FF 73 04                        	PUSH	DWORD [4+EBX]
   269 0000025C FF 33                           	PUSH	DWORD [EBX]
   270 0000025E E8 [00000000]                   	CALL	_boxfill8
   271 00000263 83 C4 1C                        	ADD	ESP,28
   272 00000266                                 L50:
   273 00000266 8B 4D DC                        	MOV	ECX,DWORD [-36+EBP]
   274 00000269 8B 55 D8                        	MOV	EDX,DWORD [-40+EBP]
   275 0000026C 8D 41 10                        	LEA	EAX,DWORD [16+ECX]
   276 0000026F 50                              	PUSH	EAX
   277 00000270 8D 42 08                        	LEA	EAX,DWORD [8+EDX]
   278 00000273 50                              	PUSH	EAX
   279 00000274 51                              	PUSH	ECX
   280 00000275 52                              	PUSH	EDX
   281 00000276 FF 75 D4                        	PUSH	DWORD [-44+EBP]
   282 00000279 E8 [00000000]                   	CALL	_sheet_refresh
   283 0000027E 83 C4 14                        	ADD	ESP,20
   284 00000281 E9 FFFFFEB8                     	JMP	L14
   285 00000286                                 L69:
   286 00000286 6A 00                           	PUSH	0
   287 00000288 8D 5D D4                        	LEA	EBX,DWORD [-44+EBP]
   288 0000028B 6A 20                           	PUSH	32
   289 0000028D 53                              	PUSH	EBX
   290 0000028E E8 00000252                     	CALL	_cons_putchar
   291 00000293 53                              	PUSH	EBX
   292 00000294 8B 45 D8                        	MOV	EAX,DWORD [-40+EBP]
   293 00000297 BA 00000008                     	MOV	EDX,8
   294 0000029C 89 D1                           	MOV	ECX,EDX
   295 0000029E 99                              	CDQ
   296 0000029F F7 F9                           	IDIV	ECX
   297 000002A1 2B 85 FFFFFEFC                  	SUB	EAX,DWORD [-260+EBP]
   298 000002A7 C6 84 05 FFFFFF02 00            	MOV	BYTE [-254+EBP+EAX*1],0
   299 000002AF E8 000002EC                     	CALL	_cons_newline
   300 000002B4 8D 85 FFFFFF04                  	LEA	EAX,DWORD [-252+EBP]
   301 000002BA FF 75 0C                        	PUSH	DWORD [12+EBP]
   302 000002BD 57                              	PUSH	EDI
   303 000002BE 53                              	PUSH	EBX
   304 000002BF 50                              	PUSH	EAX
   305 000002C0 E8 00000576                     	CALL	_cons_runcmd
   306 000002C5 83 C4 20                        	ADD	ESP,32
   307 000002C8 83 7D D4 00                     	CMP	DWORD [-44+EBP],0
   308 000002CC 75 09                           	JNE	L46
   309 000002CE 57                              	PUSH	EDI
   310 000002CF 53                              	PUSH	EBX
   311 000002D0 E8 0000219B                     	CALL	_cmd_exit
   312 000002D5 58                              	POP	EAX
   313 000002D6 5A                              	POP	EDX
   314 000002D7                                 L46:
   315 000002D7 53                              	PUSH	EBX
   316 000002D8 E8 00000477                     	CALL	_cons_putdir
   317 000002DD 6A 01                           	PUSH	1
   318 000002DF 6A 3E                           	PUSH	62
   319 000002E1 53                              	PUSH	EBX
   320 000002E2 89 85 FFFFFEFC                  	MOV	DWORD [-260+EBP],EAX
   321 000002E8 E8 000001F8                     	CALL	_cons_putchar
   322 000002ED 83 C4 10                        	ADD	ESP,16
   323 000002F0 E9 FFFFFF3E                     	JMP	L41
   324 000002F5                                 L68:
   325 000002F5 8B 95 FFFFFEFC                  	MOV	EDX,DWORD [-260+EBP]
   326 000002FB 8D 04 D5 00000010               	LEA	EAX,DWORD [16+EDX*8]
   327 00000302 39 45 D8                        	CMP	DWORD [-40+EBP],EAX
   328 00000305 0F 8E FFFFFF28                  	JLE	L41
   329 0000030B 6A 00                           	PUSH	0
   330 0000030D 8D 45 D4                        	LEA	EAX,DWORD [-44+EBP]
   331 00000310 6A 20                           	PUSH	32
   332 00000312 50                              	PUSH	EAX
   333 00000313 E8 000001CD                     	CALL	_cons_putchar
   334 00000318 83 6D D8 08                     	SUB	DWORD [-40+EBP],8
   335 0000031C E9 FFFFFF0F                     	JMP	L54
   336 00000321                                 L67:
   337 00000321 68 [00000008]                   	PUSH	LC5
   338 00000326 8D 45 D4                        	LEA	EAX,DWORD [-44+EBP]
   339 00000329 57                              	PUSH	EDI
   340 0000032A 50                              	PUSH	EAX
   341 0000032B E8 0000237D                     	CALL	_cmd_app
   342 00000330 83 C4 0C                        	ADD	ESP,12
   343 00000333 E9 FFFFFE94                     	JMP	L40
   344 00000338                                 L66:
   345 00000338 8D 45 D4                        	LEA	EAX,DWORD [-44+EBP]
   346 0000033B 50                              	PUSH	EAX
   347 0000033C 57                              	PUSH	EDI
   348 0000033D 68 [0000000D]                   	PUSH	LC4
   349 00000342 E8 [00000000]                   	CALL	_newBackGround
   350 00000347 83 C4 0C                        	ADD	ESP,12
   351 0000034A E9 FFFFFE74                     	JMP	L39
   352 0000034F                                 L65:
   353 0000034F 8D 45 D4                        	LEA	EAX,DWORD [-44+EBP]
   354 00000352 50                              	PUSH	EAX
   355 00000353 57                              	PUSH	EDI
   356 00000354 68 [00000019]                   	PUSH	LC3
   357 00000359 E8 [00000000]                   	CALL	_newBackGround
   358 0000035E 83 C4 0C                        	ADD	ESP,12
   359 00000361 E9 FFFFFE54                     	JMP	L38
   360 00000366                                 L64:
   361 00000366 68 [00000025]                   	PUSH	LC2
   362 0000036B 8D 45 D4                        	LEA	EAX,DWORD [-44+EBP]
   363 0000036E 57                              	PUSH	EDI
   364 0000036F 50                              	PUSH	EAX
   365 00000370 E8 00002338                     	CALL	_cmd_app
   366 00000375 83 C4 0C                        	ADD	ESP,12
   367 00000378 E9 FFFFFE34                     	JMP	L37
   368 0000037D                                 L63:
   369 0000037D 68 [0000002A]                   	PUSH	LC1
   370 00000382 8D 45 D4                        	LEA	EAX,DWORD [-44+EBP]
   371 00000385 57                              	PUSH	EDI
   372 00000386 50                              	PUSH	EAX
   373 00000387 E8 00002321                     	CALL	_cmd_app
   374 0000038C 83 C4 0C                        	ADD	ESP,12
   375 0000038F E9 FFFFFE14                     	JMP	L36
   376 00000394                                 L62:
   377 00000394 FF 75 0C                        	PUSH	DWORD [12+EBP]
   378 00000397 57                              	PUSH	EDI
   379 00000398 8D 45 D4                        	LEA	EAX,DWORD [-44+EBP]
   380 0000039B 50                              	PUSH	EAX
   381 0000039C 8D 85 FFFFFF04                  	LEA	EAX,DWORD [-252+EBP]
   382 000003A2 50                              	PUSH	EAX
   383 000003A3 C6 85 FFFFFF04 47               	MOV	BYTE [-252+EBP],71
   384 000003AA C6 85 FFFFFF05 56               	MOV	BYTE [-251+EBP],86
   385 000003B1 C6 85 FFFFFF06 49               	MOV	BYTE [-250+EBP],73
   386 000003B8 C6 85 FFFFFF07 45               	MOV	BYTE [-249+EBP],69
   387 000003BF C6 85 FFFFFF08 57               	MOV	BYTE [-248+EBP],87
   388 000003C6 C6 85 FFFFFF09 20               	MOV	BYTE [-247+EBP],32
   389 000003CD C6 85 FFFFFF0A 35               	MOV	BYTE [-246+EBP],53
   390 000003D4 C6 85 FFFFFF0B 2E               	MOV	BYTE [-245+EBP],46
   391 000003DB C6 85 FFFFFF0C 4A               	MOV	BYTE [-244+EBP],74
   392 000003E2 C6 85 FFFFFF0D 50               	MOV	BYTE [-243+EBP],80
   393 000003E9 C6 85 FFFFFF0E 47               	MOV	BYTE [-242+EBP],71
   394 000003F0 C6 85 FFFFFF0F 00               	MOV	BYTE [-241+EBP],0
   395 000003F7 E8 0000043F                     	CALL	_cons_runcmd
   396 000003FC 83 C4 10                        	ADD	ESP,16
   397 000003FF E9 FFFFFD9B                     	JMP	L35
   398 00000404                                 L61:
   399 00000404 68 [00000032]                   	PUSH	LC0
   400 00000409 8D 45 D4                        	LEA	EAX,DWORD [-44+EBP]
   401 0000040C 57                              	PUSH	EDI
   402 0000040D 50                              	PUSH	EAX
   403 0000040E E8 0000229A                     	CALL	_cmd_app
   404 00000413 83 C4 0C                        	ADD	ESP,12
   405 00000416 E9 FFFFFD7B                     	JMP	L29
   406 0000041B                                 L60:
   407 0000041B 57                              	PUSH	EDI
   408 0000041C 8D 45 D4                        	LEA	EAX,DWORD [-44+EBP]
   409 0000041F 50                              	PUSH	EAX
   410 00000420 E8 0000204B                     	CALL	_cmd_exit
   411 00000425 59                              	POP	ECX
   412 00000426 5B                              	POP	EBX
   413 00000427 E9 FFFFFD61                     	JMP	L27
   414 0000042C                                 L59:
   415 0000042C 8B 5D D4                        	MOV	EBX,DWORD [-44+EBP]
   416 0000042F 85 DB                           	TEST	EBX,EBX
   417 00000431 74 1F                           	JE	L26
   418 00000433 8B 4D DC                        	MOV	ECX,DWORD [-36+EBP]
   419 00000436 8B 55 D8                        	MOV	EDX,DWORD [-40+EBP]
   420 00000439 8D 41 0F                        	LEA	EAX,DWORD [15+ECX]
   421 0000043C 50                              	PUSH	EAX
   422 0000043D 8D 42 07                        	LEA	EAX,DWORD [7+EDX]
   423 00000440 50                              	PUSH	EAX
   424 00000441 51                              	PUSH	ECX
   425 00000442 52                              	PUSH	EDX
   426 00000443 6A 00                           	PUSH	0
   427 00000445 FF 73 04                        	PUSH	DWORD [4+EBX]
   428 00000448 FF 33                           	PUSH	DWORD [EBX]
   429 0000044A E8 [00000000]                   	CALL	_boxfill8
   430 0000044F 83 C4 1C                        	ADD	ESP,28
   431 00000452                                 L26:
   432 00000452 C7 45 E0 FFFFFFFF               	MOV	DWORD [-32+EBP],-1
   433 00000459 E9 FFFFFD26                     	JMP	L25
   434 0000045E                                 L58:
   435 0000045E C7 45 E0 00000007               	MOV	DWORD [-32+EBP],7
   436 00000465 E9 FFFFFD11                     	JMP	L24
   437 0000046A                                 L57:
   438 0000046A 83 7D D4 00                     	CMP	DWORD [-44+EBP],0
   439 0000046E 0F 84 FFFFFCFE                  	JE	L19
   440 00000474 85 F6                           	TEST	ESI,ESI
   441 00000476 74 2C                           	JE	L20
   442 00000478 6A 00                           	PUSH	0
   443 0000047A 53                              	PUSH	EBX
   444 0000047B FF 75 E4                        	PUSH	DWORD [-28+EBP]
   445 0000047E E8 [00000000]                   	CALL	_timer_init
   446 00000483 83 C4 0C                        	ADD	ESP,12
   447 00000486 83 7D E0 00                     	CMP	DWORD [-32+EBP],0
   448 0000048A 78 07                           	JS	L22
   449 0000048C C7 45 E0 00000007               	MOV	DWORD [-32+EBP],7
   450 00000493                                 L22:
   451 00000493 6A 32                           	PUSH	50
   452 00000495 FF 75 E4                        	PUSH	DWORD [-28+EBP]
   453 00000498 E8 [00000000]                   	CALL	_timer_settime
   454 0000049D 58                              	POP	EAX
   455 0000049E 5A                              	POP	EDX
   456 0000049F E9 FFFFFCCE                     	JMP	L19
   457 000004A4                                 L20:
   458 000004A4 6A 01                           	PUSH	1
   459 000004A6 53                              	PUSH	EBX
   460 000004A7 FF 75 E4                        	PUSH	DWORD [-28+EBP]
   461 000004AA E8 [00000000]                   	CALL	_timer_init
   462 000004AF 83 C4 0C                        	ADD	ESP,12
   463 000004B2 83 7D E0 00                     	CMP	DWORD [-32+EBP],0
   464 000004B6 78 DB                           	JS	L22
   465 000004B8 C7 45 E0 00000000               	MOV	DWORD [-32+EBP],0
   466 000004BF EB D2                           	JMP	L22
   467 000004C1                                 L56:
   468 000004C1 FF B5 FFFFFF00                  	PUSH	DWORD [-256+EBP]
   469 000004C7 E8 [00000000]                   	CALL	_task_sleep
   470 000004CC E8 [00000000]                   	CALL	_io_sti
   471 000004D1 5B                              	POP	EBX
   472 000004D2 E9 FFFFFC67                     	JMP	L14
   473 000004D7                                 L55:
   474 000004D7 8D 45 D4                        	LEA	EAX,DWORD [-44+EBP]
   475 000004DA 50                              	PUSH	EAX
   476 000004DB E8 00001C32                     	CALL	_cmd_mkfs
   477 000004E0 E9 FFFFFC3C                     	JMP	L53
   478                                          [SECTION .data]
   479 00000039                                 LC6:
   480 00000039 20 00                           	DB	" ",0x00
   481                                          [SECTION .text]
   482 000004E5                                 	GLOBAL	_cons_putchar
   483 000004E5                                 _cons_putchar:
   484 000004E5 55                              	PUSH	EBP
   485 000004E6 89 E5                           	MOV	EBP,ESP
   486 000004E8 53                              	PUSH	EBX
   487 000004E9 50                              	PUSH	EAX
   488 000004EA 8B 45 0C                        	MOV	EAX,DWORD [12+EBP]
   489 000004ED 8A 55 10                        	MOV	DL,BYTE [16+EBP]
   490 000004F0 8B 5D 08                        	MOV	EBX,DWORD [8+EBP]
   491 000004F3 88 55 F9                        	MOV	BYTE [-7+EBP],DL
   492 000004F6 88 45 FA                        	MOV	BYTE [-6+EBP],AL
   493 000004F9 3C 09                           	CMP	AL,9
   494 000004FB C6 45 FB 00                     	MOV	BYTE [-5+EBP],0
   495 000004FF 74 52                           	JE	L72
   496 00000501 3C 0A                           	CMP	AL,10
   497 00000503 74 2A                           	JE	L86
   498 00000505 3C 0D                           	CMP	AL,13
   499 00000507 74 21                           	JE	L70
   500 00000509 8B 13                           	MOV	EDX,DWORD [EBX]
   501 0000050B 85 D2                           	TEST	EDX,EDX
   502 0000050D 75 29                           	JNE	L87
   503 0000050F                                 L83:
   504 0000050F 80 7D F9 00                     	CMP	BYTE [-7+EBP],0
   505 00000513 74 15                           	JE	L70
   506 00000515 8B 43 04                        	MOV	EAX,DWORD [4+EBX]
   507 00000518 8B 13                           	MOV	EDX,DWORD [EBX]
   508 0000051A 83 C0 08                        	ADD	EAX,8
   509 0000051D 89 43 04                        	MOV	DWORD [4+EBX],EAX
   510 00000520 8B 52 04                        	MOV	EDX,DWORD [4+EDX]
   511 00000523 83 EA 08                        	SUB	EDX,8
   512 00000526 39 D0                           	CMP	EAX,EDX
   513 00000528 74 05                           	JE	L86
   514 0000052A                                 L70:
   515 0000052A 8B 5D FC                        	MOV	EBX,DWORD [-4+EBP]
   516 0000052D C9                              	LEAVE
   517 0000052E C3                              	RET
   518 0000052F                                 L86:
   519 0000052F 53                              	PUSH	EBX
   520 00000530 E8 0000006B                     	CALL	_cons_newline
   521 00000535 58                              	POP	EAX
   522 00000536 EB F2                           	JMP	L70
   523 00000538                                 L87:
   524 00000538 6A 01                           	PUSH	1
   525 0000053A 8D 45 FA                        	LEA	EAX,DWORD [-6+EBP]
   526 0000053D 50                              	PUSH	EAX
   527 0000053E 6A 00                           	PUSH	0
   528 00000540 6A 07                           	PUSH	7
   529 00000542 FF 73 08                        	PUSH	DWORD [8+EBX]
   530 00000545 FF 73 04                        	PUSH	DWORD [4+EBX]
   531 00000548 52                              	PUSH	EDX
   532 00000549 E8 [00000000]                   	CALL	_putfonts8_asc_sht
   533 0000054E 83 C4 1C                        	ADD	ESP,28
   534 00000551 EB BC                           	JMP	L83
   535 00000553                                 L72:
   536 00000553 8B 03                           	MOV	EAX,DWORD [EBX]
   537 00000555 85 C0                           	TEST	EAX,EAX
   538 00000557 75 2B                           	JNE	L88
   539 00000559                                 L75:
   540 00000559 8B 43 04                        	MOV	EAX,DWORD [4+EBX]
   541 0000055C 8B 13                           	MOV	EDX,DWORD [EBX]
   542 0000055E 83 C0 08                        	ADD	EAX,8
   543 00000561 89 43 04                        	MOV	DWORD [4+EBX],EAX
   544 00000564 8B 52 04                        	MOV	EDX,DWORD [4+EDX]
   545 00000567 83 EA 08                        	SUB	EDX,8
   546 0000056A 39 D0                           	CMP	EAX,EDX
   547 0000056C 74 0D                           	JE	L89
   548 0000056E                                 L76:
   549 0000056E 8B 43 04                        	MOV	EAX,DWORD [4+EBX]
   550 00000571 83 E8 08                        	SUB	EAX,8
   551 00000574 83 E0 1F                        	AND	EAX,31
   552 00000577 75 DA                           	JNE	L72
   553 00000579 EB AF                           	JMP	L70
   554 0000057B                                 L89:
   555 0000057B 53                              	PUSH	EBX
   556 0000057C E8 0000001F                     	CALL	_cons_newline
   557 00000581 58                              	POP	EAX
   558 00000582 EB EA                           	JMP	L76
   559 00000584                                 L88:
   560 00000584 6A 01                           	PUSH	1
   561 00000586 68 [00000039]                   	PUSH	LC6
   562 0000058B 6A 00                           	PUSH	0
   563 0000058D 6A 07                           	PUSH	7
   564 0000058F FF 73 08                        	PUSH	DWORD [8+EBX]
   565 00000592 FF 73 04                        	PUSH	DWORD [4+EBX]
   566 00000595 50                              	PUSH	EAX
   567 00000596 E8 [00000000]                   	CALL	_putfonts8_asc_sht
   568 0000059B 83 C4 1C                        	ADD	ESP,28
   569 0000059E EB B9                           	JMP	L75
   570 000005A0                                 	GLOBAL	_cons_newline
   571 000005A0                                 _cons_newline:
   572 000005A0 55                              	PUSH	EBP
   573 000005A1 89 E5                           	MOV	EBP,ESP
   574 000005A3 57                              	PUSH	EDI
   575 000005A4 56                              	PUSH	ESI
   576 000005A5 53                              	PUSH	EBX
   577 000005A6 83 EC 14                        	SUB	ESP,20
   578 000005A9 8B 45 08                        	MOV	EAX,DWORD [8+EBP]
   579 000005AC 8B 00                           	MOV	EAX,DWORD [EAX]
   580 000005AE 89 45 E8                        	MOV	DWORD [-24+EBP],EAX
   581 000005B1 8B 58 08                        	MOV	EBX,DWORD [8+EAX]
   582 000005B4 8B 50 04                        	MOV	EDX,DWORD [4+EAX]
   583 000005B7 83 EA 10                        	SUB	EDX,16
   584 000005BA 8D 4B DB                        	LEA	ECX,DWORD [-37+EBX]
   585 000005BD 89 55 F0                        	MOV	DWORD [-16+EBP],EDX
   586 000005C0 89 4D EC                        	MOV	DWORD [-20+EBP],ECX
   587 000005C3 E8 [00000000]                   	CALL	_task_now
   588 000005C8 8D 53 E7                        	LEA	EDX,DWORD [-25+EBX]
   589 000005CB 8B 5D 08                        	MOV	EBX,DWORD [8+EBP]
   590 000005CE 89 45 E4                        	MOV	DWORD [-28+EBP],EAX
   591 000005D1 8B 43 08                        	MOV	EAX,DWORD [8+EBX]
   592 000005D4 39 D0                           	CMP	EAX,EDX
   593 000005D6 7D 36                           	JGE	L91
   594 000005D8 83 C0 10                        	ADD	EAX,16
   595 000005DB 89 43 08                        	MOV	DWORD [8+EBX],EAX
   596 000005DE                                 L92:
   597 000005DE 8B 45 08                        	MOV	EAX,DWORD [8+EBP]
   598 000005E1 8B 55 E4                        	MOV	EDX,DWORD [-28+EBP]
   599 000005E4 C7 40 04 00000008               	MOV	DWORD [4+EAX],8
   600 000005EB 80 BA 000000C0 01               	CMP	BYTE [192+EDX],1
   601 000005F2 74 08                           	JE	L123
   602 000005F4                                 L90:
   603 000005F4 8D 65 F4                        	LEA	ESP,DWORD [-12+EBP]
   604 000005F7 5B                              	POP	EBX
   605 000005F8 5E                              	POP	ESI
   606 000005F9 5F                              	POP	EDI
   607 000005FA 5D                              	POP	EBP
   608 000005FB C3                              	RET
   609 000005FC                                 L123:
   610 000005FC 80 BA 000000C1 00               	CMP	BYTE [193+EDX],0
   611 00000603 74 EF                           	JE	L90
   612 00000605 C7 40 04 00000010               	MOV	DWORD [4+EAX],16
   613 0000060C EB E6                           	JMP	L90
   614 0000060E                                 L91:
   615 0000060E 83 7D E8 00                     	CMP	DWORD [-24+EBP],0
   616 00000612 74 CA                           	JE	L92
   617 00000614 BF 0000001C                     	MOV	EDI,28
   618 00000619 39 D7                           	CMP	EDI,EDX
   619 0000061B 7D 45                           	JGE	L116
   620 0000061D                                 L103:
   621 0000061D 8B 45 F0                        	MOV	EAX,DWORD [-16+EBP]
   622 00000620 BE 00000008                     	MOV	ESI,8
   623 00000625 83 C0 08                        	ADD	EAX,8
   624 00000628 89 45 E0                        	MOV	DWORD [-32+EBP],EAX
   625 0000062B 39 C6                           	CMP	ESI,EAX
   626 0000062D 7D 28                           	JGE	L118
   627 0000062F                                 L102:
   628 0000062F 8B 55 E8                        	MOV	EDX,DWORD [-24+EBP]
   629 00000632 8B 45 E8                        	MOV	EAX,DWORD [-24+EBP]
   630 00000635 8B 4A 04                        	MOV	ECX,DWORD [4+EDX]
   631 00000638 8B 18                           	MOV	EBX,DWORD [EAX]
   632 0000063A 8D 47 10                        	LEA	EAX,DWORD [16+EDI]
   633 0000063D 89 FA                           	MOV	EDX,EDI
   634 0000063F 0F AF C1                        	IMUL	EAX,ECX
   635 00000642 0F AF D1                        	IMUL	EDX,ECX
   636 00000645 8D 04 30                        	LEA	EAX,DWORD [EAX+ESI*1]
   637 00000648 8D 14 32                        	LEA	EDX,DWORD [EDX+ESI*1]
   638 0000064B 46                              	INC	ESI
   639 0000064C 8A 04 18                        	MOV	AL,BYTE [EAX+EBX*1]
   640 0000064F 88 04 1A                        	MOV	BYTE [EDX+EBX*1],AL
   641 00000652 3B 75 E0                        	CMP	ESI,DWORD [-32+EBP]
   642 00000655 7C D8                           	JL	L102
   643 00000657                                 L118:
   644 00000657 8B 45 EC                        	MOV	EAX,DWORD [-20+EBP]
   645 0000065A 47                              	INC	EDI
   646 0000065B 83 C0 0C                        	ADD	EAX,12
   647 0000065E 39 C7                           	CMP	EDI,EAX
   648 00000660 7C BB                           	JL	L103
   649 00000662                                 L116:
   650 00000662 8B 7D EC                        	MOV	EDI,DWORD [-20+EBP]
   651 00000665 8B 45 EC                        	MOV	EAX,DWORD [-20+EBP]
   652 00000668 83 C7 0C                        	ADD	EDI,12
   653 0000066B 83 C0 1C                        	ADD	EAX,28
   654 0000066E 39 C7                           	CMP	EDI,EAX
   655 00000670 7D 31                           	JGE	L120
   656 00000672                                 L113:
   657 00000672 8B 4D F0                        	MOV	ECX,DWORD [-16+EBP]
   658 00000675 BE 00000008                     	MOV	ESI,8
   659 0000067A 83 C1 08                        	ADD	ECX,8
   660 0000067D 39 CE                           	CMP	ESI,ECX
   661 0000067F 7D 17                           	JGE	L122
   662 00000681                                 L112:
   663 00000681 8B 55 E8                        	MOV	EDX,DWORD [-24+EBP]
   664 00000684 89 F8                           	MOV	EAX,EDI
   665 00000686 0F AF 42 04                     	IMUL	EAX,DWORD [4+EDX]
   666 0000068A 8B 12                           	MOV	EDX,DWORD [EDX]
   667 0000068C 8D 04 30                        	LEA	EAX,DWORD [EAX+ESI*1]
   668 0000068F 46                              	INC	ESI
   669 00000690 39 CE                           	CMP	ESI,ECX
   670 00000692 C6 04 10 00                     	MOV	BYTE [EAX+EDX*1],0
   671 00000696 7C E9                           	JL	L112
   672 00000698                                 L122:
   673 00000698 8B 45 EC                        	MOV	EAX,DWORD [-20+EBP]
   674 0000069B 47                              	INC	EDI
   675 0000069C 83 C0 1C                        	ADD	EAX,28
   676 0000069F 39 C7                           	CMP	EDI,EAX
   677 000006A1 7C CF                           	JL	L113
   678 000006A3                                 L120:
   679 000006A3 8B 45 EC                        	MOV	EAX,DWORD [-20+EBP]
   680 000006A6 83 C0 1C                        	ADD	EAX,28
   681 000006A9 50                              	PUSH	EAX
   682 000006AA 8B 45 F0                        	MOV	EAX,DWORD [-16+EBP]
   683 000006AD 83 C0 08                        	ADD	EAX,8
   684 000006B0 50                              	PUSH	EAX
   685 000006B1 6A 1C                           	PUSH	28
   686 000006B3 6A 08                           	PUSH	8
   687 000006B5 FF 75 E8                        	PUSH	DWORD [-24+EBP]
   688 000006B8 E8 [00000000]                   	CALL	_sheet_refresh
   689 000006BD 83 C4 14                        	ADD	ESP,20
   690 000006C0 E9 FFFFFF19                     	JMP	L92
   691 000006C5                                 	GLOBAL	_cons_putstr
   692 000006C5                                 _cons_putstr:
   693 000006C5 55                              	PUSH	EBP
   694 000006C6 89 E5                           	MOV	EBP,ESP
   695 000006C8 56                              	PUSH	ESI
   696 000006C9 53                              	PUSH	EBX
   697 000006CA 8B 5D 0C                        	MOV	EBX,DWORD [12+EBP]
   698 000006CD 8B 75 08                        	MOV	ESI,DWORD [8+EBP]
   699 000006D0 80 3B 00                        	CMP	BYTE [EBX],0
   700 000006D3 75 07                           	JNE	L129
   701 000006D5                                 L131:
   702 000006D5 8D 65 F8                        	LEA	ESP,DWORD [-8+EBP]
   703 000006D8 5B                              	POP	EBX
   704 000006D9 5E                              	POP	ESI
   705 000006DA 5D                              	POP	EBP
   706 000006DB C3                              	RET
   707 000006DC                                 L129:
   708 000006DC 6A 01                           	PUSH	1
   709 000006DE 0F BE 03                        	MOVSX	EAX,BYTE [EBX]
   710 000006E1 50                              	PUSH	EAX
   711 000006E2 43                              	INC	EBX
   712 000006E3 56                              	PUSH	ESI
   713 000006E4 E8 FFFFFDFC                     	CALL	_cons_putchar
   714 000006E9 83 C4 0C                        	ADD	ESP,12
   715 000006EC 80 3B 00                        	CMP	BYTE [EBX],0
   716 000006EF 75 EB                           	JNE	L129
   717 000006F1 EB E2                           	JMP	L131
   718 000006F3                                 	GLOBAL	_cons_putstr0
   719 000006F3                                 _cons_putstr0:
   720 000006F3 55                              	PUSH	EBP
   721 000006F4 89 E5                           	MOV	EBP,ESP
   722 000006F6 56                              	PUSH	ESI
   723 000006F7 53                              	PUSH	EBX
   724 000006F8 8B 5D 0C                        	MOV	EBX,DWORD [12+EBP]
   725 000006FB 8B 75 08                        	MOV	ESI,DWORD [8+EBP]
   726 000006FE 80 3B 00                        	CMP	BYTE [EBX],0
   727 00000701 75 07                           	JNE	L137
   728 00000703                                 L139:
   729 00000703 8D 65 F8                        	LEA	ESP,DWORD [-8+EBP]
   730 00000706 5B                              	POP	EBX
   731 00000707 5E                              	POP	ESI
   732 00000708 5D                              	POP	EBP
   733 00000709 C3                              	RET
   734 0000070A                                 L137:
   735 0000070A 6A 01                           	PUSH	1
   736 0000070C 0F BE 03                        	MOVSX	EAX,BYTE [EBX]
   737 0000070F 50                              	PUSH	EAX
   738 00000710 43                              	INC	EBX
   739 00000711 56                              	PUSH	ESI
   740 00000712 E8 FFFFFDCE                     	CALL	_cons_putchar
   741 00000717 83 C4 0C                        	ADD	ESP,12
   742 0000071A 80 3B 00                        	CMP	BYTE [EBX],0
   743 0000071D 75 EB                           	JNE	L137
   744 0000071F EB E2                           	JMP	L139
   745 00000721                                 	GLOBAL	_cons_putstr1
   746 00000721                                 _cons_putstr1:
   747 00000721 55                              	PUSH	EBP
   748 00000722 89 E5                           	MOV	EBP,ESP
   749 00000724 57                              	PUSH	EDI
   750 00000725 56                              	PUSH	ESI
   751 00000726 53                              	PUSH	EBX
   752 00000727 8B 75 10                        	MOV	ESI,DWORD [16+EBP]
   753 0000072A 31 DB                           	XOR	EBX,EBX
   754 0000072C 8B 7D 0C                        	MOV	EDI,DWORD [12+EBP]
   755 0000072F 39 F3                           	CMP	EBX,ESI
   756 00000731 7C 08                           	JL	L145
   757 00000733                                 L147:
   758 00000733 8D 65 F4                        	LEA	ESP,DWORD [-12+EBP]
   759 00000736 5B                              	POP	EBX
   760 00000737 5E                              	POP	ESI
   761 00000738 5F                              	POP	EDI
   762 00000739 5D                              	POP	EBP
   763 0000073A C3                              	RET
   764 0000073B                                 L145:
   765 0000073B 6A 01                           	PUSH	1
   766 0000073D 0F BE 04 3B                     	MOVSX	EAX,BYTE [EBX+EDI*1]
   767 00000741 50                              	PUSH	EAX
   768 00000742 43                              	INC	EBX
   769 00000743 FF 75 08                        	PUSH	DWORD [8+EBP]
   770 00000746 E8 FFFFFD9A                     	CALL	_cons_putchar
   771 0000074B 83 C4 0C                        	ADD	ESP,12
   772 0000074E 39 F3                           	CMP	EBX,ESI
   773 00000750 7C E9                           	JL	L145
   774 00000752 EB DF                           	JMP	L147
   775 00000754                                 	GLOBAL	_cons_putdir
   776 00000754                                 _cons_putdir:
   777 00000754 55                              	PUSH	EBP
   778 00000755 89 E5                           	MOV	EBP,ESP
   779 00000757 56                              	PUSH	ESI
   780 00000758 53                              	PUSH	EBX
   781 00000759 31 DB                           	XOR	EBX,EBX
   782 0000075B 83 EC 40                        	SUB	ESP,64
   783 0000075E 8D 45 B8                        	LEA	EAX,DWORD [-72+EBP]
   784 00000761 8B 75 08                        	MOV	ESI,DWORD [8+EBP]
   785 00000764 FF 76 14                        	PUSH	DWORD [20+ESI]
   786 00000767 50                              	PUSH	EAX
   787 00000768 E8 00000026                     	CALL	_get_pathname
   788 0000076D 5A                              	POP	EDX
   789 0000076E 31 C0                           	XOR	EAX,EAX
   790 00000770 59                              	POP	ECX
   791 00000771 80 7D B8 00                     	CMP	BYTE [-72+EBP],0
   792 00000775 74 09                           	JE	L155
   793 00000777                                 L153:
   794 00000777 40                              	INC	EAX
   795 00000778 43                              	INC	EBX
   796 00000779 80 7C 05 B8 00                  	CMP	BYTE [-72+EBP+EAX*1],0
   797 0000077E 75 F7                           	JNE	L153
   798 00000780                                 L155:
   799 00000780 8D 45 B8                        	LEA	EAX,DWORD [-72+EBP]
   800 00000783 50                              	PUSH	EAX
   801 00000784 56                              	PUSH	ESI
   802 00000785 E8 FFFFFF3B                     	CALL	_cons_putstr
   803 0000078A 8D 65 F8                        	LEA	ESP,DWORD [-8+EBP]
   804 0000078D 89 D8                           	MOV	EAX,EBX
   805 0000078F 5B                              	POP	EBX
   806 00000790 5E                              	POP	ESI
   807 00000791 5D                              	POP	EBP
   808 00000792 C3                              	RET
   809                                          [SECTION .data]
   810 0000003B                                 LC7:
   811 0000003B 00                              	DB	0x00
   812 0000003C                                 LC10:
   813 0000003C 2F 25 73 00                     	DB	"/%s",0x00
   814 00000040                                 LC9:
   815 00000040 25 73 00                        	DB	"%s",0x00
   816 00000043                                 LC8:
   817 00000043 25 73 2F 25 73 00               	DB	"%s/%s",0x00
   818                                          [SECTION .text]
   819 00000793                                 	GLOBAL	_get_pathname
   820 00000793                                 _get_pathname:
   821 00000793 55                              	PUSH	EBP
   822 00000794 89 E5                           	MOV	EBP,ESP
   823 00000796 57                              	PUSH	EDI
   824 00000797 56                              	PUSH	ESI
   825 00000798 53                              	PUSH	EBX
   826 00000799 81 EC 000000B8                  	SUB	ESP,184
   827 0000079F 8B 7D 0C                        	MOV	EDI,DWORD [12+EBP]
   828 000007A2 68 [0000003B]                   	PUSH	LC7
   829 000007A7 FF 75 08                        	PUSH	DWORD [8+EBP]
   830 000007AA E8 [00000000]                   	CALL	_sprintf
   831 000007AF 58                              	POP	EAX
   832 000007B0 5A                              	POP	EDX
   833 000007B1 83 BF 000007D8 00               	CMP	DWORD [2008+EDI],0
   834 000007B8 75 27                           	JNE	L160
   835 000007BA                                 L162:
   836 000007BA FF 75 08                        	PUSH	DWORD [8+EBP]
   837 000007BD 68 [0000003C]                   	PUSH	LC10
   838 000007C2 8D 5D 84                        	LEA	EBX,DWORD [-124+EBP]
   839 000007C5 53                              	PUSH	EBX
   840 000007C6 E8 [00000000]                   	CALL	_sprintf
   841 000007CB 53                              	PUSH	EBX
   842 000007CC 68 [00000040]                   	PUSH	LC9
   843 000007D1 FF 75 08                        	PUSH	DWORD [8+EBP]
   844 000007D4 E8 [00000000]                   	CALL	_sprintf
   845 000007D9 8D 65 F4                        	LEA	ESP,DWORD [-12+EBP]
   846 000007DC 5B                              	POP	EBX
   847 000007DD 5E                              	POP	ESI
   848 000007DE 5F                              	POP	EDI
   849 000007DF 5D                              	POP	EBP
   850 000007E0 C3                              	RET
   851 000007E1                                 L160:
   852 000007E1 8D 87 000007D0                  	LEA	EAX,DWORD [2000+EDI]
   853 000007E7 8D B5 FFFFFF3C                  	LEA	ESI,DWORD [-196+EBP]
   854 000007ED 50                              	PUSH	EAX
   855 000007EE 8D 9D FFFFFF44                  	LEA	EBX,DWORD [-188+EBP]
   856 000007F4 56                              	PUSH	ESI
   857 000007F5 E8 [00000000]                   	CALL	_sprintf
   858 000007FA FF 75 08                        	PUSH	DWORD [8+EBP]
   859 000007FD 56                              	PUSH	ESI
   860 000007FE 68 [00000043]                   	PUSH	LC8
   861 00000803 53                              	PUSH	EBX
   862 00000804 E8 [00000000]                   	CALL	_sprintf
   863 00000809 8B BF 000007D8                  	MOV	EDI,DWORD [2008+EDI]
   864 0000080F 53                              	PUSH	EBX
   865 00000810 68 [00000040]                   	PUSH	LC9
   866 00000815 FF 75 08                        	PUSH	DWORD [8+EBP]
   867 00000818 E8 [00000000]                   	CALL	_sprintf
   868 0000081D 83 C4 24                        	ADD	ESP,36
   869 00000820 68 [0000003B]                   	PUSH	LC7
   870 00000825 56                              	PUSH	ESI
   871 00000826 E8 [00000000]                   	CALL	_sprintf
   872 0000082B 5B                              	POP	EBX
   873 0000082C 5E                              	POP	ESI
   874 0000082D 83 BF 000007D8 00               	CMP	DWORD [2008+EDI],0
   875 00000834 75 AB                           	JNE	L160
   876 00000836 E9 FFFFFF7F                     	JMP	L162
   877                                          [SECTION .data]
   878 00000049                                 LC11:
   879 00000049 63 61 74 20 00                  	DB	"cat ",0x00
   880 0000004E                                 LC12:
   881 0000004E 63 64 20 00                     	DB	"cd ",0x00
   882 00000052                                 LC13:
   883 00000052 63 6C 73 00                     	DB	"cls",0x00
   884 00000056                                 LC14:
   885 00000056 64 69 72 00                     	DB	"dir",0x00
   886 0000005A                                 LC15:
   887 0000005A 65 78 69 74 00                  	DB	"exit",0x00
   888 0000005F                                 LC16:
   889 0000005F 65 64 69 74 20 00               	DB	"edit ",0x00
   890 00000065                                 LC17:
   891 00000065 66 64 64 69 72 00               	DB	"fddir",0x00
   892 0000006B                                 LC18:
   893 0000006B 66 76 69 65 77 20 00            	DB	"fview ",0x00
   894 00000072                                 LC19:
   895 00000072 6C 61 6E 67 6D 6F 64 65 20 00   	DB	"langmode ",0x00
   896 0000007C                                 LC20:
   897 0000007C 6C 6F 67 00                     	DB	"log",0x00
   898 00000080                                 LC21:
   899 00000080 6C 6F 67 63 6C 73 00            	DB	"logcls",0x00
   900 00000087                                 LC22:
   901 00000087 6D 65 6D 00                     	DB	"mem",0x00
   902 0000008B                                 LC23:
   903 0000008B 6D 6B 66 73 00                  	DB	"mkfs",0x00
   904 00000090                                 LC24:
   905 00000090 6D 6B 64 69 72 20 00            	DB	"mkdir ",0x00
   906 00000097                                 LC25:
   907 00000097 6D 6B 66 69 6C 65 20 00         	DB	"mkfile ",0x00
   908 0000009F                                 LC26:
   909 0000009F 6D 65 6D 6D 61 70 00            	DB	"memmap",0x00
   910 000000A6                                 LC27:
   911 000000A6 6E 63 73 74 20 00               	DB	"ncst ",0x00
   912 000000AC                                 LC28:
   913 000000AC 73 74 61 72 74 20 00            	DB	"start ",0x00
   914 000000B3                                 LC29:
   915 000000B3 73 65 74 6C 6F 67 00            	DB	"setlog",0x00
   916 000000BA                                 LC30:
   917 000000BA 73 68 6F 77 20 00               	DB	"show ",0x00
   918 000000C0                                 LC31:
   919 000000C0 74 65 73 74 00                  	DB	"test",0x00
   920 000000C5                                 LC32:
   921 000000C5 74 6F 70 00                     	DB	"top",0x00
   922 000000C9                                 LC33:
   923 000000C9 73 74 61 6D 70 00               	DB	"stamp",0x00
   924 000000CF                                 LC34:
   925 000000CF 42 61 64 20 63 6F 6D 6D 61 6E   	DB	"Bad command.",0x0A,0x0A,0x00
       000000D9 64 2E 0A 0A 00 
   926                                          [SECTION .text]
   927 0000083B                                 	GLOBAL	_cons_runcmd
   928 0000083B                                 _cons_runcmd:
   929 0000083B 55                              	PUSH	EBP
   930 0000083C 89 E5                           	MOV	EBP,ESP
   931 0000083E 57                              	PUSH	EDI
   932 0000083F 56                              	PUSH	ESI
   933 00000840 BF [00000049]                   	MOV	EDI,LC11
   934 00000845 53                              	PUSH	EBX
   935 00000846 83 EC 0C                        	SUB	ESP,12
   936 00000849 8B 45 08                        	MOV	EAX,DWORD [8+EBP]
   937 0000084C 8B 4D 10                        	MOV	ECX,DWORD [16+EBP]
   938 0000084F 89 45 E8                        	MOV	DWORD [-24+EBP],EAX
   939 00000852 89 4D F0                        	MOV	DWORD [-16+EBP],ECX
   940 00000855 8B 45 14                        	MOV	EAX,DWORD [20+EBP]
   941 00000858 8B 75 E8                        	MOV	ESI,DWORD [-24+EBP]
   942 0000085B 89 45 EC                        	MOV	DWORD [-20+EBP],EAX
   943 0000085E 8B 5D 0C                        	MOV	EBX,DWORD [12+EBP]
   944 00000861 B8 00000004                     	MOV	EAX,4
   945 00000866 FC                              	CLD
   946 00000867 89 C1                           	MOV	ECX,EAX
   947 00000869 F3                              	REPE
   948 0000086A A6                              	CMPSB
   949 0000086B 75 09                           	JNE	L164
   950 0000086D 83 3B 00                        	CMP	DWORD [EBX],0
   951 00000870 0F 85 0000042B                  	JNE	L212
   952 00000876                                 L164:
   953 00000876 B8 00000003                     	MOV	EAX,3
   954 0000087B 8B 75 E8                        	MOV	ESI,DWORD [-24+EBP]
   955 0000087E FC                              	CLD
   956 0000087F BF [0000004E]                   	MOV	EDI,LC12
   957 00000884 89 C1                           	MOV	ECX,EAX
   958 00000886 F3                              	REPE
   959 00000887 A6                              	CMPSB
   960 00000888 0F 84 00000401                  	JE	L213
   961 0000088E B8 00000004                     	MOV	EAX,4
   962 00000893 8B 75 E8                        	MOV	ESI,DWORD [-24+EBP]
   963 00000896 FC                              	CLD
   964 00000897 BF [00000052]                   	MOV	EDI,LC13
   965 0000089C 89 C1                           	MOV	ECX,EAX
   966 0000089E F3                              	REPE
   967 0000089F A6                              	CMPSB
   968 000008A0 75 09                           	JNE	L168
   969 000008A2 83 3B 00                        	CMP	DWORD [EBX],0
   970 000008A5 0F 85 000003D5                  	JNE	L214
   971 000008AB                                 L168:
   972 000008AB B8 00000004                     	MOV	EAX,4
   973 000008B0 8B 75 E8                        	MOV	ESI,DWORD [-24+EBP]
   974 000008B3 FC                              	CLD
   975 000008B4 BF [00000056]                   	MOV	EDI,LC14
   976 000008B9 89 C1                           	MOV	ECX,EAX
   977 000008BB F3                              	REPE
   978 000008BC A6                              	CMPSB
   979 000008BD 75 09                           	JNE	L170
   980 000008BF 83 3B 00                        	CMP	DWORD [EBX],0
   981 000008C2 0F 85 000003A9                  	JNE	L215
   982 000008C8                                 L170:
   983 000008C8 B8 00000005                     	MOV	EAX,5
   984 000008CD 8B 75 E8                        	MOV	ESI,DWORD [-24+EBP]
   985 000008D0 FC                              	CLD
   986 000008D1 BF [0000005A]                   	MOV	EDI,LC15
   987 000008D6 89 C1                           	MOV	ECX,EAX
   988 000008D8 F3                              	REPE
   989 000008D9 A6                              	CMPSB
   990 000008DA 0F 84 0000037C                  	JE	L216
   991 000008E0 B8 00000005                     	MOV	EAX,5
   992 000008E5 8B 75 E8                        	MOV	ESI,DWORD [-24+EBP]
   993 000008E8 FC                              	CLD
   994 000008E9 BF [0000005F]                   	MOV	EDI,LC16
   995 000008EE 89 C1                           	MOV	ECX,EAX
   996 000008F0 F3                              	REPE
   997 000008F1 A6                              	CMPSB
   998 000008F2 75 09                           	JNE	L174
   999 000008F4 83 3B 00                        	CMP	DWORD [EBX],0
  1000 000008F7 0F 85 0000034A                  	JNE	L217
  1001 000008FD                                 L174:
  1002 000008FD B8 00000006                     	MOV	EAX,6
  1003 00000902 8B 75 E8                        	MOV	ESI,DWORD [-24+EBP]
  1004 00000905 FC                              	CLD
  1005 00000906 BF [00000065]                   	MOV	EDI,LC17
  1006 0000090B 89 C1                           	MOV	ECX,EAX
  1007 0000090D F3                              	REPE
  1008 0000090E A6                              	CMPSB
  1009 0000090F 75 09                           	JNE	L176
  1010 00000911 83 3B 00                        	CMP	DWORD [EBX],0
  1011 00000914 0F 85 0000031E                  	JNE	L218
  1012 0000091A                                 L176:
  1013 0000091A B8 00000006                     	MOV	EAX,6
  1014 0000091F 8B 75 E8                        	MOV	ESI,DWORD [-24+EBP]
  1015 00000922 FC                              	CLD
  1016 00000923 BF [0000006B]                   	MOV	EDI,LC18
  1017 00000928 89 C1                           	MOV	ECX,EAX
  1018 0000092A F3                              	REPE
  1019 0000092B A6                              	CMPSB
  1020 0000092C 75 09                           	JNE	L178
  1021 0000092E 83 3B 00                        	CMP	DWORD [EBX],0
  1022 00000931 0F 85 000002EC                  	JNE	L219
  1023 00000937                                 L178:
  1024 00000937 B8 00000009                     	MOV	EAX,9
  1025 0000093C 8B 75 E8                        	MOV	ESI,DWORD [-24+EBP]
  1026 0000093F FC                              	CLD
  1027 00000940 BF [00000072]                   	MOV	EDI,LC19
  1028 00000945 89 C1                           	MOV	ECX,EAX
  1029 00000947 F3                              	REPE
  1030 00000948 A6                              	CMPSB
  1031 00000949 0F 84 000002BF                  	JE	L220
  1032 0000094F B8 00000004                     	MOV	EAX,4
  1033 00000954 8B 75 E8                        	MOV	ESI,DWORD [-24+EBP]
  1034 00000957 FC                              	CLD
  1035 00000958 BF [0000007C]                   	MOV	EDI,LC20
  1036 0000095D 89 C1                           	MOV	ECX,EAX
  1037 0000095F F3                              	REPE
  1038 00000960 A6                              	CMPSB
  1039 00000961 75 09                           	JNE	L182
  1040 00000963 83 3B 00                        	CMP	DWORD [EBX],0
  1041 00000966 0F 85 00000293                  	JNE	L221
  1042 0000096C                                 L182:
  1043 0000096C B8 00000007                     	MOV	EAX,7
  1044 00000971 8B 75 E8                        	MOV	ESI,DWORD [-24+EBP]
  1045 00000974 FC                              	CLD
  1046 00000975 BF [00000080]                   	MOV	EDI,LC21
  1047 0000097A 89 C1                           	MOV	ECX,EAX
  1048 0000097C F3                              	REPE
  1049 0000097D A6                              	CMPSB
  1050 0000097E 75 09                           	JNE	L184
  1051 00000980 83 3B 00                        	CMP	DWORD [EBX],0
  1052 00000983 0F 85 00000267                  	JNE	L222
  1053 00000989                                 L184:
  1054 00000989 B8 00000004                     	MOV	EAX,4
  1055 0000098E 8B 75 E8                        	MOV	ESI,DWORD [-24+EBP]
  1056 00000991 FC                              	CLD
  1057 00000992 BF [00000087]                   	MOV	EDI,LC22
  1058 00000997 89 C1                           	MOV	ECX,EAX
  1059 00000999 F3                              	REPE
  1060 0000099A A6                              	CMPSB
  1061 0000099B 75 09                           	JNE	L186
  1062 0000099D 83 3B 00                        	CMP	DWORD [EBX],0
  1063 000009A0 0F 85 00000235                  	JNE	L223
  1064 000009A6                                 L186:
  1065 000009A6 B8 00000005                     	MOV	EAX,5
  1066 000009AB 8B 75 E8                        	MOV	ESI,DWORD [-24+EBP]
  1067 000009AE FC                              	CLD
  1068 000009AF BF [0000008B]                   	MOV	EDI,LC23
  1069 000009B4 89 C1                           	MOV	ECX,EAX
  1070 000009B6 F3                              	REPE
  1071 000009B7 A6                              	CMPSB
  1072 000009B8 75 09                           	JNE	L188
  1073 000009BA 83 3B 00                        	CMP	DWORD [EBX],0
  1074 000009BD 0F 85 00000209                  	JNE	L224
  1075 000009C3                                 L188:
  1076 000009C3 B8 00000006                     	MOV	EAX,6
  1077 000009C8 8B 75 E8                        	MOV	ESI,DWORD [-24+EBP]
  1078 000009CB FC                              	CLD
  1079 000009CC BF [00000090]                   	MOV	EDI,LC24
  1080 000009D1 89 C1                           	MOV	ECX,EAX
  1081 000009D3 F3                              	REPE
  1082 000009D4 A6                              	CMPSB
  1083 000009D5 0F 84 000001DC                  	JE	L225
  1084 000009DB B8 00000007                     	MOV	EAX,7
  1085 000009E0 8B 75 E8                        	MOV	ESI,DWORD [-24+EBP]
  1086 000009E3 FC                              	CLD
  1087 000009E4 BF [00000097]                   	MOV	EDI,LC25
  1088 000009E9 89 C1                           	MOV	ECX,EAX
  1089 000009EB F3                              	REPE
  1090 000009EC A6                              	CMPSB
  1091 000009ED 0F 84 000001AF                  	JE	L226
  1092 000009F3 B8 00000007                     	MOV	EAX,7
  1093 000009F8 8B 75 E8                        	MOV	ESI,DWORD [-24+EBP]
  1094 000009FB FC                              	CLD
  1095 000009FC BF [0000009F]                   	MOV	EDI,LC26
  1096 00000A01 89 C1                           	MOV	ECX,EAX
  1097 00000A03 F3                              	REPE
  1098 00000A04 A6                              	CMPSB
  1099 00000A05 75 09                           	JNE	L194
  1100 00000A07 83 3B 00                        	CMP	DWORD [EBX],0
  1101 00000A0A 0F 85 0000017D                  	JNE	L227
  1102 00000A10                                 L194:
  1103 00000A10 B8 00000005                     	MOV	EAX,5
  1104 00000A15 8B 75 E8                        	MOV	ESI,DWORD [-24+EBP]
  1105 00000A18 FC                              	CLD
  1106 00000A19 BF [000000A6]                   	MOV	EDI,LC27
  1107 00000A1E 89 C1                           	MOV	ECX,EAX
  1108 00000A20 F3                              	REPE
  1109 00000A21 A6                              	CMPSB
  1110 00000A22 0F 84 0000014A                  	JE	L228
  1111 00000A28 B8 00000006                     	MOV	EAX,6
  1112 00000A2D 8B 75 E8                        	MOV	ESI,DWORD [-24+EBP]
  1113 00000A30 FC                              	CLD
  1114 00000A31 BF [000000AC]                   	MOV	EDI,LC28
  1115 00000A36 89 C1                           	MOV	ECX,EAX
  1116 00000A38 F3                              	REPE
  1117 00000A39 A6                              	CMPSB
  1118 00000A3A 0F 84 00000117                  	JE	L229
  1119 00000A40 B8 00000007                     	MOV	EAX,7
  1120 00000A45 8B 75 E8                        	MOV	ESI,DWORD [-24+EBP]
  1121 00000A48 FC                              	CLD
  1122 00000A49 BF [000000B3]                   	MOV	EDI,LC29
  1123 00000A4E 89 C1                           	MOV	ECX,EAX
  1124 00000A50 F3                              	REPE
  1125 00000A51 A6                              	CMPSB
  1126 00000A52 75 09                           	JNE	L200
  1127 00000A54 83 3B 00                        	CMP	DWORD [EBX],0
  1128 00000A57 0F 85 000000EB                  	JNE	L230
  1129 00000A5D                                 L200:
  1130 00000A5D B8 00000005                     	MOV	EAX,5
  1131 00000A62 8B 75 E8                        	MOV	ESI,DWORD [-24+EBP]
  1132 00000A65 FC                              	CLD
  1133 00000A66 BF [000000BA]                   	MOV	EDI,LC30
  1134 00000A6B 89 C1                           	MOV	ECX,EAX
  1135 00000A6D F3                              	REPE
  1136 00000A6E A6                              	CMPSB
  1137 00000A6F 75 09                           	JNE	L202
  1138 00000A71 83 3B 00                        	CMP	DWORD [EBX],0
  1139 00000A74 0F 85 000000B9                  	JNE	L231
  1140 00000A7A                                 L202:
  1141 00000A7A B8 00000005                     	MOV	EAX,5
  1142 00000A7F 8B 75 E8                        	MOV	ESI,DWORD [-24+EBP]
  1143 00000A82 FC                              	CLD
  1144 00000A83 BF [000000C0]                   	MOV	EDI,LC31
  1145 00000A88 89 C1                           	MOV	ECX,EAX
  1146 00000A8A F3                              	REPE
  1147 00000A8B A6                              	CMPSB
  1148 00000A8C 75 09                           	JNE	L204
  1149 00000A8E 83 3B 00                        	CMP	DWORD [EBX],0
  1150 00000A91 0F 85 0000008D                  	JNE	L232
  1151 00000A97                                 L204:
  1152 00000A97 B8 00000004                     	MOV	EAX,4
  1153 00000A9C 8B 75 E8                        	MOV	ESI,DWORD [-24+EBP]
  1154 00000A9F FC                              	CLD
  1155 00000AA0 BF [000000C5]                   	MOV	EDI,LC32
  1156 00000AA5 89 C1                           	MOV	ECX,EAX
  1157 00000AA7 F3                              	REPE
  1158 00000AA8 A6                              	CMPSB
  1159 00000AA9 75 05                           	JNE	L206
  1160 00000AAB 83 3B 00                        	CMP	DWORD [EBX],0
  1161 00000AAE 75 65                           	JNE	L233
  1162 00000AB0                                 L206:
  1163 00000AB0 B8 00000006                     	MOV	EAX,6
  1164 00000AB5 8B 75 E8                        	MOV	ESI,DWORD [-24+EBP]
  1165 00000AB8 FC                              	CLD
  1166 00000AB9 BF [000000C9]                   	MOV	EDI,LC33
  1167 00000ABE 89 C1                           	MOV	ECX,EAX
  1168 00000AC0 F3                              	REPE
  1169 00000AC1 A6                              	CMPSB
  1170 00000AC2 75 05                           	JNE	L208
  1171 00000AC4 83 3B 00                        	CMP	DWORD [EBX],0
  1172 00000AC7 75 37                           	JNE	L234
  1173 00000AC9                                 L208:
  1174 00000AC9 8B 4D E8                        	MOV	ECX,DWORD [-24+EBP]
  1175 00000ACC 80 39 00                        	CMP	BYTE [ECX],0
  1176 00000ACF 75 08                           	JNE	L235
  1177 00000AD1                                 L163:
  1178 00000AD1 8D 65 F4                        	LEA	ESP,DWORD [-12+EBP]
  1179 00000AD4 5B                              	POP	EBX
  1180 00000AD5 5E                              	POP	ESI
  1181 00000AD6 5F                              	POP	EDI
  1182 00000AD7 5D                              	POP	EBP
  1183 00000AD8 C3                              	RET
  1184 00000AD9                                 L235:
  1185 00000AD9 51                              	PUSH	ECX
  1186 00000ADA FF 75 F0                        	PUSH	DWORD [-16+EBP]
  1187 00000ADD 53                              	PUSH	EBX
  1188 00000ADE E8 00001BCA                     	CALL	_cmd_app
  1189 00000AE3 83 C4 0C                        	ADD	ESP,12
  1190 00000AE6 85 C0                           	TEST	EAX,EAX
  1191 00000AE8 75 E7                           	JNE	L163
  1192 00000AEA C7 45 0C [000000CF]             	MOV	DWORD [12+EBP],LC34
  1193 00000AF1 89 5D 08                        	MOV	DWORD [8+EBP],EBX
  1194 00000AF4 8D 65 F4                        	LEA	ESP,DWORD [-12+EBP]
  1195 00000AF7 5B                              	POP	EBX
  1196 00000AF8 5E                              	POP	ESI
  1197 00000AF9 5F                              	POP	EDI
  1198 00000AFA 5D                              	POP	EBP
  1199 00000AFB E9 FFFFFBF3                     	JMP	_cons_putstr0
  1200 00000B00                                 L234:
  1201 00000B00 8B 45 E8                        	MOV	EAX,DWORD [-24+EBP]
  1202 00000B03 89 5D 08                        	MOV	DWORD [8+EBP],EBX
  1203 00000B06 89 45 0C                        	MOV	DWORD [12+EBP],EAX
  1204 00000B09 8D 65 F4                        	LEA	ESP,DWORD [-12+EBP]
  1205 00000B0C 5B                              	POP	EBX
  1206 00000B0D 5E                              	POP	ESI
  1207 00000B0E 5F                              	POP	EDI
  1208 00000B0F 5D                              	POP	EBP
  1209 00000B10 E9 0000253F                     	JMP	_cmd_stamp
  1210 00000B15                                 L233:
  1211 00000B15 89 5D 08                        	MOV	DWORD [8+EBP],EBX
  1212 00000B18 8D 65 F4                        	LEA	ESP,DWORD [-12+EBP]
  1213 00000B1B 5B                              	POP	EBX
  1214 00000B1C 5E                              	POP	ESI
  1215 00000B1D 5F                              	POP	EDI
  1216 00000B1E 5D                              	POP	EBP
  1217 00000B1F E9 00001AD2                     	JMP	_cmd_top
  1218 00000B24                                 L232:
  1219 00000B24 89 5D 08                        	MOV	DWORD [8+EBP],EBX
  1220 00000B27 8D 65 F4                        	LEA	ESP,DWORD [-12+EBP]
  1221 00000B2A 5B                              	POP	EBX
  1222 00000B2B 5E                              	POP	ESI
  1223 00000B2C 5F                              	POP	EDI
  1224 00000B2D 5D                              	POP	EBP
  1225 00000B2E E9 000012E0                     	JMP	_cmd_test
  1226 00000B33                                 L231:
  1227 00000B33 8B 45 E8                        	MOV	EAX,DWORD [-24+EBP]
  1228 00000B36 89 5D 08                        	MOV	DWORD [8+EBP],EBX
  1229 00000B39 89 45 0C                        	MOV	DWORD [12+EBP],EAX
  1230 00000B3C 8D 65 F4                        	LEA	ESP,DWORD [-12+EBP]
  1231 00000B3F 5B                              	POP	EBX
  1232 00000B40 5E                              	POP	ESI
  1233 00000B41 5F                              	POP	EDI
  1234 00000B42 5D                              	POP	EBP
  1235 00000B43 E9 00001324                     	JMP	_cmd_show
  1236 00000B48                                 L230:
  1237 00000B48 89 5D 08                        	MOV	DWORD [8+EBP],EBX
  1238 00000B4B 8D 65 F4                        	LEA	ESP,DWORD [-12+EBP]
  1239 00000B4E 5B                              	POP	EBX
  1240 00000B4F 5E                              	POP	ESI
  1241 00000B50 5F                              	POP	EDI
  1242 00000B51 5D                              	POP	EBP
  1243 00000B52 E9 00000FB6                     	JMP	_cmd_setlog
  1244 00000B57                                 L229:
  1245 00000B57 8B 45 EC                        	MOV	EAX,DWORD [-20+EBP]
  1246 00000B5A 8B 4D E8                        	MOV	ECX,DWORD [-24+EBP]
  1247 00000B5D 89 45 10                        	MOV	DWORD [16+EBP],EAX
  1248 00000B60 89 4D 0C                        	MOV	DWORD [12+EBP],ECX
  1249 00000B63 89 5D 08                        	MOV	DWORD [8+EBP],EBX
  1250 00000B66 8D 65 F4                        	LEA	ESP,DWORD [-12+EBP]
  1251 00000B69 5B                              	POP	EBX
  1252 00000B6A 5E                              	POP	ESI
  1253 00000B6B 5F                              	POP	EDI
  1254 00000B6C 5D                              	POP	EBP
  1255 00000B6D E9 00001996                     	JMP	_cmd_start
  1256 00000B72                                 L228:
  1257 00000B72 8B 45 EC                        	MOV	EAX,DWORD [-20+EBP]
  1258 00000B75 8B 4D E8                        	MOV	ECX,DWORD [-24+EBP]
  1259 00000B78 89 45 10                        	MOV	DWORD [16+EBP],EAX
  1260 00000B7B 89 4D 0C                        	MOV	DWORD [12+EBP],ECX
  1261 00000B7E 89 5D 08                        	MOV	DWORD [8+EBP],EBX
  1262 00000B81 8D 65 F4                        	LEA	ESP,DWORD [-12+EBP]
  1263 00000B84 5B                              	POP	EBX
  1264 00000B85 5E                              	POP	ESI
  1265 00000B86 5F                              	POP	EDI
  1266 00000B87 5D                              	POP	EBP
  1267 00000B88 E9 00001A05                     	JMP	_cmd_ncst
  1268 00000B8D                                 L227:
  1269 00000B8D 8B 45 EC                        	MOV	EAX,DWORD [-20+EBP]
  1270 00000B90 89 5D 08                        	MOV	DWORD [8+EBP],EBX
  1271 00000B93 89 45 0C                        	MOV	DWORD [12+EBP],EAX
  1272 00000B96 8D 65 F4                        	LEA	ESP,DWORD [-12+EBP]
  1273 00000B99 5B                              	POP	EBX
  1274 00000B9A 5E                              	POP	ESI
  1275 00000B9B 5F                              	POP	EDI
  1276 00000B9C 5D                              	POP	EBP
  1277 00000B9D E9 00001059                     	JMP	_cmd_memmap
  1278 00000BA2                                 L226:
  1279 00000BA2 8B 45 E8                        	MOV	EAX,DWORD [-24+EBP]
  1280 00000BA5 89 5D 08                        	MOV	DWORD [8+EBP],EBX
  1281 00000BA8 89 45 0C                        	MOV	DWORD [12+EBP],EAX
  1282 00000BAB 8D 65 F4                        	LEA	ESP,DWORD [-12+EBP]
  1283 00000BAE 5B                              	POP	EBX
  1284 00000BAF 5E                              	POP	ESI
  1285 00000BB0 5F                              	POP	EDI
  1286 00000BB1 5D                              	POP	EBP
  1287 00000BB2 E9 00000CA3                     	JMP	_cmd_mkfile
  1288 00000BB7                                 L225:
  1289 00000BB7 8B 45 E8                        	MOV	EAX,DWORD [-24+EBP]
  1290 00000BBA 89 5D 08                        	MOV	DWORD [8+EBP],EBX
  1291 00000BBD 89 45 0C                        	MOV	DWORD [12+EBP],EAX
  1292 00000BC0 8D 65 F4                        	LEA	ESP,DWORD [-12+EBP]
  1293 00000BC3 5B                              	POP	EBX
  1294 00000BC4 5E                              	POP	ESI
  1295 00000BC5 5F                              	POP	EDI
  1296 00000BC6 5D                              	POP	EBP
  1297 00000BC7 E9 00000AA2                     	JMP	_cmd_mkdir
  1298 00000BCC                                 L224:
  1299 00000BCC 89 5D 08                        	MOV	DWORD [8+EBP],EBX
  1300 00000BCF 8D 65 F4                        	LEA	ESP,DWORD [-12+EBP]
  1301 00000BD2 5B                              	POP	EBX
  1302 00000BD3 5E                              	POP	ESI
  1303 00000BD4 5F                              	POP	EDI
  1304 00000BD5 5D                              	POP	EBP
  1305 00000BD6 E9 00001537                     	JMP	_cmd_mkfs
  1306 00000BDB                                 L223:
  1307 00000BDB 8B 45 EC                        	MOV	EAX,DWORD [-20+EBP]
  1308 00000BDE 89 5D 08                        	MOV	DWORD [8+EBP],EBX
  1309 00000BE1 89 45 0C                        	MOV	DWORD [12+EBP],EAX
  1310 00000BE4 8D 65 F4                        	LEA	ESP,DWORD [-12+EBP]
  1311 00000BE7 5B                              	POP	EBX
  1312 00000BE8 5E                              	POP	ESI
  1313 00000BE9 5F                              	POP	EDI
  1314 00000BEA 5D                              	POP	EBP
  1315 00000BEB E9 00000F66                     	JMP	_cmd_mem
  1316 00000BF0                                 L222:
  1317 00000BF0 89 5D 08                        	MOV	DWORD [8+EBP],EBX
  1318 00000BF3 8D 65 F4                        	LEA	ESP,DWORD [-12+EBP]
  1319 00000BF6 5B                              	POP	EBX
  1320 00000BF7 5E                              	POP	ESI
  1321 00000BF8 5F                              	POP	EDI
  1322 00000BF9 5D                              	POP	EBP
  1323 00000BFA E9 0000118D                     	JMP	_cmd_logcls
  1324 00000BFF                                 L221:
  1325 00000BFF 89 5D 08                        	MOV	DWORD [8+EBP],EBX
  1326 00000C02 8D 65 F4                        	LEA	ESP,DWORD [-12+EBP]
  1327 00000C05 5B                              	POP	EBX
  1328 00000C06 5E                              	POP	ESI
  1329 00000C07 5F                              	POP	EDI
  1330 00000C08 5D                              	POP	EBP
  1331 00000C09 E9 0000102E                     	JMP	_cmd_log
  1332 00000C0E                                 L220:
  1333 00000C0E 8B 45 E8                        	MOV	EAX,DWORD [-24+EBP]
  1334 00000C11 89 5D 08                        	MOV	DWORD [8+EBP],EBX
  1335 00000C14 89 45 0C                        	MOV	DWORD [12+EBP],EAX
  1336 00000C17 8D 65 F4                        	LEA	ESP,DWORD [-12+EBP]
  1337 00000C1A 5B                              	POP	EBX
  1338 00000C1B 5E                              	POP	ESI
  1339 00000C1C 5F                              	POP	EDI
  1340 00000C1D 5D                              	POP	EBP
  1341 00000C1E E9 00001A4C                     	JMP	_cmd_langmode
  1342 00000C23                                 L219:
  1343 00000C23 8B 45 E8                        	MOV	EAX,DWORD [-24+EBP]
  1344 00000C26 89 5D 08                        	MOV	DWORD [8+EBP],EBX
  1345 00000C29 89 45 0C                        	MOV	DWORD [12+EBP],EAX
  1346 00000C2C 8D 65 F4                        	LEA	ESP,DWORD [-12+EBP]
  1347 00000C2F 5B                              	POP	EBX
  1348 00000C30 5E                              	POP	ESI
  1349 00000C31 5F                              	POP	EDI
  1350 00000C32 5D                              	POP	EBP
  1351 00000C33 E9 0000137F                     	JMP	_cmd_fview
  1352 00000C38                                 L218:
  1353 00000C38 89 5D 08                        	MOV	DWORD [8+EBP],EBX
  1354 00000C3B 8D 65 F4                        	LEA	ESP,DWORD [-12+EBP]
  1355 00000C3E 5B                              	POP	EBX
  1356 00000C3F 5E                              	POP	ESI
  1357 00000C40 5F                              	POP	EDI
  1358 00000C41 5D                              	POP	EBP
  1359 00000C42 E9 00001775                     	JMP	_cmd_fddir
  1360 00000C47                                 L217:
  1361 00000C47 8B 45 E8                        	MOV	EAX,DWORD [-24+EBP]
  1362 00000C4A 89 5D 08                        	MOV	DWORD [8+EBP],EBX
  1363 00000C4D 89 45 0C                        	MOV	DWORD [12+EBP],EAX
  1364 00000C50 8D 65 F4                        	LEA	ESP,DWORD [-12+EBP]
  1365 00000C53 5B                              	POP	EBX
  1366 00000C54 5E                              	POP	ESI
  1367 00000C55 5F                              	POP	EDI
  1368 00000C56 5D                              	POP	EBP
  1369 00000C57 E9 00000418                     	JMP	_cmd_edit
  1370 00000C5C                                 L216:
  1371 00000C5C 8B 45 F0                        	MOV	EAX,DWORD [-16+EBP]
  1372 00000C5F 89 5D 08                        	MOV	DWORD [8+EBP],EBX
  1373 00000C62 89 45 0C                        	MOV	DWORD [12+EBP],EAX
  1374 00000C65 8D 65 F4                        	LEA	ESP,DWORD [-12+EBP]
  1375 00000C68 5B                              	POP	EBX
  1376 00000C69 5E                              	POP	ESI
  1377 00000C6A 5F                              	POP	EDI
  1378 00000C6B 5D                              	POP	EBP
  1379 00000C6C E9 000017FF                     	JMP	_cmd_exit
  1380 00000C71                                 L215:
  1381 00000C71 89 5D 08                        	MOV	DWORD [8+EBP],EBX
  1382 00000C74 8D 65 F4                        	LEA	ESP,DWORD [-12+EBP]
  1383 00000C77 5B                              	POP	EBX
  1384 00000C78 5E                              	POP	ESI
  1385 00000C79 5F                              	POP	EDI
  1386 00000C7A 5D                              	POP	EBP
  1387 00000C7B E9 00001623                     	JMP	_cmd_dir
  1388 00000C80                                 L214:
  1389 00000C80 89 5D 08                        	MOV	DWORD [8+EBP],EBX
  1390 00000C83 8D 65 F4                        	LEA	ESP,DWORD [-12+EBP]
  1391 00000C86 5B                              	POP	EBX
  1392 00000C87 5E                              	POP	ESI
  1393 00000C88 5F                              	POP	EDI
  1394 00000C89 5D                              	POP	EBP
  1395 00000C8A E9 0000107A                     	JMP	_cmd_cls
  1396 00000C8F                                 L213:
  1397 00000C8F 8B 45 E8                        	MOV	EAX,DWORD [-24+EBP]
  1398 00000C92 89 5D 08                        	MOV	DWORD [8+EBP],EBX
  1399 00000C95 89 45 0C                        	MOV	DWORD [12+EBP],EAX
  1400 00000C98 8D 65 F4                        	LEA	ESP,DWORD [-12+EBP]
  1401 00000C9B 5B                              	POP	EBX
  1402 00000C9C 5E                              	POP	ESI
  1403 00000C9D 5F                              	POP	EDI
  1404 00000C9E 5D                              	POP	EBP
  1405 00000C9F EB 1B                           	JMP	_cmd_cd
  1406 00000CA1                                 L212:
  1407 00000CA1 8B 45 E8                        	MOV	EAX,DWORD [-24+EBP]
  1408 00000CA4 8B 4D F0                        	MOV	ECX,DWORD [-16+EBP]
  1409 00000CA7 89 45 10                        	MOV	DWORD [16+EBP],EAX
  1410 00000CAA 89 4D 0C                        	MOV	DWORD [12+EBP],ECX
  1411 00000CAD 89 5D 08                        	MOV	DWORD [8+EBP],EBX
  1412 00000CB0 8D 65 F4                        	LEA	ESP,DWORD [-12+EBP]
  1413 00000CB3 5B                              	POP	EBX
  1414 00000CB4 5E                              	POP	ESI
  1415 00000CB5 5F                              	POP	EDI
  1416 00000CB6 5D                              	POP	EBP
  1417 00000CB7 E9 00000FB1                     	JMP	_cmd_cat
  1418 00000CBC                                 	GLOBAL	_cmd_cd
  1419 00000CBC                                 _cmd_cd:
  1420 00000CBC 55                              	PUSH	EBP
  1421 00000CBD 89 E5                           	MOV	EBP,ESP
  1422 00000CBF 53                              	PUSH	EBX
  1423 00000CC0 8B 45 0C                        	MOV	EAX,DWORD [12+EBP]
  1424 00000CC3 8B 5D 08                        	MOV	EBX,DWORD [8+EBP]
  1425 00000CC6 83 C0 03                        	ADD	EAX,3
  1426 00000CC9 50                              	PUSH	EAX
  1427 00000CCA 53                              	PUSH	EBX
  1428 00000CCB E8 00000071                     	CALL	_parse_cdline
  1429 00000CD0 59                              	POP	ECX
  1430 00000CD1 5A                              	POP	EDX
  1431 00000CD2 85 C0                           	TEST	EAX,EAX
  1432 00000CD4 74 03                           	JE	L236
  1433 00000CD6 89 43 14                        	MOV	DWORD [20+EBX],EAX
  1434 00000CD9                                 L236:
  1435 00000CD9 8B 5D FC                        	MOV	EBX,DWORD [-4+EBP]
  1436 00000CDC C9                              	LEAVE
  1437 00000CDD C3                              	RET
  1438 00000CDE                                 	GLOBAL	_get_dirname
  1439 00000CDE                                 _get_dirname:
  1440 00000CDE 55                              	PUSH	EBP
  1441 00000CDF A1 [00001B4C]                   	MOV	EAX,DWORD [_cp]
  1442 00000CE4 89 E5                           	MOV	EBP,ESP
  1443 00000CE6 31 C9                           	XOR	ECX,ECX
  1444 00000CE8 56                              	PUSH	ESI
  1445 00000CE9 53                              	PUSH	EBX
  1446 00000CEA 8B 75 08                        	MOV	ESI,DWORD [8+EBP]
  1447 00000CED 8B 5D 0C                        	MOV	EBX,DWORD [12+EBP]
  1448 00000CF0 8A 14 18                        	MOV	DL,BYTE [EAX+EBX*1]
  1449 00000CF3 8D 42 BF                        	LEA	EAX,DWORD [-65+EDX]
  1450 00000CF6 3C 19                           	CMP	AL,25
  1451 00000CF8 77 37                           	JA	L245
  1452 00000CFA                                 L242:
  1453 00000CFA A1 [00001B4C]                   	MOV	EAX,DWORD [_cp]
  1454 00000CFF 8A 04 18                        	MOV	AL,BYTE [EAX+EBX*1]
  1455 00000D02 88 04 31                        	MOV	BYTE [ECX+ESI*1],AL
  1456 00000D05 41                              	INC	ECX
  1457 00000D06 A1 [00001B4C]                   	MOV	EAX,DWORD [_cp]
  1458 00000D0B 40                              	INC	EAX
  1459 00000D0C A3 [00001B4C]                   	MOV	DWORD [_cp],EAX
  1460 00000D11 8A 14 18                        	MOV	DL,BYTE [EAX+EBX*1]
  1461 00000D14 8D 42 BF                        	LEA	EAX,DWORD [-65+EDX]
  1462 00000D17 3C 19                           	CMP	AL,25
  1463 00000D19 76 DF                           	JBE	L242
  1464 00000D1B 8D 42 9F                        	LEA	EAX,DWORD [-97+EDX]
  1465 00000D1E 3C 19                           	CMP	AL,25
  1466 00000D20 76 D8                           	JBE	L242
  1467 00000D22 8D 42 D0                        	LEA	EAX,DWORD [-48+EDX]
  1468 00000D25 3C 09                           	CMP	AL,9
  1469 00000D27 76 D1                           	JBE	L242
  1470 00000D29                                 L244:
  1471 00000D29 C6 04 31 00                     	MOV	BYTE [ECX+ESI*1],0
  1472 00000D2D 5B                              	POP	EBX
  1473 00000D2E 5E                              	POP	ESI
  1474 00000D2F 5D                              	POP	EBP
  1475 00000D30 C3                              	RET
  1476 00000D31                                 L245:
  1477 00000D31 8D 42 9F                        	LEA	EAX,DWORD [-97+EDX]
  1478 00000D34 3C 19                           	CMP	AL,25
  1479 00000D36 76 C2                           	JBE	L242
  1480 00000D38 8D 42 D0                        	LEA	EAX,DWORD [-48+EDX]
  1481 00000D3B 3C 09                           	CMP	AL,9
  1482 00000D3D 76 BB                           	JBE	L242
  1483 00000D3F EB E8                           	JMP	L244
  1484                                          [SECTION .data]
  1485 000000DE                                 LC35:
  1486 000000DE 2A 2A 2A 2A 2A 49 4E 20 46 55   	DB	"*****IN FUNC: parse_cdline()*****",0x0A,0x00
       000000E8 4E 43 3A 20 70 61 72 73 65 5F 
       000000F2 63 64 6C 69 6E 65 28 29 2A 2A 
       000000FC 2A 2A 2A 0A 00 
  1487 00000101                                 LC36:
  1488 00000101 4E 2F 41 00                     	DB	"N/A",0x00
  1489 00000105                                 LC46:
  1490 00000105 5B 25 64 5D 63 68 61 6E 67 65   	DB	"[%d]change directory: %s -> %s",0x0A,0x00
       0000010F 20 64 69 72 65 63 74 6F 72 79 
       00000119 3A 20 25 73 20 2D 3E 20 25 73 
       00000123 0A 00 
  1491 00000125                                 LC47:
  1492 00000125 5B 52 45 53 55 4C 54 5D 64 65   	DB	"[RESULT]destination: %s -> %s",0x0A,0x00
       0000012F 73 74 69 6E 61 74 69 6F 6E 3A 
       00000139 20 25 73 20 2D 3E 20 25 73 0A 
       00000143 00 
  1493 00000144                                 LC43:
  1494 00000144 2A 2A 2A 2A 2A 2A 2A 2A 2A 2A   	DB	"*********************************",0x0A,0x00
       0000014E 2A 2A 2A 2A 2A 2A 2A 2A 2A 2A 
       00000158 2A 2A 2A 2A 2A 2A 2A 2A 2A 2A 
       00000162 2A 2A 2A 0A 00 
  1495 00000167                                 LC45:
  1496 00000167 43 61 6E 27 74 20 66 69 6E 64   	DB	"Can't find this directory.",0x0A,0x00
       00000171 20 74 68 69 73 20 64 69 72 65 
       0000017B 63 74 6F 72 79 2E 0A 00 
  1497 00000183                                 LC37:
  1498 00000183 66 69 6C 65 6E 61 6D 65 20 68   	DB	"filename has found.",0x0A,0x00
       0000018D 61 73 20 66 6F 75 6E 64 2E 0A 
       00000197 00 
  1499 00000198                                 LC38:
  1500 00000198 63 68 61 6E 67 65 20 64 69 72   	DB	"change directory using relative path",0x0A,0x00
       000001A2 65 63 74 6F 72 79 20 75 73 69 
       000001AC 6E 67 20 72 65 6C 61 74 69 76 
       000001B6 65 20 70 61 74 68 0A 00 
  1501 000001BE                                 LC41:
  1502 000001BE 22 2E 2E 22 20 68 61 73 20 66   	DB	0x22,"..",0x22," has found.",0x0A,0x00
       000001C8 6F 75 6E 64 2E 0A 00 
  1503 000001CF                                 LC42:
  1504 000001CF 43 61 6E 27 74 20 6D 6F 76 65   	DB	"Can't move because here is ROOT directory.",0x0A,0x00
       000001D9 20 62 65 63 61 75 73 65 20 68 
       000001E3 65 72 65 20 69 73 20 52 4F 4F 
       000001ED 54 20 64 69 72 65 63 74 6F 72 
       000001F7 79 2E 0A 00 
  1505 000001FB                                 LC44:
  1506 000001FB 49 6E 63 6F 72 72 65 63 74 20   	DB	"Incorrect initial character.",0x0A,0x00
       00000205 69 6E 69 74 69 61 6C 20 63 68 
       0000020F 61 72 61 63 74 65 72 2E 0A 00 
  1507 00000219                                 LC39:
  1508 00000219 27 2F 27 20 68 61 73 20 66 6F   	DB	"'/' has found.",0x0A,0x00
       00000223 75 6E 64 2E 0A 00 
  1509 00000229                                 LC40:
  1510 00000229 63 68 61 6E 67 65 20 64 69 72   	DB	"change directory using absolute path",0x0A,0x00
       00000233 65 63 74 6F 72 79 20 75 73 69 
       0000023D 6E 67 20 61 62 73 6F 6C 75 74 
       00000247 65 20 70 61 74 68 0A 00 
  1511                                          [SECTION .text]
  1512 00000D41                                 	GLOBAL	_parse_cdline
  1513 00000D41                                 _parse_cdline:
  1514 00000D41 55                              	PUSH	EBP
  1515 00000D42 89 E5                           	MOV	EBP,ESP
  1516 00000D44 57                              	PUSH	EDI
  1517 00000D45 56                              	PUSH	ESI
  1518 00000D46 31 FF                           	XOR	EDI,EDI
  1519 00000D48 53                              	PUSH	EBX
  1520 00000D49 81 EC 0000015C                  	SUB	ESP,348
  1521 00000D4F 8B 75 0C                        	MOV	ESI,DWORD [12+EBP]
  1522 00000D52 68 [000000DE]                   	PUSH	LC35
  1523 00000D57 C7 85 FFFFFE98 00000000         	MOV	DWORD [-360+EBP],0
  1524 00000D61 E8 FFFFF29A                     	CALL	_debug_print
  1525 00000D66 8D 85 FFFFFF14                  	LEA	EAX,DWORD [-236+EBP]
  1526 00000D6C 68 [00000101]                   	PUSH	LC36
  1527 00000D71 50                              	PUSH	EAX
  1528 00000D72 C7 05 [00001B4C] 00000000       	MOV	DWORD [_cp],0
  1529 00000D7C E8 [00000000]                   	CALL	_sprintf
  1530 00000D81 A1 [00001B4C]                   	MOV	EAX,DWORD [_cp]
  1531 00000D86 83 C4 0C                        	ADD	ESP,12
  1532 00000D89 80 3C 30 00                     	CMP	BYTE [EAX+ESI*1],0
  1533 00000D8D 0F 84 00000091                  	JE	L271
  1534 00000D93                                 L269:
  1535 00000D93 83 3D [00001B4C] 00             	CMP	DWORD [_cp],0
  1536 00000D9A 0F 85 0000021D                  	JNE	L273
  1537 00000DA0                                 L250:
  1538 00000DA0 8B 0D [00001B4C]                	MOV	ECX,DWORD [_cp]
  1539 00000DA6 8A 14 31                        	MOV	DL,BYTE [ECX+ESI*1]
  1540 00000DA9 8D 42 BF                        	LEA	EAX,DWORD [-65+EDX]
  1541 00000DAC 3C 19                           	CMP	AL,25
  1542 00000DAE 76 12                           	JBE	L252
  1543 00000DB0 8D 42 9F                        	LEA	EAX,DWORD [-97+EDX]
  1544 00000DB3 3C 19                           	CMP	AL,25
  1545 00000DB5 76 0B                           	JBE	L252
  1546 00000DB7 8D 42 D0                        	LEA	EAX,DWORD [-48+EDX]
  1547 00000DBA 3C 09                           	CMP	AL,9
  1548 00000DBC 0F 87 0000013F                  	JA	L251
  1549 00000DC2                                 L252:
  1550 00000DC2 85 C9                           	TEST	ECX,ECX
  1551 00000DC4 0F 84 000000FE                  	JE	L274
  1552 00000DCA                                 L254:
  1553 00000DCA A1 [00001B4C]                   	MOV	EAX,DWORD [_cp]
  1554 00000DCF 8A 14 30                        	MOV	DL,BYTE [EAX+ESI*1]
  1555 00000DD2 80 FA 2E                        	CMP	DL,46
  1556 00000DD5 0F 84 000000DD                  	JE	L275
  1557 00000DDB                                 L265:
  1558 00000DDB 84 D2                           	TEST	DL,DL
  1559 00000DDD 0F 85 00000095                  	JNE	L276
  1560 00000DE3                                 L261:
  1561 00000DE3 57                              	PUSH	EDI
  1562 00000DE4 8D 9D FFFFFEA4                  	LEA	EBX,DWORD [-348+EBP]
  1563 00000DEA 53                              	PUSH	EBX
  1564 00000DEB E8 FFFFF9A3                     	CALL	_get_pathname
  1565 00000DF0 8D 85 FFFFFF14                  	LEA	EAX,DWORD [-236+EBP]
  1566 00000DF6 53                              	PUSH	EBX
  1567 00000DF7 8D 5D 84                        	LEA	EBX,DWORD [-124+EBP]
  1568 00000DFA 50                              	PUSH	EAX
  1569 00000DFB FF B5 FFFFFE98                  	PUSH	DWORD [-360+EBP]
  1570 00000E01 68 [00000105]                   	PUSH	LC46
  1571 00000E06 53                              	PUSH	EBX
  1572 00000E07 E8 [00000000]                   	CALL	_sprintf
  1573 00000E0C 53                              	PUSH	EBX
  1574 00000E0D E8 FFFFF1EE                     	CALL	_debug_print
  1575 00000E12 A1 [00001B4C]                   	MOV	EAX,DWORD [_cp]
  1576 00000E17 83 C4 20                        	ADD	ESP,32
  1577 00000E1A 80 3C 30 00                     	CMP	BYTE [EAX+ESI*1],0
  1578 00000E1E 0F 85 FFFFFF6F                  	JNE	L269
  1579 00000E24                                 L271:
  1580 00000E24 8B 45 08                        	MOV	EAX,DWORD [8+EBP]
  1581 00000E27 8D 9D FFFFFF14                  	LEA	EBX,DWORD [-236+EBP]
  1582 00000E2D 8D B5 FFFFFEA4                  	LEA	ESI,DWORD [-348+EBP]
  1583 00000E33 FF 70 14                        	PUSH	DWORD [20+EAX]
  1584 00000E36 53                              	PUSH	EBX
  1585 00000E37 E8 FFFFF957                     	CALL	_get_pathname
  1586 00000E3C 57                              	PUSH	EDI
  1587 00000E3D 56                              	PUSH	ESI
  1588 00000E3E E8 FFFFF950                     	CALL	_get_pathname
  1589 00000E43 56                              	PUSH	ESI
  1590 00000E44 53                              	PUSH	EBX
  1591 00000E45 8D 5D 84                        	LEA	EBX,DWORD [-124+EBP]
  1592 00000E48 68 [00000125]                   	PUSH	LC47
  1593 00000E4D 53                              	PUSH	EBX
  1594 00000E4E E8 [00000000]                   	CALL	_sprintf
  1595 00000E53 83 C4 20                        	ADD	ESP,32
  1596 00000E56 53                              	PUSH	EBX
  1597 00000E57 E8 FFFFF1A4                     	CALL	_debug_print
  1598 00000E5C 68 [00000144]                   	PUSH	LC43
  1599 00000E61 E8 FFFFF19A                     	CALL	_debug_print
  1600 00000E66 FF 75 08                        	PUSH	DWORD [8+EBP]
  1601 00000E69 E8 FFFFF732                     	CALL	_cons_newline
  1602 00000E6E 89 F8                           	MOV	EAX,EDI
  1603 00000E70                                 L246:
  1604 00000E70 8D 65 F4                        	LEA	ESP,DWORD [-12+EBP]
  1605 00000E73 5B                              	POP	EBX
  1606 00000E74 5E                              	POP	ESI
  1607 00000E75 5F                              	POP	EDI
  1608 00000E76 5D                              	POP	EBP
  1609 00000E77 C3                              	RET
  1610 00000E78                                 L276:
  1611 00000E78 56                              	PUSH	ESI
  1612 00000E79 8D 9D FFFFFE9C                  	LEA	EBX,DWORD [-356+EBP]
  1613 00000E7F 53                              	PUSH	EBX
  1614 00000E80 E8 FFFFFE59                     	CALL	_get_dirname
  1615 00000E85 6A 32                           	PUSH	50
  1616 00000E87 57                              	PUSH	EDI
  1617 00000E88 53                              	PUSH	EBX
  1618 00000E89 E8 [00000000]                   	CALL	_myfinfo_search
  1619 00000E8E 83 C4 14                        	ADD	ESP,20
  1620 00000E91 85 C0                           	TEST	EAX,EAX
  1621 00000E93 74 08                           	JE	L277
  1622 00000E95 8B 78 20                        	MOV	EDI,DWORD [32+EAX]
  1623 00000E98 E9 FFFFFF46                     	JMP	L261
  1624 00000E9D                                 L277:
  1625 00000E9D 68 [00000167]                   	PUSH	LC45
  1626 00000EA2                                 L272:
  1627 00000EA2 FF 75 08                        	PUSH	DWORD [8+EBP]
  1628 00000EA5 E8 0000012D                     	CALL	_cd_error
  1629 00000EAA 68 [00000144]                   	PUSH	LC43
  1630 00000EAF E8 FFFFF14C                     	CALL	_debug_print
  1631 00000EB4 31 C0                           	XOR	EAX,EAX
  1632 00000EB6 EB B8                           	JMP	L246
  1633 00000EB8                                 L275:
  1634 00000EB8 80 7C 30 01 2E                  	CMP	BYTE [1+EAX+ESI*1],46
  1635 00000EBD 0F 85 FFFFFF18                  	JNE	L265
  1636 00000EC3 E9 FFFFFF1B                     	JMP	L261
  1637 00000EC8                                 L274:
  1638 00000EC8 68 [00000183]                   	PUSH	LC37
  1639 00000ECD 8D 5D 84                        	LEA	EBX,DWORD [-124+EBP]
  1640 00000ED0 E8 FFFFF12B                     	CALL	_debug_print
  1641 00000ED5 68 [00000198]                   	PUSH	LC38
  1642 00000EDA 53                              	PUSH	EBX
  1643 00000EDB E8 [00000000]                   	CALL	_sprintf
  1644 00000EE0 53                              	PUSH	EBX
  1645 00000EE1 E8 FFFFF11A                     	CALL	_debug_print
  1646 00000EE6 8B 45 08                        	MOV	EAX,DWORD [8+EBP]
  1647 00000EE9 8B 78 14                        	MOV	EDI,DWORD [20+EAX]
  1648 00000EEC 8D 85 FFFFFF14                  	LEA	EAX,DWORD [-236+EBP]
  1649 00000EF2 57                              	PUSH	EDI
  1650 00000EF3 50                              	PUSH	EAX
  1651 00000EF4 E8 FFFFF89A                     	CALL	_get_pathname
  1652 00000EF9 83 C4 18                        	ADD	ESP,24
  1653 00000EFC E9 FFFFFEC9                     	JMP	L254
  1654 00000F01                                 L251:
  1655 00000F01 80 FA 2F                        	CMP	DL,47
  1656 00000F04 74 79                           	JE	L278
  1657 00000F06 80 FA 2E                        	CMP	DL,46
  1658 00000F09 75 6A                           	JNE	L258
  1659 00000F0B 80 7C 31 01 2E                  	CMP	BYTE [1+ECX+ESI*1],46
  1660 00000F10 75 63                           	JNE	L258
  1661 00000F12 68 [000001BE]                   	PUSH	LC41
  1662 00000F17 E8 FFFFF0E4                     	CALL	_debug_print
  1663 00000F1C 59                              	POP	ECX
  1664 00000F1D A1 [00001B4C]                   	MOV	EAX,DWORD [_cp]
  1665 00000F22 83 C0 02                        	ADD	EAX,2
  1666 00000F25 A3 [00001B4C]                   	MOV	DWORD [_cp],EAX
  1667 00000F2A 83 F8 02                        	CMP	EAX,2
  1668 00000F2D 74 1A                           	JE	L279
  1669 00000F2F                                 L259:
  1670 00000F2F 8B 87 000007D8                  	MOV	EAX,DWORD [2008+EDI]
  1671 00000F35 89 C7                           	MOV	EDI,EAX
  1672 00000F37 85 C0                           	TEST	EAX,EAX
  1673 00000F39 0F 85 FFFFFEA4                  	JNE	L261
  1674 00000F3F 68 [000001CF]                   	PUSH	LC42
  1675 00000F44 E9 FFFFFF59                     	JMP	L272
  1676 00000F49                                 L279:
  1677 00000F49 68 [00000198]                   	PUSH	LC38
  1678 00000F4E 8D 5D 84                        	LEA	EBX,DWORD [-124+EBP]
  1679 00000F51 53                              	PUSH	EBX
  1680 00000F52 E8 [00000000]                   	CALL	_sprintf
  1681 00000F57 53                              	PUSH	EBX
  1682 00000F58 E8 FFFFF0A3                     	CALL	_debug_print
  1683 00000F5D 8B 45 08                        	MOV	EAX,DWORD [8+EBP]
  1684 00000F60 8B 78 14                        	MOV	EDI,DWORD [20+EAX]
  1685 00000F63 8D 85 FFFFFF14                  	LEA	EAX,DWORD [-236+EBP]
  1686 00000F69 57                              	PUSH	EDI
  1687 00000F6A 50                              	PUSH	EAX
  1688 00000F6B E8 FFFFF823                     	CALL	_get_pathname
  1689 00000F70 83 C4 14                        	ADD	ESP,20
  1690 00000F73 EB BA                           	JMP	L259
  1691 00000F75                                 L258:
  1692 00000F75 68 [000001FB]                   	PUSH	LC44
  1693 00000F7A E9 FFFFFF23                     	JMP	L272
  1694 00000F7F                                 L278:
  1695 00000F7F 68 [00000219]                   	PUSH	LC39
  1696 00000F84 E8 FFFFF077                     	CALL	_debug_print
  1697 00000F89 5B                              	POP	EBX
  1698 00000F8A A1 [00001B4C]                   	MOV	EAX,DWORD [_cp]
  1699 00000F8F 40                              	INC	EAX
  1700 00000F90 A3 [00001B4C]                   	MOV	DWORD [_cp],EAX
  1701 00000F95 48                              	DEC	EAX
  1702 00000F96 0F 85 FFFFFE2E                  	JNE	L254
  1703 00000F9C 68 [00000229]                   	PUSH	LC40
  1704 00000FA1 8D 5D 84                        	LEA	EBX,DWORD [-124+EBP]
  1705 00000FA4 53                              	PUSH	EBX
  1706 00000FA5 BF 00400000                     	MOV	EDI,4194304
  1707 00000FAA E8 [00000000]                   	CALL	_sprintf
  1708 00000FAF 53                              	PUSH	EBX
  1709 00000FB0 E8 FFFFF04B                     	CALL	_debug_print
  1710 00000FB5 83 C4 0C                        	ADD	ESP,12
  1711 00000FB8 E9 FFFFFE0D                     	JMP	L254
  1712 00000FBD                                 L273:
  1713 00000FBD 57                              	PUSH	EDI
  1714 00000FBE 8D 85 FFFFFF14                  	LEA	EAX,DWORD [-236+EBP]
  1715 00000FC4 50                              	PUSH	EAX
  1716 00000FC5 E8 FFFFF7C9                     	CALL	_get_pathname
  1717 00000FCA 58                              	POP	EAX
  1718 00000FCB 5A                              	POP	EDX
  1719 00000FCC FF 85 FFFFFE98                  	INC	DWORD [-360+EBP]
  1720 00000FD2 E9 FFFFFDC9                     	JMP	L250
  1721 00000FD7                                 	GLOBAL	_cd_error
  1722 00000FD7                                 _cd_error:
  1723 00000FD7 55                              	PUSH	EBP
  1724 00000FD8 89 E5                           	MOV	EBP,ESP
  1725 00000FDA 57                              	PUSH	EDI
  1726 00000FDB 56                              	PUSH	ESI
  1727 00000FDC 53                              	PUSH	EBX
  1728 00000FDD 8D 45 B4                        	LEA	EAX,DWORD [-76+EBP]
  1729 00000FE0 83 EC 40                        	SUB	ESP,64
  1730 00000FE3 31 DB                           	XOR	EBX,EBX
  1731 00000FE5 8B 7D 08                        	MOV	EDI,DWORD [8+EBP]
  1732 00000FE8 FF 77 14                        	PUSH	DWORD [20+EDI]
  1733 00000FEB 50                              	PUSH	EAX
  1734 00000FEC E8 FFFFF7A2                     	CALL	_get_pathname
  1735 00000FF1 59                              	POP	ECX
  1736 00000FF2 5E                              	POP	ESI
  1737 00000FF3 80 7D B4 00                     	CMP	BYTE [-76+EBP],0
  1738 00000FF7 74 0D                           	JE	L300
  1739 00000FF9                                 L285:
  1740 00000FF9 C6 44 1D B4 20                  	MOV	BYTE [-76+EBP+EBX*1],32
  1741 00000FFE 43                              	INC	EBX
  1742 00000FFF 80 7C 1D B4 00                  	CMP	BYTE [-76+EBP+EBX*1],0
  1743 00001004 75 F3                           	JNE	L285
  1744 00001006                                 L300:
  1745 00001006 31 D2                           	XOR	EDX,EDX
  1746 00001008                                 L290:
  1747 00001008 8D 4D F4                        	LEA	ECX,DWORD [-12+EBP]
  1748 0000100B 8D 04 19                        	LEA	EAX,DWORD [ECX+EBX*1]
  1749 0000100E C6 44 02 C0 20                  	MOV	BYTE [-64+EDX+EAX*1],32
  1750 00001013 42                              	INC	EDX
  1751 00001014 83 FA 02                        	CMP	EDX,2
  1752 00001017 7E EF                           	JLE	L290
  1753 00001019 BA 00000003                     	MOV	EDX,3
  1754 0000101E 31 C9                           	XOR	ECX,ECX
  1755 00001020 8B 35 [00001B4C]                	MOV	ESI,DWORD [_cp]
  1756 00001026                                 L297:
  1757 00001026 39 F1                           	CMP	ECX,ESI
  1758 00001028 7D 33                           	JGE	L304
  1759 0000102A 8D 45 F4                        	LEA	EAX,DWORD [-12+EBP]
  1760 0000102D 01 D0                           	ADD	EAX,EDX
  1761 0000102F 01 C8                           	ADD	EAX,ECX
  1762 00001031 41                              	INC	ECX
  1763 00001032 83 F9 31                        	CMP	ECX,49
  1764 00001035 C6 44 03 C0 20                  	MOV	BYTE [-64+EBX+EAX*1],32
  1765 0000103A 7E EA                           	JLE	L297
  1766 0000103C                                 L292:
  1767 0000103C 8D 45 B4                        	LEA	EAX,DWORD [-76+EBP]
  1768 0000103F 50                              	PUSH	EAX
  1769 00001040 57                              	PUSH	EDI
  1770 00001041 E8 FFFFF67F                     	CALL	_cons_putstr
  1771 00001046 FF 75 0C                        	PUSH	DWORD [12+EBP]
  1772 00001049 57                              	PUSH	EDI
  1773 0000104A E8 FFFFF676                     	CALL	_cons_putstr
  1774 0000104F 57                              	PUSH	EDI
  1775 00001050 E8 FFFFF54B                     	CALL	_cons_newline
  1776 00001055 8D 65 F4                        	LEA	ESP,DWORD [-12+EBP]
  1777 00001058 5B                              	POP	EBX
  1778 00001059 5E                              	POP	ESI
  1779 0000105A 5F                              	POP	EDI
  1780 0000105B 5D                              	POP	EBP
  1781 0000105C C3                              	RET
  1782 0000105D                                 L304:
  1783 0000105D 8D 45 F4                        	LEA	EAX,DWORD [-12+EBP]
  1784 00001060 01 D0                           	ADD	EAX,EDX
  1785 00001062 01 C8                           	ADD	EAX,ECX
  1786 00001064 01 D8                           	ADD	EAX,EBX
  1787 00001066 C6 40 C0 5E                     	MOV	BYTE [-64+EAX],94
  1788 0000106A C6 40 C1 0A                     	MOV	BYTE [-63+EAX],10
  1789 0000106E C6 40 C2 00                     	MOV	BYTE [-62+EAX],0
  1790 00001072 EB C8                           	JMP	L292
  1791                                          [SECTION .data]
  1792 0000024F                                 LC69:
  1793 0000024F 43 61 6E 27 74 20 65 64 69 74   	DB	"Can't edit: There is no file being opened.",0x0A,0x00
       00000259 3A 20 54 68 65 72 65 20 69 73 
       00000263 20 6E 6F 20 66 69 6C 65 20 62 
       0000026D 65 69 6E 67 20 6F 70 65 6E 65 
       00000277 64 2E 0A 00 
  1794 0000027B                                 LC77:
  1795 0000027B 75 6E 65 78 70 65 63 74 65 64   	DB	"unexpected error at edit mode.",0x0A,0x00
       00000285 20 65 72 72 6F 72 20 61 74 20 
       0000028F 65 64 69 74 20 6D 6F 64 65 2E 
       00000299 0A 00 
  1796 0000029B                                 LC78:
  1797 0000029B 65 64 69 74 20 72 65 73 75 6C   	DB	"edit result:",0x0A,"%s[EOF]",0x0A,0x00
       000002A5 74 3A 0A 25 73 5B 45 4F 46 5D 
       000002AF 0A 00 
  1798 000002B1                                 LC61:
  1799 000002B1 73 69 7A 65 3A 20 25 64 5B 62   	DB	"size: %d[byte]",0x0A,0x00
       000002BB 79 74 65 5D 0A 00 
  1800 000002C1                                 LC74:
  1801 000002C1 63 61 6E 27 74 20 6F 70 65 6E   	DB	"can't open: There is a file being opened.",0x0A,0x00
       000002CB 3A 20 54 68 65 72 65 20 69 73 
       000002D5 20 61 20 66 69 6C 65 20 62 65 
       000002DF 69 6E 67 20 6F 70 65 6E 65 64 
       000002E9 2E 0A 00 
  1802 000002EC                                 LC76:
  1803 000002EC 6F 70 65 6E 65 64 20 22 25 73   	DB	"opened ",0x22,"%s",0x22," file.",0x0A,0x00
       000002F6 22 20 66 69 6C 65 2E 0A 00 
  1804 000002FF                                 LC75:
  1805 000002FF 63 61 6E 27 74 20 6F 70 65 6E   	DB	"can't open ",0x22,"%s",0x22,".",0x0A,0x00
       00000309 20 22 25 73 22 2E 0A 00 
  1806 00000311                                 LC73:
  1807 00000311 49 4E 53 20 4D 4F 44 45 20 52   	DB	"INS MODE RESULT: %s",0x0A,0x00
       0000031B 45 53 55 4C 54 3A 20 25 73 0A 
       00000325 00 
  1808 00000326                                 LC71:
  1809 00000326 63 68 61 72 20 2A 73 20 6F 75   	DB	"char *s out of myfwrite() is shown below.",0x0A,0x00
       00000330 74 20 6F 66 20 6D 79 66 77 72 
       0000033A 69 74 65 28 29 20 69 73 20 73 
       00000344 68 6F 77 6E 20 62 65 6C 6F 77 
       0000034E 2E 0A 00 
  1810 00000351                                 LC72:
  1811 00000351 0A 00                           	DB	0x0A,0x00
  1812 00000353                                 LC70:
  1813 00000353 65 64 69 74 20 6C 69 6E 65 20   	DB	"edit line is too long.",0x00
       0000035D 69 73 20 74 6F 6F 20 6C 6F 6E 
       00000367 67 2E 00 
  1814 0000036A                                 LC49:
  1815 0000036A 6F 70 65 6E 00                  	DB	"open",0x00
  1816 0000036F                                 LC51:
  1817 0000036F 63 61 6E 27 74 20 65 64 69 74   	DB	"can't edit: There is no file being opened.",0x0A,0x00
       00000379 3A 20 54 68 65 72 65 20 69 73 
       00000383 20 6E 6F 20 66 69 6C 65 20 62 
       0000038D 65 69 6E 67 20 6F 70 65 6E 65 
       00000397 64 2E 0A 00 
  1818 0000039B                                 LC53:
  1819 0000039B 69 6E 73 00                     	DB	"ins",0x00
  1820 0000039F                                 LC55:
  1821 0000039F 61 64 64 00                     	DB	"add",0x00
  1822 000003A3                                 LC57:
  1823 000003A3 73 68 6F 77 00                  	DB	"show",0x00
  1824 000003A8                                 LC62:
  1825 000003A8 63 6C 6F 73 65 00               	DB	"close",0x00
  1826 000003AE                                 LC65:
  1827 000003AE 73 61 76 65 00                  	DB	"save",0x00
  1828 000003B3                                 LC68:
  1829 000003B3 69 6E 76 61 6C 69 64 20 6F 70   	DB	"invalid option.",0x0A,0x00
       000003BD 74 69 6F 6E 2E 0A 00 
  1830 000003C4                                 LC67:
  1831 000003C4 66 69 6E 69 73 68 65 64 20 73   	DB	"finished saving opened file.",0x0A,0x00
       000003CE 61 76 69 6E 67 20 6F 70 65 6E 
       000003D8 65 64 20 66 69 6C 65 2E 0A 00 
  1832 000003E2                                 LC66:
  1833 000003E2 43 61 6E 27 74 20 73 61 76 65   	DB	"Can't save because of error in myfinfo_search() in myfsave()",0x0A,0x00
       000003EC 20 62 65 63 61 75 73 65 20 6F 
       000003F6 66 20 65 72 72 6F 72 20 69 6E 
       00000400 20 6D 79 66 69 6E 66 6F 5F 73 
       0000040A 65 61 72 63 68 28 29 20 69 6E 
       00000414 20 6D 79 66 73 61 76 65 28 29 
       0000041E 0A 00 
  1834 00000420                                 LC63:
  1835 00000420 45 44 49 54 3A 63 6C 6F 73 65   	DB	"EDIT:close mode",0x0A,0x00
       0000042A 20 6D 6F 64 65 0A 00 
  1836 00000431                                 LC64:
  1837 00000431 6F 70 65 6E 65 64 20 66 69 6C   	DB	"opened file was closed.",0x0A,0x00
       0000043B 65 20 77 61 73 20 63 6C 6F 73 
       00000445 65 64 2E 0A 00 
  1838 0000044A                                 LC58:
  1839 0000044A 45 44 49 54 3A 73 68 6F 77 20   	DB	"EDIT:show mode",0x0A,0x00
       00000454 6D 6F 64 65 0A 00 
  1840 0000045A                                 LC59:
  1841 0000045A 73 65 74 66 64 61 74 61 2D 3E   	DB	"setfdata->head.stat=0x%02x",0x0A,0x00
       00000464 68 65 61 64 2E 73 74 61 74 3D 
       0000046E 30 78 25 30 32 78 0A 00 
  1842 00000476                                 LC60:
  1843 00000476 25 73 5B 45 4F 46 5D 0A 00      	DB	"%s[EOF]",0x0A,0x00
  1844 0000047F                                 LC56:
  1845 0000047F 45 44 49 54 3A 61 64 64 20 6D   	DB	"EDIT:add mode",0x0A,0x00
       00000489 6F 64 65 0A 00 
  1846 0000048E                                 LC54:
  1847 0000048E 45 44 49 54 3A 69 6E 73 65 72   	DB	"EDIT:insert mode",0x0A,0x00
       00000498 74 20 6D 6F 64 65 0A 00 
  1848 000004A0                                 LC52:
  1849 000004A0 45 44 49 54 3A 63 6C 65 61 72   	DB	"EDIT:clear mode",0x0A,0x00
       000004AA 20 6D 6F 64 65 0A 00 
  1850 000004B1                                 LC50:
  1851 000004B1 45 44 49 54 3A 6F 70 65 6E 20   	DB	"EDIT:open mode",0x0A,0x00
       000004BB 6D 6F 64 65 0A 00 
  1852 000004C1                                 LC48:
  1853 000004C1 6F 70 74 69 6F 6E 20 69 73 20   	DB	"option is too long.",0x0A,0x00
       000004CB 74 6F 6F 20 6C 6F 6E 67 2E 0A 
       000004D5 00 
  1854                                          [SECTION .text]
  1855 00001074                                 	GLOBAL	_cmd_edit
  1856 00001074                                 _cmd_edit:
  1857 00001074 55                              	PUSH	EBP
  1858 00001075 89 E5                           	MOV	EBP,ESP
  1859 00001077 57                              	PUSH	EDI
  1860 00001078 56                              	PUSH	ESI
  1861 00001079 53                              	PUSH	EBX
  1862 0000107A 81 EC 00000ACC                  	SUB	ESP,2764
  1863 00001080 8B 45 08                        	MOV	EAX,DWORD [8+EBP]
  1864 00001083 C6 85 FFFFF52B 00               	MOV	BYTE [-2773+EBP],0
  1865 0000108A 8B 40 14                        	MOV	EAX,DWORD [20+EAX]
  1866 0000108D 68 [0000003B]                   	PUSH	LC7
  1867 00001092 89 85 FFFFF530                  	MOV	DWORD [-2768+EBP],EAX
  1868 00001098 8D 85 FFFFFB74                  	LEA	EAX,DWORD [-1164+EBP]
  1869 0000109E 50                              	PUSH	EAX
  1870 0000109F E8 [00000000]                   	CALL	_sprintf
  1871 000010A4 8D 85 FFFFFB34                  	LEA	EAX,DWORD [-1228+EBP]
  1872 000010AA 68 [0000003B]                   	PUSH	LC7
  1873 000010AF 50                              	PUSH	EAX
  1874 000010B0 E8 [00000000]                   	CALL	_sprintf
  1875 000010B5 8B 55 0C                        	MOV	EDX,DWORD [12+EBP]
  1876 000010B8 C7 85 FFFFF52C 00000005         	MOV	DWORD [-2772+EBP],5
  1877 000010C2 83 C4 10                        	ADD	ESP,16
  1878 000010C5 80 7A 05 20                     	CMP	BYTE [5+EDX],32
  1879 000010C9 0F 84 00000585                  	JE	L309
  1880 000010CF                                 L365:
  1881 000010CF 8B 55 0C                        	MOV	EDX,DWORD [12+EBP]
  1882 000010D2 8B 8D FFFFF52C                  	MOV	ECX,DWORD [-2772+EBP]
  1883 000010D8 80 3C 11 2D                     	CMP	BYTE [ECX+EDX*1],45
  1884 000010DC 0F 84 000002B7                  	JE	L384
  1885 000010E2 83 3D [00000004] 00             	CMP	DWORD [_setfdata],0
  1886 000010E9 75 33                           	JNE	L336
  1887 000010EB 80 BD FFFFF52B 08               	CMP	BYTE [-2773+EBP],8
  1888 000010F2 74 2A                           	JE	L336
  1889 000010F4 68 [0000024F]                   	PUSH	LC69
  1890 000010F9                                 L383:
  1891 000010F9 8D 9D FFFFFB84                  	LEA	EBX,DWORD [-1148+EBP]
  1892 000010FF 53                              	PUSH	EBX
  1893 00001100 E8 [00000000]                   	CALL	_sprintf
  1894 00001105                                 L374:
  1895 00001105 53                              	PUSH	EBX
  1896 00001106 FF 75 08                        	PUSH	DWORD [8+EBP]
  1897 00001109 E8 FFFFF5B7                     	CALL	_cons_putstr
  1898 0000110E FF 75 08                        	PUSH	DWORD [8+EBP]
  1899 00001111 E8 FFFFF48A                     	CALL	_cons_newline
  1900 00001116                                 L305:
  1901 00001116 8D 65 F4                        	LEA	ESP,DWORD [-12+EBP]
  1902 00001119 5B                              	POP	EBX
  1903 0000111A 5E                              	POP	ESI
  1904 0000111B 5F                              	POP	EDI
  1905 0000111C 5D                              	POP	EBP
  1906 0000111D C3                              	RET
  1907 0000111E                                 L336:
  1908 0000111E 8B 4D 0C                        	MOV	ECX,DWORD [12+EBP]
  1909 00001121 8B 85 FFFFF52C                  	MOV	EAX,DWORD [-2772+EBP]
  1910 00001127 31 DB                           	XOR	EBX,EBX
  1911 00001129 80 3C 08 00                     	CMP	BYTE [EAX+ECX*1],0
  1912 0000112D 74 2A                           	JE	L368
  1913 0000112F                                 L342:
  1914 0000112F 83 FB 2F                        	CMP	EBX,47
  1915 00001132 0F 8F 00000257                  	JG	L372
  1916 00001138 8B 8D FFFFF52C                  	MOV	ECX,DWORD [-2772+EBP]
  1917 0000113E 8B 55 0C                        	MOV	EDX,DWORD [12+EBP]
  1918 00001141 8A 04 11                        	MOV	AL,BYTE [ECX+EDX*1]
  1919 00001144 41                              	INC	ECX
  1920 00001145 88 84 1D FFFFFB34               	MOV	BYTE [-1228+EBP+EBX*1],AL
  1921 0000114C 89 8D FFFFF52C                  	MOV	DWORD [-2772+EBP],ECX
  1922 00001152 43                              	INC	EBX
  1923 00001153 80 3C 11 00                     	CMP	BYTE [ECX+EDX*1],0
  1924 00001157 75 D6                           	JNE	L342
  1925 00001159                                 L368:
  1926 00001159 C6 84 1D FFFFFB34 00            	MOV	BYTE [-1228+EBP+EBX*1],0
  1927 00001161 80 BD FFFFF52B 00               	CMP	BYTE [-2773+EBP],0
  1928 00001168 0F 84 000001D4                  	JE	L344
  1929 0000116E 80 BD FFFFF52B 04               	CMP	BYTE [-2773+EBP],4
  1930 00001175 0F 84 000001C7                  	JE	L344
  1931 0000117B 80 BD FFFFF52B 01               	CMP	BYTE [-2773+EBP],1
  1932 00001182 0F 84 0000017C                  	JE	L385
  1933 00001188 80 BD FFFFF52B 02               	CMP	BYTE [-2773+EBP],2
  1934 0000118F 0F 84 000000E3                  	JE	L386
  1935 00001195 80 BD FFFFF52B 08               	CMP	BYTE [-2773+EBP],8
  1936 0000119C 74 57                           	JE	L387
  1937 0000119E 68 [0000027B]                   	PUSH	LC77
  1938 000011A3 E8 FFFFEE58                     	CALL	_debug_print
  1939 000011A8 5F                              	POP	EDI
  1940 000011A9                                 L345:
  1941 000011A9 FF 35 [00000004]                	PUSH	DWORD [_setfdata]
  1942 000011AF 8D 9D FFFFF934                  	LEA	EBX,DWORD [-1740+EBP]
  1943 000011B5 53                              	PUSH	EBX
  1944 000011B6 E8 [00000000]                   	CALL	_myfread
  1945 000011BB 53                              	PUSH	EBX
  1946 000011BC 68 [0000029B]                   	PUSH	LC78
  1947 000011C1 8D 9D FFFFFB84                  	LEA	EBX,DWORD [-1148+EBP]
  1948 000011C7 53                              	PUSH	EBX
  1949 000011C8 E8 [00000000]                   	CALL	_sprintf
  1950 000011CD 53                              	PUSH	EBX
  1951 000011CE FF 75 08                        	PUSH	DWORD [8+EBP]
  1952 000011D1 E8 FFFFF4EF                     	CALL	_cons_putstr
  1953 000011D6 FF 35 [00000004]                	PUSH	DWORD [_setfdata]
  1954 000011DC E8 [00000000]                   	CALL	_get_size_myfdata
  1955 000011E1 83 C4 20                        	ADD	ESP,32
  1956 000011E4                                 L377:
  1957 000011E4 50                              	PUSH	EAX
  1958 000011E5 68 [000002B1]                   	PUSH	LC61
  1959 000011EA 53                              	PUSH	EBX
  1960 000011EB E8 [00000000]                   	CALL	_sprintf
  1961 000011F0 E9 FFFFFF10                     	JMP	L374
  1962 000011F5                                 L387:
  1963 000011F5 83 3D [00000004] 00             	CMP	DWORD [_setfdata],0
  1964 000011FC 74 0A                           	JE	L360
  1965 000011FE 68 [000002C1]                   	PUSH	LC74
  1966 00001203 E9 FFFFFEF1                     	JMP	L383
  1967 00001208                                 L360:
  1968 00001208 FF B5 FFFFF530                  	PUSH	DWORD [-2768+EBP]
  1969 0000120E 8D 9D FFFFFB34                  	LEA	EBX,DWORD [-1228+EBP]
  1970 00001214 53                              	PUSH	EBX
  1971 00001215 E8 [00000000]                   	CALL	_myfopen
  1972 0000121A 89 C6                           	MOV	ESI,EAX
  1973 0000121C 58                              	POP	EAX
  1974 0000121D 5A                              	POP	EDX
  1975 0000121E 85 F6                           	TEST	ESI,ESI
  1976 00001220 74 31                           	JE	L388
  1977 00001222 53                              	PUSH	EBX
  1978 00001223 8D 9D FFFFFB84                  	LEA	EBX,DWORD [-1148+EBP]
  1979 00001229 68 [000002EC]                   	PUSH	LC76
  1980 0000122E 53                              	PUSH	EBX
  1981 0000122F E8 [00000000]                   	CALL	_sprintf
  1982 00001234 53                              	PUSH	EBX
  1983 00001235 FF 75 08                        	PUSH	DWORD [8+EBP]
  1984 00001238 E8 FFFFF488                     	CALL	_cons_putstr
  1985 0000123D FF 75 08                        	PUSH	DWORD [8+EBP]
  1986 00001240 E8 FFFFF35B                     	CALL	_cons_newline
  1987 00001245 89 35 [00000004]                	MOV	DWORD [_setfdata],ESI
  1988 0000124B                                 L375:
  1989 0000124B 83 C4 18                        	ADD	ESP,24
  1990 0000124E E9 FFFFFEC3                     	JMP	L305
  1991 00001253                                 L388:
  1992 00001253 53                              	PUSH	EBX
  1993 00001254 8D 9D FFFFFB84                  	LEA	EBX,DWORD [-1148+EBP]
  1994 0000125A 68 [000002FF]                   	PUSH	LC75
  1995 0000125F 53                              	PUSH	EBX
  1996 00001260 E8 [00000000]                   	CALL	_sprintf
  1997 00001265 53                              	PUSH	EBX
  1998 00001266 FF 75 08                        	PUSH	DWORD [8+EBP]
  1999 00001269 E8 FFFFF457                     	CALL	_cons_putstr
  2000 0000126E FF 75 08                        	PUSH	DWORD [8+EBP]
  2001 00001271 E8 FFFFF32A                     	CALL	_cons_newline
  2002 00001276 EB D3                           	JMP	L375
  2003 00001278                                 L386:
  2004 00001278 FF 35 [00000004]                	PUSH	DWORD [_setfdata]
  2005 0000127E 8D 85 FFFFF534                  	LEA	EAX,DWORD [-2764+EBP]
  2006 00001284 31 F6                           	XOR	ESI,ESI
  2007 00001286 50                              	PUSH	EAX
  2008 00001287 E8 [00000000]                   	CALL	_myfread
  2009 0000128C 59                              	POP	ECX
  2010 0000128D 31 C0                           	XOR	EAX,EAX
  2011 0000128F 5F                              	POP	EDI
  2012 00001290 39 D8                           	CMP	EAX,EBX
  2013 00001292 7D 18                           	JGE	L370
  2014 00001294                                 L356:
  2015 00001294 8A 94 05 FFFFFB34               	MOV	DL,BYTE [-1228+EBP+EAX*1]
  2016 0000129B 80 FA 20                        	CMP	DL,32
  2017 0000129E 74 4B                           	JE	L353
  2018 000012A0 88 94 05 FFFFF534               	MOV	BYTE [-2764+EBP+EAX*1],DL
  2019 000012A7                                 L351:
  2020 000012A7 40                              	INC	EAX
  2021 000012A8 39 D8                           	CMP	EAX,EBX
  2022 000012AA 7C E8                           	JL	L356
  2023 000012AC                                 L370:
  2024 000012AC 4E                              	DEC	ESI
  2025 000012AD 74 32                           	JE	L389
  2026 000012AF                                 L357:
  2027 000012AF 8D B5 FFFFF534                  	LEA	ESI,DWORD [-2764+EBP]
  2028 000012B5 8D 9D FFFFFB84                  	LEA	EBX,DWORD [-1148+EBP]
  2029 000012BB 56                              	PUSH	ESI
  2030 000012BC 68 [00000311]                   	PUSH	LC73
  2031 000012C1 53                              	PUSH	EBX
  2032 000012C2 E8 [00000000]                   	CALL	_sprintf
  2033 000012C7 53                              	PUSH	EBX
  2034 000012C8 E8 FFFFED33                     	CALL	_debug_print
  2035 000012CD 56                              	PUSH	ESI
  2036 000012CE FF 35 [00000004]                	PUSH	DWORD [_setfdata]
  2037 000012D4 E8 [00000000]                   	CALL	_myfwrite
  2038 000012D9 83 C4 18                        	ADD	ESP,24
  2039 000012DC E9 FFFFFEC8                     	JMP	L345
  2040 000012E1                                 L389:
  2041 000012E1 C6 84 05 FFFFF534 00            	MOV	BYTE [-2764+EBP+EAX*1],0
  2042 000012E9 EB C4                           	JMP	L357
  2043 000012EB                                 L353:
  2044 000012EB 80 BC 05 FFFFF534 00            	CMP	BYTE [-2764+EBP+EAX*1],0
  2045 000012F3 75 B2                           	JNE	L351
  2046 000012F5 C6 84 05 FFFFF534 20            	MOV	BYTE [-2764+EBP+EAX*1],32
  2047 000012FD BE 00000001                     	MOV	ESI,1
  2048 00001302 EB A3                           	JMP	L351
  2049 00001304                                 L385:
  2050 00001304 FF 35 [00000004]                	PUSH	DWORD [_setfdata]
  2051 0000130A 8D 9D FFFFF534                  	LEA	EBX,DWORD [-2764+EBP]
  2052 00001310 53                              	PUSH	EBX
  2053 00001311 E8 [00000000]                   	CALL	_myfread
  2054 00001316 68 [0000003B]                   	PUSH	LC7
  2055 0000131B 53                              	PUSH	EBX
  2056 0000131C E8 [00000000]                   	CALL	_sprintf
  2057 00001321 8D 85 FFFFFB34                  	LEA	EAX,DWORD [-1228+EBP]
  2058 00001327 50                              	PUSH	EAX
  2059 00001328 53                              	PUSH	EBX
  2060 00001329 E8 [00000000]                   	CALL	_strcat
  2061 0000132E 53                              	PUSH	EBX
  2062 0000132F FF 35 [00000004]                	PUSH	DWORD [_setfdata]
  2063 00001335 E8 [00000000]                   	CALL	_myfwrite
  2064 0000133A 83 C4 20                        	ADD	ESP,32
  2065 0000133D E9 FFFFFE67                     	JMP	L345
  2066 00001342                                 L344:
  2067 00001342 FF 35 [00000004]                	PUSH	DWORD [_setfdata]
  2068 00001348 8D 9D FFFFFB84                  	LEA	EBX,DWORD [-1148+EBP]
  2069 0000134E 53                              	PUSH	EBX
  2070 0000134F E8 [00000000]                   	CALL	_myfread
  2071 00001354 8D 85 FFFFFB34                  	LEA	EAX,DWORD [-1228+EBP]
  2072 0000135A 50                              	PUSH	EAX
  2073 0000135B 53                              	PUSH	EBX
  2074 0000135C E8 [00000000]                   	CALL	_strcat
  2075 00001361 68 [00000326]                   	PUSH	LC71
  2076 00001366 E8 FFFFEC95                     	CALL	_debug_print
  2077 0000136B 53                              	PUSH	EBX
  2078 0000136C E8 FFFFEC8F                     	CALL	_debug_print
  2079 00001371 68 [00000351]                   	PUSH	LC72
  2080 00001376 E8 FFFFEC85                     	CALL	_debug_print
  2081 0000137B 53                              	PUSH	EBX
  2082 0000137C FF 35 [00000004]                	PUSH	DWORD [_setfdata]
  2083 00001382 E8 [00000000]                   	CALL	_myfwrite
  2084 00001387 83 C4 24                        	ADD	ESP,36
  2085 0000138A E9 FFFFFE1A                     	JMP	L345
  2086 0000138F                                 L372:
  2087 0000138F 68 [00000353]                   	PUSH	LC70
  2088 00001394 E9 FFFFFD60                     	JMP	L383
  2089 00001399                                 L384:
  2090 00001399 41                              	INC	ECX
  2091 0000139A 31 DB                           	XOR	EBX,EBX
  2092 0000139C 89 8D FFFFF52C                  	MOV	DWORD [-2772+EBP],ECX
  2093 000013A2 8A 04 11                        	MOV	AL,BYTE [ECX+EDX*1]
  2094 000013A5 3C 20                           	CMP	AL,32
  2095 000013A7 74 33                           	JE	L312
  2096 000013A9 84 C0                           	TEST	AL,AL
  2097 000013AB 74 2F                           	JE	L312
  2098 000013AD                                 L316:
  2099 000013AD 83 FB 09                        	CMP	EBX,9
  2100 000013B0 0F 8F 00000294                  	JG	L371
  2101 000013B6 8B 8D FFFFF52C                  	MOV	ECX,DWORD [-2772+EBP]
  2102 000013BC 8B 55 0C                        	MOV	EDX,DWORD [12+EBP]
  2103 000013BF 8A 04 11                        	MOV	AL,BYTE [ECX+EDX*1]
  2104 000013C2 41                              	INC	ECX
  2105 000013C3 88 84 1D FFFFFB74               	MOV	BYTE [-1164+EBP+EBX*1],AL
  2106 000013CA 89 8D FFFFF52C                  	MOV	DWORD [-2772+EBP],ECX
  2107 000013D0 8A 04 11                        	MOV	AL,BYTE [ECX+EDX*1]
  2108 000013D3 43                              	INC	EBX
  2109 000013D4 3C 20                           	CMP	AL,32
  2110 000013D6 74 04                           	JE	L312
  2111 000013D8 84 C0                           	TEST	AL,AL
  2112 000013DA 75 D1                           	JNE	L316
  2113 000013DC                                 L312:
  2114 000013DC FC                              	CLD
  2115 000013DD C6 84 1D FFFFFB74 00            	MOV	BYTE [-1164+EBP+EBX*1],0
  2116 000013E5 8D B5 FFFFFB74                  	LEA	ESI,DWORD [-1164+EBP]
  2117 000013EB BF [0000036A]                   	MOV	EDI,LC49
  2118 000013F0 B9 00000005                     	MOV	ECX,5
  2119 000013F5 F3                              	REPE
  2120 000013F6 A6                              	CMPSB
  2121 000013F7 0F 84 00000236                  	JE	L390
  2122 000013FD                                 L317:
  2123 000013FD 8B 1D [00000004]                	MOV	EBX,DWORD [_setfdata]
  2124 00001403 85 DB                           	TEST	EBX,EBX
  2125 00001405 75 13                           	JNE	L318
  2126 00001407 80 BD FFFFF52B 08               	CMP	BYTE [-2773+EBP],8
  2127 0000140E 74 0A                           	JE	L318
  2128 00001410 68 [0000036F]                   	PUSH	LC51
  2129 00001415 E9 FFFFFCDF                     	JMP	L383
  2130 0000141A                                 L318:
  2131 0000141A FC                              	CLD
  2132 0000141B 8D B5 FFFFFB74                  	LEA	ESI,DWORD [-1164+EBP]
  2133 00001421 BF [00000052]                   	MOV	EDI,LC13
  2134 00001426 B9 00000004                     	MOV	ECX,4
  2135 0000142B F3                              	REPE
  2136 0000142C A6                              	CMPSB
  2137 0000142D 0F 84 000001D7                  	JE	L391
  2138 00001433 FC                              	CLD
  2139 00001434 8D B5 FFFFFB74                  	LEA	ESI,DWORD [-1164+EBP]
  2140 0000143A BF [0000039B]                   	MOV	EDI,LC53
  2141 0000143F B9 00000004                     	MOV	ECX,4
  2142 00001444 F3                              	REPE
  2143 00001445 A6                              	CMPSB
  2144 00001446 0F 84 000001AB                  	JE	L392
  2145 0000144C FC                              	CLD
  2146 0000144D 8D B5 FFFFFB74                  	LEA	ESI,DWORD [-1164+EBP]
  2147 00001453 BF [0000039F]                   	MOV	EDI,LC55
  2148 00001458 B9 00000004                     	MOV	ECX,4
  2149 0000145D F3                              	REPE
  2150 0000145E A6                              	CMPSB
  2151 0000145F 0F 84 0000017B                  	JE	L393
  2152 00001465 FC                              	CLD
  2153 00001466 8D B5 FFFFFB74                  	LEA	ESI,DWORD [-1164+EBP]
  2154 0000146C BF [000003A3]                   	MOV	EDI,LC57
  2155 00001471 B9 00000005                     	MOV	ECX,5
  2156 00001476 F3                              	REPE
  2157 00001477 A6                              	CMPSB
  2158 00001478 0F 84 000000FD                  	JE	L394
  2159 0000147E FC                              	CLD
  2160 0000147F 8D B5 FFFFFB74                  	LEA	ESI,DWORD [-1164+EBP]
  2161 00001485 BF [000003A8]                   	MOV	EDI,LC62
  2162 0000148A B9 00000006                     	MOV	ECX,6
  2163 0000148F F3                              	REPE
  2164 00001490 A6                              	CMPSB
  2165 00001491 0F 84 000000BB                  	JE	L395
  2166 00001497 FC                              	CLD
  2167 00001498 8D B5 FFFFFB74                  	LEA	ESI,DWORD [-1164+EBP]
  2168 0000149E BF [000003AE]                   	MOV	EDI,LC65
  2169 000014A3 B9 00000005                     	MOV	ECX,5
  2170 000014A8 F3                              	REPE
  2171 000014A9 A6                              	CMPSB
  2172 000014AA 74 3E                           	JE	L396
  2173 000014AC FC                              	CLD
  2174 000014AD 8D B5 FFFFFB74                  	LEA	ESI,DWORD [-1164+EBP]
  2175 000014B3 BF [0000036A]                   	MOV	EDI,LC49
  2176 000014B8 B9 00000005                     	MOV	ECX,5
  2177 000014BD F3                              	REPE
  2178 000014BE A6                              	CMPSB
  2179 000014BF 75 1F                           	JNE	L397
  2180 000014C1                                 L320:
  2181 000014C1 8B 45 0C                        	MOV	EAX,DWORD [12+EBP]
  2182 000014C4 8B 95 FFFFF52C                  	MOV	EDX,DWORD [-2772+EBP]
  2183 000014CA 80 3C 02 20                     	CMP	BYTE [EDX+EAX*1],32
  2184 000014CE 0F 85 FFFFFC4A                  	JNE	L336
  2185 000014D4 42                              	INC	EDX
  2186 000014D5 89 95 FFFFF52C                  	MOV	DWORD [-2772+EBP],EDX
  2187 000014DB E9 FFFFFC3E                     	JMP	L336
  2188 000014E0                                 L397:
  2189 000014E0 68 [000003B3]                   	PUSH	LC68
  2190 000014E5 E9 FFFFFC0F                     	JMP	L383
  2191 000014EA                                 L396:
  2192 000014EA 8D 43 1C                        	LEA	EAX,DWORD [28+EBX]
  2193 000014ED 50                              	PUSH	EAX
  2194 000014EE FF 75 08                        	PUSH	DWORD [8+EBP]
  2195 000014F1 E8 FFFFF1CF                     	CALL	_cons_putstr
  2196 000014F6 FF 75 08                        	PUSH	DWORD [8+EBP]
  2197 000014F9 E8 FFFFF0A2                     	CALL	_cons_newline
  2198 000014FE A1 [00000004]                   	MOV	EAX,DWORD [_setfdata]
  2199 00001503 40                              	INC	EAX
  2200 00001504 50                              	PUSH	EAX
  2201 00001505 FF 75 08                        	PUSH	DWORD [8+EBP]
  2202 00001508 E8 FFFFF1B8                     	CALL	_cons_putstr
  2203 0000150D FF 35 [00000004]                	PUSH	DWORD [_setfdata]
  2204 00001513 E8 [00000000]                   	CALL	_myfsave
  2205 00001518 83 C4 18                        	ADD	ESP,24
  2206 0000151B 40                              	INC	EAX
  2207 0000151C 74 0A                           	JE	L398
  2208 0000151E 68 [000003C4]                   	PUSH	LC67
  2209 00001523 E9 FFFFFBD1                     	JMP	L383
  2210 00001528                                 L398:
  2211 00001528 68 [000003E2]                   	PUSH	LC66
  2212 0000152D 8D 9D FFFFFB84                  	LEA	EBX,DWORD [-1148+EBP]
  2213 00001533 53                              	PUSH	EBX
  2214 00001534 E8 [00000000]                   	CALL	_sprintf
  2215 00001539 53                              	PUSH	EBX
  2216 0000153A FF 75 08                        	PUSH	DWORD [8+EBP]
  2217 0000153D E8 FFFFF183                     	CALL	_cons_putstr
  2218 00001542 FF 75 08                        	PUSH	DWORD [8+EBP]
  2219 00001545 E8 FFFFF056                     	CALL	_cons_newline
  2220 0000154A 83 C4 14                        	ADD	ESP,20
  2221 0000154D E9 FFFFFF6F                     	JMP	L320
  2222 00001552                                 L395:
  2223 00001552 68 [00000420]                   	PUSH	LC63
  2224 00001557 E8 FFFFEAA4                     	CALL	_debug_print
  2225 0000155C FF 35 [00000004]                	PUSH	DWORD [_setfdata]
  2226 00001562 E8 [00000000]                   	CALL	_myfclose
  2227 00001567 68 [00000431]                   	PUSH	LC64
  2228 0000156C C7 05 [00000004] 00000000       	MOV	DWORD [_setfdata],0
  2229 00001576 E9 FFFFFB7E                     	JMP	L383
  2230 0000157B                                 L394:
  2231 0000157B 68 [0000044A]                   	PUSH	LC58
  2232 00001580 8D B5 FFFFF934                  	LEA	ESI,DWORD [-1740+EBP]
  2233 00001586 8D 9D FFFFFB84                  	LEA	EBX,DWORD [-1148+EBP]
  2234 0000158C E8 FFFFEA6F                     	CALL	_debug_print
  2235 00001591 FF 35 [00000004]                	PUSH	DWORD [_setfdata]
  2236 00001597 56                              	PUSH	ESI
  2237 00001598 E8 [00000000]                   	CALL	_myfread
  2238 0000159D A1 [00000004]                   	MOV	EAX,DWORD [_setfdata]
  2239 000015A2 0F B6 00                        	MOVZX	EAX,BYTE [EAX]
  2240 000015A5 50                              	PUSH	EAX
  2241 000015A6 68 [0000045A]                   	PUSH	LC59
  2242 000015AB 53                              	PUSH	EBX
  2243 000015AC E8 [00000000]                   	CALL	_sprintf
  2244 000015B1 53                              	PUSH	EBX
  2245 000015B2 E8 FFFFEA49                     	CALL	_debug_print
  2246 000015B7 56                              	PUSH	ESI
  2247 000015B8 68 [00000476]                   	PUSH	LC60
  2248 000015BD 53                              	PUSH	EBX
  2249 000015BE E8 [00000000]                   	CALL	_sprintf
  2250 000015C3 83 C4 28                        	ADD	ESP,40
  2251 000015C6 53                              	PUSH	EBX
  2252 000015C7 FF 75 08                        	PUSH	DWORD [8+EBP]
  2253 000015CA E8 FFFFF0F6                     	CALL	_cons_putstr
  2254 000015CF FF 35 [00000004]                	PUSH	DWORD [_setfdata]
  2255 000015D5 E8 [00000000]                   	CALL	_get_size_myfdata
  2256 000015DA 5A                              	POP	EDX
  2257 000015DB E9 FFFFFC04                     	JMP	L377
  2258 000015E0                                 L393:
  2259 000015E0 68 [0000047F]                   	PUSH	LC56
  2260 000015E5 E8 FFFFEA16                     	CALL	_debug_print
  2261 000015EA C6 85 FFFFF52B 04               	MOV	BYTE [-2773+EBP],4
  2262 000015F1                                 L373:
  2263 000015F1 59                              	POP	ECX
  2264 000015F2 E9 FFFFFECA                     	JMP	L320
  2265 000015F7                                 L392:
  2266 000015F7 68 [0000048E]                   	PUSH	LC54
  2267 000015FC E8 FFFFE9FF                     	CALL	_debug_print
  2268 00001601 C6 85 FFFFF52B 02               	MOV	BYTE [-2773+EBP],2
  2269 00001608 EB E7                           	JMP	L373
  2270 0000160A                                 L391:
  2271 0000160A 68 [000004A0]                   	PUSH	LC52
  2272 0000160F E8 FFFFE9EC                     	CALL	_debug_print
  2273 00001614 68 [0000003B]                   	PUSH	LC7
  2274 00001619 FF 35 [00000004]                	PUSH	DWORD [_setfdata]
  2275 0000161F C6 85 FFFFF52B 01               	MOV	BYTE [-2773+EBP],1
  2276 00001626 E8 [00000000]                   	CALL	_myfwrite
  2277 0000162B 83 C4 0C                        	ADD	ESP,12
  2278 0000162E E9 FFFFFE8E                     	JMP	L320
  2279 00001633                                 L390:
  2280 00001633 68 [000004B1]                   	PUSH	LC50
  2281 00001638 E8 FFFFE9C3                     	CALL	_debug_print
  2282 0000163D 5B                              	POP	EBX
  2283 0000163E C6 85 FFFFF52B 08               	MOV	BYTE [-2773+EBP],8
  2284 00001645 E9 FFFFFDB3                     	JMP	L317
  2285 0000164A                                 L371:
  2286 0000164A 68 [000004C1]                   	PUSH	LC48
  2287 0000164F E9 FFFFFAA5                     	JMP	L383
  2288 00001654                                 L309:
  2289 00001654 8B 4D 0C                        	MOV	ECX,DWORD [12+EBP]
  2290 00001657 FF 85 FFFFF52C                  	INC	DWORD [-2772+EBP]
  2291 0000165D 8B 85 FFFFF52C                  	MOV	EAX,DWORD [-2772+EBP]
  2292 00001663 80 3C 08 20                     	CMP	BYTE [EAX+ECX*1],32
  2293 00001667 74 EB                           	JE	L309
  2294 00001669 E9 FFFFFA61                     	JMP	L365
  2295                                          [SECTION .data]
  2296 000004D6                                 LC79:
  2297 000004D6 64 69 72 65 63 74 6F 72 79 20   	DB	"directory name shoule be within 8 letters.",0x0A,0x00
       000004E0 6E 61 6D 65 20 73 68 6F 75 6C 
       000004EA 65 20 62 65 20 77 69 74 68 69 
       000004F4 6E 20 38 20 6C 65 74 74 65 72 
       000004FE 73 2E 0A 00 
  2298 00000502                                 LC80:
  2299 00000502 74 68 69 73 20 64 69 72 65 63   	DB	"this directory name is already used, please use other name.",0x0A,0x00
       0000050C 74 6F 72 79 20 6E 61 6D 65 20 
       00000516 69 73 20 61 6C 72 65 61 64 79 
       00000520 20 75 73 65 64 2C 20 70 6C 65 
       0000052A 61 73 65 20 75 73 65 20 6F 74 
       00000534 68 65 72 20 6E 61 6D 65 2E 0A 
       0000053E 00 
  2300 0000053F                                 LC81:
  2301 0000053F 09 6E 61 6D 65 20 3D 20 25 73   	DB	0x09,"name = %s",0x0A,0x09,"ext = %s",0x0A,0x09,"type = 0x%02x",0x0A,0x00
       00000549 0A 09 65 78 74 20 3D 20 25 73 
       00000553 0A 09 74 79 70 65 20 3D 20 30 
       0000055D 78 25 30 32 78 0A 00 
  2302 00000564                                 LC82:
  2303 00000564 63 72 65 61 74 65 64 20 64 69   	DB	"created directory: name = %s",0x0A,0x00
       0000056E 72 65 63 74 6F 72 79 3A 20 6E 
       00000578 61 6D 65 20 3D 20 25 73 0A 00 
  2304 00000582                                 LC83:
  2305 00000582 09 63 68 69 6C 64 20 64 69 72   	DB	0x09,"child dir address = 0x%08x",0x0A,0x00
       0000058C 20 61 64 64 72 65 73 73 20 3D 
       00000596 20 30 78 25 30 38 78 0A 00 
  2306 0000059F                                 LC84:
  2307 0000059F 09 74 79 70 65 3D 30 78 25 30   	DB	0x09,"type=0x%02x",0x0A,0x00
       000005A9 32 78 0A 00 
  2308 000005AD                                 LC85:
  2309 000005AD 09 63 68 69 6C 64 20 64 69 6E   	DB	0x09,"child dinfo addr = 0x%08x",0x0A,0x00
       000005B7 66 6F 20 61 64 64 72 20 3D 20 
       000005C1 30 78 25 30 38 78 0A 00 
  2310 000005C9                                 LC86:
  2311 000005C9 09 63 68 69 6C 64 20 64 69 6E   	DB	0x09,"child dinfo name = %s",0x0A,0x00
       000005D3 66 6F 20 6E 61 6D 65 20 3D 20 
       000005DD 25 73 0A 00 
  2312 000005E1                                 LC87:
  2313 000005E1 09 63 68 69 6C 64 20 64 69 6E   	DB	0x09,"child dinfo parent addr = 0x%08x",0x0A,0x00
       000005EB 66 6F 20 70 61 72 65 6E 74 20 
       000005F5 61 64 64 72 20 3D 20 30 78 25 
       000005FF 30 38 78 0A 00 
  2314                                          [SECTION .text]
  2315 0000166E                                 	GLOBAL	_cmd_mkdir
  2316 0000166E                                 _cmd_mkdir:
  2317 0000166E 55                              	PUSH	EBP
  2318 0000166F 89 E5                           	MOV	EBP,ESP
  2319 00001671 57                              	PUSH	EDI
  2320 00001672 56                              	PUSH	ESI
  2321 00001673 53                              	PUSH	EBX
  2322 00001674 31 DB                           	XOR	EBX,EBX
  2323 00001676 83 EC 48                        	SUB	ESP,72
  2324 00001679 8B 45 0C                        	MOV	EAX,DWORD [12+EBP]
  2325 0000167C 8B 55 08                        	MOV	EDX,DWORD [8+EBP]
  2326 0000167F 8D 70 06                        	LEA	ESI,DWORD [6+EAX]
  2327 00001682 8B 52 14                        	MOV	EDX,DWORD [20+EDX]
  2328 00001685 89 55 AC                        	MOV	DWORD [-84+EBP],EDX
  2329 00001688 89 75 B0                        	MOV	DWORD [-80+EBP],ESI
  2330 0000168B 80 78 06 00                     	CMP	BYTE [6+EAX],0
  2331 0000168F 74 0A                           	JE	L426
  2332 00001691                                 L404:
  2333 00001691 43                              	INC	EBX
  2334 00001692 8B 45 B0                        	MOV	EAX,DWORD [-80+EBP]
  2335 00001695 80 3C 03 00                     	CMP	BYTE [EBX+EAX*1],0
  2336 00001699 75 F6                           	JNE	L404
  2337 0000169B                                 L426:
  2338 0000169B 83 FB 08                        	CMP	EBX,8
  2339 0000169E 7E 27                           	JLE	L405
  2340 000016A0 68 [000004D6]                   	PUSH	LC79
  2341 000016A5 8D 5D B4                        	LEA	EBX,DWORD [-76+EBP]
  2342 000016A8 53                              	PUSH	EBX
  2343 000016A9 E8 [00000000]                   	CALL	_sprintf
  2344 000016AE 53                              	PUSH	EBX
  2345 000016AF FF 75 08                        	PUSH	DWORD [8+EBP]
  2346 000016B2 E8 FFFFF00E                     	CALL	_cons_putstr
  2347 000016B7                                 L433:
  2348 000016B7 FF 75 08                        	PUSH	DWORD [8+EBP]
  2349 000016BA E8 FFFFEEE1                     	CALL	_cons_newline
  2350 000016BF 8D 65 F4                        	LEA	ESP,DWORD [-12+EBP]
  2351 000016C2 5B                              	POP	EBX
  2352 000016C3 5E                              	POP	ESI
  2353 000016C4 5F                              	POP	EDI
  2354 000016C5 5D                              	POP	EBP
  2355 000016C6 C3                              	RET
  2356 000016C7                                 L405:
  2357 000016C7 6A 32                           	PUSH	50
  2358 000016C9 FF 75 AC                        	PUSH	DWORD [-84+EBP]
  2359 000016CC FF 75 B0                        	PUSH	DWORD [-80+EBP]
  2360 000016CF E8 [00000000]                   	CALL	_myfinfo_search
  2361 000016D4 83 C4 0C                        	ADD	ESP,12
  2362 000016D7 89 C6                           	MOV	ESI,EAX
  2363 000016D9 85 C0                           	TEST	EAX,EAX
  2364 000016DB 74 37                           	JE	L406
  2365 000016DD 68 [00000502]                   	PUSH	LC80
  2366 000016E2 8D 5D B4                        	LEA	EBX,DWORD [-76+EBP]
  2367 000016E5 53                              	PUSH	EBX
  2368 000016E6 E8 [00000000]                   	CALL	_sprintf
  2369 000016EB 53                              	PUSH	EBX
  2370 000016EC FF 75 08                        	PUSH	DWORD [8+EBP]
  2371 000016EF E8 FFFFEFD1                     	CALL	_cons_putstr
  2372 000016F4 0F B6 46 0B                     	MOVZX	EAX,BYTE [11+ESI]
  2373 000016F8 50                              	PUSH	EAX
  2374 000016F9 8D 46 08                        	LEA	EAX,DWORD [8+ESI]
  2375 000016FC 50                              	PUSH	EAX
  2376 000016FD 56                              	PUSH	ESI
  2377 000016FE 68 [0000053F]                   	PUSH	LC81
  2378 00001703 53                              	PUSH	EBX
  2379 00001704 E8 [00000000]                   	CALL	_sprintf
  2380 00001709 83 C4 24                        	ADD	ESP,36
  2381 0000170C                                 L432:
  2382 0000170C 53                              	PUSH	EBX
  2383 0000170D E8 FFFFE8EE                     	CALL	_debug_print
  2384 00001712 EB A3                           	JMP	L433
  2385 00001714                                 L406:
  2386 00001714 31 DB                           	XOR	EBX,EBX
  2387 00001716 8B 45 AC                        	MOV	EAX,DWORD [-84+EBP]
  2388 00001719                                 L413:
  2389 00001719 80 38 00                        	CMP	BYTE [EAX],0
  2390 0000171C 74 09                           	JE	L409
  2391 0000171E 43                              	INC	EBX
  2392 0000171F 83 C0 28                        	ADD	EAX,40
  2393 00001722 83 FB 31                        	CMP	EBX,49
  2394 00001725 7E F2                           	JLE	L413
  2395 00001727                                 L409:
  2396 00001727 8B 55 B0                        	MOV	EDX,DWORD [-80+EBP]
  2397 0000172A 31 C9                           	XOR	ECX,ECX
  2398 0000172C 80 3A 00                        	CMP	BYTE [EDX],0
  2399 0000172F 74 29                           	JE	L429
  2400 00001731                                 L419:
  2401 00001731 8B 75 B0                        	MOV	ESI,DWORD [-80+EBP]
  2402 00001734 8A 14 31                        	MOV	DL,BYTE [ECX+ESI*1]
  2403 00001737 8D 42 9F                        	LEA	EAX,DWORD [-97+EDX]
  2404 0000173A 3C 19                           	CMP	AL,25
  2405 0000173C 77 06                           	JA	L418
  2406 0000173E 8D 42 E0                        	LEA	EAX,DWORD [-32+EDX]
  2407 00001741 88 04 31                        	MOV	BYTE [ECX+ESI*1],AL
  2408 00001744                                 L418:
  2409 00001744 6B C3 28                        	IMUL	EAX,EBX,40
  2410 00001747 8B 75 B0                        	MOV	ESI,DWORD [-80+EBP]
  2411 0000174A 03 45 AC                        	ADD	EAX,DWORD [-84+EBP]
  2412 0000174D 8A 14 31                        	MOV	DL,BYTE [ECX+ESI*1]
  2413 00001750 88 14 01                        	MOV	BYTE [ECX+EAX*1],DL
  2414 00001753 41                              	INC	ECX
  2415 00001754 80 3C 31 00                     	CMP	BYTE [ECX+ESI*1],0
  2416 00001758 75 D7                           	JNE	L419
  2417 0000175A                                 L429:
  2418 0000175A 83 F9 07                        	CMP	ECX,7
  2419 0000175D 7F 10                           	JG	L431
  2420 0000175F                                 L424:
  2421 0000175F 6B C3 28                        	IMUL	EAX,EBX,40
  2422 00001762 03 45 AC                        	ADD	EAX,DWORD [-84+EBP]
  2423 00001765 C6 04 01 20                     	MOV	BYTE [ECX+EAX*1],32
  2424 00001769 41                              	INC	ECX
  2425 0000176A 83 F9 07                        	CMP	ECX,7
  2426 0000176D 7E F0                           	JLE	L424
  2427 0000176F                                 L431:
  2428 0000176F 6B FB 28                        	IMUL	EDI,EBX,40
  2429 00001772 8B 45 AC                        	MOV	EAX,DWORD [-84+EBP]
  2430 00001775 8D 5D B4                        	LEA	EBX,DWORD [-76+EBP]
  2431 00001778 8D 34 38                        	LEA	ESI,DWORD [EAX+EDI*1]
  2432 0000177B E8 [00000000]                   	CALL	_get_newdinfo
  2433 00001780 8B 55 AC                        	MOV	EDX,DWORD [-84+EBP]
  2434 00001783 89 46 20                        	MOV	DWORD [32+ESI],EAX
  2435 00001786 8D 46 10                        	LEA	EAX,DWORD [16+ESI]
  2436 00001789 C6 44 3A 0B 10                  	MOV	BYTE [11+EDX+EDI*1],16
  2437 0000178E C7 46 1C 00000028               	MOV	DWORD [28+ESI],40
  2438 00001795 C7 46 24 00000000               	MOV	DWORD [36+ESI],0
  2439 0000179C 66 C7 40 0A 0000                	MOV	WORD [10+EAX],0
  2440 000017A2 66 C7 40 08 0000                	MOV	WORD [8+EAX],0
  2441 000017A8 56                              	PUSH	ESI
  2442 000017A9 68 [00000564]                   	PUSH	LC82
  2443 000017AE 53                              	PUSH	EBX
  2444 000017AF E8 [00000000]                   	CALL	_sprintf
  2445 000017B4 53                              	PUSH	EBX
  2446 000017B5 FF 75 08                        	PUSH	DWORD [8+EBP]
  2447 000017B8 E8 FFFFEF08                     	CALL	_cons_putstr
  2448 000017BD FF 76 20                        	PUSH	DWORD [32+ESI]
  2449 000017C0 68 [00000582]                   	PUSH	LC83
  2450 000017C5 53                              	PUSH	EBX
  2451 000017C6 E8 [00000000]                   	CALL	_sprintf
  2452 000017CB 83 C4 20                        	ADD	ESP,32
  2453 000017CE 53                              	PUSH	EBX
  2454 000017CF E8 FFFFE82C                     	CALL	_debug_print
  2455 000017D4 8B 55 AC                        	MOV	EDX,DWORD [-84+EBP]
  2456 000017D7 0F B6 44 3A 0B                  	MOVZX	EAX,BYTE [11+EDX+EDI*1]
  2457 000017DC 50                              	PUSH	EAX
  2458 000017DD 68 [0000059F]                   	PUSH	LC84
  2459 000017E2 53                              	PUSH	EBX
  2460 000017E3 E8 [00000000]                   	CALL	_sprintf
  2461 000017E8 53                              	PUSH	EBX
  2462 000017E9 E8 FFFFE812                     	CALL	_debug_print
  2463 000017EE 8B 76 20                        	MOV	ESI,DWORD [32+ESI]
  2464 000017F1 89 B6 000007DC                  	MOV	DWORD [2012+ESI],ESI
  2465 000017F7 8D BE 000007D0                  	LEA	EDI,DWORD [2000+ESI]
  2466 000017FD FF 75 B0                        	PUSH	DWORD [-80+EBP]
  2467 00001800 57                              	PUSH	EDI
  2468 00001801 E8 [00000000]                   	CALL	_sprintf
  2469 00001806 8B 55 AC                        	MOV	EDX,DWORD [-84+EBP]
  2470 00001809 8B 82 000007DC                  	MOV	EAX,DWORD [2012+EDX]
  2471 0000180F 89 86 000007D8                  	MOV	DWORD [2008+ESI],EAX
  2472 00001815 FF B6 000007DC                  	PUSH	DWORD [2012+ESI]
  2473 0000181B 68 [000005AD]                   	PUSH	LC85
  2474 00001820 53                              	PUSH	EBX
  2475 00001821 E8 [00000000]                   	CALL	_sprintf
  2476 00001826 83 C4 28                        	ADD	ESP,40
  2477 00001829 53                              	PUSH	EBX
  2478 0000182A E8 FFFFE7D1                     	CALL	_debug_print
  2479 0000182F 57                              	PUSH	EDI
  2480 00001830 68 [000005C9]                   	PUSH	LC86
  2481 00001835 53                              	PUSH	EBX
  2482 00001836 E8 [00000000]                   	CALL	_sprintf
  2483 0000183B 53                              	PUSH	EBX
  2484 0000183C E8 FFFFE7BF                     	CALL	_debug_print
  2485 00001841 FF B6 000007D8                  	PUSH	DWORD [2008+ESI]
  2486 00001847 68 [000005E1]                   	PUSH	LC87
  2487 0000184C 53                              	PUSH	EBX
  2488 0000184D E8 [00000000]                   	CALL	_sprintf
  2489 00001852 83 C4 20                        	ADD	ESP,32
  2490 00001855 E9 FFFFFEB2                     	JMP	L432
  2491                                          [SECTION .data]
  2492 00000604                                 LC90:
  2493 00000604 74 68 69 73 20 66 69 6C 65 20   	DB	"this file name is already used, please use other name.",0x0A,0x00
       0000060E 6E 61 6D 65 20 69 73 20 61 6C 
       00000618 72 65 61 64 79 20 75 73 65 64 
       00000622 2C 20 70 6C 65 61 73 65 20 75 
       0000062C 73 65 20 6F 74 68 65 72 20 6E 
       00000636 61 6D 65 2E 0A 00 
  2494 0000063C                                 LC91:
  2495 0000063C 66 64 61 74 61 2D 3E 68 65 61   	DB	"fdata->head.name =",0x09,0x09,"%s[EOF]",0x0A,0x00
       00000646 64 2E 6E 61 6D 65 20 3D 09 09 
       00000650 25 73 5B 45 4F 46 5D 0A 00 
  2496 00000659                                 LC92:
  2497 00000659 64 69 6E 66 6F 2D 3E 66 69 6E   	DB	"dinfo->finfo[i].name =",0x09,"%s[EOF]",0x0A,0x00
       00000663 66 6F 5B 69 5D 2E 6E 61 6D 65 
       0000066D 20 3D 09 25 73 5B 45 4F 46 5D 
       00000677 0A 00 
  2498 00000679                                 LC93:
  2499 00000679 74 65 73 74 28 73 68 6F 75 6C   	DB	"test(should not be 0) = %d",0x0A,0x00
       00000683 64 20 6E 6F 74 20 62 65 20 30 
       0000068D 29 20 3D 20 25 64 0A 00 
  2500 00000695                                 LC94:
  2501 00000695 63 72 65 61 74 65 64 20 66 69   	DB	"created file name = %s[EOF]",0x0A,0x00
       0000069F 6C 65 20 6E 61 6D 65 20 3D 20 
       000006A9 25 73 5B 45 4F 46 5D 0A 00 
  2502 000006B2                                 LC95:
  2503 000006B2 66 69 6C 65 20 6E 61 6D 65 20   	DB	"file name = %s",0x0A,0x00
       000006BC 3D 20 25 73 0A 00 
  2504 000006C2                                 LC96:
  2505 000006C2 66 69 6C 65 20 74 79 70 65 3D   	DB	"file type=0x%02x",0x0A,0x00
       000006CC 30 78 25 30 32 78 0A 00 
  2506 000006D4                                 LC88:
  2507 000006D4 66 69 6C 65 20 6E 61 6D 65 20   	DB	"file name should be within 8 letters,",0x0A,0x00
       000006DE 73 68 6F 75 6C 64 20 62 65 20 
       000006E8 77 69 74 68 69 6E 20 38 20 6C 
       000006F2 65 74 74 65 72 73 2C 0A 00 
  2508 000006FB                                 LC89:
  2509 000006FB 61 6E 64 20 65 78 74 65 6E 73   	DB	"and extension should be within 3 letters.",0x0A,0x00
       00000705 69 6F 6E 20 73 68 6F 75 6C 64 
       0000070F 20 62 65 20 77 69 74 68 69 6E 
       00000719 20 33 20 6C 65 74 74 65 72 73 
       00000723 2E 0A 00 
  2510                                          [SECTION .text]
  2511 0000185A                                 	GLOBAL	_cmd_mkfile
  2512 0000185A                                 _cmd_mkfile:
  2513 0000185A 55                              	PUSH	EBP
  2514 0000185B 31 C9                           	XOR	ECX,ECX
  2515 0000185D 89 E5                           	MOV	EBP,ESP
  2516 0000185F 57                              	PUSH	EDI
  2517 00001860 56                              	PUSH	ESI
  2518 00001861 53                              	PUSH	EBX
  2519 00001862 81 EC 00000460                  	SUB	ESP,1120
  2520 00001868 8B 45 08                        	MOV	EAX,DWORD [8+EBP]
  2521 0000186B 8B 55 0C                        	MOV	EDX,DWORD [12+EBP]
  2522 0000186E 83 C2 07                        	ADD	EDX,7
  2523 00001871 8B 40 14                        	MOV	EAX,DWORD [20+EAX]
  2524 00001874 89 95 FFFFFB9C                  	MOV	DWORD [-1124+EBP],EDX
  2525 0000187A 89 85 FFFFFBA0                  	MOV	DWORD [-1120+EBP],EAX
  2526 00001880                                 L439:
  2527 00001880 C6 44 0D A4 20                  	MOV	BYTE [-92+EBP+ECX*1],32
  2528 00001885 41                              	INC	ECX
  2529 00001886 83 F9 0A                        	CMP	ECX,10
  2530 00001889 7E F5                           	JLE	L439
  2531 0000188B 8B 85 FFFFFB9C                  	MOV	EAX,DWORD [-1124+EBP]
  2532 00001891 31 C9                           	XOR	ECX,ECX
  2533 00001893 31 DB                           	XOR	EBX,EBX
  2534 00001895 80 38 00                        	CMP	BYTE [EAX],0
  2535 00001898 74 3B                           	JE	L469
  2536 0000189A                                 L448:
  2537 0000189A 83 F9 0A                        	CMP	ECX,10
  2538 0000189D 0F 8F 00000237                  	JG	L475
  2539 000018A3 8B 85 FFFFFB9C                  	MOV	EAX,DWORD [-1124+EBP]
  2540 000018A9 8A 14 03                        	MOV	DL,BYTE [EBX+EAX*1]
  2541 000018AC 80 FA 2E                        	CMP	DL,46
  2542 000018AF 0F 84 00000212                  	JE	L477
  2543 000018B5                                 L445:
  2544 000018B5 8D 42 9F                        	LEA	EAX,DWORD [-97+EDX]
  2545 000018B8 88 54 0D A4                     	MOV	BYTE [-92+EBP+ECX*1],DL
  2546 000018BC 3C 19                           	CMP	AL,25
  2547 000018BE 77 07                           	JA	L447
  2548 000018C0 8D 42 E0                        	LEA	EAX,DWORD [-32+EDX]
  2549 000018C3 88 44 0D A4                     	MOV	BYTE [-92+EBP+ECX*1],AL
  2550 000018C7                                 L447:
  2551 000018C7 41                              	INC	ECX
  2552 000018C8                                 L442:
  2553 000018C8 43                              	INC	EBX
  2554 000018C9 8B 95 FFFFFB9C                  	MOV	EDX,DWORD [-1124+EBP]
  2555 000018CF 80 3C 13 00                     	CMP	BYTE [EBX+EDX*1],0
  2556 000018D3 75 C5                           	JNE	L448
  2557 000018D5                                 L469:
  2558 000018D5 6A 32                           	PUSH	50
  2559 000018D7 8D 45 A4                        	LEA	EAX,DWORD [-92+EBP]
  2560 000018DA FF B5 FFFFFBA0                  	PUSH	DWORD [-1120+EBP]
  2561 000018E0 50                              	PUSH	EAX
  2562 000018E1 E8 [00000000]                   	CALL	_myfinfo_search
  2563 000018E6 83 C4 0C                        	ADD	ESP,12
  2564 000018E9 89 C6                           	MOV	ESI,EAX
  2565 000018EB 85 C0                           	TEST	EAX,EAX
  2566 000018ED 74 50                           	JE	L449
  2567 000018EF 68 [00000604]                   	PUSH	LC90
  2568 000018F4 8D 5D B4                        	LEA	EBX,DWORD [-76+EBP]
  2569 000018F7 53                              	PUSH	EBX
  2570 000018F8 E8 [00000000]                   	CALL	_sprintf
  2571 000018FD 53                              	PUSH	EBX
  2572 000018FE FF 75 08                        	PUSH	DWORD [8+EBP]
  2573 00001901 E8 FFFFEDBF                     	CALL	_cons_putstr
  2574 00001906 0F B6 46 0B                     	MOVZX	EAX,BYTE [11+ESI]
  2575 0000190A 50                              	PUSH	EAX
  2576 0000190B 8D 46 08                        	LEA	EAX,DWORD [8+ESI]
  2577 0000190E 50                              	PUSH	EAX
  2578 0000190F 56                              	PUSH	ESI
  2579 00001910 68 [0000053F]                   	PUSH	LC81
  2580 00001915 53                              	PUSH	EBX
  2581 00001916 E8 [00000000]                   	CALL	_sprintf
  2582 0000191B 83 C4 24                        	ADD	ESP,36
  2583 0000191E 53                              	PUSH	EBX
  2584 0000191F FF 75 08                        	PUSH	DWORD [8+EBP]
  2585 00001922 E8 FFFFED9E                     	CALL	_cons_putstr
  2586 00001927 FF 75 08                        	PUSH	DWORD [8+EBP]
  2587 0000192A E8 FFFFEC71                     	CALL	_cons_newline
  2588 0000192F                                 L476:
  2589 0000192F FF 75 08                        	PUSH	DWORD [8+EBP]
  2590 00001932 E8 FFFFEC69                     	CALL	_cons_newline
  2591 00001937 8D 65 F4                        	LEA	ESP,DWORD [-12+EBP]
  2592 0000193A 5B                              	POP	EBX
  2593 0000193B 5E                              	POP	ESI
  2594 0000193C 5F                              	POP	EDI
  2595 0000193D 5D                              	POP	EBP
  2596 0000193E C3                              	RET
  2597 0000193F                                 L449:
  2598 0000193F 31 DB                           	XOR	EBX,EBX
  2599 00001941 8B 85 FFFFFBA0                  	MOV	EAX,DWORD [-1120+EBP]
  2600 00001947                                 L455:
  2601 00001947 80 38 00                        	CMP	BYTE [EAX],0
  2602 0000194A 74 09                           	JE	L451
  2603 0000194C 43                              	INC	EBX
  2604 0000194D 83 C0 28                        	ADD	EAX,40
  2605 00001950 83 FB 31                        	CMP	EBX,49
  2606 00001953 7E F2                           	JLE	L455
  2607 00001955                                 L451:
  2608 00001955 31 C9                           	XOR	ECX,ECX
  2609 00001957                                 L460:
  2610 00001957 6B C3 28                        	IMUL	EAX,EBX,40
  2611 0000195A 03 85 FFFFFBA0                  	ADD	EAX,DWORD [-1120+EBP]
  2612 00001960 8A 54 0D A4                     	MOV	DL,BYTE [-92+EBP+ECX*1]
  2613 00001964 88 14 01                        	MOV	BYTE [ECX+EAX*1],DL
  2614 00001967 41                              	INC	ECX
  2615 00001968 83 F9 07                        	CMP	ECX,7
  2616 0000196B 7E EA                           	JLE	L460
  2617 0000196D 31 C9                           	XOR	ECX,ECX
  2618 0000196F                                 L465:
  2619 0000196F 6B C3 28                        	IMUL	EAX,EBX,40
  2620 00001972 89 85 FFFFFB94                  	MOV	DWORD [-1132+EBP],EAX
  2621 00001978 03 85 FFFFFBA0                  	ADD	EAX,DWORD [-1120+EBP]
  2622 0000197E 89 85 FFFFFB98                  	MOV	DWORD [-1128+EBP],EAX
  2623 00001984 8B 95 FFFFFB98                  	MOV	EDX,DWORD [-1128+EBP]
  2624 0000198A 8A 44 0D AC                     	MOV	AL,BYTE [-84+EBP+ECX*1]
  2625 0000198E 88 44 11 08                     	MOV	BYTE [8+ECX+EDX*1],AL
  2626 00001992 41                              	INC	ECX
  2627 00001993 83 F9 02                        	CMP	ECX,2
  2628 00001996 7E D7                           	JLE	L465
  2629 00001998 89 D0                           	MOV	EAX,EDX
  2630 0000199A 8B 8D FFFFFB94                  	MOV	ECX,DWORD [-1132+EBP]
  2631 000019A0 83 C0 10                        	ADD	EAX,16
  2632 000019A3 8D 5D B4                        	LEA	EBX,DWORD [-76+EBP]
  2633 000019A6 C7 42 1C 00000000               	MOV	DWORD [28+EDX],0
  2634 000019AD 66 C7 40 0A 0000                	MOV	WORD [10+EAX],0
  2635 000019B3 66 C7 40 08 0000                	MOV	WORD [8+EAX],0
  2636 000019B9 8B 85 FFFFFBA0                  	MOV	EAX,DWORD [-1120+EBP]
  2637 000019BF C6 44 08 0B 20                  	MOV	BYTE [11+EAX+ECX*1],32
  2638 000019C4 8B 95 FFFFFBA0                  	MOV	EDX,DWORD [-1120+EBP]
  2639 000019CA C6 85 FFFFFBA4 FF               	MOV	BYTE [-1116+EBP],-1
  2640 000019D1 8B 82 000007DC                  	MOV	EAX,DWORD [2012+EDX]
  2641 000019D7 89 85 FFFFFBB8                  	MOV	DWORD [-1096+EBP],EAX
  2642 000019DD 8D 85 FFFFFBA4                  	LEA	EAX,DWORD [-1116+EBP]
  2643 000019E3 50                              	PUSH	EAX
  2644 000019E4 E8 [00000000]                   	CALL	_get_newfdata
  2645 000019E9 FF B5 FFFFFB9C                  	PUSH	DWORD [-1124+EBP]
  2646 000019EF 8D 70 01                        	LEA	ESI,DWORD [1+EAX]
  2647 000019F2 89 C7                           	MOV	EDI,EAX
  2648 000019F4 56                              	PUSH	ESI
  2649 000019F5 E8 [00000000]                   	CALL	_strcpy
  2650 000019FA 56                              	PUSH	ESI
  2651 000019FB 68 [0000063C]                   	PUSH	LC91
  2652 00001A00 53                              	PUSH	EBX
  2653 00001A01 E8 [00000000]                   	CALL	_sprintf
  2654 00001A06 53                              	PUSH	EBX
  2655 00001A07 E8 FFFFE5F4                     	CALL	_debug_print
  2656 00001A0C FF B5 FFFFFB98                  	PUSH	DWORD [-1128+EBP]
  2657 00001A12 68 [00000659]                   	PUSH	LC92
  2658 00001A17 53                              	PUSH	EBX
  2659 00001A18 E8 [00000000]                   	CALL	_sprintf
  2660 00001A1D 83 C4 28                        	ADD	ESP,40
  2661 00001A20 53                              	PUSH	EBX
  2662 00001A21 E8 FFFFE5DA                     	CALL	_debug_print
  2663 00001A26 6A 32                           	PUSH	50
  2664 00001A28 FF B5 FFFFFBA0                  	PUSH	DWORD [-1120+EBP]
  2665 00001A2E 56                              	PUSH	ESI
  2666 00001A2F E8 [00000000]                   	CALL	_myfinfo_search
  2667 00001A34 50                              	PUSH	EAX
  2668 00001A35 68 [00000679]                   	PUSH	LC93
  2669 00001A3A 53                              	PUSH	EBX
  2670 00001A3B E8 [00000000]                   	CALL	_sprintf
  2671 00001A40 53                              	PUSH	EBX
  2672 00001A41 E8 FFFFE5BA                     	CALL	_debug_print
  2673 00001A46 83 C4 20                        	ADD	ESP,32
  2674 00001A49 C6 07 01                        	MOV	BYTE [EDI],1
  2675 00001A4C 89 7F 10                        	MOV	DWORD [16+EDI],EDI
  2676 00001A4F 8B 8D FFFFFBA0                  	MOV	ECX,DWORD [-1120+EBP]
  2677 00001A55 8B 81 000007DC                  	MOV	EAX,DWORD [2012+ECX]
  2678 00001A5B 89 47 14                        	MOV	DWORD [20+EDI],EAX
  2679 00001A5E 8B 85 FFFFFB98                  	MOV	EAX,DWORD [-1128+EBP]
  2680 00001A64 89 78 24                        	MOV	DWORD [36+EAX],EDI
  2681 00001A67 8D 45 A4                        	LEA	EAX,DWORD [-92+EBP]
  2682 00001A6A 50                              	PUSH	EAX
  2683 00001A6B 68 [00000695]                   	PUSH	LC94
  2684 00001A70 53                              	PUSH	EBX
  2685 00001A71 E8 [00000000]                   	CALL	_sprintf
  2686 00001A76 53                              	PUSH	EBX
  2687 00001A77 FF 75 08                        	PUSH	DWORD [8+EBP]
  2688 00001A7A E8 FFFFEC46                     	CALL	_cons_putstr
  2689 00001A7F FF B5 FFFFFB98                  	PUSH	DWORD [-1128+EBP]
  2690 00001A85 68 [000006B2]                   	PUSH	LC95
  2691 00001A8A 53                              	PUSH	EBX
  2692 00001A8B E8 [00000000]                   	CALL	_sprintf
  2693 00001A90 83 C4 20                        	ADD	ESP,32
  2694 00001A93 53                              	PUSH	EBX
  2695 00001A94 FF 75 08                        	PUSH	DWORD [8+EBP]
  2696 00001A97 E8 FFFFEC29                     	CALL	_cons_putstr
  2697 00001A9C 8B 8D FFFFFBA0                  	MOV	ECX,DWORD [-1120+EBP]
  2698 00001AA2 8B 95 FFFFFB94                  	MOV	EDX,DWORD [-1132+EBP]
  2699 00001AA8 0F B6 44 11 0B                  	MOVZX	EAX,BYTE [11+ECX+EDX*1]
  2700 00001AAD 50                              	PUSH	EAX
  2701 00001AAE 68 [000006C2]                   	PUSH	LC96
  2702 00001AB3 53                              	PUSH	EBX
  2703 00001AB4 E8 [00000000]                   	CALL	_sprintf
  2704 00001AB9 53                              	PUSH	EBX
  2705 00001ABA FF 75 08                        	PUSH	DWORD [8+EBP]
  2706 00001ABD E8 FFFFEC03                     	CALL	_cons_putstr
  2707 00001AC2 E9 FFFFFE68                     	JMP	L476
  2708 00001AC7                                 L477:
  2709 00001AC7 83 F9 08                        	CMP	ECX,8
  2710 00001ACA 0F 8F FFFFFDE5                  	JG	L445
  2711 00001AD0 B9 00000008                     	MOV	ECX,8
  2712 00001AD5 E9 FFFFFDEE                     	JMP	L442
  2713 00001ADA                                 L475:
  2714 00001ADA 68 [000006D4]                   	PUSH	LC88
  2715 00001ADF 8D 5D B4                        	LEA	EBX,DWORD [-76+EBP]
  2716 00001AE2 53                              	PUSH	EBX
  2717 00001AE3 E8 [00000000]                   	CALL	_sprintf
  2718 00001AE8 53                              	PUSH	EBX
  2719 00001AE9 FF 75 08                        	PUSH	DWORD [8+EBP]
  2720 00001AEC E8 FFFFEBD4                     	CALL	_cons_putstr
  2721 00001AF1 68 [000006FB]                   	PUSH	LC89
  2722 00001AF6 53                              	PUSH	EBX
  2723 00001AF7 E8 [00000000]                   	CALL	_sprintf
  2724 00001AFC 53                              	PUSH	EBX
  2725 00001AFD FF 75 08                        	PUSH	DWORD [8+EBP]
  2726 00001B00 E8 FFFFEBC0                     	CALL	_cons_putstr
  2727 00001B05 83 C4 20                        	ADD	ESP,32
  2728 00001B08 E9 FFFFFE22                     	JMP	L476
  2729                                          [SECTION .data]
  2730 00000726                                 LC97:
  2731 00000726 20 20 20 20 6C 6F 67 20 63 6F   	DB	"    log cons",0x0A,"mem:%d %d",0x0A,"sht:%d %d",0x0A,0x00
       00000730 6E 73 0A 6D 65 6D 3A 25 64 20 
       0000073A 25 64 0A 73 68 74 3A 25 64 20 
       00000744 25 64 0A 00 
  2732                                          [SECTION .text]
  2733 00001B0D                                 	GLOBAL	_cmd_setlog
  2734 00001B0D                                 _cmd_setlog:
  2735 00001B0D 55                              	PUSH	EBP
  2736 00001B0E 89 E5                           	MOV	EBP,ESP
  2737 00001B10 53                              	PUSH	EBX
  2738 00001B11 83 EC 70                        	SUB	ESP,112
  2739 00001B14 8B 45 08                        	MOV	EAX,DWORD [8+EBP]
  2740 00001B17 8D 5D 8C                        	LEA	EBX,DWORD [-116+EBP]
  2741 00001B1A A3 [00001B48]                   	MOV	DWORD [_log],EAX
  2742 00001B1F FF 30                           	PUSH	DWORD [EAX]
  2743 00001B21 FF 30                           	PUSH	DWORD [EAX]
  2744 00001B23 8D 45 08                        	LEA	EAX,DWORD [8+EBP]
  2745 00001B26 50                              	PUSH	EAX
  2746 00001B27 68 [00001B48]                   	PUSH	_log
  2747 00001B2C 68 [00000726]                   	PUSH	LC97
  2748 00001B31 53                              	PUSH	EBX
  2749 00001B32 E8 [00000000]                   	CALL	_sprintf
  2750 00001B37 53                              	PUSH	EBX
  2751 00001B38 FF 35 [00001B48]                	PUSH	DWORD [_log]
  2752 00001B3E E8 FFFFEBB0                     	CALL	_cons_putstr0
  2753 00001B43 83 C4 20                        	ADD	ESP,32
  2754 00001B46 FF 35 [00001B48]                	PUSH	DWORD [_log]
  2755 00001B4C E8 FFFFEA4F                     	CALL	_cons_newline
  2756 00001B51 8B 5D FC                        	MOV	EBX,DWORD [-4+EBP]
  2757 00001B54 C9                              	LEAVE
  2758 00001B55 C3                              	RET
  2759                                          [SECTION .data]
  2760 00000748                                 LC98:
  2761 00000748 66 72 65 65 73 20 20 25 64 0A   	DB	"frees  %d",0x0A,0x00
       00000752 00 
  2762 00000753                                 LC100:
  2763 00000753 74 6F 74 61 6C 20 20 20 25 64   	DB	"total   %dMB",0x0A,"free %dKB",0x0A,0x0A,0x00
       0000075D 4D 42 0A 66 72 65 65 20 25 64 
       00000767 4B 42 0A 0A 00 
  2764 0000076C                                 LC99:
  2765 0000076C 28 25 64 29 20 73 69 7A 65 3D   	DB	"(%d) size=%dKB addr=0x%x",0x0A,0x00
       00000776 25 64 4B 42 20 61 64 64 72 3D 
       00000780 30 78 25 78 0A 00 
  2766                                          [SECTION .text]
  2767 00001B56                                 	GLOBAL	_cmd_mem
  2768 00001B56                                 _cmd_mem:
  2769 00001B56 55                              	PUSH	EBP
  2770 00001B57 89 E5                           	MOV	EBP,ESP
  2771 00001B59 57                              	PUSH	EDI
  2772 00001B5A 56                              	PUSH	ESI
  2773 00001B5B 31 F6                           	XOR	ESI,ESI
  2774 00001B5D 53                              	PUSH	EBX
  2775 00001B5E 8D 5D B4                        	LEA	EBX,DWORD [-76+EBP]
  2776 00001B61 83 EC 40                        	SUB	ESP,64
  2777 00001B64 FF 35 003C0000                  	PUSH	DWORD [3932160]
  2778 00001B6A 68 [00000748]                   	PUSH	LC98
  2779 00001B6F 8B 7D 08                        	MOV	EDI,DWORD [8+EBP]
  2780 00001B72 53                              	PUSH	EBX
  2781 00001B73 E8 [00000000]                   	CALL	_sprintf
  2782 00001B78 53                              	PUSH	EBX
  2783 00001B79 57                              	PUSH	EDI
  2784 00001B7A E8 FFFFEB74                     	CALL	_cons_putstr0
  2785 00001B7F 83 C4 14                        	ADD	ESP,20
  2786 00001B82 3B 35 003C0000                  	CMP	ESI,DWORD [3932160]
  2787 00001B88 72 3B                           	JB	L484
  2788 00001B8A                                 L486:
  2789 00001B8A 68 003C0000                     	PUSH	3932160
  2790 00001B8F E8 [00000000]                   	CALL	_memman_total
  2791 00001B94 BA 00100000                     	MOV	EDX,1048576
  2792 00001B99 C1 E8 0A                        	SHR	EAX,10
  2793 00001B9C 89 D3                           	MOV	EBX,EDX
  2794 00001B9E 89 04 24                        	MOV	DWORD [ESP],EAX
  2795 00001BA1 8B 45 0C                        	MOV	EAX,DWORD [12+EBP]
  2796 00001BA4 99                              	CDQ
  2797 00001BA5 F7 FB                           	IDIV	EBX
  2798 00001BA7 50                              	PUSH	EAX
  2799 00001BA8 8D 5D B4                        	LEA	EBX,DWORD [-76+EBP]
  2800 00001BAB 68 [00000753]                   	PUSH	LC100
  2801 00001BB0 53                              	PUSH	EBX
  2802 00001BB1 E8 [00000000]                   	CALL	_sprintf
  2803 00001BB6 53                              	PUSH	EBX
  2804 00001BB7 57                              	PUSH	EDI
  2805 00001BB8 E8 FFFFEB36                     	CALL	_cons_putstr0
  2806 00001BBD 8D 65 F4                        	LEA	ESP,DWORD [-12+EBP]
  2807 00001BC0 5B                              	POP	EBX
  2808 00001BC1 5E                              	POP	ESI
  2809 00001BC2 5F                              	POP	EDI
  2810 00001BC3 5D                              	POP	EBP
  2811 00001BC4 C3                              	RET
  2812 00001BC5                                 L484:
  2813 00001BC5 FF 34 F5 003C0010               	PUSH	DWORD [3932176+ESI*8]
  2814 00001BCC 8B 04 F5 003C0014               	MOV	EAX,DWORD [3932180+ESI*8]
  2815 00001BD3 8D 5D B4                        	LEA	EBX,DWORD [-76+EBP]
  2816 00001BD6 C1 E8 0A                        	SHR	EAX,10
  2817 00001BD9 50                              	PUSH	EAX
  2818 00001BDA 56                              	PUSH	ESI
  2819 00001BDB 46                              	INC	ESI
  2820 00001BDC 68 [0000076C]                   	PUSH	LC99
  2821 00001BE1 53                              	PUSH	EBX
  2822 00001BE2 E8 [00000000]                   	CALL	_sprintf
  2823 00001BE7 53                              	PUSH	EBX
  2824 00001BE8 57                              	PUSH	EDI
  2825 00001BE9 E8 FFFFEAD7                     	CALL	_cons_putstr
  2826 00001BEE 83 C4 1C                        	ADD	ESP,28
  2827 00001BF1 3B 35 003C0000                  	CMP	ESI,DWORD [3932160]
  2828 00001BF7 72 CC                           	JB	L484
  2829 00001BF9 EB 8F                           	JMP	L486
  2830 00001BFB                                 	GLOBAL	_cmd_memmap
  2831 00001BFB                                 _cmd_memmap:
  2832 00001BFB 55                              	PUSH	EBP
  2833 00001BFC 89 E5                           	MOV	EBP,ESP
  2834 00001BFE 53                              	PUSH	EBX
  2835 00001BFF 83 EC 40                        	SUB	ESP,64
  2836 00001C02 68 003C0000                     	PUSH	3932160
  2837 00001C07 E8 [00000000]                   	CALL	_memman_total
  2838 00001C0C BA 00100000                     	MOV	EDX,1048576
  2839 00001C11 C1 E8 0A                        	SHR	EAX,10
  2840 00001C14 89 D3                           	MOV	EBX,EDX
  2841 00001C16 89 04 24                        	MOV	DWORD [ESP],EAX
  2842 00001C19 8B 45 0C                        	MOV	EAX,DWORD [12+EBP]
  2843 00001C1C 99                              	CDQ
  2844 00001C1D F7 FB                           	IDIV	EBX
  2845 00001C1F 50                              	PUSH	EAX
  2846 00001C20 8D 5D BC                        	LEA	EBX,DWORD [-68+EBP]
  2847 00001C23 68 [00000753]                   	PUSH	LC100
  2848 00001C28 53                              	PUSH	EBX
  2849 00001C29 E8 [00000000]                   	CALL	_sprintf
  2850 00001C2E 53                              	PUSH	EBX
  2851 00001C2F FF 75 08                        	PUSH	DWORD [8+EBP]
  2852 00001C32 E8 FFFFEABC                     	CALL	_cons_putstr0
  2853 00001C37 8B 5D FC                        	MOV	EBX,DWORD [-4+EBP]
  2854 00001C3A C9                              	LEAVE
  2855 00001C3B C3                              	RET
  2856                                          [SECTION .data]
  2857 00000786                                 LC101:
  2858 00000786 6C 6F 67 20 74 65 73 74 00      	DB	"log test",0x00
  2859                                          [SECTION .text]
  2860 00001C3C                                 	GLOBAL	_cmd_log
  2861 00001C3C                                 _cmd_log:
  2862 00001C3C 55                              	PUSH	EBP
  2863 00001C3D 89 E5                           	MOV	EBP,ESP
  2864 00001C3F 53                              	PUSH	EBX
  2865 00001C40 83 EC 70                        	SUB	ESP,112
  2866 00001C43 8D 5D 8C                        	LEA	EBX,DWORD [-116+EBP]
  2867 00001C46 68 [00000786]                   	PUSH	LC101
  2868 00001C4B 53                              	PUSH	EBX
  2869 00001C4C E8 [00000000]                   	CALL	_sprintf
  2870 00001C51 53                              	PUSH	EBX
  2871 00001C52 FF 35 [00001B48]                	PUSH	DWORD [_log]
  2872 00001C58 E8 FFFFEA96                     	CALL	_cons_putstr0
  2873 00001C5D FF 35 [00001B48]                	PUSH	DWORD [_log]
  2874 00001C63 E8 FFFFE938                     	CALL	_cons_newline
  2875 00001C68 8B 5D FC                        	MOV	EBX,DWORD [-4+EBP]
  2876 00001C6B C9                              	LEAVE
  2877 00001C6C C3                              	RET
  2878                                          [SECTION .data]
  2879 0000078F                                 LC102:
  2880 0000078F 66 69 6C 65 6E 61 6D 65 3D 25   	DB	"filename=%s",0x0A,0x00
       00000799 73 0A 00 
  2881 0000079C                                 LC103:
  2882 0000079C 46 69 6C 65 20 6E 6F 74 20 66   	DB	"File not found.",0x0A,0x00
       000007A6 6F 75 6E 64 2E 0A 00 
  2883                                          [SECTION .text]
  2884 00001C6D                                 	GLOBAL	_cmd_cat
  2885 00001C6D                                 _cmd_cat:
  2886 00001C6D 55                              	PUSH	EBP
  2887 00001C6E 89 E5                           	MOV	EBP,ESP
  2888 00001C70 57                              	PUSH	EDI
  2889 00001C71 56                              	PUSH	ESI
  2890 00001C72 53                              	PUSH	EBX
  2891 00001C73 8D 5D D4                        	LEA	EBX,DWORD [-44+EBP]
  2892 00001C76 83 EC 20                        	SUB	ESP,32
  2893 00001C79 8B 7D 08                        	MOV	EDI,DWORD [8+EBP]
  2894 00001C7C 8B 45 10                        	MOV	EAX,DWORD [16+EBP]
  2895 00001C7F 6A 32                           	PUSH	50
  2896 00001C81 83 C0 04                        	ADD	EAX,4
  2897 00001C84 FF 77 14                        	PUSH	DWORD [20+EDI]
  2898 00001C87 50                              	PUSH	EAX
  2899 00001C88 E8 [00000000]                   	CALL	_myfinfo_search
  2900 00001C8D 89 C6                           	MOV	ESI,EAX
  2901 00001C8F 50                              	PUSH	EAX
  2902 00001C90 68 [0000078F]                   	PUSH	LC102
  2903 00001C95 53                              	PUSH	EBX
  2904 00001C96 E8 [00000000]                   	CALL	_sprintf
  2905 00001C9B 53                              	PUSH	EBX
  2906 00001C9C 57                              	PUSH	EDI
  2907 00001C9D E8 FFFFEA23                     	CALL	_cons_putstr
  2908 00001CA2 83 C4 20                        	ADD	ESP,32
  2909 00001CA5 85 F6                           	TEST	ESI,ESI
  2910 00001CA7 74 51                           	JE	L490
  2911 00001CA9 FF 76 1C                        	PUSH	DWORD [28+ESI]
  2912 00001CAC 68 003C0000                     	PUSH	3932160
  2913 00001CB1 E8 [00000000]                   	CALL	_memman_alloc_4k
  2914 00001CB6 68 00103E00                     	PUSH	1064448
  2915 00001CBB FF 75 0C                        	PUSH	DWORD [12+EBP]
  2916 00001CBE 50                              	PUSH	EAX
  2917 00001CBF 89 C3                           	MOV	EBX,EAX
  2918 00001CC1 FF 76 1C                        	PUSH	DWORD [28+ESI]
  2919 00001CC4 0F B7 46 1A                     	MOVZX	EAX,WORD [26+ESI]
  2920 00001CC8 50                              	PUSH	EAX
  2921 00001CC9 E8 [00000000]                   	CALL	_file_loadfile
  2922 00001CCE FF 76 1C                        	PUSH	DWORD [28+ESI]
  2923 00001CD1 53                              	PUSH	EBX
  2924 00001CD2 57                              	PUSH	EDI
  2925 00001CD3 E8 FFFFEA49                     	CALL	_cons_putstr1
  2926 00001CD8 83 C4 28                        	ADD	ESP,40
  2927 00001CDB FF 76 1C                        	PUSH	DWORD [28+ESI]
  2928 00001CDE 53                              	PUSH	EBX
  2929 00001CDF 68 003C0000                     	PUSH	3932160
  2930 00001CE4 E8 [00000000]                   	CALL	_memman_free_4k
  2931 00001CE9 83 C4 0C                        	ADD	ESP,12
  2932 00001CEC                                 L491:
  2933 00001CEC 57                              	PUSH	EDI
  2934 00001CED E8 FFFFE8AE                     	CALL	_cons_newline
  2935 00001CF2 8D 65 F4                        	LEA	ESP,DWORD [-12+EBP]
  2936 00001CF5 5B                              	POP	EBX
  2937 00001CF6 5E                              	POP	ESI
  2938 00001CF7 5F                              	POP	EDI
  2939 00001CF8 5D                              	POP	EBP
  2940 00001CF9 C3                              	RET
  2941 00001CFA                                 L490:
  2942 00001CFA 68 [0000079C]                   	PUSH	LC103
  2943 00001CFF 57                              	PUSH	EDI
  2944 00001D00 E8 FFFFE9EE                     	CALL	_cons_putstr0
  2945 00001D05 5E                              	POP	ESI
  2946 00001D06 58                              	POP	EAX
  2947 00001D07 EB E3                           	JMP	L491
  2948 00001D09                                 	GLOBAL	_cmd_cls
  2949 00001D09                                 _cmd_cls:
  2950 00001D09 55                              	PUSH	EBP
  2951 00001D0A 89 E5                           	MOV	EBP,ESP
  2952 00001D0C 57                              	PUSH	EDI
  2953 00001D0D 56                              	PUSH	ESI
  2954 00001D0E BE 0000001C                     	MOV	ESI,28
  2955 00001D13 53                              	PUSH	EBX
  2956 00001D14 50                              	PUSH	EAX
  2957 00001D15 50                              	PUSH	EAX
  2958 00001D16 8B 45 08                        	MOV	EAX,DWORD [8+EBP]
  2959 00001D19 8B 18                           	MOV	EBX,DWORD [EAX]
  2960 00001D1B 8B 43 08                        	MOV	EAX,DWORD [8+EBX]
  2961 00001D1E 8B 53 04                        	MOV	EDX,DWORD [4+EBX]
  2962 00001D21 83 EA 10                        	SUB	EDX,16
  2963 00001D24 89 55 F0                        	MOV	DWORD [-16+EBP],EDX
  2964 00001D27 8D 50 DB                        	LEA	EDX,DWORD [-37+EAX]
  2965 00001D2A 83 E8 09                        	SUB	EAX,9
  2966 00001D2D 89 55 EC                        	MOV	DWORD [-20+EBP],EDX
  2967 00001D30 39 C6                           	CMP	ESI,EAX
  2968 00001D32 7D 2E                           	JGE	L504
  2969 00001D34                                 L502:
  2970 00001D34 8B 7D F0                        	MOV	EDI,DWORD [-16+EBP]
  2971 00001D37 B9 00000008                     	MOV	ECX,8
  2972 00001D3C 83 C7 08                        	ADD	EDI,8
  2973 00001D3F 39 F9                           	CMP	ECX,EDI
  2974 00001D41 7D 14                           	JGE	L506
  2975 00001D43                                 L501:
  2976 00001D43 89 F0                           	MOV	EAX,ESI
  2977 00001D45 8B 13                           	MOV	EDX,DWORD [EBX]
  2978 00001D47 0F AF 43 04                     	IMUL	EAX,DWORD [4+EBX]
  2979 00001D4B 8D 04 08                        	LEA	EAX,DWORD [EAX+ECX*1]
  2980 00001D4E 41                              	INC	ECX
  2981 00001D4F 39 F9                           	CMP	ECX,EDI
  2982 00001D51 C6 04 10 00                     	MOV	BYTE [EAX+EDX*1],0
  2983 00001D55 7C EC                           	JL	L501
  2984 00001D57                                 L506:
  2985 00001D57 8B 45 EC                        	MOV	EAX,DWORD [-20+EBP]
  2986 00001D5A 46                              	INC	ESI
  2987 00001D5B 83 C0 1C                        	ADD	EAX,28
  2988 00001D5E 39 C6                           	CMP	ESI,EAX
  2989 00001D60 7C D2                           	JL	L502
  2990 00001D62                                 L504:
  2991 00001D62 8B 45 EC                        	MOV	EAX,DWORD [-20+EBP]
  2992 00001D65 83 C0 1C                        	ADD	EAX,28
  2993 00001D68 50                              	PUSH	EAX
  2994 00001D69 8B 45 F0                        	MOV	EAX,DWORD [-16+EBP]
  2995 00001D6C 83 C0 08                        	ADD	EAX,8
  2996 00001D6F 50                              	PUSH	EAX
  2997 00001D70 6A 1C                           	PUSH	28
  2998 00001D72 6A 08                           	PUSH	8
  2999 00001D74 53                              	PUSH	EBX
  3000 00001D75 E8 [00000000]                   	CALL	_sheet_refresh
  3001 00001D7A 8B 45 08                        	MOV	EAX,DWORD [8+EBP]
  3002 00001D7D C7 40 08 0000001C               	MOV	DWORD [8+EAX],28
  3003 00001D84 8D 65 F4                        	LEA	ESP,DWORD [-12+EBP]
  3004 00001D87 5B                              	POP	EBX
  3005 00001D88 5E                              	POP	ESI
  3006 00001D89 5F                              	POP	EDI
  3007 00001D8A 5D                              	POP	EBP
  3008 00001D8B C3                              	RET
  3009 00001D8C                                 	GLOBAL	_cmd_logcls
  3010 00001D8C                                 _cmd_logcls:
  3011 00001D8C 55                              	PUSH	EBP
  3012 00001D8D 89 E5                           	MOV	EBP,ESP
  3013 00001D8F 57                              	PUSH	EDI
  3014 00001D90 56                              	PUSH	ESI
  3015 00001D91 BE 0000001C                     	MOV	ESI,28
  3016 00001D96 53                              	PUSH	EBX
  3017 00001D97 50                              	PUSH	EAX
  3018 00001D98 50                              	PUSH	EAX
  3019 00001D99 A1 [00001B48]                   	MOV	EAX,DWORD [_log]
  3020 00001D9E 8B 18                           	MOV	EBX,DWORD [EAX]
  3021 00001DA0 8B 43 04                        	MOV	EAX,DWORD [4+EBX]
  3022 00001DA3 83 E8 10                        	SUB	EAX,16
  3023 00001DA6 89 45 F0                        	MOV	DWORD [-16+EBP],EAX
  3024 00001DA9 8B 43 08                        	MOV	EAX,DWORD [8+EBX]
  3025 00001DAC 8D 50 DB                        	LEA	EDX,DWORD [-37+EAX]
  3026 00001DAF 83 E8 09                        	SUB	EAX,9
  3027 00001DB2 89 55 EC                        	MOV	DWORD [-20+EBP],EDX
  3028 00001DB5 39 C6                           	CMP	ESI,EAX
  3029 00001DB7 7D 2E                           	JGE	L519
  3030 00001DB9                                 L517:
  3031 00001DB9 8B 7D F0                        	MOV	EDI,DWORD [-16+EBP]
  3032 00001DBC B9 00000008                     	MOV	ECX,8
  3033 00001DC1 83 C7 08                        	ADD	EDI,8
  3034 00001DC4 39 F9                           	CMP	ECX,EDI
  3035 00001DC6 7D 14                           	JGE	L521
  3036 00001DC8                                 L516:
  3037 00001DC8 89 F0                           	MOV	EAX,ESI
  3038 00001DCA 8B 13                           	MOV	EDX,DWORD [EBX]
  3039 00001DCC 0F AF 43 04                     	IMUL	EAX,DWORD [4+EBX]
  3040 00001DD0 8D 04 08                        	LEA	EAX,DWORD [EAX+ECX*1]
  3041 00001DD3 41                              	INC	ECX
  3042 00001DD4 39 F9                           	CMP	ECX,EDI
  3043 00001DD6 C6 04 10 00                     	MOV	BYTE [EAX+EDX*1],0
  3044 00001DDA 7C EC                           	JL	L516
  3045 00001DDC                                 L521:
  3046 00001DDC 8B 45 EC                        	MOV	EAX,DWORD [-20+EBP]
  3047 00001DDF 46                              	INC	ESI
  3048 00001DE0 83 C0 1C                        	ADD	EAX,28
  3049 00001DE3 39 C6                           	CMP	ESI,EAX
  3050 00001DE5 7C D2                           	JL	L517
  3051 00001DE7                                 L519:
  3052 00001DE7 8B 45 EC                        	MOV	EAX,DWORD [-20+EBP]
  3053 00001DEA 83 C0 1C                        	ADD	EAX,28
  3054 00001DED 50                              	PUSH	EAX
  3055 00001DEE 8B 45 F0                        	MOV	EAX,DWORD [-16+EBP]
  3056 00001DF1 83 C0 08                        	ADD	EAX,8
  3057 00001DF4 50                              	PUSH	EAX
  3058 00001DF5 6A 1C                           	PUSH	28
  3059 00001DF7 6A 08                           	PUSH	8
  3060 00001DF9 53                              	PUSH	EBX
  3061 00001DFA E8 [00000000]                   	CALL	_sheet_refresh
  3062 00001DFF A1 [00001B48]                   	MOV	EAX,DWORD [_log]
  3063 00001E04 C7 40 08 0000001C               	MOV	DWORD [8+EAX],28
  3064 00001E0B 8D 65 F4                        	LEA	ESP,DWORD [-12+EBP]
  3065 00001E0E 5B                              	POP	EBX
  3066 00001E0F 5E                              	POP	ESI
  3067 00001E10 5F                              	POP	EDI
  3068 00001E11 5D                              	POP	EBP
  3069 00001E12 C3                              	RET
  3070                                          [SECTION .data]
  3071 000007AD                                 LC104:
  3072 000007AD 42 4C 4F 43 4B 5F 53 49 5A 45   	DB	"BLOCK_SIZE = %d",0x0A,0x00
       000007B7 20 3D 20 25 64 0A 00 
  3073 000007BE                                 LC105:
  3074 000007BE 73 69 7A 65 6F 66 28 73 74 72   	DB	"sizeof(struct HEAD) = %d",0x0A,0x00
       000007C8 75 63 74 20 48 45 41 44 29 20 
       000007D2 3D 20 25 64 0A 00 
  3075 000007D8                                 LC106:
  3076 000007D8 42 4F 44 59 5F 53 49 5A 45 20   	DB	"BODY_SIZE = BLOCK_SIZE - sizeof(struct HEAD) = %d",0x0A,0x00
       000007E2 3D 20 42 4C 4F 43 4B 5F 53 49 
       000007EC 5A 45 20 2D 20 73 69 7A 65 6F 
       000007F6 66 28 73 74 72 75 63 74 20 48 
       00000800 45 41 44 29 20 3D 20 25 64 0A 
       0000080A 00 
  3077                                          [SECTION .text]
  3078 00001E13                                 	GLOBAL	_cmd_test
  3079 00001E13                                 _cmd_test:
  3080 00001E13 55                              	PUSH	EBP
  3081 00001E14 89 E5                           	MOV	EBP,ESP
  3082 00001E16 53                              	PUSH	EBX
  3083 00001E17 83 EC 70                        	SUB	ESP,112
  3084 00001E1A 8D 5D 8C                        	LEA	EBX,DWORD [-116+EBP]
  3085 00001E1D 68 00000400                     	PUSH	1024
  3086 00001E22 68 [000007AD]                   	PUSH	LC104
  3087 00001E27 53                              	PUSH	EBX
  3088 00001E28 E8 [00000000]                   	CALL	_sprintf
  3089 00001E2D 53                              	PUSH	EBX
  3090 00001E2E E8 FFFFE1CD                     	CALL	_debug_print
  3091 00001E33 6A 1C                           	PUSH	28
  3092 00001E35 68 [000007BE]                   	PUSH	LC105
  3093 00001E3A 53                              	PUSH	EBX
  3094 00001E3B E8 [00000000]                   	CALL	_sprintf
  3095 00001E40 53                              	PUSH	EBX
  3096 00001E41 E8 FFFFE1BA                     	CALL	_debug_print
  3097 00001E46 83 C4 20                        	ADD	ESP,32
  3098 00001E49 68 000003E4                     	PUSH	996
  3099 00001E4E 68 [000007D8]                   	PUSH	LC106
  3100 00001E53 53                              	PUSH	EBX
  3101 00001E54 E8 [00000000]                   	CALL	_sprintf
  3102 00001E59 53                              	PUSH	EBX
  3103 00001E5A E8 FFFFE1A1                     	CALL	_debug_print
  3104 00001E5F FF 75 08                        	PUSH	DWORD [8+EBP]
  3105 00001E62 E8 FFFFE739                     	CALL	_cons_newline
  3106 00001E67 8B 5D FC                        	MOV	EBX,DWORD [-4+EBP]
  3107 00001E6A C9                              	LEAVE
  3108 00001E6B C3                              	RET
  3109                                          [SECTION .data]
  3110 0000080B                                 LC107:
  3111 0000080B 09 66 69 6E 66 6F 20 61 64 64   	DB	0x09,"finfo addr = 0x%08x",0x0A,0x00
       00000815 72 20 3D 20 30 78 25 30 38 78 
       0000081F 0A 00 
  3112 00000821                                 LC110:
  3113 00000821 09 6E 61 6D 65 3D 25 73 5B 45   	DB	0x09,"name=%s[EOF]",0x0A,0x09,"ext=%s[EOF]",0x0A,0x09,"clustno=%d",0x0A,0x09,"date=%d",0x0A,0x09,"size=%d[byte]",0x0A,0x09,"time=%d",0x0A,0x09,"type=0x%02x",0x0A,0x00
       0000082B 4F 46 5D 0A 09 65 78 74 3D 25 
       00000835 73 5B 45 4F 46 5D 0A 09 63 6C 
       0000083F 75 73 74 6E 6F 3D 25 64 0A 09 
       00000849 64 61 74 65 3D 25 64 0A 09 73 
       00000853 69 7A 65 3D 25 64 5B 62 79 74 
       0000085D 65 5D 0A 09 74 69 6D 65 3D 25 
       00000867 64 0A 09 74 79 70 65 3D 30 78 
       00000871 25 30 32 78 0A 00 
  3114 00000877                                 LC111:
  3115 00000877 09 64 65 74 61 69 6C 20 66 69   	DB	0x09,"detail file type: ",0x00
       00000881 6C 65 20 74 79 70 65 3A 20 00 
  3116 0000088B                                 LC116:
  3117 0000088B 25 73 0A 00                     	DB	"%s",0x0A,0x00
  3118 0000088F                                 LC115:
  3119 0000088F 25 73 20 6F 74 68 65 72 20 00   	DB	"%s other ",0x00
  3120 00000899                                 LC114:
  3121 00000899 25 73 20 73 79 73 74 65 6D 20   	DB	"%s system ",0x00
       000008A3 00 
  3122 000008A4                                 LC113:
  3123 000008A4 25 73 20 66 69 6C 65 20 00      	DB	"%s file ",0x00
  3124 000008AD                                 LC112:
  3125 000008AD 25 73 20 64 69 72 65 63 74 6F   	DB	"%s directory/readonly ",0x00
       000008B7 72 79 2F 72 65 61 64 6F 6E 6C 
       000008C1 79 20 00 
  3126 000008C4                                 LC108:
  3127 000008C4 09 25 73 20 77 61 73 20 6E 6F   	DB	0x09,"%s was not found.",0x0A,0x00
       000008CE 74 20 66 6F 75 6E 64 2E 0A 00 
  3128 000008D8                                 LC109:
  3129 000008D8 09 66 69 6E 66 6F 20 6E 75 6D   	DB	0x09,"finfo number was %d.",0x0A,0x00
       000008E2 62 65 72 20 77 61 73 20 25 64 
       000008EC 2E 0A 00 
  3130                                          [SECTION .text]
  3131 00001E6C                                 	GLOBAL	_cmd_show
  3132 00001E6C                                 _cmd_show:
  3133 00001E6C 55                              	PUSH	EBP
  3134 00001E6D 89 E5                           	MOV	EBP,ESP
  3135 00001E6F 57                              	PUSH	EDI
  3136 00001E70 56                              	PUSH	ESI
  3137 00001E71 53                              	PUSH	EBX
  3138 00001E72 8D B5 FFFFFF54                  	LEA	ESI,DWORD [-172+EBP]
  3139 00001E78 81 EC 000000A0                  	SUB	ESP,160
  3140 00001E7E 8B 45 08                        	MOV	EAX,DWORD [8+EBP]
  3141 00001E81 8B 7D 0C                        	MOV	EDI,DWORD [12+EBP]
  3142 00001E84 6A 32                           	PUSH	50
  3143 00001E86 83 C7 05                        	ADD	EDI,5
  3144 00001E89 FF 70 14                        	PUSH	DWORD [20+EAX]
  3145 00001E8C 57                              	PUSH	EDI
  3146 00001E8D E8 [00000000]                   	CALL	_myfinfo_search
  3147 00001E92 89 C3                           	MOV	EBX,EAX
  3148 00001E94 50                              	PUSH	EAX
  3149 00001E95 68 [0000080B]                   	PUSH	LC107
  3150 00001E9A 56                              	PUSH	ESI
  3151 00001E9B E8 [00000000]                   	CALL	_sprintf
  3152 00001EA0 56                              	PUSH	ESI
  3153 00001EA1 FF 75 08                        	PUSH	DWORD [8+EBP]
  3154 00001EA4 E8 FFFFE81C                     	CALL	_cons_putstr
  3155 00001EA9 83 C4 20                        	ADD	ESP,32
  3156 00001EAC 85 DB                           	TEST	EBX,EBX
  3157 00001EAE 0F 84 000000D0                  	JE	L531
  3158 00001EB4 0F B6 43 0B                     	MOVZX	EAX,BYTE [11+EBX]
  3159 00001EB8 50                              	PUSH	EAX
  3160 00001EB9 0F B7 43 16                     	MOVZX	EAX,WORD [22+EBX]
  3161 00001EBD 50                              	PUSH	EAX
  3162 00001EBE FF 73 1C                        	PUSH	DWORD [28+EBX]
  3163 00001EC1 0F B7 43 18                     	MOVZX	EAX,WORD [24+EBX]
  3164 00001EC5 50                              	PUSH	EAX
  3165 00001EC6 0F B7 43 1A                     	MOVZX	EAX,WORD [26+EBX]
  3166 00001ECA 50                              	PUSH	EAX
  3167 00001ECB 8D 43 08                        	LEA	EAX,DWORD [8+EBX]
  3168 00001ECE 50                              	PUSH	EAX
  3169 00001ECF 53                              	PUSH	EBX
  3170 00001ED0 68 [00000821]                   	PUSH	LC110
  3171 00001ED5 56                              	PUSH	ESI
  3172 00001ED6 E8 [00000000]                   	CALL	_sprintf
  3173 00001EDB 83 C4 24                        	ADD	ESP,36
  3174 00001EDE 56                              	PUSH	ESI
  3175 00001EDF FF 75 08                        	PUSH	DWORD [8+EBP]
  3176 00001EE2 E8 FFFFE7DE                     	CALL	_cons_putstr
  3177 00001EE7 8A 5B 0B                        	MOV	BL,BYTE [11+EBX]
  3178 00001EEA 5F                              	POP	EDI
  3179 00001EEB 58                              	POP	EAX
  3180 00001EEC 68 [00000877]                   	PUSH	LC111
  3181 00001EF1 56                              	PUSH	ESI
  3182 00001EF2 E8 [00000000]                   	CALL	_sprintf
  3183 00001EF7 5A                              	POP	EDX
  3184 00001EF8 88 D8                           	MOV	AL,BL
  3185 00001EFA 59                              	POP	ECX
  3186 00001EFB 83 E0 10                        	AND	EAX,16
  3187 00001EFE 84 C0                           	TEST	AL,AL
  3188 00001F00 75 6E                           	JNE	L532
  3189 00001F02                                 L526:
  3190 00001F02 88 D8                           	MOV	AL,BL
  3191 00001F04 83 E0 20                        	AND	EAX,32
  3192 00001F07 84 C0                           	TEST	AL,AL
  3193 00001F09 75 54                           	JNE	L533
  3194 00001F0B                                 L527:
  3195 00001F0B 88 D8                           	MOV	AL,BL
  3196 00001F0D 83 E0 40                        	AND	EAX,64
  3197 00001F10 84 C0                           	TEST	AL,AL
  3198 00001F12 75 3A                           	JNE	L534
  3199 00001F14                                 L528:
  3200 00001F14 84 DB                           	TEST	BL,BL
  3201 00001F16 78 25                           	JS	L535
  3202 00001F18                                 L529:
  3203 00001F18 56                              	PUSH	ESI
  3204 00001F19 68 [0000088B]                   	PUSH	LC116
  3205 00001F1E 56                              	PUSH	ESI
  3206 00001F1F E8 [00000000]                   	CALL	_sprintf
  3207 00001F24 56                              	PUSH	ESI
  3208 00001F25 FF 75 08                        	PUSH	DWORD [8+EBP]
  3209 00001F28 E8 FFFFE7C6                     	CALL	_cons_putstr0
  3210 00001F2D                                 L530:
  3211 00001F2D FF 75 08                        	PUSH	DWORD [8+EBP]
  3212 00001F30 E8 FFFFE66B                     	CALL	_cons_newline
  3213 00001F35 8D 65 F4                        	LEA	ESP,DWORD [-12+EBP]
  3214 00001F38 5B                              	POP	EBX
  3215 00001F39 5E                              	POP	ESI
  3216 00001F3A 5F                              	POP	EDI
  3217 00001F3B 5D                              	POP	EBP
  3218 00001F3C C3                              	RET
  3219 00001F3D                                 L535:
  3220 00001F3D 56                              	PUSH	ESI
  3221 00001F3E 68 [0000088F]                   	PUSH	LC115
  3222 00001F43 56                              	PUSH	ESI
  3223 00001F44 E8 [00000000]                   	CALL	_sprintf
  3224 00001F49 83 C4 0C                        	ADD	ESP,12
  3225 00001F4C EB CA                           	JMP	L529
  3226 00001F4E                                 L534:
  3227 00001F4E 56                              	PUSH	ESI
  3228 00001F4F 68 [00000899]                   	PUSH	LC114
  3229 00001F54 56                              	PUSH	ESI
  3230 00001F55 E8 [00000000]                   	CALL	_sprintf
  3231 00001F5A 83 C4 0C                        	ADD	ESP,12
  3232 00001F5D EB B5                           	JMP	L528
  3233 00001F5F                                 L533:
  3234 00001F5F 56                              	PUSH	ESI
  3235 00001F60 68 [000008A4]                   	PUSH	LC113
  3236 00001F65 56                              	PUSH	ESI
  3237 00001F66 E8 [00000000]                   	CALL	_sprintf
  3238 00001F6B 83 C4 0C                        	ADD	ESP,12
  3239 00001F6E EB 9B                           	JMP	L527
  3240 00001F70                                 L532:
  3241 00001F70 56                              	PUSH	ESI
  3242 00001F71 68 [000008AD]                   	PUSH	LC112
  3243 00001F76 56                              	PUSH	ESI
  3244 00001F77 E8 [00000000]                   	CALL	_sprintf
  3245 00001F7C 83 C4 0C                        	ADD	ESP,12
  3246 00001F7F E9 FFFFFF7E                     	JMP	L526
  3247 00001F84                                 L531:
  3248 00001F84 57                              	PUSH	EDI
  3249 00001F85 68 [000008C4]                   	PUSH	LC108
  3250 00001F8A 56                              	PUSH	ESI
  3251 00001F8B E8 [00000000]                   	CALL	_sprintf
  3252 00001F90 56                              	PUSH	ESI
  3253 00001F91 FF 75 08                        	PUSH	DWORD [8+EBP]
  3254 00001F94 E8 FFFFE72C                     	CALL	_cons_putstr
  3255 00001F99 6A 00                           	PUSH	0
  3256 00001F9B 68 [000008D8]                   	PUSH	LC109
  3257 00001FA0 56                              	PUSH	ESI
  3258 00001FA1 E8 [00000000]                   	CALL	_sprintf
  3259 00001FA6 83 C4 20                        	ADD	ESP,32
  3260 00001FA9 56                              	PUSH	ESI
  3261 00001FAA FF 75 08                        	PUSH	DWORD [8+EBP]
  3262 00001FAD E8 FFFFE713                     	CALL	_cons_putstr
  3263 00001FB2 E9 FFFFFF76                     	JMP	L530
  3264                                          [SECTION .data]
  3265 000008EF                                 LC117:
  3266 000008EF 66 69 6E 66 6F 20 61 64 64 72   	DB	"finfo addr = 0x%08x",0x0A,0x00
       000008F9 20 3D 20 30 78 25 30 38 78 0A 
       00000903 00 
  3267 00000904                                 LC118:
  3268 00000904 66 64 61 74 61 20 61 64 64 72   	DB	"fdata addr = 0x%08x",0x0A,0x00
       0000090E 20 3D 20 30 78 25 30 38 78 0A 
       00000918 00 
  3269 00000919                                 LC119:
  3270 00000919 68 65 61 64 2E 64 61 74 61 5F   	DB	"head.data_addr=0x%08x",0x0A,0x00
       00000923 61 64 64 72 3D 30 78 25 30 38 
       0000092D 78 0A 00 
  3271 00000930                                 LC120:
  3272 00000930 68 65 61 64 2E 64 69 72 5F 61   	DB	"head.dir_addr=0x%08x",0x0A,0x00
       0000093A 64 64 72 3D 30 78 25 30 38 78 
       00000944 0A 00 
  3273 00000946                                 LC121:
  3274 00000946 68 65 61 64 2E 73 74 61 74 3D   	DB	"head.stat=0x%02x",0x0A,0x00
       00000950 30 78 25 30 32 78 0A 00 
  3275 00000958                                 LC122:
  3276 00000958 5B 45 4F 46 5D 0A 00            	DB	"[EOF]",0x0A,0x00
  3277 0000095F                                 LC123:
  3278 0000095F 73 69 7A 65 3A 20 25 64 0A 00   	DB	"size: %d",0x0A,0x00
  3279 00000969                                 LC124:
  3280 00000969 09 74 68 69 73 20 69 73 20 6E   	DB	0x09,"this is not file.",0x0A,0x00
       00000973 6F 74 20 66 69 6C 65 2E 0A 00 
  3281                                          [SECTION .text]
  3282 00001FB7                                 	GLOBAL	_cmd_fview
  3283 00001FB7                                 _cmd_fview:
  3284 00001FB7 55                              	PUSH	EBP
  3285 00001FB8 89 E5                           	MOV	EBP,ESP
  3286 00001FBA 57                              	PUSH	EDI
  3287 00001FBB 56                              	PUSH	ESI
  3288 00001FBC 53                              	PUSH	EBX
  3289 00001FBD 8D 9D FFFFFF64                  	LEA	EBX,DWORD [-156+EBP]
  3290 00001FC3 81 EC 00000090                  	SUB	ESP,144
  3291 00001FC9 8B 45 08                        	MOV	EAX,DWORD [8+EBP]
  3292 00001FCC 8B 7D 0C                        	MOV	EDI,DWORD [12+EBP]
  3293 00001FCF 6A 32                           	PUSH	50
  3294 00001FD1 83 C7 06                        	ADD	EDI,6
  3295 00001FD4 FF 70 14                        	PUSH	DWORD [20+EAX]
  3296 00001FD7 57                              	PUSH	EDI
  3297 00001FD8 E8 [00000000]                   	CALL	_myfinfo_search
  3298 00001FDD 89 C6                           	MOV	ESI,EAX
  3299 00001FDF 50                              	PUSH	EAX
  3300 00001FE0 68 [000008EF]                   	PUSH	LC117
  3301 00001FE5 53                              	PUSH	EBX
  3302 00001FE6 E8 [00000000]                   	CALL	_sprintf
  3303 00001FEB 53                              	PUSH	EBX
  3304 00001FEC E8 FFFFE00F                     	CALL	_debug_print
  3305 00001FF1 83 C4 1C                        	ADD	ESP,28
  3306 00001FF4 85 F6                           	TEST	ESI,ESI
  3307 00001FF6 0F 84 000000DE                  	JE	L541
  3308 00001FFC 8B 46 24                        	MOV	EAX,DWORD [36+ESI]
  3309 00001FFF 85 C0                           	TEST	EAX,EAX
  3310 00002001 0F 84 000000B2                  	JE	L539
  3311 00002007 50                              	PUSH	EAX
  3312 00002008 68 [00000904]                   	PUSH	LC118
  3313 0000200D 53                              	PUSH	EBX
  3314 0000200E E8 [00000000]                   	CALL	_sprintf
  3315 00002013 53                              	PUSH	EBX
  3316 00002014 E8 FFFFDFE7                     	CALL	_debug_print
  3317 00002019 8B 46 24                        	MOV	EAX,DWORD [36+ESI]
  3318 0000201C FF 70 10                        	PUSH	DWORD [16+EAX]
  3319 0000201F 68 [00000919]                   	PUSH	LC119
  3320 00002024 53                              	PUSH	EBX
  3321 00002025 E8 [00000000]                   	CALL	_sprintf
  3322 0000202A 53                              	PUSH	EBX
  3323 0000202B E8 FFFFDFD0                     	CALL	_debug_print
  3324 00002030 8B 46 24                        	MOV	EAX,DWORD [36+ESI]
  3325 00002033 83 C4 20                        	ADD	ESP,32
  3326 00002036 FF 70 14                        	PUSH	DWORD [20+EAX]
  3327 00002039 68 [00000930]                   	PUSH	LC120
  3328 0000203E 53                              	PUSH	EBX
  3329 0000203F E8 [00000000]                   	CALL	_sprintf
  3330 00002044 53                              	PUSH	EBX
  3331 00002045 E8 FFFFDFB6                     	CALL	_debug_print
  3332 0000204A 8B 46 24                        	MOV	EAX,DWORD [36+ESI]
  3333 0000204D 0F B6 00                        	MOVZX	EAX,BYTE [EAX]
  3334 00002050 50                              	PUSH	EAX
  3335 00002051 68 [00000946]                   	PUSH	LC121
  3336 00002056 53                              	PUSH	EBX
  3337 00002057 E8 [00000000]                   	CALL	_sprintf
  3338 0000205C 53                              	PUSH	EBX
  3339 0000205D E8 FFFFDF9E                     	CALL	_debug_print
  3340 00002062 83 C4 20                        	ADD	ESP,32
  3341 00002065 FF 76 24                        	PUSH	DWORD [36+ESI]
  3342 00002068 53                              	PUSH	EBX
  3343 00002069 E8 [00000000]                   	CALL	_myfread
  3344 0000206E 53                              	PUSH	EBX
  3345 0000206F FF 75 08                        	PUSH	DWORD [8+EBP]
  3346 00002072 E8 FFFFE64E                     	CALL	_cons_putstr
  3347 00002077 68 [00000958]                   	PUSH	LC122
  3348 0000207C FF 75 08                        	PUSH	DWORD [8+EBP]
  3349 0000207F E8 FFFFE641                     	CALL	_cons_putstr
  3350 00002084 FF 76 24                        	PUSH	DWORD [36+ESI]
  3351 00002087 E8 [00000000]                   	CALL	_get_size_myfdata
  3352 0000208C 89 04 24                        	MOV	DWORD [ESP],EAX
  3353 0000208F 68 [0000095F]                   	PUSH	LC123
  3354 00002094 53                              	PUSH	EBX
  3355 00002095 E8 [00000000]                   	CALL	_sprintf
  3356 0000209A 83 C4 24                        	ADD	ESP,36
  3357 0000209D 53                              	PUSH	EBX
  3358 0000209E FF 75 08                        	PUSH	DWORD [8+EBP]
  3359 000020A1 E8 FFFFE61F                     	CALL	_cons_putstr
  3360 000020A6 FF 75 08                        	PUSH	DWORD [8+EBP]
  3361 000020A9 E8 FFFFE4F2                     	CALL	_cons_newline
  3362 000020AE 83 C4 0C                        	ADD	ESP,12
  3363 000020B1                                 L536:
  3364 000020B1 8D 65 F4                        	LEA	ESP,DWORD [-12+EBP]
  3365 000020B4 5B                              	POP	EBX
  3366 000020B5 5E                              	POP	ESI
  3367 000020B6 5F                              	POP	EDI
  3368 000020B7 5D                              	POP	EBP
  3369 000020B8 C3                              	RET
  3370 000020B9                                 L539:
  3371 000020B9 68 [00000969]                   	PUSH	LC124
  3372 000020BE 53                              	PUSH	EBX
  3373 000020BF E8 [00000000]                   	CALL	_sprintf
  3374 000020C4 53                              	PUSH	EBX
  3375 000020C5 FF 75 08                        	PUSH	DWORD [8+EBP]
  3376 000020C8 E8 FFFFE5F8                     	CALL	_cons_putstr
  3377 000020CD FF 75 08                        	PUSH	DWORD [8+EBP]
  3378 000020D0 E8 FFFFE4CB                     	CALL	_cons_newline
  3379 000020D5 83 C4 14                        	ADD	ESP,20
  3380 000020D8 EB D7                           	JMP	L536
  3381 000020DA                                 L541:
  3382 000020DA 57                              	PUSH	EDI
  3383 000020DB 68 [000008C4]                   	PUSH	LC108
  3384 000020E0 53                              	PUSH	EBX
  3385 000020E1 E8 [00000000]                   	CALL	_sprintf
  3386 000020E6 53                              	PUSH	EBX
  3387 000020E7 FF 75 08                        	PUSH	DWORD [8+EBP]
  3388 000020EA E8 FFFFE5D6                     	CALL	_cons_putstr
  3389 000020EF 6A 00                           	PUSH	0
  3390 000020F1 68 [000008D8]                   	PUSH	LC109
  3391 000020F6 53                              	PUSH	EBX
  3392 000020F7 E8 [00000000]                   	CALL	_sprintf
  3393 000020FC 83 C4 20                        	ADD	ESP,32
  3394 000020FF 53                              	PUSH	EBX
  3395 00002100 FF 75 08                        	PUSH	DWORD [8+EBP]
  3396 00002103 E8 FFFFE5BD                     	CALL	_cons_putstr
  3397 00002108 FF 75 08                        	PUSH	DWORD [8+EBP]
  3398 0000210B E8 FFFFE490                     	CALL	_cons_newline
  3399 00002110 EB 9F                           	JMP	L536
  3400                                          [SECTION .data]
  3401 0000097D                                 LC125:
  3402 0000097D 52 4F 4F 54 20 20 20 20 00      	DB	"ROOT    ",0x00
  3403 00000986                                 LC127:
  3404 00000986 6D 61 6B 65 20 66 69 6C 65 73   	DB	"make filesystem!",0x0A,0x00
       00000990 79 73 74 65 6D 21 0A 00 
  3405 00000998                                 LC126:
  3406 00000998 66 69 6C 65 6E 61 6D 65 2E 65   	DB	"filename.ext   %7d",0x0A,0x00
       000009A2 78 74 20 20 20 25 37 64 0A 00 
  3407                                          [SECTION .text]
  3408 00002112                                 	GLOBAL	_cmd_mkfs
  3409 00002112                                 _cmd_mkfs:
  3410 00002112 55                              	PUSH	EBP
  3411 00002113 89 E5                           	MOV	EBP,ESP
  3412 00002115 57                              	PUSH	EDI
  3413 00002116 56                              	PUSH	ESI
  3414 00002117 31 FF                           	XOR	EDI,EDI
  3415 00002119 53                              	PUSH	EBX
  3416 0000211A 8D 45 E4                        	LEA	EAX,DWORD [-28+EBP]
  3417 0000211D 81 EC 00000800                  	SUB	ESP,2048
  3418 00002123 8D 75 F4                        	LEA	ESI,DWORD [-12+EBP]
  3419 00002126 68 [0000097D]                   	PUSH	LC125
  3420 0000212B 50                              	PUSH	EAX
  3421 0000212C E8 [00000000]                   	CALL	_sprintf
  3422 00002131 8B 45 08                        	MOV	EAX,DWORD [8+EBP]
  3423 00002134 C7 45 EC 00000000               	MOV	DWORD [-20+EBP],0
  3424 0000213B C7 45 F0 00400000               	MOV	DWORD [-16+EBP],4194304
  3425 00002142 C7 40 14 00400000               	MOV	DWORD [20+EAX],4194304
  3426 00002149 59                              	POP	ECX
  3427 0000214A 5B                              	POP	EBX
  3428 0000214B 31 DB                           	XOR	EBX,EBX
  3429 0000214D                                 L570:
  3430 0000214D 8A 83 00102600                  	MOV	AL,BYTE [1058304+EBX]
  3431 00002153 84 C0                           	TEST	AL,AL
  3432 00002155 74 19                           	JE	L544
  3433 00002157 3C E5                           	CMP	AL,-27
  3434 00002159 74 09                           	JE	L545
  3435 0000215B F6 83 0010260B 18               	TEST	BYTE [1058315+EBX],24
  3436 00002162 74 49                           	JE	L580
  3437 00002164                                 L545:
  3438 00002164 47                              	INC	EDI
  3439 00002165 83 C3 20                        	ADD	EBX,32
  3440 00002168 83 C6 28                        	ADD	ESI,40
  3441 0000216B 83 FF 09                        	CMP	EDI,9
  3442 0000216E 7E DD                           	JLE	L570
  3443 00002170                                 L544:
  3444 00002170 FC                              	CLD
  3445 00002171 8D B5 FFFFF814                  	LEA	ESI,DWORD [-2028+EBP]
  3446 00002177 BF 00400000                     	MOV	EDI,4194304
  3447 0000217C B9 000001F8                     	MOV	ECX,504
  3448 00002181 8D 9D FFFFF7F4                  	LEA	EBX,DWORD [-2060+EBP]
  3449 00002187 F3                              	REP
  3450 00002188 A5                              	MOVSD
  3451 00002189 68 [00000986]                   	PUSH	LC127
  3452 0000218E 53                              	PUSH	EBX
  3453 0000218F E8 [00000000]                   	CALL	_sprintf
  3454 00002194 53                              	PUSH	EBX
  3455 00002195 FF 75 08                        	PUSH	DWORD [8+EBP]
  3456 00002198 E8 FFFFE556                     	CALL	_cons_putstr0
  3457 0000219D FF 75 08                        	PUSH	DWORD [8+EBP]
  3458 000021A0 E8 FFFFE3FB                     	CALL	_cons_newline
  3459 000021A5 8D 65 F4                        	LEA	ESP,DWORD [-12+EBP]
  3460 000021A8 5B                              	POP	EBX
  3461 000021A9 5E                              	POP	ESI
  3462 000021AA 5F                              	POP	EDI
  3463 000021AB 5D                              	POP	EBP
  3464 000021AC C3                              	RET
  3465 000021AD                                 L580:
  3466 000021AD FF B3 0010261C                  	PUSH	DWORD [1058332+EBX]
  3467 000021B3 68 [00000998]                   	PUSH	LC126
  3468 000021B8 8D 85 FFFFF7F4                  	LEA	EAX,DWORD [-2060+EBP]
  3469 000021BE 50                              	PUSH	EAX
  3470 000021BF E8 [00000000]                   	CALL	_sprintf
  3471 000021C4 8D 8B 00102600                  	LEA	ECX,DWORD [1058304+EBX]
  3472 000021CA 31 D2                           	XOR	EDX,EDX
  3473 000021CC 83 C4 0C                        	ADD	ESP,12
  3474 000021CF                                 L554:
  3475 000021CF 8A 01                           	MOV	AL,BYTE [ECX]
  3476 000021D1 41                              	INC	ECX
  3477 000021D2 88 84 15 FFFFF7F4               	MOV	BYTE [-2060+EBP+EDX*1],AL
  3478 000021D9 42                              	INC	EDX
  3479 000021DA 83 FA 07                        	CMP	EDX,7
  3480 000021DD 7E F0                           	JLE	L554
  3481 000021DF 8A 83 00102608                  	MOV	AL,BYTE [1058312+EBX]
  3482 000021E5 31 D2                           	XOR	EDX,EDX
  3483 000021E7 88 85 FFFFF7FD                  	MOV	BYTE [-2051+EBP],AL
  3484 000021ED 8D 8E FFFFF828                  	LEA	ECX,DWORD [-2008+ESI]
  3485 000021F3 8A 83 00102609                  	MOV	AL,BYTE [1058313+EBX]
  3486 000021F9 88 85 FFFFF7FE                  	MOV	BYTE [-2050+EBP],AL
  3487 000021FF 8A 83 0010260A                  	MOV	AL,BYTE [1058314+EBX]
  3488 00002205 88 85 FFFFF7FF                  	MOV	BYTE [-2049+EBP],AL
  3489 0000220B 66 8B 83 0010261A               	MOV	AX,WORD [1058330+EBX]
  3490 00002212 66 89 86 FFFFF83A               	MOV	WORD [-1990+ESI],AX
  3491 00002219 66 8B 83 00102618               	MOV	AX,WORD [1058328+EBX]
  3492 00002220 66 89 86 FFFFF838               	MOV	WORD [-1992+ESI],AX
  3493 00002227                                 L559:
  3494 00002227 8A 84 13 00102608               	MOV	AL,BYTE [1058312+EBX+EDX*1]
  3495 0000222E 42                              	INC	EDX
  3496 0000222F 88 01                           	MOV	BYTE [ECX],AL
  3497 00002231 41                              	INC	ECX
  3498 00002232 83 FA 02                        	CMP	EDX,2
  3499 00002235 7E F0                           	JLE	L559
  3500 00002237 31 D2                           	XOR	EDX,EDX
  3501 00002239 8D 8B 00102600                  	LEA	ECX,DWORD [1058304+EBX]
  3502 0000223F                                 L564:
  3503 0000223F 8A 01                           	MOV	AL,BYTE [ECX]
  3504 00002241 41                              	INC	ECX
  3505 00002242 88 84 32 FFFFF820               	MOV	BYTE [-2016+EDX+ESI*1],AL
  3506 00002249 42                              	INC	EDX
  3507 0000224A 83 FA 07                        	CMP	EDX,7
  3508 0000224D 7E F0                           	JLE	L564
  3509 0000224F 31 D2                           	XOR	EDX,EDX
  3510 00002251 8D 8E FFFFF82C                  	LEA	ECX,DWORD [-2004+ESI]
  3511 00002257                                 L569:
  3512 00002257 8A 84 13 0010260C               	MOV	AL,BYTE [1058316+EBX+EDX*1]
  3513 0000225E 42                              	INC	EDX
  3514 0000225F 88 01                           	MOV	BYTE [ECX],AL
  3515 00002261 41                              	INC	ECX
  3516 00002262 83 FA 09                        	CMP	EDX,9
  3517 00002265 7E F0                           	JLE	L569
  3518 00002267 8B 83 0010261C                  	MOV	EAX,DWORD [1058332+EBX]
  3519 0000226D 89 86 FFFFF83C                  	MOV	DWORD [-1988+ESI],EAX
  3520 00002273 66 8B 83 00102616               	MOV	AX,WORD [1058326+EBX]
  3521 0000227A 66 89 86 FFFFF836               	MOV	WORD [-1994+ESI],AX
  3522 00002281 8A 83 0010260B                  	MOV	AL,BYTE [1058315+EBX]
  3523 00002287 88 86 FFFFF82B                  	MOV	BYTE [-2005+ESI],AL
  3524 0000228D 8D 85 FFFFF7F4                  	LEA	EAX,DWORD [-2060+EBP]
  3525 00002293 50                              	PUSH	EAX
  3526 00002294 FF 75 08                        	PUSH	DWORD [8+EBP]
  3527 00002297 E8 FFFFE457                     	CALL	_cons_putstr0
  3528 0000229C 58                              	POP	EAX
  3529 0000229D 5A                              	POP	EDX
  3530 0000229E E9 FFFFFEC1                     	JMP	L545
  3531                                          [SECTION .data]
  3532 000009AC                                 LC128:
  3533 000009AC 64 69 72 65 63 74 6F 72 79 20   	DB	"directory name",0x09,"%s",0x0A,0x00
       000009B6 6E 61 6D 65 09 25 73 0A 00 
  3534 000009BF                                 LC129:
  3535 000009BF 63 75 72 72 65 6E 74 20 64 69   	DB	"current dir addr",0x09
       000009C9 72 20 61 64 64 72 09 
  3536 000009D0 30 78 25 30 38 78 0A 00         	DB	"0x%08x",0x0A,0x00
  3537 000009D8                                 LC130:
  3538 000009D8 70 61 72 65 6E 74 20 64 69 72   	DB	"parent dir addr",0x09
       000009E2 20 61 64 64 72 09 
  3539 000009E8 30 78 25 30 38 78 0A 00         	DB	"0x%08x",0x0A,0x00
  3540 000009F0                                 LC133:
  3541 000009F0 74 68 69 73 20 64 69 72 65 63   	DB	"this directory has no file...",0x0A,0x00
       000009FA 74 6F 72 79 20 68 61 73 20 6E 
       00000A04 6F 20 66 69 6C 65 2E 2E 2E 0A 
       00000A0E 00 
  3542 00000A0F                                 LC132:
  3543 00000A0F 66 69 6C 65 6E 61 6D 65 20 20   	DB	"filename    ",0x09,"%7d [DIR]",0x0A,0x00
       00000A19 20 20 09 25 37 64 20 5B 44 49 
       00000A23 52 5D 0A 00 
  3544 00000A27                                 LC131:
  3545 00000A27 66 69 6C 65 6E 61 6D 65 2E 65   	DB	"filename.ext",0x09,"%7d [FILE]",0x0A,0x00
       00000A31 78 74 09 25 37 64 20 5B 46 49 
       00000A3B 4C 45 5D 0A 00 
  3546                                          [SECTION .text]
  3547 000022A3                                 	GLOBAL	_cmd_dir
  3548 000022A3                                 _cmd_dir:
  3549 000022A3 55                              	PUSH	EBP
  3550 000022A4 89 E5                           	MOV	EBP,ESP
  3551 000022A6 57                              	PUSH	EDI
  3552 000022A7 56                              	PUSH	ESI
  3553 000022A8 53                              	PUSH	EBX
  3554 000022A9 8D 75 B4                        	LEA	ESI,DWORD [-76+EBP]
  3555 000022AC 83 EC 40                        	SUB	ESP,64
  3556 000022AF 8B 7D 08                        	MOV	EDI,DWORD [8+EBP]
  3557 000022B2 8B 5F 14                        	MOV	EBX,DWORD [20+EDI]
  3558 000022B5 8D 83 000007D0                  	LEA	EAX,DWORD [2000+EBX]
  3559 000022BB 50                              	PUSH	EAX
  3560 000022BC 68 [000009AC]                   	PUSH	LC128
  3561 000022C1 56                              	PUSH	ESI
  3562 000022C2 E8 [00000000]                   	CALL	_sprintf
  3563 000022C7 56                              	PUSH	ESI
  3564 000022C8 57                              	PUSH	EDI
  3565 000022C9 E8 FFFFE3F7                     	CALL	_cons_putstr
  3566 000022CE FF B3 000007DC                  	PUSH	DWORD [2012+EBX]
  3567 000022D4 68 [000009BF]                   	PUSH	LC129
  3568 000022D9 56                              	PUSH	ESI
  3569 000022DA E8 [00000000]                   	CALL	_sprintf
  3570 000022DF 83 C4 20                        	ADD	ESP,32
  3571 000022E2 56                              	PUSH	ESI
  3572 000022E3 E8 FFFFDD18                     	CALL	_debug_print
  3573 000022E8 FF B3 000007D8                  	PUSH	DWORD [2008+EBX]
  3574 000022EE 68 [000009D8]                   	PUSH	LC130
  3575 000022F3 56                              	PUSH	ESI
  3576 000022F4 E8 [00000000]                   	CALL	_sprintf
  3577 000022F9 56                              	PUSH	ESI
  3578 000022FA 31 F6                           	XOR	ESI,ESI
  3579 000022FC E8 FFFFDCFF                     	CALL	_debug_print
  3580 00002301 83 C4 14                        	ADD	ESP,20
  3581 00002304                                 L601:
  3582 00002304 8A 03                           	MOV	AL,BYTE [EBX]
  3583 00002306 84 C0                           	TEST	AL,AL
  3584 00002308 74 1E                           	JE	L583
  3585 0000230A 3C E5                           	CMP	AL,-27
  3586 0000230C 74 11                           	JE	L584
  3587 0000230E 8A 43 0B                        	MOV	AL,BYTE [11+EBX]
  3588 00002311 A9 00000018                     	TEST	EAX,24
  3589 00002316 74 6D                           	JE	L609
  3590 00002318 83 E0 10                        	AND	EAX,16
  3591 0000231B 84 C0                           	TEST	AL,AL
  3592 0000231D 75 35                           	JNE	L610
  3593 0000231F                                 L584:
  3594 0000231F 46                              	INC	ESI
  3595 00002320 83 C3 28                        	ADD	EBX,40
  3596 00002323 83 FE 31                        	CMP	ESI,49
  3597 00002326 7E DC                           	JLE	L601
  3598 00002328                                 L583:
  3599 00002328 85 F6                           	TEST	ESI,ESI
  3600 0000232A 74 0E                           	JE	L611
  3601 0000232C                                 L602:
  3602 0000232C 57                              	PUSH	EDI
  3603 0000232D E8 FFFFE26E                     	CALL	_cons_newline
  3604 00002332 8D 65 F4                        	LEA	ESP,DWORD [-12+EBP]
  3605 00002335 5B                              	POP	EBX
  3606 00002336 5E                              	POP	ESI
  3607 00002337 5F                              	POP	EDI
  3608 00002338 5D                              	POP	EBP
  3609 00002339 C3                              	RET
  3610 0000233A                                 L611:
  3611 0000233A 68 [000009F0]                   	PUSH	LC133
  3612 0000233F 8D 5D B4                        	LEA	EBX,DWORD [-76+EBP]
  3613 00002342 53                              	PUSH	EBX
  3614 00002343 E8 [00000000]                   	CALL	_sprintf
  3615 00002348 53                              	PUSH	EBX
  3616 00002349 57                              	PUSH	EDI
  3617 0000234A E8 FFFFE376                     	CALL	_cons_putstr
  3618 0000234F 83 C4 10                        	ADD	ESP,16
  3619 00002352 EB D8                           	JMP	L602
  3620 00002354                                 L610:
  3621 00002354 FF 73 1C                        	PUSH	DWORD [28+EBX]
  3622 00002357 68 [00000A0F]                   	PUSH	LC132
  3623 0000235C 8D 45 B4                        	LEA	EAX,DWORD [-76+EBP]
  3624 0000235F 50                              	PUSH	EAX
  3625 00002360 E8 [00000000]                   	CALL	_sprintf
  3626 00002365 83 C4 0C                        	ADD	ESP,12
  3627 00002368 31 D2                           	XOR	EDX,EDX
  3628 0000236A                                 L600:
  3629 0000236A 8A 04 1A                        	MOV	AL,BYTE [EDX+EBX*1]
  3630 0000236D 88 44 15 B4                     	MOV	BYTE [-76+EBP+EDX*1],AL
  3631 00002371 42                              	INC	EDX
  3632 00002372 83 FA 07                        	CMP	EDX,7
  3633 00002375 7E F3                           	JLE	L600
  3634 00002377                                 L608:
  3635 00002377 8D 45 B4                        	LEA	EAX,DWORD [-76+EBP]
  3636 0000237A 50                              	PUSH	EAX
  3637 0000237B 57                              	PUSH	EDI
  3638 0000237C E8 FFFFE344                     	CALL	_cons_putstr
  3639 00002381 58                              	POP	EAX
  3640 00002382 5A                              	POP	EDX
  3641 00002383 EB 9A                           	JMP	L584
  3642 00002385                                 L609:
  3643 00002385 FF 73 1C                        	PUSH	DWORD [28+EBX]
  3644 00002388 68 [00000A27]                   	PUSH	LC131
  3645 0000238D 8D 45 B4                        	LEA	EAX,DWORD [-76+EBP]
  3646 00002390 50                              	PUSH	EAX
  3647 00002391 E8 [00000000]                   	CALL	_sprintf
  3648 00002396 83 C4 0C                        	ADD	ESP,12
  3649 00002399 31 D2                           	XOR	EDX,EDX
  3650 0000239B                                 L593:
  3651 0000239B 8A 04 1A                        	MOV	AL,BYTE [EDX+EBX*1]
  3652 0000239E 88 44 15 B4                     	MOV	BYTE [-76+EBP+EDX*1],AL
  3653 000023A2 42                              	INC	EDX
  3654 000023A3 83 FA 07                        	CMP	EDX,7
  3655 000023A6 7E F3                           	JLE	L593
  3656 000023A8 8A 43 08                        	MOV	AL,BYTE [8+EBX]
  3657 000023AB 88 45 BD                        	MOV	BYTE [-67+EBP],AL
  3658 000023AE 8A 43 09                        	MOV	AL,BYTE [9+EBX]
  3659 000023B1 88 45 BE                        	MOV	BYTE [-66+EBP],AL
  3660 000023B4 8A 43 0A                        	MOV	AL,BYTE [10+EBX]
  3661 000023B7 88 45 BF                        	MOV	BYTE [-65+EBP],AL
  3662 000023BA EB BB                           	JMP	L608
  3663                                          [SECTION .data]
  3664 00000A40                                 LC134:
  3665 00000A40 66 69 6C 65 74 79 70 65 3D 30   	DB	"filetype=0x%02x",0x0A,0x00
       00000A4A 78 25 30 32 78 0A 00 
  3666                                          [SECTION .text]
  3667 000023BC                                 	GLOBAL	_cmd_fddir
  3668 000023BC                                 _cmd_fddir:
  3669 000023BC 55                              	PUSH	EBP
  3670 000023BD 89 E5                           	MOV	EBP,ESP
  3671 000023BF 57                              	PUSH	EDI
  3672 000023C0 56                              	PUSH	ESI
  3673 000023C1 31 FF                           	XOR	EDI,EDI
  3674 000023C3 53                              	PUSH	EBX
  3675 000023C4 31 F6                           	XOR	ESI,ESI
  3676 000023C6 83 EC 20                        	SUB	ESP,32
  3677 000023C9                                 L625:
  3678 000023C9 8A 86 00102600                  	MOV	AL,BYTE [1058304+ESI]
  3679 000023CF 84 C0                           	TEST	AL,AL
  3680 000023D1 74 16                           	JE	L614
  3681 000023D3 3C E5                           	CMP	AL,-27
  3682 000023D5 74 09                           	JE	L615
  3683 000023D7 F6 86 0010260B 18               	TEST	BYTE [1058315+ESI],24
  3684 000023DE 74 19                           	JE	L629
  3685 000023E0                                 L615:
  3686 000023E0 47                              	INC	EDI
  3687 000023E1 83 C6 20                        	ADD	ESI,32
  3688 000023E4 83 FF 31                        	CMP	EDI,49
  3689 000023E7 7E E0                           	JLE	L625
  3690 000023E9                                 L614:
  3691 000023E9 FF 75 08                        	PUSH	DWORD [8+EBP]
  3692 000023EC E8 FFFFE1AF                     	CALL	_cons_newline
  3693 000023F1 8D 65 F4                        	LEA	ESP,DWORD [-12+EBP]
  3694 000023F4 5B                              	POP	EBX
  3695 000023F5 5E                              	POP	ESI
  3696 000023F6 5F                              	POP	EDI
  3697 000023F7 5D                              	POP	EBP
  3698 000023F8 C3                              	RET
  3699 000023F9                                 L629:
  3700 000023F9 FF B6 0010261C                  	PUSH	DWORD [1058332+ESI]
  3701 000023FF 68 [00000998]                   	PUSH	LC126
  3702 00002404 8D 45 D4                        	LEA	EAX,DWORD [-44+EBP]
  3703 00002407 50                              	PUSH	EAX
  3704 00002408 E8 [00000000]                   	CALL	_sprintf
  3705 0000240D 8D 96 00102600                  	LEA	EDX,DWORD [1058304+ESI]
  3706 00002413 31 C9                           	XOR	ECX,ECX
  3707 00002415 83 C4 0C                        	ADD	ESP,12
  3708 00002418                                 L624:
  3709 00002418 8A 02                           	MOV	AL,BYTE [EDX]
  3710 0000241A 42                              	INC	EDX
  3711 0000241B 88 44 0D D4                     	MOV	BYTE [-44+EBP+ECX*1],AL
  3712 0000241F 41                              	INC	ECX
  3713 00002420 83 F9 07                        	CMP	ECX,7
  3714 00002423 7E F3                           	JLE	L624
  3715 00002425 8A 86 00102608                  	MOV	AL,BYTE [1058312+ESI]
  3716 0000242B 8D 5D D4                        	LEA	EBX,DWORD [-44+EBP]
  3717 0000242E 88 45 DD                        	MOV	BYTE [-35+EBP],AL
  3718 00002431 8A 86 00102609                  	MOV	AL,BYTE [1058313+ESI]
  3719 00002437 88 45 DE                        	MOV	BYTE [-34+EBP],AL
  3720 0000243A 8A 86 0010260A                  	MOV	AL,BYTE [1058314+ESI]
  3721 00002440 53                              	PUSH	EBX
  3722 00002441 FF 75 08                        	PUSH	DWORD [8+EBP]
  3723 00002444 88 45 DF                        	MOV	BYTE [-33+EBP],AL
  3724 00002447 E8 FFFFE2A7                     	CALL	_cons_putstr0
  3725 0000244C 0F B6 86 0010260B               	MOVZX	EAX,BYTE [1058315+ESI]
  3726 00002453 50                              	PUSH	EAX
  3727 00002454 68 [00000A40]                   	PUSH	LC134
  3728 00002459 53                              	PUSH	EBX
  3729 0000245A E8 [00000000]                   	CALL	_sprintf
  3730 0000245F 53                              	PUSH	EBX
  3731 00002460 FF 75 08                        	PUSH	DWORD [8+EBP]
  3732 00002463 E8 FFFFE28B                     	CALL	_cons_putstr0
  3733 00002468 83 C4 1C                        	ADD	ESP,28
  3734 0000246B E9 FFFFFF70                     	JMP	L615
  3735 00002470                                 	GLOBAL	_cmd_exit
  3736 00002470                                 _cmd_exit:
  3737 00002470 55                              	PUSH	EBP
  3738 00002471 89 E5                           	MOV	EBP,ESP
  3739 00002473 57                              	PUSH	EDI
  3740 00002474 56                              	PUSH	ESI
  3741 00002475 53                              	PUSH	EBX
  3742 00002476 50                              	PUSH	EAX
  3743 00002477 8B 5D 08                        	MOV	EBX,DWORD [8+EBP]
  3744 0000247A E8 [00000000]                   	CALL	_task_now
  3745 0000247F 8B 35 00000FE4                  	MOV	ESI,DWORD [4068]
  3746 00002485 8B 3D 00000FEC                  	MOV	EDI,DWORD [4076]
  3747 0000248B 89 45 F0                        	MOV	DWORD [-16+EBP],EAX
  3748 0000248E 83 3B 00                        	CMP	DWORD [EBX],0
  3749 00002491 74 09                           	JE	L631
  3750 00002493 FF 73 10                        	PUSH	DWORD [16+EBX]
  3751 00002496 E8 [00000000]                   	CALL	_timer_cancel
  3752 0000249B 58                              	POP	EAX
  3753 0000249C                                 L631:
  3754 0000249C 68 00002D00                     	PUSH	11520
  3755 000024A1 FF 75 0C                        	PUSH	DWORD [12+EBP]
  3756 000024A4 68 003C0000                     	PUSH	3932160
  3757 000024A9 E8 [00000000]                   	CALL	_memman_free_4k
  3758 000024AE E8 [00000000]                   	CALL	_io_cli
  3759 000024B3 8B 03                           	MOV	EAX,DWORD [EBX]
  3760 000024B5 83 C4 0C                        	ADD	ESP,12
  3761 000024B8 85 C0                           	TEST	EAX,EAX
  3762 000024BA 74 2E                           	JE	L632
  3763 000024BC 29 F0                           	SUB	EAX,ESI
  3764 000024BE 2D 00000414                     	SUB	EAX,1044
  3765 000024C3 C1 F8 03                        	SAR	EAX,3
  3766 000024C6 69 C0 CCCCCCCD                  	IMUL	EAX,EAX,-858993459
  3767 000024CC 05 00000300                     	ADD	EAX,768
  3768 000024D1                                 L637:
  3769 000024D1 50                              	PUSH	EAX
  3770 000024D2 57                              	PUSH	EDI
  3771 000024D3 E8 [00000000]                   	CALL	_fifo32_put
  3772 000024D8 5B                              	POP	EBX
  3773 000024D9 5E                              	POP	ESI
  3774 000024DA E8 [00000000]                   	CALL	_io_sti
  3775 000024DF                                 L634:
  3776 000024DF FF 75 F0                        	PUSH	DWORD [-16+EBP]
  3777 000024E2 E8 [00000000]                   	CALL	_task_sleep
  3778 000024E7 59                              	POP	ECX
  3779 000024E8 EB F5                           	JMP	L634
  3780 000024EA                                 L632:
  3781 000024EA 8B 45 F0                        	MOV	EAX,DWORD [-16+EBP]
  3782 000024ED 2B 05 [00000000]                	SUB	EAX,DWORD [_taskctl]
  3783 000024F3 2D 00001004                     	SUB	EAX,4100
  3784 000024F8 C1 F8 02                        	SAR	EAX,2
  3785 000024FB 69 C0 1A1F58D1                  	IMUL	EAX,EAX,438261969
  3786 00002501 05 00000400                     	ADD	EAX,1024
  3787 00002506 EB C9                           	JMP	L637
  3788 00002508                                 	GLOBAL	_cmd_start
  3789 00002508                                 _cmd_start:
  3790 00002508 55                              	PUSH	EBP
  3791 00002509 89 E5                           	MOV	EBP,ESP
  3792 0000250B 57                              	PUSH	EDI
  3793 0000250C 56                              	PUSH	ESI
  3794 0000250D 53                              	PUSH	EBX
  3795 0000250E 57                              	PUSH	EDI
  3796 0000250F 57                              	PUSH	EDI
  3797 00002510 8B 45 08                        	MOV	EAX,DWORD [8+EBP]
  3798 00002513 8B 7D 0C                        	MOV	EDI,DWORD [12+EBP]
  3799 00002516 8B 35 00000FE4                  	MOV	ESI,DWORD [4068]
  3800 0000251C 89 45 F0                        	MOV	DWORD [-16+EBP],EAX
  3801 0000251F FF 75 10                        	PUSH	DWORD [16+EBP]
  3802 00002522 56                              	PUSH	ESI
  3803 00002523 E8 [00000000]                   	CALL	_open_console
  3804 00002528 89 C3                           	MOV	EBX,EAX
  3805 0000252A 8B 40 24                        	MOV	EAX,DWORD [36+EAX]
  3806 0000252D 83 C0 10                        	ADD	EAX,16
  3807 00002530 89 45 EC                        	MOV	DWORD [-20+EBP],EAX
  3808 00002533 6A 04                           	PUSH	4
  3809 00002535 6A 20                           	PUSH	32
  3810 00002537 53                              	PUSH	EBX
  3811 00002538 E8 [00000000]                   	CALL	_sheet_slide
  3812 0000253D FF 76 10                        	PUSH	DWORD [16+ESI]
  3813 00002540 53                              	PUSH	EBX
  3814 00002541 BB 00000006                     	MOV	EBX,6
  3815 00002546 E8 [00000000]                   	CALL	_sheet_updown
  3816 0000254B 83 C4 1C                        	ADD	ESP,28
  3817 0000254E 80 7F 06 00                     	CMP	BYTE [6+EDI],0
  3818 00002552 75 21                           	JNE	L643
  3819 00002554                                 L645:
  3820 00002554 68 0000010A                     	PUSH	266
  3821 00002559 FF 75 EC                        	PUSH	DWORD [-20+EBP]
  3822 0000255C E8 [00000000]                   	CALL	_fifo32_put
  3823 00002561 58                              	POP	EAX
  3824 00002562 8B 45 F0                        	MOV	EAX,DWORD [-16+EBP]
  3825 00002565 5A                              	POP	EDX
  3826 00002566 89 45 08                        	MOV	DWORD [8+EBP],EAX
  3827 00002569 8D 65 F4                        	LEA	ESP,DWORD [-12+EBP]
  3828 0000256C 5B                              	POP	EBX
  3829 0000256D 5E                              	POP	ESI
  3830 0000256E 5F                              	POP	EDI
  3831 0000256F 5D                              	POP	EBP
  3832 00002570 E9 FFFFE02B                     	JMP	_cons_newline
  3833 00002575                                 L643:
  3834 00002575 0F BE 04 3B                     	MOVSX	EAX,BYTE [EBX+EDI*1]
  3835 00002579 05 00000100                     	ADD	EAX,256
  3836 0000257E 43                              	INC	EBX
  3837 0000257F 50                              	PUSH	EAX
  3838 00002580 FF 75 EC                        	PUSH	DWORD [-20+EBP]
  3839 00002583 E8 [00000000]                   	CALL	_fifo32_put
  3840 00002588 80 3C 3B 00                     	CMP	BYTE [EBX+EDI*1],0
  3841 0000258C 59                              	POP	ECX
  3842 0000258D 5E                              	POP	ESI
  3843 0000258E 75 E5                           	JNE	L643
  3844 00002590 EB C2                           	JMP	L645
  3845 00002592                                 	GLOBAL	_cmd_ncst
  3846 00002592                                 _cmd_ncst:
  3847 00002592 55                              	PUSH	EBP
  3848 00002593 89 E5                           	MOV	EBP,ESP
  3849 00002595 57                              	PUSH	EDI
  3850 00002596 56                              	PUSH	ESI
  3851 00002597 BE 00000005                     	MOV	ESI,5
  3852 0000259C 53                              	PUSH	EBX
  3853 0000259D 51                              	PUSH	ECX
  3854 0000259E 8B 45 08                        	MOV	EAX,DWORD [8+EBP]
  3855 000025A1 8B 5D 0C                        	MOV	EBX,DWORD [12+EBP]
  3856 000025A4 89 45 F0                        	MOV	DWORD [-16+EBP],EAX
  3857 000025A7 FF 75 10                        	PUSH	DWORD [16+EBP]
  3858 000025AA 6A 00                           	PUSH	0
  3859 000025AC E8 [00000000]                   	CALL	_open_constask
  3860 000025B1 80 7B 05 00                     	CMP	BYTE [5+EBX],0
  3861 000025B5 8D 78 10                        	LEA	EDI,DWORD [16+EAX]
  3862 000025B8 58                              	POP	EAX
  3863 000025B9 5A                              	POP	EDX
  3864 000025BA 75 1F                           	JNE	L651
  3865 000025BC                                 L653:
  3866 000025BC 68 0000010A                     	PUSH	266
  3867 000025C1 57                              	PUSH	EDI
  3868 000025C2 E8 [00000000]                   	CALL	_fifo32_put
  3869 000025C7 58                              	POP	EAX
  3870 000025C8 8B 45 F0                        	MOV	EAX,DWORD [-16+EBP]
  3871 000025CB 5A                              	POP	EDX
  3872 000025CC 89 45 08                        	MOV	DWORD [8+EBP],EAX
  3873 000025CF 8D 65 F4                        	LEA	ESP,DWORD [-12+EBP]
  3874 000025D2 5B                              	POP	EBX
  3875 000025D3 5E                              	POP	ESI
  3876 000025D4 5F                              	POP	EDI
  3877 000025D5 5D                              	POP	EBP
  3878 000025D6 E9 FFFFDFC5                     	JMP	_cons_newline
  3879 000025DB                                 L651:
  3880 000025DB 0F BE 04 1E                     	MOVSX	EAX,BYTE [ESI+EBX*1]
  3881 000025DF 05 00000100                     	ADD	EAX,256
  3882 000025E4 46                              	INC	ESI
  3883 000025E5 50                              	PUSH	EAX
  3884 000025E6 57                              	PUSH	EDI
  3885 000025E7 E8 [00000000]                   	CALL	_fifo32_put
  3886 000025EC 80 3C 1E 00                     	CMP	BYTE [ESI+EBX*1],0
  3887 000025F0 59                              	POP	ECX
  3888 000025F1 58                              	POP	EAX
  3889 000025F2 75 E7                           	JNE	L651
  3890 000025F4 EB C6                           	JMP	L653
  3891                                          [SECTION .data]
  3892 00000A51                                 LC135:
  3893 00000A51 54 61 73 6B 20 4E 61 6D 65 3A   	DB	"Task Name:%s",0x0A,"ID:%d",0x0A,"Priority:%d",0x0A,"State: Running",0x0A,0x00
       00000A5B 25 73 0A 49 44 3A 25 64 0A 50 
       00000A65 72 69 6F 72 69 74 79 3A 25 64 
       00000A6F 0A 53 74 61 74 65 3A 20 52 75 
       00000A79 6E 6E 69 6E 67 0A 00 
  3894                                          [SECTION .text]
  3895 000025F6                                 	GLOBAL	_cmd_top
  3896 000025F6                                 _cmd_top:
  3897 000025F6 55                              	PUSH	EBP
  3898 000025F7 89 E5                           	MOV	EBP,ESP
  3899 000025F9 57                              	PUSH	EDI
  3900 000025FA 56                              	PUSH	ESI
  3901 000025FB BE 00000001                     	MOV	ESI,1
  3902 00002600 53                              	PUSH	EBX
  3903 00002601 83 EC 40                        	SUB	ESP,64
  3904 00002604 8B 15 [00000000]                	MOV	EDX,DWORD [_taskctl]
  3905 0000260A 8B 7D 08                        	MOV	EDI,DWORD [8+EBP]
  3906 0000260D 3B 32                           	CMP	ESI,DWORD [EDX]
  3907 0000260F 7C 0E                           	JL	L659
  3908 00002611                                 L661:
  3909 00002611 57                              	PUSH	EDI
  3910 00002612 E8 FFFFDF89                     	CALL	_cons_newline
  3911 00002617 8D 65 F4                        	LEA	ESP,DWORD [-12+EBP]
  3912 0000261A 5B                              	POP	EBX
  3913 0000261B 5E                              	POP	ESI
  3914 0000261C 5F                              	POP	EDI
  3915 0000261D 5D                              	POP	EBP
  3916 0000261E C3                              	RET
  3917 0000261F                                 L659:
  3918 0000261F 8B 84 B2 00030DA4               	MOV	EAX,DWORD [200100+EDX+ESI*4]
  3919 00002626 8D 5D B4                        	LEA	EBX,DWORD [-76+EBP]
  3920 00002629 FF 70 0C                        	PUSH	DWORD [12+EAX]
  3921 0000262C 8B 84 B2 00030DA4               	MOV	EAX,DWORD [200100+EDX+ESI*4]
  3922 00002633 FF 30                           	PUSH	DWORD [EAX]
  3923 00002635 8B 84 B2 00030DA4               	MOV	EAX,DWORD [200100+EDX+ESI*4]
  3924 0000263C 46                              	INC	ESI
  3925 0000263D FF B0 000000BC                  	PUSH	DWORD [188+EAX]
  3926 00002643 68 [00000A51]                   	PUSH	LC135
  3927 00002648 53                              	PUSH	EBX
  3928 00002649 E8 [00000000]                   	CALL	_sprintf
  3929 0000264E 53                              	PUSH	EBX
  3930 0000264F 57                              	PUSH	EDI
  3931 00002650 E8 FFFFE09E                     	CALL	_cons_putstr0
  3932 00002655 68 [00000351]                   	PUSH	LC72
  3933 0000265A 57                              	PUSH	EDI
  3934 0000265B E8 FFFFE093                     	CALL	_cons_putstr0
  3935 00002660 8B 15 [00000000]                	MOV	EDX,DWORD [_taskctl]
  3936 00002666 83 C4 24                        	ADD	ESP,36
  3937 00002669 3B 32                           	CMP	ESI,DWORD [EDX]
  3938 0000266B 7C B2                           	JL	L659
  3939 0000266D EB A2                           	JMP	L661
  3940                                          [SECTION .data]
  3941 00000A80                                 LC136:
  3942 00000A80 6D 6F 64 65 20 6E 75 6D 62 65   	DB	"mode number error.",0x0A,0x00
       00000A8A 72 20 65 72 72 6F 72 2E 0A 00 
  3943                                          [SECTION .text]
  3944 0000266F                                 	GLOBAL	_cmd_langmode
  3945 0000266F                                 _cmd_langmode:
  3946 0000266F 55                              	PUSH	EBP
  3947 00002670 89 E5                           	MOV	EBP,ESP
  3948 00002672 56                              	PUSH	ESI
  3949 00002673 53                              	PUSH	EBX
  3950 00002674 8B 5D 0C                        	MOV	EBX,DWORD [12+EBP]
  3951 00002677 8B 75 08                        	MOV	ESI,DWORD [8+EBP]
  3952 0000267A E8 [00000000]                   	CALL	_task_now
  3953 0000267F 8A 53 09                        	MOV	DL,BYTE [9+EBX]
  3954 00002682 83 EA 30                        	SUB	EDX,48
  3955 00002685 80 FA 02                        	CMP	DL,2
  3956 00002688 77 14                           	JA	L663
  3957 0000268A 88 90 000000C0                  	MOV	BYTE [192+EAX],DL
  3958 00002690                                 L664:
  3959 00002690 89 75 08                        	MOV	DWORD [8+EBP],ESI
  3960 00002693 8D 65 F8                        	LEA	ESP,DWORD [-8+EBP]
  3961 00002696 5B                              	POP	EBX
  3962 00002697 5E                              	POP	ESI
  3963 00002698 5D                              	POP	EBP
  3964 00002699 E9 FFFFDF02                     	JMP	_cons_newline
  3965 0000269E                                 L663:
  3966 0000269E 68 [00000A80]                   	PUSH	LC136
  3967 000026A3 56                              	PUSH	ESI
  3968 000026A4 E8 FFFFE04A                     	CALL	_cons_putstr0
  3969 000026A9 5B                              	POP	EBX
  3970 000026AA 58                              	POP	EAX
  3971 000026AB EB E3                           	JMP	L664
  3972                                          [SECTION .data]
  3973 00000A94                                 LC137:
  3974 00000A94 48 61 72 69 00                  	DB	"Hari",0x00
  3975 00000A99                                 LC138:
  3976 00000A99 2E 68 72 62 20 66 69 6C 65 20   	DB	".hrb file format error.",0x0A,0x00
       00000AA3 66 6F 72 6D 61 74 20 65 72 72 
       00000AAD 6F 72 2E 0A 00 
  3977                                          [SECTION .text]
  3978 000026AD                                 	GLOBAL	_cmd_app
  3979 000026AD                                 _cmd_app:
  3980 000026AD 55                              	PUSH	EBP
  3981 000026AE 89 E5                           	MOV	EBP,ESP
  3982 000026B0 57                              	PUSH	EDI
  3983 000026B1 56                              	PUSH	ESI
  3984 000026B2 31 F6                           	XOR	ESI,ESI
  3985 000026B4 53                              	PUSH	EBX
  3986 000026B5 83 EC 34                        	SUB	ESP,52
  3987 000026B8 8B 5D 10                        	MOV	EBX,DWORD [16+EBP]
  3988 000026BB E8 [00000000]                   	CALL	_task_now
  3989 000026C0 89 45 C8                        	MOV	DWORD [-56+EBP],EAX
  3990 000026C3                                 L671:
  3991 000026C3 8A 04 1E                        	MOV	AL,BYTE [ESI+EBX*1]
  3992 000026C6 3C 20                           	CMP	AL,32
  3993 000026C8 7E 0A                           	JLE	L667
  3994 000026CA 88 44 35 D4                     	MOV	BYTE [-44+EBP+ESI*1],AL
  3995 000026CE 46                              	INC	ESI
  3996 000026CF 83 FE 0C                        	CMP	ESI,12
  3997 000026D2 7E EF                           	JLE	L671
  3998 000026D4                                 L667:
  3999 000026D4 68 000000E0                     	PUSH	224
  4000 000026D9 8D 5D D4                        	LEA	EBX,DWORD [-44+EBP]
  4001 000026DC 68 00102600                     	PUSH	1058304
  4002 000026E1 53                              	PUSH	EBX
  4003 000026E2 C6 44 35 D4 00                  	MOV	BYTE [-44+EBP+ESI*1],0
  4004 000026E7 E8 [00000000]                   	CALL	_file_search
  4005 000026EC 83 C4 0C                        	ADD	ESP,12
  4006 000026EF 89 C2                           	MOV	EDX,EAX
  4007 000026F1 85 C0                           	TEST	EAX,EAX
  4008 000026F3 0F 84 000001B6                  	JE	L701
  4009 000026F9                                 L700:
  4010 000026F9 8B 42 1C                        	MOV	EAX,DWORD [28+EDX]
  4011 000026FC 89 45 D0                        	MOV	DWORD [-48+EBP],EAX
  4012 000026FF 8D 45 D0                        	LEA	EAX,DWORD [-48+EBP]
  4013 00002702 FF 75 0C                        	PUSH	DWORD [12+EBP]
  4014 00002705 50                              	PUSH	EAX
  4015 00002706 0F B7 42 1A                     	MOVZX	EAX,WORD [26+EDX]
  4016 0000270A 50                              	PUSH	EAX
  4017 0000270B E8 [00000000]                   	CALL	_file_loadfile2
  4018 00002710 83 C4 0C                        	ADD	ESP,12
  4019 00002713 83 7D D0 23                     	CMP	DWORD [-48+EBP],35
  4020 00002717 89 45 CC                        	MOV	DWORD [-52+EBP],EAX
  4021 0000271A 7E 1C                           	JLE	L674
  4022 0000271C 89 C6                           	MOV	ESI,EAX
  4023 0000271E BF [00000A94]                   	MOV	EDI,LC137
  4024 00002723 FC                              	CLD
  4025 00002724 83 C6 04                        	ADD	ESI,4
  4026 00002727 B9 00000004                     	MOV	ECX,4
  4027 0000272C F3                              	REPE
  4028 0000272D A6                              	CMPSB
  4029 0000272E 75 08                           	JNE	L674
  4030 00002730 8B 45 CC                        	MOV	EAX,DWORD [-52+EBP]
  4031 00002733 80 38 00                        	CMP	BYTE [EAX],0
  4032 00002736 74 34                           	JE	L702
  4033 00002738                                 L674:
  4034 00002738 68 [00000A99]                   	PUSH	LC138
  4035 0000273D FF 75 08                        	PUSH	DWORD [8+EBP]
  4036 00002740 E8 FFFFDFAE                     	CALL	_cons_putstr0
  4037 00002745 58                              	POP	EAX
  4038 00002746 5A                              	POP	EDX
  4039 00002747                                 L692:
  4040 00002747 FF 75 D0                        	PUSH	DWORD [-48+EBP]
  4041 0000274A FF 75 CC                        	PUSH	DWORD [-52+EBP]
  4042 0000274D 68 003C0000                     	PUSH	3932160
  4043 00002752 E8 [00000000]                   	CALL	_memman_free_4k
  4044 00002757 FF 75 08                        	PUSH	DWORD [8+EBP]
  4045 0000275A E8 FFFFDE41                     	CALL	_cons_newline
  4046 0000275F B8 00000001                     	MOV	EAX,1
  4047 00002764                                 L665:
  4048 00002764 8D 65 F4                        	LEA	ESP,DWORD [-12+EBP]
  4049 00002767 5B                              	POP	EBX
  4050 00002768 5E                              	POP	ESI
  4051 00002769 5F                              	POP	EDI
  4052 0000276A 5D                              	POP	EBP
  4053 0000276B C3                              	RET
  4054 0000276C                                 L702:
  4055 0000276C 8B 10                           	MOV	EDX,DWORD [EAX]
  4056 0000276E 8B 40 0C                        	MOV	EAX,DWORD [12+EAX]
  4057 00002771 89 55 C4                        	MOV	DWORD [-60+EBP],EDX
  4058 00002774 89 45 C0                        	MOV	DWORD [-64+EBP],EAX
  4059 00002777 8B 55 CC                        	MOV	EDX,DWORD [-52+EBP]
  4060 0000277A 8B 5A 10                        	MOV	EBX,DWORD [16+EDX]
  4061 0000277D 8B 72 14                        	MOV	ESI,DWORD [20+EDX]
  4062 00002780 FF 75 C4                        	PUSH	DWORD [-60+EBP]
  4063 00002783 68 003C0000                     	PUSH	3932160
  4064 00002788 E8 [00000000]                   	CALL	_memman_alloc_4k
  4065 0000278D 89 C7                           	MOV	EDI,EAX
  4066 0000278F 8B 45 C8                        	MOV	EAX,DWORD [-56+EBP]
  4067 00002792 89 B8 000000A8                  	MOV	DWORD [168+EAX],EDI
  4068 00002798 8B 45 D0                        	MOV	EAX,DWORD [-48+EBP]
  4069 0000279B 68 000040FA                     	PUSH	16634
  4070 000027A0 48                              	DEC	EAX
  4071 000027A1 FF 75 CC                        	PUSH	DWORD [-52+EBP]
  4072 000027A4 50                              	PUSH	EAX
  4073 000027A5 8B 45 C8                        	MOV	EAX,DWORD [-56+EBP]
  4074 000027A8 05 00000094                     	ADD	EAX,148
  4075 000027AD 50                              	PUSH	EAX
  4076 000027AE E8 [00000000]                   	CALL	_set_segmdesc
  4077 000027B3 8B 45 C4                        	MOV	EAX,DWORD [-60+EBP]
  4078 000027B6 68 000040F2                     	PUSH	16626
  4079 000027BB 48                              	DEC	EAX
  4080 000027BC 57                              	PUSH	EDI
  4081 000027BD 50                              	PUSH	EAX
  4082 000027BE 8B 45 C8                        	MOV	EAX,DWORD [-56+EBP]
  4083 000027C1 05 0000009C                     	ADD	EAX,156
  4084 000027C6 50                              	PUSH	EAX
  4085 000027C7 E8 [00000000]                   	CALL	_set_segmdesc
  4086 000027CC 83 C4 28                        	ADD	ESP,40
  4087 000027CF 85 DB                           	TEST	EBX,EBX
  4088 000027D1 7E 16                           	JLE	L695
  4089 000027D3 8B 45 CC                        	MOV	EAX,DWORD [-52+EBP]
  4090 000027D6 8B 4D C0                        	MOV	ECX,DWORD [-64+EBP]
  4091 000027D9 01 F9                           	ADD	ECX,EDI
  4092 000027DB 8D 14 30                        	LEA	EDX,DWORD [EAX+ESI*1]
  4093 000027DE 89 DE                           	MOV	ESI,EBX
  4094 000027E0                                 L679:
  4095 000027E0 8A 02                           	MOV	AL,BYTE [EDX]
  4096 000027E2 42                              	INC	EDX
  4097 000027E3 88 01                           	MOV	BYTE [ECX],AL
  4098 000027E5 41                              	INC	ECX
  4099 000027E6 4E                              	DEC	ESI
  4100 000027E7 75 F7                           	JNE	L679
  4101 000027E9                                 L695:
  4102 000027E9 8B 45 C8                        	MOV	EAX,DWORD [-56+EBP]
  4103 000027EC BE 000000FF                     	MOV	ESI,255
  4104 000027F1 83 C0 30                        	ADD	EAX,48
  4105 000027F4 50                              	PUSH	EAX
  4106 000027F5 6A 0C                           	PUSH	12
  4107 000027F7 FF 75 C0                        	PUSH	DWORD [-64+EBP]
  4108 000027FA 6A 04                           	PUSH	4
  4109 000027FC 6A 1B                           	PUSH	27
  4110 000027FE E8 [00000000]                   	CALL	_start_app
  4111 00002803 8B 1D 00000FE4                  	MOV	EBX,DWORD [4068]
  4112 00002809 83 C4 14                        	ADD	ESP,20
  4113 0000280C 81 C3 00000414                  	ADD	EBX,1044
  4114 00002812                                 L685:
  4115 00002812 8B 43 1C                        	MOV	EAX,DWORD [28+EBX]
  4116 00002815 83 E0 11                        	AND	EAX,17
  4117 00002818 83 F8 11                        	CMP	EAX,17
  4118 0000281B 74 7A                           	JE	L703
  4119 0000281D                                 L682:
  4120 0000281D 83 C3 28                        	ADD	EBX,40
  4121 00002820 4E                              	DEC	ESI
  4122 00002821 79 EF                           	JNS	L685
  4123 00002823 31 DB                           	XOR	EBX,EBX
  4124 00002825 BE 00000007                     	MOV	ESI,7
  4125 0000282A                                 L691:
  4126 0000282A 8B 55 C8                        	MOV	EDX,DWORD [-56+EBP]
  4127 0000282D 8B 82 000000B0                  	MOV	EAX,DWORD [176+EDX]
  4128 00002833 83 3C 18 00                     	CMP	DWORD [EAX+EBX*1],0
  4129 00002837 75 32                           	JNE	L704
  4130 00002839                                 L688:
  4131 00002839 83 C3 0C                        	ADD	EBX,12
  4132 0000283C 4E                              	DEC	ESI
  4133 0000283D 79 EB                           	JNS	L691
  4134 0000283F 8B 45 C8                        	MOV	EAX,DWORD [-56+EBP]
  4135 00002842 83 C0 10                        	ADD	EAX,16
  4136 00002845 50                              	PUSH	EAX
  4137 00002846 E8 [00000000]                   	CALL	_timer_cancelall
  4138 0000284B FF 75 C4                        	PUSH	DWORD [-60+EBP]
  4139 0000284E 57                              	PUSH	EDI
  4140 0000284F 68 003C0000                     	PUSH	3932160
  4141 00002854 E8 [00000000]                   	CALL	_memman_free_4k
  4142 00002859 83 C4 10                        	ADD	ESP,16
  4143 0000285C 8B 45 C8                        	MOV	EAX,DWORD [-56+EBP]
  4144 0000285F C6 80 000000C1 00               	MOV	BYTE [193+EAX],0
  4145 00002866 E9 FFFFFEDC                     	JMP	L692
  4146 0000286B                                 L704:
  4147 0000286B FF 74 18 04                     	PUSH	DWORD [4+EAX+EBX*1]
  4148 0000286F 8B 82 000000B0                  	MOV	EAX,DWORD [176+EDX]
  4149 00002875 FF 34 18                        	PUSH	DWORD [EAX+EBX*1]
  4150 00002878 68 003C0000                     	PUSH	3932160
  4151 0000287D E8 [00000000]                   	CALL	_memman_free_4k
  4152 00002882 83 C4 0C                        	ADD	ESP,12
  4153 00002885 8B 55 C8                        	MOV	EDX,DWORD [-56+EBP]
  4154 00002888 8B 82 000000B0                  	MOV	EAX,DWORD [176+EDX]
  4155 0000288E C7 04 18 00000000               	MOV	DWORD [EAX+EBX*1],0
  4156 00002895 EB A2                           	JMP	L688
  4157 00002897                                 L703:
  4158 00002897 8B 55 C8                        	MOV	EDX,DWORD [-56+EBP]
  4159 0000289A 39 53 24                        	CMP	DWORD [36+EBX],EDX
  4160 0000289D 0F 85 FFFFFF7A                  	JNE	L682
  4161 000028A3 53                              	PUSH	EBX
  4162 000028A4 E8 [00000000]                   	CALL	_sheet_free
  4163 000028A9 59                              	POP	ECX
  4164 000028AA E9 FFFFFF6E                     	JMP	L682
  4165 000028AF                                 L701:
  4166 000028AF 80 7C 35 D3 2E                  	CMP	BYTE [-45+EBP+ESI*1],46
  4167 000028B4 74 2E                           	JE	L672
  4168 000028B6 68 000000E0                     	PUSH	224
  4169 000028BB 68 00102600                     	PUSH	1058304
  4170 000028C0 53                              	PUSH	EBX
  4171 000028C1 C6 44 35 D4 2E                  	MOV	BYTE [-44+EBP+ESI*1],46
  4172 000028C6 C6 44 35 D5 48                  	MOV	BYTE [-43+EBP+ESI*1],72
  4173 000028CB C6 44 35 D6 52                  	MOV	BYTE [-42+EBP+ESI*1],82
  4174 000028D0 C6 44 35 D7 42                  	MOV	BYTE [-41+EBP+ESI*1],66
  4175 000028D5 C6 44 35 D8 00                  	MOV	BYTE [-40+EBP+ESI*1],0
  4176 000028DA E8 [00000000]                   	CALL	_file_search
  4177 000028DF 83 C4 0C                        	ADD	ESP,12
  4178 000028E2 89 C2                           	MOV	EDX,EAX
  4179 000028E4                                 L672:
  4180 000028E4 85 D2                           	TEST	EDX,EDX
  4181 000028E6 0F 85 FFFFFE0D                  	JNE	L700
  4182 000028EC 31 C0                           	XOR	EAX,EAX
  4183 000028EE E9 FFFFFE71                     	JMP	L665
  4184 000028F3                                 	GLOBAL	_hrb_api
  4185 000028F3                                 _hrb_api:
  4186 000028F3 55                              	PUSH	EBP
  4187 000028F4 89 E5                           	MOV	EBP,ESP
  4188 000028F6 57                              	PUSH	EDI
  4189 000028F7 56                              	PUSH	ESI
  4190 000028F8 53                              	PUSH	EBX
  4191 000028F9 83 EC 18                        	SUB	ESP,24
  4192 000028FC 8B 75 10                        	MOV	ESI,DWORD [16+EBP]
  4193 000028FF 8B 7D 20                        	MOV	EDI,DWORD [32+EBP]
  4194 00002902 E8 [00000000]                   	CALL	_task_now
  4195 00002907 8B 0D 00000FE4                  	MOV	ECX,DWORD [4068]
  4196 0000290D 89 4D E8                        	MOV	DWORD [-24+EBP],ECX
  4197 00002910 89 45 F0                        	MOV	DWORD [-16+EBP],EAX
  4198 00002913 8B 80 000000A8                  	MOV	EAX,DWORD [168+EAX]
  4199 00002919 89 45 EC                        	MOV	DWORD [-20+EBP],EAX
  4200 0000291C 8B 55 F0                        	MOV	EDX,DWORD [-16+EBP]
  4201 0000291F A1 00000FEC                     	MOV	EAX,DWORD [4076]
  4202 00002924 89 45 E0                        	MOV	DWORD [-32+EBP],EAX
  4203 00002927 8B 9A 000000A4                  	MOV	EBX,DWORD [164+EDX]
  4204 0000292D 8B 45 1C                        	MOV	EAX,DWORD [28+EBP]
  4205 00002930 48                              	DEC	EAX
  4206 00002931 83 F8 1D                        	CMP	EAX,29
  4207 00002934 77 17                           	JA	L706
  4208 00002936 FF 24 85 [00000AB4]             	JMP	DWORD [L788+EAX*4]
  4209                                          [SECTION .data]
  4210 00000AB2 00 00                           	ALIGNB	4
  4211 00000AB4                                 L788:
  4212 00000AB4 [0000293D]                      	DD	L707
  4213 00000AB8 [00002957]                      	DD	L708
  4214 00000ABC [00002968]                      	DD	L709
  4215 00000AC0 [00002978]                      	DD	L710
  4216 00000AC4 [00002980]                      	DD	L711
  4217 00000AC8 [00002A06]                      	DD	L712
  4218 00000ACC [00002A5A]                      	DD	L714
  4219 00000AD0 [00002AA0]                      	DD	L716
  4220 00000AD4 [00002AC1]                      	DD	L717
  4221 00000AD8 [00002ADC]                      	DD	L718
  4222 00000ADC [00002AF7]                      	DD	L719
  4223 00000AE0 [00002B35]                      	DD	L721
  4224 00000AE4 [00002B47]                      	DD	L722
  4225 00000AE8 [00002B98]                      	DD	L726
  4226 00000AEC [00002BA6]                      	DD	L728
  4227 00000AF0 [00002C90]                      	DD	L739
  4228 00000AF4 [00002CA1]                      	DD	L740
  4229 00000AF8 [00002CBE]                      	DD	L741
  4230 00000AFC [00002CCE]                      	DD	L742
  4231 00000B00 [00002CDB]                      	DD	L743
  4232 00000B04 [00002D4E]                      	DD	L746
  4233 00000B08 [00002DD1]                      	DD	L755
  4234 00000B0C [00002DEE]                      	DD	L756
  4235 00000B10 [00002E38]                      	DD	L764
  4236 00000B14 [00002E68]                      	DD	L770
  4237 00000B18 [00002E97]                      	DD	L777
  4238 00000B1C [00002EC1]                      	DD	L783
  4239 00000B20 [0000294D]                      	DD	L706
  4240 00000B24 [0000294D]                      	DD	L706
  4241 00000B28 [0000294D]                      	DD	L706
  4242                                          [SECTION .text]
  4243 0000293D                                 L707:
  4244 0000293D 6A 01                           	PUSH	1
  4245 0000293F 0F B6 45 24                     	MOVZX	EAX,BYTE [36+EBP]
  4246 00002943 50                              	PUSH	EAX
  4247 00002944 53                              	PUSH	EBX
  4248 00002945 E8 FFFFDB9B                     	CALL	_cons_putchar
  4249 0000294A                                 L793:
  4250 0000294A 83 C4 0C                        	ADD	ESP,12
  4251 0000294D                                 L706:
  4252 0000294D 31 C0                           	XOR	EAX,EAX
  4253 0000294F                                 L705:
  4254 0000294F 8D 65 F4                        	LEA	ESP,DWORD [-12+EBP]
  4255 00002952 5B                              	POP	EBX
  4256 00002953 5E                              	POP	ESI
  4257 00002954 5F                              	POP	EDI
  4258 00002955 5D                              	POP	EBP
  4259 00002956 C3                              	RET
  4260 00002957                                 L708:
  4261 00002957 8B 45 18                        	MOV	EAX,DWORD [24+EBP]
  4262 0000295A 03 45 EC                        	ADD	EAX,DWORD [-20+EBP]
  4263 0000295D 50                              	PUSH	EAX
  4264 0000295E 53                              	PUSH	EBX
  4265 0000295F E8 FFFFDD8F                     	CALL	_cons_putstr0
  4266 00002964                                 L796:
  4267 00002964 5E                              	POP	ESI
  4268 00002965 5F                              	POP	EDI
  4269 00002966 EB E5                           	JMP	L706
  4270 00002968                                 L709:
  4271 00002968 8B 45 18                        	MOV	EAX,DWORD [24+EBP]
  4272 0000296B 57                              	PUSH	EDI
  4273 0000296C 03 45 EC                        	ADD	EAX,DWORD [-20+EBP]
  4274 0000296F 50                              	PUSH	EAX
  4275 00002970 53                              	PUSH	EBX
  4276 00002971 E8 FFFFDDAB                     	CALL	_cons_putstr1
  4277 00002976 EB D2                           	JMP	L793
  4278 00002978                                 L710:
  4279 00002978 8B 45 F0                        	MOV	EAX,DWORD [-16+EBP]
  4280 0000297B 83 C0 30                        	ADD	EAX,48
  4281 0000297E EB CF                           	JMP	L705
  4282 00002980                                 L711:
  4283 00002980 FF 75 E8                        	PUSH	DWORD [-24+EBP]
  4284 00002983 E8 [00000000]                   	CALL	_sheet_alloc
  4285 00002988 8B 5D 18                        	MOV	EBX,DWORD [24+EBP]
  4286 0000298B 8B 55 F0                        	MOV	EDX,DWORD [-16+EBP]
  4287 0000298E 03 5D EC                        	ADD	EBX,DWORD [-20+EBP]
  4288 00002991 89 50 24                        	MOV	DWORD [36+EAX],EDX
  4289 00002994 83 48 1C 10                     	OR	DWORD [28+EAX],16
  4290 00002998 FF 75 24                        	PUSH	DWORD [36+EBP]
  4291 0000299B FF 75 08                        	PUSH	DWORD [8+EBP]
  4292 0000299E FF 75 0C                        	PUSH	DWORD [12+EBP]
  4293 000029A1 53                              	PUSH	EBX
  4294 000029A2 89 45 E4                        	MOV	DWORD [-28+EBP],EAX
  4295 000029A5 50                              	PUSH	EAX
  4296 000029A6 E8 [00000000]                   	CALL	_sheet_setbuf
  4297 000029AB 8B 55 EC                        	MOV	EDX,DWORD [-20+EBP]
  4298 000029AE 6A 00                           	PUSH	0
  4299 000029B0 8D 04 3A                        	LEA	EAX,DWORD [EDX+EDI*1]
  4300 000029B3 50                              	PUSH	EAX
  4301 000029B4 FF 75 08                        	PUSH	DWORD [8+EBP]
  4302 000029B7 FF 75 0C                        	PUSH	DWORD [12+EBP]
  4303 000029BA 53                              	PUSH	EBX
  4304 000029BB BB 00000002                     	MOV	EBX,2
  4305 000029C0 E8 [00000000]                   	CALL	_make_window8
  4306 000029C5 8B 4D E8                        	MOV	ECX,DWORD [-24+EBP]
  4307 000029C8 83 C4 2C                        	ADD	ESP,44
  4308 000029CB 8B 41 0C                        	MOV	EAX,DWORD [12+ECX]
  4309 000029CE 2B 45 08                        	SUB	EAX,DWORD [8+EBP]
  4310 000029D1 99                              	CDQ
  4311 000029D2 F7 FB                           	IDIV	EBX
  4312 000029D4 50                              	PUSH	EAX
  4313 000029D5 8B 41 08                        	MOV	EAX,DWORD [8+ECX]
  4314 000029D8 2B 45 0C                        	SUB	EAX,DWORD [12+EBP]
  4315 000029DB 99                              	CDQ
  4316 000029DC F7 FB                           	IDIV	EBX
  4317 000029DE 83 E0 FC                        	AND	EAX,-4
  4318 000029E1 50                              	PUSH	EAX
  4319 000029E2 FF 75 E4                        	PUSH	DWORD [-28+EBP]
  4320 000029E5 E8 [00000000]                   	CALL	_sheet_slide
  4321 000029EA 8B 4D E8                        	MOV	ECX,DWORD [-24+EBP]
  4322 000029ED FF 71 10                        	PUSH	DWORD [16+ECX]
  4323 000029F0 FF 75 E4                        	PUSH	DWORD [-28+EBP]
  4324 000029F3 E8 [00000000]                   	CALL	_sheet_updown
  4325 000029F8 8B 5D E4                        	MOV	EBX,DWORD [-28+EBP]
  4326 000029FB 89 5D 44                        	MOV	DWORD [68+EBP],EBX
  4327 000029FE                                 L797:
  4328 000029FE 83 C4 14                        	ADD	ESP,20
  4329 00002A01 E9 FFFFFF47                     	JMP	L706
  4330 00002A06                                 L712:
  4331 00002A06 8B 45 18                        	MOV	EAX,DWORD [24+EBP]
  4332 00002A09 8B 55 EC                        	MOV	EDX,DWORD [-20+EBP]
  4333 00002A0C 83 E0 FE                        	AND	EAX,-2
  4334 00002A0F 89 45 E4                        	MOV	DWORD [-28+EBP],EAX
  4335 00002A12 8D 04 32                        	LEA	EAX,DWORD [EDX+ESI*1]
  4336 00002A15 50                              	PUSH	EAX
  4337 00002A16 8B 4D E4                        	MOV	ECX,DWORD [-28+EBP]
  4338 00002A19 0F BE 45 24                     	MOVSX	EAX,BYTE [36+EBP]
  4339 00002A1D 50                              	PUSH	EAX
  4340 00002A1E FF 75 08                        	PUSH	DWORD [8+EBP]
  4341 00002A21 FF 75 0C                        	PUSH	DWORD [12+EBP]
  4342 00002A24 FF 71 04                        	PUSH	DWORD [4+ECX]
  4343 00002A27 FF 31                           	PUSH	DWORD [ECX]
  4344 00002A29 E8 [00000000]                   	CALL	_putfonts8_asc
  4345 00002A2E 83 C4 18                        	ADD	ESP,24
  4346 00002A31 F7 45 18 00000001               	TEST	DWORD [24+EBP],1
  4347 00002A38 0F 85 FFFFFF0F                  	JNE	L706
  4348 00002A3E 8B 5D 0C                        	MOV	EBX,DWORD [12+EBP]
  4349 00002A41 8B 45 08                        	MOV	EAX,DWORD [8+EBP]
  4350 00002A44 83 C0 10                        	ADD	EAX,16
  4351 00002A47 50                              	PUSH	EAX
  4352 00002A48 8D 04 FB                        	LEA	EAX,DWORD [EBX+EDI*8]
  4353 00002A4B 50                              	PUSH	EAX
  4354 00002A4C FF 75 08                        	PUSH	DWORD [8+EBP]
  4355 00002A4F 53                              	PUSH	EBX
  4356 00002A50                                 L798:
  4357 00002A50 FF 75 E4                        	PUSH	DWORD [-28+EBP]
  4358 00002A53                                 L795:
  4359 00002A53 E8 [00000000]                   	CALL	_sheet_refresh
  4360 00002A58 EB A4                           	JMP	L797
  4361 00002A5A                                 L714:
  4362 00002A5A FF 75 08                        	PUSH	DWORD [8+EBP]
  4363 00002A5D 8B 45 18                        	MOV	EAX,DWORD [24+EBP]
  4364 00002A60 89 F2                           	MOV	EDX,ESI
  4365 00002A62 FF 75 0C                        	PUSH	DWORD [12+EBP]
  4366 00002A65 83 E0 FE                        	AND	EAX,-2
  4367 00002A68 57                              	PUSH	EDI
  4368 00002A69 89 45 E4                        	MOV	DWORD [-28+EBP],EAX
  4369 00002A6C FF 75 24                        	PUSH	DWORD [36+EBP]
  4370 00002A6F 8B 4D E4                        	MOV	ECX,DWORD [-28+EBP]
  4371 00002A72 0F B6 C2                        	MOVZX	EAX,DL
  4372 00002A75 50                              	PUSH	EAX
  4373 00002A76 FF 71 04                        	PUSH	DWORD [4+ECX]
  4374 00002A79 FF 31                           	PUSH	DWORD [ECX]
  4375 00002A7B E8 [00000000]                   	CALL	_boxfill8
  4376 00002A80 83 C4 1C                        	ADD	ESP,28
  4377 00002A83 F7 45 18 00000001               	TEST	DWORD [24+EBP],1
  4378 00002A8A 0F 85 FFFFFEBD                  	JNE	L706
  4379 00002A90                                 L725:
  4380 00002A90 8B 45 08                        	MOV	EAX,DWORD [8+EBP]
  4381 00002A93 40                              	INC	EAX
  4382 00002A94 50                              	PUSH	EAX
  4383 00002A95 8B 45 0C                        	MOV	EAX,DWORD [12+EBP]
  4384 00002A98 40                              	INC	EAX
  4385 00002A99 50                              	PUSH	EAX
  4386 00002A9A 57                              	PUSH	EDI
  4387 00002A9B FF 75 24                        	PUSH	DWORD [36+EBP]
  4388 00002A9E EB B0                           	JMP	L798
  4389 00002AA0                                 L716:
  4390 00002AA0 8B 5D 18                        	MOV	EBX,DWORD [24+EBP]
  4391 00002AA3 83 E7 F0                        	AND	EDI,-16
  4392 00002AA6 03 5D EC                        	ADD	EBX,DWORD [-20+EBP]
  4393 00002AA9 53                              	PUSH	EBX
  4394 00002AAA E8 [00000000]                   	CALL	_memman_init
  4395 00002AAF 57                              	PUSH	EDI
  4396 00002AB0 FF 75 24                        	PUSH	DWORD [36+EBP]
  4397 00002AB3 53                              	PUSH	EBX
  4398 00002AB4 E8 [00000000]                   	CALL	_memman_free
  4399 00002AB9 83 C4 10                        	ADD	ESP,16
  4400 00002ABC E9 FFFFFE8C                     	JMP	L706
  4401 00002AC1                                 L717:
  4402 00002AC1 8D 47 0F                        	LEA	EAX,DWORD [15+EDI]
  4403 00002AC4 83 E0 F0                        	AND	EAX,-16
  4404 00002AC7 50                              	PUSH	EAX
  4405 00002AC8 8B 45 18                        	MOV	EAX,DWORD [24+EBP]
  4406 00002ACB 03 45 EC                        	ADD	EAX,DWORD [-20+EBP]
  4407 00002ACE 50                              	PUSH	EAX
  4408 00002ACF E8 [00000000]                   	CALL	_memman_alloc
  4409 00002AD4 89 45 44                        	MOV	DWORD [68+EBP],EAX
  4410 00002AD7 E9 FFFFFE88                     	JMP	L796
  4411 00002ADC                                 L718:
  4412 00002ADC 8D 47 0F                        	LEA	EAX,DWORD [15+EDI]
  4413 00002ADF 83 E0 F0                        	AND	EAX,-16
  4414 00002AE2 50                              	PUSH	EAX
  4415 00002AE3 8B 45 18                        	MOV	EAX,DWORD [24+EBP]
  4416 00002AE6 03 45 EC                        	ADD	EAX,DWORD [-20+EBP]
  4417 00002AE9 FF 75 24                        	PUSH	DWORD [36+EBP]
  4418 00002AEC 50                              	PUSH	EAX
  4419 00002AED E8 [00000000]                   	CALL	_memman_free
  4420 00002AF2 E9 FFFFFE53                     	JMP	L793
  4421 00002AF7                                 L719:
  4422 00002AF7 8B 5D 18                        	MOV	EBX,DWORD [24+EBP]
  4423 00002AFA 8B 45 08                        	MOV	EAX,DWORD [8+EBP]
  4424 00002AFD 83 E3 FE                        	AND	EBX,-2
  4425 00002B00 8A 55 24                        	MOV	DL,BYTE [36+EBP]
  4426 00002B03 89 5D E4                        	MOV	DWORD [-28+EBP],EBX
  4427 00002B06 0F AF 43 04                     	IMUL	EAX,DWORD [4+EBX]
  4428 00002B0A 03 45 0C                        	ADD	EAX,DWORD [12+EBP]
  4429 00002B0D 8B 0B                           	MOV	ECX,DWORD [EBX]
  4430 00002B0F 88 14 08                        	MOV	BYTE [EAX+ECX*1],DL
  4431 00002B12 F7 45 18 00000001               	TEST	DWORD [24+EBP],1
  4432 00002B19 0F 85 FFFFFE2E                  	JNE	L706
  4433 00002B1F 8B 45 08                        	MOV	EAX,DWORD [8+EBP]
  4434 00002B22 40                              	INC	EAX
  4435 00002B23 50                              	PUSH	EAX
  4436 00002B24 8B 45 0C                        	MOV	EAX,DWORD [12+EBP]
  4437 00002B27 40                              	INC	EAX
  4438 00002B28 50                              	PUSH	EAX
  4439 00002B29 FF 75 08                        	PUSH	DWORD [8+EBP]
  4440 00002B2C FF 75 0C                        	PUSH	DWORD [12+EBP]
  4441 00002B2F 53                              	PUSH	EBX
  4442 00002B30 E9 FFFFFF1E                     	JMP	L795
  4443 00002B35                                 L721:
  4444 00002B35 FF 75 08                        	PUSH	DWORD [8+EBP]
  4445 00002B38 FF 75 0C                        	PUSH	DWORD [12+EBP]
  4446 00002B3B 57                              	PUSH	EDI
  4447 00002B3C FF 75 24                        	PUSH	DWORD [36+EBP]
  4448 00002B3F FF 75 18                        	PUSH	DWORD [24+EBP]
  4449 00002B42 E9 FFFFFF0C                     	JMP	L795
  4450 00002B47                                 L722:
  4451 00002B47 56                              	PUSH	ESI
  4452 00002B48 8B 45 18                        	MOV	EAX,DWORD [24+EBP]
  4453 00002B4B FF 75 08                        	PUSH	DWORD [8+EBP]
  4454 00002B4E FF 75 0C                        	PUSH	DWORD [12+EBP]
  4455 00002B51 57                              	PUSH	EDI
  4456 00002B52 83 E0 FE                        	AND	EAX,-2
  4457 00002B55 FF 75 24                        	PUSH	DWORD [36+EBP]
  4458 00002B58 50                              	PUSH	EAX
  4459 00002B59 89 45 E4                        	MOV	DWORD [-28+EBP],EAX
  4460 00002B5C E8 00000401                     	CALL	_hrb_api_linewin
  4461 00002B61 83 C4 18                        	ADD	ESP,24
  4462 00002B64 F7 45 18 00000001               	TEST	DWORD [24+EBP],1
  4463 00002B6B 0F 85 FFFFFDDC                  	JNE	L706
  4464 00002B71 8B 45 24                        	MOV	EAX,DWORD [36+EBP]
  4465 00002B74 3B 45 0C                        	CMP	EAX,DWORD [12+EBP]
  4466 00002B77 7E 09                           	JLE	L724
  4467 00002B79 8B 55 0C                        	MOV	EDX,DWORD [12+EBP]
  4468 00002B7C 89 45 0C                        	MOV	DWORD [12+EBP],EAX
  4469 00002B7F 89 55 24                        	MOV	DWORD [36+EBP],EDX
  4470 00002B82                                 L724:
  4471 00002B82 3B 7D 08                        	CMP	EDI,DWORD [8+EBP]
  4472 00002B85 0F 8E FFFFFF05                  	JLE	L725
  4473 00002B8B 89 FE                           	MOV	ESI,EDI
  4474 00002B8D 8B 7D 08                        	MOV	EDI,DWORD [8+EBP]
  4475 00002B90 89 75 08                        	MOV	DWORD [8+EBP],ESI
  4476 00002B93 E9 FFFFFEF8                     	JMP	L725
  4477 00002B98                                 L726:
  4478 00002B98 FF 75 18                        	PUSH	DWORD [24+EBP]
  4479 00002B9B E8 [00000000]                   	CALL	_sheet_free
  4480 00002BA0                                 L794:
  4481 00002BA0 5B                              	POP	EBX
  4482 00002BA1 E9 FFFFFDA7                     	JMP	L706
  4483 00002BA6                                 L728:
  4484 00002BA6 E8 [00000000]                   	CALL	_io_cli
  4485 00002BAB 8B 45 F0                        	MOV	EAX,DWORD [-16+EBP]
  4486 00002BAE 83 C0 10                        	ADD	EAX,16
  4487 00002BB1 50                              	PUSH	EAX
  4488 00002BB2 E8 [00000000]                   	CALL	_fifo32_status
  4489 00002BB7 5A                              	POP	EDX
  4490 00002BB8 85 C0                           	TEST	EAX,EAX
  4491 00002BBA 75 13                           	JNE	L731
  4492 00002BBC 83 7D 24 00                     	CMP	DWORD [36+EBP],0
  4493 00002BC0 0F 84 000000B9                  	JE	L732
  4494 00002BC6 FF 75 F0                        	PUSH	DWORD [-16+EBP]
  4495 00002BC9 E8 [00000000]                   	CALL	_task_sleep
  4496 00002BCE 58                              	POP	EAX
  4497 00002BCF                                 L731:
  4498 00002BCF 8B 7D F0                        	MOV	EDI,DWORD [-16+EBP]
  4499 00002BD2 83 C7 10                        	ADD	EDI,16
  4500 00002BD5 57                              	PUSH	EDI
  4501 00002BD6 E8 [00000000]                   	CALL	_fifo32_get
  4502 00002BDB 89 C6                           	MOV	ESI,EAX
  4503 00002BDD E8 [00000000]                   	CALL	_io_sti
  4504 00002BE2 58                              	POP	EAX
  4505 00002BE3 83 FE 01                        	CMP	ESI,1
  4506 00002BE6 7E 75                           	JLE	L799
  4507 00002BE8                                 L734:
  4508 00002BE8 83 FE 02                        	CMP	ESI,2
  4509 00002BEB 74 67                           	JE	L800
  4510 00002BED                                 L735:
  4511 00002BED 83 FE 03                        	CMP	ESI,3
  4512 00002BF0 74 59                           	JE	L801
  4513 00002BF2                                 L736:
  4514 00002BF2 83 FE 04                        	CMP	ESI,4
  4515 00002BF5 74 16                           	JE	L802
  4516 00002BF7                                 L737:
  4517 00002BF7 8D 86 FFFFFF00                  	LEA	EAX,DWORD [-256+ESI]
  4518 00002BFD 81 FE 000000FF                  	CMP	ESI,255
  4519 00002C03 7E A1                           	JLE	L728
  4520 00002C05                                 L792:
  4521 00002C05 89 45 44                        	MOV	DWORD [68+EBP],EAX
  4522 00002C08 E9 FFFFFD40                     	JMP	L706
  4523 00002C0D                                 L802:
  4524 00002C0D FF 73 10                        	PUSH	DWORD [16+EBX]
  4525 00002C10 E8 [00000000]                   	CALL	_timer_cancel
  4526 00002C15 E8 [00000000]                   	CALL	_io_cli
  4527 00002C1A 8B 03                           	MOV	EAX,DWORD [EBX]
  4528 00002C1C 2B 45 E8                        	SUB	EAX,DWORD [-24+EBP]
  4529 00002C1F 2D 00000414                     	SUB	EAX,1044
  4530 00002C24 C1 F8 03                        	SAR	EAX,3
  4531 00002C27 69 C0 CCCCCCCD                  	IMUL	EAX,EAX,-858993459
  4532 00002C2D 05 000007E8                     	ADD	EAX,2024
  4533 00002C32 50                              	PUSH	EAX
  4534 00002C33 FF 75 E0                        	PUSH	DWORD [-32+EBP]
  4535 00002C36 E8 [00000000]                   	CALL	_fifo32_put
  4536 00002C3B C7 03 00000000                  	MOV	DWORD [EBX],0
  4537 00002C41 E8 [00000000]                   	CALL	_io_sti
  4538 00002C46 83 C4 0C                        	ADD	ESP,12
  4539 00002C49 EB AC                           	JMP	L737
  4540 00002C4B                                 L801:
  4541 00002C4B C7 43 0C FFFFFFFF               	MOV	DWORD [12+EBX],-1
  4542 00002C52 EB 9E                           	JMP	L736
  4543 00002C54                                 L800:
  4544 00002C54 C7 43 0C 00000007               	MOV	DWORD [12+EBX],7
  4545 00002C5B EB 90                           	JMP	L735
  4546 00002C5D                                 L799:
  4547 00002C5D 83 3B 00                        	CMP	DWORD [EBX],0
  4548 00002C60 74 86                           	JE	L734
  4549 00002C62 6A 01                           	PUSH	1
  4550 00002C64 57                              	PUSH	EDI
  4551 00002C65 FF 73 10                        	PUSH	DWORD [16+EBX]
  4552 00002C68 E8 [00000000]                   	CALL	_timer_init
  4553 00002C6D 6A 32                           	PUSH	50
  4554 00002C6F FF 73 10                        	PUSH	DWORD [16+EBX]
  4555 00002C72 E8 [00000000]                   	CALL	_timer_settime
  4556 00002C77 83 C4 14                        	ADD	ESP,20
  4557 00002C7A E9 FFFFFF69                     	JMP	L734
  4558 00002C7F                                 L732:
  4559 00002C7F E8 [00000000]                   	CALL	_io_sti
  4560 00002C84 C7 45 44 FFFFFFFF               	MOV	DWORD [68+EBP],-1
  4561 00002C8B E9 FFFFFCBD                     	JMP	L706
  4562 00002C90                                 L739:
  4563 00002C90 E8 [00000000]                   	CALL	_timer_alloc
  4564 00002C95 89 45 44                        	MOV	DWORD [68+EBP],EAX
  4565 00002C98 C6 40 09 01                     	MOV	BYTE [9+EAX],1
  4566 00002C9C E9 FFFFFCAC                     	JMP	L706
  4567 00002CA1                                 L740:
  4568 00002CA1 8B 45 24                        	MOV	EAX,DWORD [36+EBP]
  4569 00002CA4 05 00000100                     	ADD	EAX,256
  4570 00002CA9 50                              	PUSH	EAX
  4571 00002CAA 8B 45 F0                        	MOV	EAX,DWORD [-16+EBP]
  4572 00002CAD 83 C0 10                        	ADD	EAX,16
  4573 00002CB0 50                              	PUSH	EAX
  4574 00002CB1 FF 75 18                        	PUSH	DWORD [24+EBP]
  4575 00002CB4 E8 [00000000]                   	CALL	_timer_init
  4576 00002CB9 E9 FFFFFC8C                     	JMP	L793
  4577 00002CBE                                 L741:
  4578 00002CBE FF 75 24                        	PUSH	DWORD [36+EBP]
  4579 00002CC1 FF 75 18                        	PUSH	DWORD [24+EBP]
  4580 00002CC4 E8 [00000000]                   	CALL	_timer_settime
  4581 00002CC9 E9 FFFFFC96                     	JMP	L796
  4582 00002CCE                                 L742:
  4583 00002CCE FF 75 18                        	PUSH	DWORD [24+EBP]
  4584 00002CD1 E8 [00000000]                   	CALL	_timer_free
  4585 00002CD6 E9 FFFFFEC5                     	JMP	L794
  4586 00002CDB                                 L743:
  4587 00002CDB 8B 55 24                        	MOV	EDX,DWORD [36+EBP]
  4588 00002CDE 85 D2                           	TEST	EDX,EDX
  4589 00002CE0 75 19                           	JNE	L744
  4590 00002CE2 6A 61                           	PUSH	97
  4591 00002CE4 E8 [00000000]                   	CALL	_io_in8
  4592 00002CE9 89 C6                           	MOV	ESI,EAX
  4593 00002CEB 83 E6 0D                        	AND	ESI,13
  4594 00002CEE 56                              	PUSH	ESI
  4595 00002CEF 6A 61                           	PUSH	97
  4596 00002CF1 E8 [00000000]                   	CALL	_io_out8
  4597 00002CF6 E9 FFFFFC4F                     	JMP	L793
  4598 00002CFB                                 L744:
  4599 00002CFB B9 471E7B60                     	MOV	ECX,1193180000
  4600 00002D00 89 D3                           	MOV	EBX,EDX
  4601 00002D02 89 C8                           	MOV	EAX,ECX
  4602 00002D04 68 000000B6                     	PUSH	182
  4603 00002D09 99                              	CDQ
  4604 00002D0A F7 FB                           	IDIV	EBX
  4605 00002D0C 6A 43                           	PUSH	67
  4606 00002D0E 89 C6                           	MOV	ESI,EAX
  4607 00002D10 E8 [00000000]                   	CALL	_io_out8
  4608 00002D15 89 F0                           	MOV	EAX,ESI
  4609 00002D17 C1 FE 08                        	SAR	ESI,8
  4610 00002D1A 25 000000FF                     	AND	EAX,255
  4611 00002D1F 50                              	PUSH	EAX
  4612 00002D20 6A 42                           	PUSH	66
  4613 00002D22 E8 [00000000]                   	CALL	_io_out8
  4614 00002D27 56                              	PUSH	ESI
  4615 00002D28 6A 42                           	PUSH	66
  4616 00002D2A E8 [00000000]                   	CALL	_io_out8
  4617 00002D2F 6A 61                           	PUSH	97
  4618 00002D31 E8 [00000000]                   	CALL	_io_in8
  4619 00002D36 89 C6                           	MOV	ESI,EAX
  4620 00002D38 83 CE 03                        	OR	ESI,3
  4621 00002D3B 83 E6 0F                        	AND	ESI,15
  4622 00002D3E 56                              	PUSH	ESI
  4623 00002D3F 6A 61                           	PUSH	97
  4624 00002D41 E8 [00000000]                   	CALL	_io_out8
  4625 00002D46 83 C4 24                        	ADD	ESP,36
  4626 00002D49 E9 FFFFFBFF                     	JMP	L706
  4627 00002D4E                                 L746:
  4628 00002D4E 31 F6                           	XOR	ESI,ESI
  4629 00002D50 31 C0                           	XOR	EAX,EAX
  4630 00002D52                                 L752:
  4631 00002D52 8B 4D F0                        	MOV	ECX,DWORD [-16+EBP]
  4632 00002D55 8B 91 000000B0                  	MOV	EDX,DWORD [176+ECX]
  4633 00002D5B 83 3C 02 00                     	CMP	DWORD [EDX+EAX*1],0
  4634 00002D5F 74 09                           	JE	L748
  4635 00002D61 46                              	INC	ESI
  4636 00002D62 83 C0 0C                        	ADD	EAX,12
  4637 00002D65 83 FE 07                        	CMP	ESI,7
  4638 00002D68 7E E8                           	JLE	L752
  4639 00002D6A                                 L748:
  4640 00002D6A 6B C6 0C                        	IMUL	EAX,ESI,12
  4641 00002D6D C7 45 44 00000000               	MOV	DWORD [68+EBP],0
  4642 00002D74 8D 1C 10                        	LEA	EBX,DWORD [EAX+EDX*1]
  4643 00002D77 83 FE 07                        	CMP	ESI,7
  4644 00002D7A 0F 8F FFFFFBCD                  	JG	L706
  4645 00002D80 8B 45 18                        	MOV	EAX,DWORD [24+EBP]
  4646 00002D83 68 000000E0                     	PUSH	224
  4647 00002D88 03 45 EC                        	ADD	EAX,DWORD [-20+EBP]
  4648 00002D8B 68 00102600                     	PUSH	1058304
  4649 00002D90 50                              	PUSH	EAX
  4650 00002D91 E8 [00000000]                   	CALL	_file_search
  4651 00002D96 83 C4 0C                        	ADD	ESP,12
  4652 00002D99 89 C2                           	MOV	EDX,EAX
  4653 00002D9B 85 C0                           	TEST	EAX,EAX
  4654 00002D9D 0F 84 FFFFFBAA                  	JE	L706
  4655 00002DA3 89 5D 44                        	MOV	DWORD [68+EBP],EBX
  4656 00002DA6 8B 40 1C                        	MOV	EAX,DWORD [28+EAX]
  4657 00002DA9 89 43 04                        	MOV	DWORD [4+EBX],EAX
  4658 00002DAC 8B 45 F0                        	MOV	EAX,DWORD [-16+EBP]
  4659 00002DAF C7 43 08 00000000               	MOV	DWORD [8+EBX],0
  4660 00002DB6 FF B0 000000B4                  	PUSH	DWORD [180+EAX]
  4661 00002DBC 8D 43 04                        	LEA	EAX,DWORD [4+EBX]
  4662 00002DBF 50                              	PUSH	EAX
  4663 00002DC0 0F B7 42 1A                     	MOVZX	EAX,WORD [26+EDX]
  4664 00002DC4 50                              	PUSH	EAX
  4665 00002DC5 E8 [00000000]                   	CALL	_file_loadfile2
  4666 00002DCA 89 03                           	MOV	DWORD [EBX],EAX
  4667 00002DCC E9 FFFFFB79                     	JMP	L793
  4668 00002DD1                                 L755:
  4669 00002DD1 8B 5D 24                        	MOV	EBX,DWORD [36+EBP]
  4670 00002DD4 FF 73 04                        	PUSH	DWORD [4+EBX]
  4671 00002DD7 FF 33                           	PUSH	DWORD [EBX]
  4672 00002DD9 68 003C0000                     	PUSH	3932160
  4673 00002DDE E8 [00000000]                   	CALL	_memman_free_4k
  4674 00002DE3 C7 03 00000000                  	MOV	DWORD [EBX],0
  4675 00002DE9 E9 FFFFFB5C                     	JMP	L793
  4676 00002DEE                                 L756:
  4677 00002DEE 8B 5D 24                        	MOV	EBX,DWORD [36+EBP]
  4678 00002DF1 85 FF                           	TEST	EDI,EDI
  4679 00002DF3 74 33                           	JE	L791
  4680 00002DF5 83 FF 01                        	CMP	EDI,1
  4681 00002DF8 74 36                           	JE	L803
  4682 00002DFA 83 FF 02                        	CMP	EDI,2
  4683 00002DFD 74 23                           	JE	L804
  4684 00002DFF                                 L758:
  4685 00002DFF 83 7B 08 00                     	CMP	DWORD [8+EBX],0
  4686 00002E03 78 14                           	JS	L805
  4687 00002E05                                 L762:
  4688 00002E05 8B 43 04                        	MOV	EAX,DWORD [4+EBX]
  4689 00002E08 39 43 08                        	CMP	DWORD [8+EBX],EAX
  4690 00002E0B 0F 8E FFFFFB3C                  	JLE	L706
  4691 00002E11 89 43 08                        	MOV	DWORD [8+EBX],EAX
  4692 00002E14 E9 FFFFFB34                     	JMP	L706
  4693 00002E19                                 L805:
  4694 00002E19 C7 43 08 00000000               	MOV	DWORD [8+EBX],0
  4695 00002E20 EB E3                           	JMP	L762
  4696 00002E22                                 L804:
  4697 00002E22 8B 43 04                        	MOV	EAX,DWORD [4+EBX]
  4698 00002E25 01 45 18                        	ADD	DWORD [24+EBP],EAX
  4699 00002E28                                 L791:
  4700 00002E28 8B 55 18                        	MOV	EDX,DWORD [24+EBP]
  4701 00002E2B 89 53 08                        	MOV	DWORD [8+EBX],EDX
  4702 00002E2E EB CF                           	JMP	L758
  4703 00002E30                                 L803:
  4704 00002E30 8B 4D 18                        	MOV	ECX,DWORD [24+EBP]
  4705 00002E33 01 4B 08                        	ADD	DWORD [8+EBX],ECX
  4706 00002E36 EB C7                           	JMP	L758
  4707 00002E38                                 L764:
  4708 00002E38 8B 5D 24                        	MOV	EBX,DWORD [36+EBP]
  4709 00002E3B 85 FF                           	TEST	EDI,EDI
  4710 00002E3D 75 08                           	JNE	L765
  4711 00002E3F 8B 43 04                        	MOV	EAX,DWORD [4+EBX]
  4712 00002E42 E9 FFFFFDBE                     	JMP	L792
  4713 00002E47                                 L765:
  4714 00002E47 83 FF 01                        	CMP	EDI,1
  4715 00002E4A 74 14                           	JE	L806
  4716 00002E4C 83 FF 02                        	CMP	EDI,2
  4717 00002E4F 0F 85 FFFFFAF8                  	JNE	L706
  4718 00002E55 8B 43 08                        	MOV	EAX,DWORD [8+EBX]
  4719 00002E58 2B 43 04                        	SUB	EAX,DWORD [4+EBX]
  4720 00002E5B E9 FFFFFDA5                     	JMP	L792
  4721 00002E60                                 L806:
  4722 00002E60 8B 43 08                        	MOV	EAX,DWORD [8+EBX]
  4723 00002E63 E9 FFFFFD9D                     	JMP	L792
  4724 00002E68                                 L770:
  4725 00002E68 31 F6                           	XOR	ESI,ESI
  4726 00002E6A 8B 5D 24                        	MOV	EBX,DWORD [36+EBP]
  4727 00002E6D 39 FE                           	CMP	ESI,EDI
  4728 00002E6F 7D 1E                           	JGE	L779
  4729 00002E71                                 L776:
  4730 00002E71 8B 4B 08                        	MOV	ECX,DWORD [8+EBX]
  4731 00002E74 3B 4B 04                        	CMP	ECX,DWORD [4+EBX]
  4732 00002E77 74 16                           	JE	L779
  4733 00002E79 8B 45 18                        	MOV	EAX,DWORD [24+EBP]
  4734 00002E7C 8B 13                           	MOV	EDX,DWORD [EBX]
  4735 00002E7E 03 45 EC                        	ADD	EAX,DWORD [-20+EBP]
  4736 00002E81 8A 14 11                        	MOV	DL,BYTE [ECX+EDX*1]
  4737 00002E84 88 14 06                        	MOV	BYTE [ESI+EAX*1],DL
  4738 00002E87 46                              	INC	ESI
  4739 00002E88 FF 43 08                        	INC	DWORD [8+EBX]
  4740 00002E8B 39 FE                           	CMP	ESI,EDI
  4741 00002E8D 7C E2                           	JL	L776
  4742 00002E8F                                 L779:
  4743 00002E8F 89 75 44                        	MOV	DWORD [68+EBP],ESI
  4744 00002E92 E9 FFFFFAB6                     	JMP	L706
  4745 00002E97                                 L777:
  4746 00002E97 31 F6                           	XOR	ESI,ESI
  4747 00002E99                                 L778:
  4748 00002E99 8B 4D F0                        	MOV	ECX,DWORD [-16+EBP]
  4749 00002E9C 8B 55 18                        	MOV	EDX,DWORD [24+EBP]
  4750 00002E9F 03 55 EC                        	ADD	EDX,DWORD [-20+EBP]
  4751 00002EA2 8B 81 000000B8                  	MOV	EAX,DWORD [184+ECX]
  4752 00002EA8 8A 04 06                        	MOV	AL,BYTE [ESI+EAX*1]
  4753 00002EAB 88 04 16                        	MOV	BYTE [ESI+EDX*1],AL
  4754 00002EAE 8B 81 000000B8                  	MOV	EAX,DWORD [184+ECX]
  4755 00002EB4 80 3C 06 00                     	CMP	BYTE [ESI+EAX*1],0
  4756 00002EB8 74 D5                           	JE	L779
  4757 00002EBA 39 FE                           	CMP	ESI,EDI
  4758 00002EBC 7D D1                           	JGE	L779
  4759 00002EBE 46                              	INC	ESI
  4760 00002EBF EB D8                           	JMP	L778
  4761 00002EC1                                 L783:
  4762 00002EC1 8B 5D F0                        	MOV	EBX,DWORD [-16+EBP]
  4763 00002EC4 0F B6 83 000000C0               	MOVZX	EAX,BYTE [192+EBX]
  4764 00002ECB E9 FFFFFD35                     	JMP	L792
  4765                                          [SECTION .data]
  4766 00000B2C                                 LC139:
  4767 00000B2C 0A 49 4E 54 20 30 43 20 3A 0A   	DB	0x0A,"INT 0C :",0x0A," Stack Exception.",0x0A,0x00
       00000B36 20 53 74 61 63 6B 20 45 78 63 
       00000B40 65 70 74 69 6F 6E 2E 0A 00 
  4768 00000B49                                 LC140:
  4769 00000B49 45 49 50 20 3D 20 25 30 38 58   	DB	"EIP = %08X",0x0A,0x00
       00000B53 0A 00 
  4770                                          [SECTION .text]
  4771 00002ED0                                 	GLOBAL	_inthandler0c
  4772 00002ED0                                 _inthandler0c:
  4773 00002ED0 55                              	PUSH	EBP
  4774 00002ED1 89 E5                           	MOV	EBP,ESP
  4775 00002ED3 57                              	PUSH	EDI
  4776 00002ED4 56                              	PUSH	ESI
  4777 00002ED5 53                              	PUSH	EBX
  4778 00002ED6 8D 5D D4                        	LEA	EBX,DWORD [-44+EBP]
  4779 00002ED9 83 EC 20                        	SUB	ESP,32
  4780 00002EDC E8 [00000000]                   	CALL	_task_now
  4781 00002EE1 89 C6                           	MOV	ESI,EAX
  4782 00002EE3 8B B8 000000A4                  	MOV	EDI,DWORD [164+EAX]
  4783 00002EE9 83 C6 30                        	ADD	ESI,48
  4784 00002EEC 68 [00000B2C]                   	PUSH	LC139
  4785 00002EF1 57                              	PUSH	EDI
  4786 00002EF2 E8 FFFFD7FC                     	CALL	_cons_putstr0
  4787 00002EF7 8B 45 08                        	MOV	EAX,DWORD [8+EBP]
  4788 00002EFA FF 70 2C                        	PUSH	DWORD [44+EAX]
  4789 00002EFD 68 [00000B49]                   	PUSH	LC140
  4790 00002F02 53                              	PUSH	EBX
  4791 00002F03 E8 [00000000]                   	CALL	_sprintf
  4792 00002F08 53                              	PUSH	EBX
  4793 00002F09 57                              	PUSH	EDI
  4794 00002F0A E8 FFFFD7E4                     	CALL	_cons_putstr0
  4795 00002F0F 8D 65 F4                        	LEA	ESP,DWORD [-12+EBP]
  4796 00002F12 5B                              	POP	EBX
  4797 00002F13 89 F0                           	MOV	EAX,ESI
  4798 00002F15 5E                              	POP	ESI
  4799 00002F16 5F                              	POP	EDI
  4800 00002F17 5D                              	POP	EBP
  4801 00002F18 C3                              	RET
  4802                                          [SECTION .data]
  4803 00000B55                                 LC141:
  4804 00000B55 0A 49 4E 54 20 30 44 20 3A 0A   	DB	0x0A,"INT 0D :",0x0A," General Protected Exception.",0x0A,0x00
       00000B5F 20 47 65 6E 65 72 61 6C 20 50 
       00000B69 72 6F 74 65 63 74 65 64 20 45 
       00000B73 78 63 65 70 74 69 6F 6E 2E 0A 
       00000B7D 00 
  4805                                          [SECTION .text]
  4806 00002F19                                 	GLOBAL	_inthandler0d
  4807 00002F19                                 _inthandler0d:
  4808 00002F19 55                              	PUSH	EBP
  4809 00002F1A 89 E5                           	MOV	EBP,ESP
  4810 00002F1C 57                              	PUSH	EDI
  4811 00002F1D 56                              	PUSH	ESI
  4812 00002F1E 53                              	PUSH	EBX
  4813 00002F1F 8D 5D D4                        	LEA	EBX,DWORD [-44+EBP]
  4814 00002F22 83 EC 20                        	SUB	ESP,32
  4815 00002F25 E8 [00000000]                   	CALL	_task_now
  4816 00002F2A 89 C6                           	MOV	ESI,EAX
  4817 00002F2C 8B B8 000000A4                  	MOV	EDI,DWORD [164+EAX]
  4818 00002F32 83 C6 30                        	ADD	ESI,48
  4819 00002F35 68 [00000B55]                   	PUSH	LC141
  4820 00002F3A 57                              	PUSH	EDI
  4821 00002F3B E8 FFFFD7B3                     	CALL	_cons_putstr0
  4822 00002F40 8B 45 08                        	MOV	EAX,DWORD [8+EBP]
  4823 00002F43 FF 70 2C                        	PUSH	DWORD [44+EAX]
  4824 00002F46 68 [00000B49]                   	PUSH	LC140
  4825 00002F4B 53                              	PUSH	EBX
  4826 00002F4C E8 [00000000]                   	CALL	_sprintf
  4827 00002F51 53                              	PUSH	EBX
  4828 00002F52 57                              	PUSH	EDI
  4829 00002F53 E8 FFFFD79B                     	CALL	_cons_putstr0
  4830 00002F58 8D 65 F4                        	LEA	ESP,DWORD [-12+EBP]
  4831 00002F5B 5B                              	POP	EBX
  4832 00002F5C 89 F0                           	MOV	EAX,ESI
  4833 00002F5E 5E                              	POP	ESI
  4834 00002F5F 5F                              	POP	EDI
  4835 00002F60 5D                              	POP	EBP
  4836 00002F61 C3                              	RET
  4837 00002F62                                 	GLOBAL	_hrb_api_linewin
  4838 00002F62                                 _hrb_api_linewin:
  4839 00002F62 55                              	PUSH	EBP
  4840 00002F63 89 E5                           	MOV	EBP,ESP
  4841 00002F65 57                              	PUSH	EDI
  4842 00002F66 56                              	PUSH	ESI
  4843 00002F67 53                              	PUSH	EBX
  4844 00002F68 83 EC 0C                        	SUB	ESP,12
  4845 00002F6B 8B 5D 0C                        	MOV	EBX,DWORD [12+EBP]
  4846 00002F6E 8B 45 14                        	MOV	EAX,DWORD [20+EBP]
  4847 00002F71 89 D9                           	MOV	ECX,EBX
  4848 00002F73 8B 55 18                        	MOV	EDX,DWORD [24+EBP]
  4849 00002F76 C1 E1 0A                        	SAL	ECX,10
  4850 00002F79 89 D7                           	MOV	EDI,EDX
  4851 00002F7B 89 4D F0                        	MOV	DWORD [-16+EBP],ECX
  4852 00002F7E 89 C6                           	MOV	ESI,EAX
  4853 00002F80 8B 4D 10                        	MOV	ECX,DWORD [16+EBP]
  4854 00002F83 2B 7D 10                        	SUB	EDI,DWORD [16+EBP]
  4855 00002F86 C1 E1 0A                        	SAL	ECX,10
  4856 00002F89 29 DE                           	SUB	ESI,EBX
  4857 00002F8B 89 4D EC                        	MOV	DWORD [-20+EBP],ECX
  4858 00002F8E 0F 88 000000A3                  	JS	L831
  4859 00002F94                                 L810:
  4860 00002F94 85 FF                           	TEST	EDI,EDI
  4861 00002F96 0F 88 00000094                  	JS	L832
  4862 00002F9C                                 L811:
  4863 00002F9C 39 FE                           	CMP	ESI,EDI
  4864 00002F9E 7C 62                           	JL	L812
  4865 00002FA0 8D 4E 01                        	LEA	ECX,DWORD [1+ESI]
  4866 00002FA3 39 C3                           	CMP	EBX,EAX
  4867 00002FA5 BE FFFFFC00                     	MOV	ESI,-1024
  4868 00002FAA 7F 05                           	JG	L814
  4869 00002FAC BE 00000400                     	MOV	ESI,1024
  4870 00002FB1                                 L814:
  4871 00002FB1 39 55 10                        	CMP	DWORD [16+EBP],EDX
  4872 00002FB4 7F 46                           	JG	L815
  4873 00002FB6 2B 55 10                        	SUB	EDX,DWORD [16+EBP]
  4874 00002FB9 42                              	INC	EDX
  4875 00002FBA                                 L830:
  4876 00002FBA C1 E2 0A                        	SAL	EDX,10
  4877 00002FBD 89 D0                           	MOV	EAX,EDX
  4878 00002FBF 99                              	CDQ
  4879 00002FC0 F7 F9                           	IDIV	ECX
  4880 00002FC2 89 C7                           	MOV	EDI,EAX
  4881 00002FC4                                 L817:
  4882 00002FC4 85 C9                           	TEST	ECX,ECX
  4883 00002FC6 7E 2C                           	JLE	L828
  4884 00002FC8 89 CB                           	MOV	EBX,ECX
  4885 00002FCA                                 L826:
  4886 00002FCA 8B 55 08                        	MOV	EDX,DWORD [8+EBP]
  4887 00002FCD 8B 45 EC                        	MOV	EAX,DWORD [-20+EBP]
  4888 00002FD0 C1 F8 0A                        	SAR	EAX,10
  4889 00002FD3 8B 4D F0                        	MOV	ECX,DWORD [-16+EBP]
  4890 00002FD6 0F AF 42 04                     	IMUL	EAX,DWORD [4+EDX]
  4891 00002FDA C1 F9 0A                        	SAR	ECX,10
  4892 00002FDD 89 4D E8                        	MOV	DWORD [-24+EBP],ECX
  4893 00002FE0 8B 0A                           	MOV	ECX,DWORD [EDX]
  4894 00002FE2 03 45 E8                        	ADD	EAX,DWORD [-24+EBP]
  4895 00002FE5 8A 55 1C                        	MOV	DL,BYTE [28+EBP]
  4896 00002FE8 88 14 08                        	MOV	BYTE [EAX+ECX*1],DL
  4897 00002FEB 01 75 F0                        	ADD	DWORD [-16+EBP],ESI
  4898 00002FEE 01 7D EC                        	ADD	DWORD [-20+EBP],EDI
  4899 00002FF1 4B                              	DEC	EBX
  4900 00002FF2 75 D6                           	JNE	L826
  4901 00002FF4                                 L828:
  4902 00002FF4 83 C4 0C                        	ADD	ESP,12
  4903 00002FF7 5B                              	POP	EBX
  4904 00002FF8 5E                              	POP	ESI
  4905 00002FF9 5F                              	POP	EDI
  4906 00002FFA 5D                              	POP	EBP
  4907 00002FFB C3                              	RET
  4908 00002FFC                                 L815:
  4909 00002FFC 2B 55 10                        	SUB	EDX,DWORD [16+EBP]
  4910 00002FFF 4A                              	DEC	EDX
  4911 00003000 EB B8                           	JMP	L830
  4912 00003002                                 L812:
  4913 00003002 8D 4F 01                        	LEA	ECX,DWORD [1+EDI]
  4914 00003005 39 55 10                        	CMP	DWORD [16+EBP],EDX
  4915 00003008 BF FFFFFC00                     	MOV	EDI,-1024
  4916 0000300D 7F 05                           	JG	L819
  4917 0000300F BF 00000400                     	MOV	EDI,1024
  4918 00003014                                 L819:
  4919 00003014 39 C3                           	CMP	EBX,EAX
  4920 00003016 7F 11                           	JG	L820
  4921 00003018 29 D8                           	SUB	EAX,EBX
  4922 0000301A 8D 50 01                        	LEA	EDX,DWORD [1+EAX]
  4923 0000301D                                 L829:
  4924 0000301D C1 E2 0A                        	SAL	EDX,10
  4925 00003020 89 D0                           	MOV	EAX,EDX
  4926 00003022 99                              	CDQ
  4927 00003023 F7 F9                           	IDIV	ECX
  4928 00003025 89 C6                           	MOV	ESI,EAX
  4929 00003027 EB 9B                           	JMP	L817
  4930 00003029                                 L820:
  4931 00003029 29 D8                           	SUB	EAX,EBX
  4932 0000302B 8D 50 FF                        	LEA	EDX,DWORD [-1+EAX]
  4933 0000302E EB ED                           	JMP	L829
  4934 00003030                                 L832:
  4935 00003030 F7 DF                           	NEG	EDI
  4936 00003032 E9 FFFFFF65                     	JMP	L811
  4937 00003037                                 L831:
  4938 00003037 F7 DE                           	NEG	ESI
  4939 00003039 E9 FFFFFF56                     	JMP	L810
  4940 0000303E                                 	GLOBAL	_cmd_clearline
  4941 0000303E                                 _cmd_clearline:
  4942 0000303E 55                              	PUSH	EBP
  4943 0000303F 89 E5                           	MOV	EBP,ESP
  4944 00003041 8B 45 0C                        	MOV	EAX,DWORD [12+EBP]
  4945 00003044 80 38 00                        	CMP	BYTE [EAX],0
  4946 00003047 74 09                           	JE	L833
  4947 00003049                                 L840:
  4948 00003049 C6 00 00                        	MOV	BYTE [EAX],0
  4949 0000304C 40                              	INC	EAX
  4950 0000304D 80 38 00                        	CMP	BYTE [EAX],0
  4951 00003050 75 F7                           	JNE	L840
  4952 00003052                                 L833:
  4953 00003052 5D                              	POP	EBP
  4954 00003053 C3                              	RET
  4955                                          [SECTION .data]
  4956 00000B7E 00 00                           	ALIGNB	16
  4957 00000B80                                 _s.0:
  4958 00000B80 00 00 00 00 00 00 00 00 00 00   	RESB	4000
       00000B8A 00 00 00 00 00 00 00 00 00 00 
       00000B94 00 00 00 00 00 00 00 00 00 00 
       00000B9E 00 00 00 00 00 00 00 00 00 00 
       00000BA8 00 00 00 00 00 00 00 00 00 00 
       00000BB2 00 00 00 00 00 00 00 00 00 00 
       00000BBC 00 00 00 00 00 00 00 00 00 00 
       00000BC6 00 00 00 00 00 00 00 00 00 00 
       00000BD0 00 00 00 00 00 00 00 00 00 00 
       00000BDA 00 00 00 00 00 00 00 00 00 00 
       00000BE4 00 00 00 00 00 00 00 00 00 00 
       00000BEE 00 00 00 00 00 00 00 00 00 00 
       00000BF8 00 00 00 00 00 00 00 00 00 00 
       00000C02 00 00 00 00 00 00 00 00 00 00 
       00000C0C 00 00 00 00 00 00 00 00 00 00 
       00000C16 00 00 00 00 00 00 00 00 00 00 
       00000C20 00 00 00 00 00 00 00 00 00 00 
       00000C2A 00 00 00 00 00 00 00 00 00 00 
       00000C34 00 00 00 00 00 00 00 00 00 00 
       00000C3E 00 00 00 00 00 00 00 00 00 00 
       00000C48 00 00 00 00 00 00 00 00 00 00 
       00000C52 00 00 00 00 00 00 00 00 00 00 
       00000C5C 00 00 00 00 00 00 00 00 00 00 
       00000C66 00 00 00 00 00 00 00 00 00 00 
       00000C70 00 00 00 00 00 00 00 00 00 00 
       00000C7A 00 00 00 00 00 00 00 00 00 00 
       00000C84 00 00 00 00 00 00 00 00 00 00 
       00000C8E 00 00 00 00 00 00 00 00 00 00 
       00000C98 00 00 00 00 00 00 00 00 00 00 
       00000CA2 00 00 00 00 00 00 00 00 00 00 
       00000CAC 00 00 00 00 00 00 00 00 00 00 
       00000CB6 00 00 00 00 00 00 00 00 00 00 
       00000CC0 00 00 00 00 00 00 00 00 00 00 
       00000CCA 00 00 00 00 00 00 00 00 00 00 
       00000CD4 00 00 00 00 00 00 00 00 00 00 
       00000CDE 00 00 00 00 00 00 00 00 00 00 
       00000CE8 00 00 00 00 00 00 00 00 00 00 
       00000CF2 00 00 00 00 00 00 00 00 00 00 
       00000CFC 00 00 00 00 00 00 00 00 00 00 
       00000D06 00 00 00 00 00 00 00 00 00 00 
       00000D10 00 00 00 00 00 00 00 00 00 00 
       00000D1A 00 00 00 00 00 00 00 00 00 00 
       00000D24 00 00 00 00 00 00 00 00 00 00 
       00000D2E 00 00 00 00 00 00 00 00 00 00 
       00000D38 00 00 00 00 00 00 00 00 00 00 
       00000D42 00 00 00 00 00 00 00 00 00 00 
       00000D4C 00 00 00 00 00 00 00 00 00 00 
       00000D56 00 00 00 00 00 00 00 00 00 00 
       00000D60 00 00 00 00 00 00 00 00 00 00 
       00000D6A 00 00 00 00 00 00 00 00 00 00 
       00000D74 00 00 00 00 00 00 00 00 00 00 
       00000D7E 00 00 00 00 00 00 00 00 00 00 
       00000D88 00 00 00 00 00 00 00 00 00 00 
       00000D92 00 00 00 00 00 00 00 00 00 00 
       00000D9C 00 00 00 00 00 00 00 00 00 00 
       00000DA6 00 00 00 00 00 00 00 00 00 00 
       00000DB0 00 00 00 00 00 00 00 00 00 00 
       00000DBA 00 00 00 00 00 00 00 00 00 00 
       00000DC4 00 00 00 00 00 00 00 00 00 00 
       00000DCE 00 00 00 00 00 00 00 00 00 00 
       00000DD8 00 00 00 00 00 00 00 00 00 00 
       00000DE2 00 00 00 00 00 00 00 00 00 00 
       00000DEC 00 00 00 00 00 00 00 00 00 00 
       00000DF6 00 00 00 00 00 00 00 00 00 00 
       00000E00 00 00 00 00 00 00 00 00 00 00 
       00000E0A 00 00 00 00 00 00 00 00 00 00 
       00000E14 00 00 00 00 00 00 00 00 00 00 
       00000E1E 00 00 00 00 00 00 00 00 00 00 
       00000E28 00 00 00 00 00 00 00 00 00 00 
       00000E32 00 00 00 00 00 00 00 00 00 00 
       00000E3C 00 00 00 00 00 00 00 00 00 00 
       00000E46 00 00 00 00 00 00 00 00 00 00 
       00000E50 00 00 00 00 00 00 00 00 00 00 
       00000E5A 00 00 00 00 00 00 00 00 00 00 
       00000E64 00 00 00 00 00 00 00 00 00 00 
       00000E6E 00 00 00 00 00 00 00 00 00 00 
       00000E78 00 00 00 00 00 00 00 00 00 00 
       00000E82 00 00 00 00 00 00 00 00 00 00 
       00000E8C 00 00 00 00 00 00 00 00 00 00 
       00000E96 00 00 00 00 00 00 00 00 00 00 
       00000EA0 00 00 00 00 00 00 00 00 00 00 
       00000EAA 00 00 00 00 00 00 00 00 00 00 
       00000EB4 00 00 00 00 00 00 00 00 00 00 
       00000EBE 00 00 00 00 00 00 00 00 00 00 
       00000EC8 00 00 00 00 00 00 00 00 00 00 
       00000ED2 00 00 00 00 00 00 00 00 00 00 
       00000EDC 00 00 00 00 00 00 00 00 00 00 
       00000EE6 00 00 00 00 00 00 00 00 00 00 
       00000EF0 00 00 00 00 00 00 00 00 00 00 
       00000EFA 00 00 00 00 00 00 00 00 00 00 
       00000F04 00 00 00 00 00 00 00 00 00 00 
       00000F0E 00 00 00 00 00 00 00 00 00 00 
       00000F18 00 00 00 00 00 00 00 00 00 00 
       00000F22 00 00 00 00 00 00 00 00 00 00 
       00000F2C 00 00 00 00 00 00 00 00 00 00 
       00000F36 00 00 00 00 00 00 00 00 00 00 
       00000F40 00 00 00 00 00 00 00 00 00 00 
       00000F4A 00 00 00 00 00 00 00 00 00 00 
       00000F54 00 00 00 00 00 00 00 00 00 00 
       00000F5E 00 00 00 00 00 00 00 00 00 00 
       00000F68 00 00 00 00 00 00 00 00 00 00 
       00000F72 00 00 00 00 00 00 00 00 00 00 
       00000F7C 00 00 00 00 00 00 00 00 00 00 
       00000F86 00 00 00 00 00 00 00 00 00 00 
       00000F90 00 00 00 00 00 00 00 00 00 00 
       00000F9A 00 00 00 00 00 00 00 00 00 00 
       00000FA4 00 00 00 00 00 00 00 00 00 00 
       00000FAE 00 00 00 00 00 00 00 00 00 00 
       00000FB8 00 00 00 00 00 00 00 00 00 00 
       00000FC2 00 00 00 00 00 00 00 00 00 00 
       00000FCC 00 00 00 00 00 00 00 00 00 00 
       00000FD6 00 00 00 00 00 00 00 00 00 00 
       00000FE0 00 00 00 00 00 00 00 00 00 00 
       00000FEA 00 00 00 00 00 00 00 00 00 00 
       00000FF4 00 00 00 00 00 00 00 00 00 00 
       00000FFE 00 00 00 00 00 00 00 00 00 00 
       00001008 00 00 00 00 00 00 00 00 00 00 
       00001012 00 00 00 00 00 00 00 00 00 00 
       0000101C 00 00 00 00 00 00 00 00 00 00 
       00001026 00 00 00 00 00 00 00 00 00 00 
       00001030 00 00 00 00 00 00 00 00 00 00 
       0000103A 00 00 00 00 00 00 00 00 00 00 
       00001044 00 00 00 00 00 00 00 00 00 00 
       0000104E 00 00 00 00 00 00 00 00 00 00 
       00001058 00 00 00 00 00 00 00 00 00 00 
       00001062 00 00 00 00 00 00 00 00 00 00 
       0000106C 00 00 00 00 00 00 00 00 00 00 
       00001076 00 00 00 00 00 00 00 00 00 00 
       00001080 00 00 00 00 00 00 00 00 00 00 
       0000108A 00 00 00 00 00 00 00 00 00 00 
       00001094 00 00 00 00 00 00 00 00 00 00 
       0000109E 00 00 00 00 00 00 00 00 00 00 
       000010A8 00 00 00 00 00 00 00 00 00 00 
       000010B2 00 00 00 00 00 00 00 00 00 00 
       000010BC 00 00 00 00 00 00 00 00 00 00 
       000010C6 00 00 00 00 00 00 00 00 00 00 
       000010D0 00 00 00 00 00 00 00 00 00 00 
       000010DA 00 00 00 00 00 00 00 00 00 00 
       000010E4 00 00 00 00 00 00 00 00 00 00 
       000010EE 00 00 00 00 00 00 00 00 00 00 
       000010F8 00 00 00 00 00 00 00 00 00 00 
       00001102 00 00 00 00 00 00 00 00 00 00 
       0000110C 00 00 00 00 00 00 00 00 00 00 
       00001116 00 00 00 00 00 00 00 00 00 00 
       00001120 00 00 00 00 00 00 00 00 00 00 
       0000112A 00 00 00 00 00 00 00 00 00 00 
       00001134 00 00 00 00 00 00 00 00 00 00 
       0000113E 00 00 00 00 00 00 00 00 00 00 
       00001148 00 00 00 00 00 00 00 00 00 00 
       00001152 00 00 00 00 00 00 00 00 00 00 
       0000115C 00 00 00 00 00 00 00 00 00 00 
       00001166 00 00 00 00 00 00 00 00 00 00 
       00001170 00 00 00 00 00 00 00 00 00 00 
       0000117A 00 00 00 00 00 00 00 00 00 00 
       00001184 00 00 00 00 00 00 00 00 00 00 
       0000118E 00 00 00 00 00 00 00 00 00 00 
       00001198 00 00 00 00 00 00 00 00 00 00 
       000011A2 00 00 00 00 00 00 00 00 00 00 
       000011AC 00 00 00 00 00 00 00 00 00 00 
       000011B6 00 00 00 00 00 00 00 00 00 00 
       000011C0 00 00 00 00 00 00 00 00 00 00 
       000011CA 00 00 00 00 00 00 00 00 00 00 
       000011D4 00 00 00 00 00 00 00 00 00 00 
       000011DE 00 00 00 00 00 00 00 00 00 00 
       000011E8 00 00 00 00 00 00 00 00 00 00 
       000011F2 00 00 00 00 00 00 00 00 00 00 
       000011FC 00 00 00 00 00 00 00 00 00 00 
       00001206 00 00 00 00 00 00 00 00 00 00 
       00001210 00 00 00 00 00 00 00 00 00 00 
       0000121A 00 00 00 00 00 00 00 00 00 00 
       00001224 00 00 00 00 00 00 00 00 00 00 
       0000122E 00 00 00 00 00 00 00 00 00 00 
       00001238 00 00 00 00 00 00 00 00 00 00 
       00001242 00 00 00 00 00 00 00 00 00 00 
       0000124C 00 00 00 00 00 00 00 00 00 00 
       00001256 00 00 00 00 00 00 00 00 00 00 
       00001260 00 00 00 00 00 00 00 00 00 00 
       0000126A 00 00 00 00 00 00 00 00 00 00 
       00001274 00 00 00 00 00 00 00 00 00 00 
       0000127E 00 00 00 00 00 00 00 00 00 00 
       00001288 00 00 00 00 00 00 00 00 00 00 
       00001292 00 00 00 00 00 00 00 00 00 00 
       0000129C 00 00 00 00 00 00 00 00 00 00 
       000012A6 00 00 00 00 00 00 00 00 00 00 
       000012B0 00 00 00 00 00 00 00 00 00 00 
       000012BA 00 00 00 00 00 00 00 00 00 00 
       000012C4 00 00 00 00 00 00 00 00 00 00 
       000012CE 00 00 00 00 00 00 00 00 00 00 
       000012D8 00 00 00 00 00 00 00 00 00 00 
       000012E2 00 00 00 00 00 00 00 00 00 00 
       000012EC 00 00 00 00 00 00 00 00 00 00 
       000012F6 00 00 00 00 00 00 00 00 00 00 
       00001300 00 00 00 00 00 00 00 00 00 00 
       0000130A 00 00 00 00 00 00 00 00 00 00 
       00001314 00 00 00 00 00 00 00 00 00 00 
       0000131E 00 00 00 00 00 00 00 00 00 00 
       00001328 00 00 00 00 00 00 00 00 00 00 
       00001332 00 00 00 00 00 00 00 00 00 00 
       0000133C 00 00 00 00 00 00 00 00 00 00 
       00001346 00 00 00 00 00 00 00 00 00 00 
       00001350 00 00 00 00 00 00 00 00 00 00 
       0000135A 00 00 00 00 00 00 00 00 00 00 
       00001364 00 00 00 00 00 00 00 00 00 00 
       0000136E 00 00 00 00 00 00 00 00 00 00 
       00001378 00 00 00 00 00 00 00 00 00 00 
       00001382 00 00 00 00 00 00 00 00 00 00 
       0000138C 00 00 00 00 00 00 00 00 00 00 
       00001396 00 00 00 00 00 00 00 00 00 00 
       000013A0 00 00 00 00 00 00 00 00 00 00 
       000013AA 00 00 00 00 00 00 00 00 00 00 
       000013B4 00 00 00 00 00 00 00 00 00 00 
       000013BE 00 00 00 00 00 00 00 00 00 00 
       000013C8 00 00 00 00 00 00 00 00 00 00 
       000013D2 00 00 00 00 00 00 00 00 00 00 
       000013DC 00 00 00 00 00 00 00 00 00 00 
       000013E6 00 00 00 00 00 00 00 00 00 00 
       000013F0 00 00 00 00 00 00 00 00 00 00 
       000013FA 00 00 00 00 00 00 00 00 00 00 
       00001404 00 00 00 00 00 00 00 00 00 00 
       0000140E 00 00 00 00 00 00 00 00 00 00 
       00001418 00 00 00 00 00 00 00 00 00 00 
       00001422 00 00 00 00 00 00 00 00 00 00 
       0000142C 00 00 00 00 00 00 00 00 00 00 
       00001436 00 00 00 00 00 00 00 00 00 00 
       00001440 00 00 00 00 00 00 00 00 00 00 
       0000144A 00 00 00 00 00 00 00 00 00 00 
       00001454 00 00 00 00 00 00 00 00 00 00 
       0000145E 00 00 00 00 00 00 00 00 00 00 
       00001468 00 00 00 00 00 00 00 00 00 00 
       00001472 00 00 00 00 00 00 00 00 00 00 
       0000147C 00 00 00 00 00 00 00 00 00 00 
       00001486 00 00 00 00 00 00 00 00 00 00 
       00001490 00 00 00 00 00 00 00 00 00 00 
       0000149A 00 00 00 00 00 00 00 00 00 00 
       000014A4 00 00 00 00 00 00 00 00 00 00 
       000014AE 00 00 00 00 00 00 00 00 00 00 
       000014B8 00 00 00 00 00 00 00 00 00 00 
       000014C2 00 00 00 00 00 00 00 00 00 00 
       000014CC 00 00 00 00 00 00 00 00 00 00 
       000014D6 00 00 00 00 00 00 00 00 00 00 
       000014E0 00 00 00 00 00 00 00 00 00 00 
       000014EA 00 00 00 00 00 00 00 00 00 00 
       000014F4 00 00 00 00 00 00 00 00 00 00 
       000014FE 00 00 00 00 00 00 00 00 00 00 
       00001508 00 00 00 00 00 00 00 00 00 00 
       00001512 00 00 00 00 00 00 00 00 00 00 
       0000151C 00 00 00 00 00 00 00 00 00 00 
       00001526 00 00 00 00 00 00 00 00 00 00 
       00001530 00 00 00 00 00 00 00 00 00 00 
       0000153A 00 00 00 00 00 00 00 00 00 00 
       00001544 00 00 00 00 00 00 00 00 00 00 
       0000154E 00 00 00 00 00 00 00 00 00 00 
       00001558 00 00 00 00 00 00 00 00 00 00 
       00001562 00 00 00 00 00 00 00 00 00 00 
       0000156C 00 00 00 00 00 00 00 00 00 00 
       00001576 00 00 00 00 00 00 00 00 00 00 
       00001580 00 00 00 00 00 00 00 00 00 00 
       0000158A 00 00 00 00 00 00 00 00 00 00 
       00001594 00 00 00 00 00 00 00 00 00 00 
       0000159E 00 00 00 00 00 00 00 00 00 00 
       000015A8 00 00 00 00 00 00 00 00 00 00 
       000015B2 00 00 00 00 00 00 00 00 00 00 
       000015BC 00 00 00 00 00 00 00 00 00 00 
       000015C6 00 00 00 00 00 00 00 00 00 00 
       000015D0 00 00 00 00 00 00 00 00 00 00 
       000015DA 00 00 00 00 00 00 00 00 00 00 
       000015E4 00 00 00 00 00 00 00 00 00 00 
       000015EE 00 00 00 00 00 00 00 00 00 00 
       000015F8 00 00 00 00 00 00 00 00 00 00 
       00001602 00 00 00 00 00 00 00 00 00 00 
       0000160C 00 00 00 00 00 00 00 00 00 00 
       00001616 00 00 00 00 00 00 00 00 00 00 
       00001620 00 00 00 00 00 00 00 00 00 00 
       0000162A 00 00 00 00 00 00 00 00 00 00 
       00001634 00 00 00 00 00 00 00 00 00 00 
       0000163E 00 00 00 00 00 00 00 00 00 00 
       00001648 00 00 00 00 00 00 00 00 00 00 
       00001652 00 00 00 00 00 00 00 00 00 00 
       0000165C 00 00 00 00 00 00 00 00 00 00 
       00001666 00 00 00 00 00 00 00 00 00 00 
       00001670 00 00 00 00 00 00 00 00 00 00 
       0000167A 00 00 00 00 00 00 00 00 00 00 
       00001684 00 00 00 00 00 00 00 00 00 00 
       0000168E 00 00 00 00 00 00 00 00 00 00 
       00001698 00 00 00 00 00 00 00 00 00 00 
       000016A2 00 00 00 00 00 00 00 00 00 00 
       000016AC 00 00 00 00 00 00 00 00 00 00 
       000016B6 00 00 00 00 00 00 00 00 00 00 
       000016C0 00 00 00 00 00 00 00 00 00 00 
       000016CA 00 00 00 00 00 00 00 00 00 00 
       000016D4 00 00 00 00 00 00 00 00 00 00 
       000016DE 00 00 00 00 00 00 00 00 00 00 
       000016E8 00 00 00 00 00 00 00 00 00 00 
       000016F2 00 00 00 00 00 00 00 00 00 00 
       000016FC 00 00 00 00 00 00 00 00 00 00 
       00001706 00 00 00 00 00 00 00 00 00 00 
       00001710 00 00 00 00 00 00 00 00 00 00 
       0000171A 00 00 00 00 00 00 00 00 00 00 
       00001724 00 00 00 00 00 00 00 00 00 00 
       0000172E 00 00 00 00 00 00 00 00 00 00 
       00001738 00 00 00 00 00 00 00 00 00 00 
       00001742 00 00 00 00 00 00 00 00 00 00 
       0000174C 00 00 00 00 00 00 00 00 00 00 
       00001756 00 00 00 00 00 00 00 00 00 00 
       00001760 00 00 00 00 00 00 00 00 00 00 
       0000176A 00 00 00 00 00 00 00 00 00 00 
       00001774 00 00 00 00 00 00 00 00 00 00 
       0000177E 00 00 00 00 00 00 00 00 00 00 
       00001788 00 00 00 00 00 00 00 00 00 00 
       00001792 00 00 00 00 00 00 00 00 00 00 
       0000179C 00 00 00 00 00 00 00 00 00 00 
       000017A6 00 00 00 00 00 00 00 00 00 00 
       000017B0 00 00 00 00 00 00 00 00 00 00 
       000017BA 00 00 00 00 00 00 00 00 00 00 
       000017C4 00 00 00 00 00 00 00 00 00 00 
       000017CE 00 00 00 00 00 00 00 00 00 00 
       000017D8 00 00 00 00 00 00 00 00 00 00 
       000017E2 00 00 00 00 00 00 00 00 00 00 
       000017EC 00 00 00 00 00 00 00 00 00 00 
       000017F6 00 00 00 00 00 00 00 00 00 00 
       00001800 00 00 00 00 00 00 00 00 00 00 
       0000180A 00 00 00 00 00 00 00 00 00 00 
       00001814 00 00 00 00 00 00 00 00 00 00 
       0000181E 00 00 00 00 00 00 00 00 00 00 
       00001828 00 00 00 00 00 00 00 00 00 00 
       00001832 00 00 00 00 00 00 00 00 00 00 
       0000183C 00 00 00 00 00 00 00 00 00 00 
       00001846 00 00 00 00 00 00 00 00 00 00 
       00001850 00 00 00 00 00 00 00 00 00 00 
       0000185A 00 00 00 00 00 00 00 00 00 00 
       00001864 00 00 00 00 00 00 00 00 00 00 
       0000186E 00 00 00 00 00 00 00 00 00 00 
       00001878 00 00 00 00 00 00 00 00 00 00 
       00001882 00 00 00 00 00 00 00 00 00 00 
       0000188C 00 00 00 00 00 00 00 00 00 00 
       00001896 00 00 00 00 00 00 00 00 00 00 
       000018A0 00 00 00 00 00 00 00 00 00 00 
       000018AA 00 00 00 00 00 00 00 00 00 00 
       000018B4 00 00 00 00 00 00 00 00 00 00 
       000018BE 00 00 00 00 00 00 00 00 00 00 
       000018C8 00 00 00 00 00 00 00 00 00 00 
       000018D2 00 00 00 00 00 00 00 00 00 00 
       000018DC 00 00 00 00 00 00 00 00 00 00 
       000018E6 00 00 00 00 00 00 00 00 00 00 
       000018F0 00 00 00 00 00 00 00 00 00 00 
       000018FA 00 00 00 00 00 00 00 00 00 00 
       00001904 00 00 00 00 00 00 00 00 00 00 
       0000190E 00 00 00 00 00 00 00 00 00 00 
       00001918 00 00 00 00 00 00 00 00 00 00 
       00001922 00 00 00 00 00 00 00 00 00 00 
       0000192C 00 00 00 00 00 00 00 00 00 00 
       00001936 00 00 00 00 00 00 00 00 00 00 
       00001940 00 00 00 00 00 00 00 00 00 00 
       0000194A 00 00 00 00 00 00 00 00 00 00 
       00001954 00 00 00 00 00 00 00 00 00 00 
       0000195E 00 00 00 00 00 00 00 00 00 00 
       00001968 00 00 00 00 00 00 00 00 00 00 
       00001972 00 00 00 00 00 00 00 00 00 00 
       0000197C 00 00 00 00 00 00 00 00 00 00 
       00001986 00 00 00 00 00 00 00 00 00 00 
       00001990 00 00 00 00 00 00 00 00 00 00 
       0000199A 00 00 00 00 00 00 00 00 00 00 
       000019A4 00 00 00 00 00 00 00 00 00 00 
       000019AE 00 00 00 00 00 00 00 00 00 00 
       000019B8 00 00 00 00 00 00 00 00 00 00 
       000019C2 00 00 00 00 00 00 00 00 00 00 
       000019CC 00 00 00 00 00 00 00 00 00 00 
       000019D6 00 00 00 00 00 00 00 00 00 00 
       000019E0 00 00 00 00 00 00 00 00 00 00 
       000019EA 00 00 00 00 00 00 00 00 00 00 
       000019F4 00 00 00 00 00 00 00 00 00 00 
       000019FE 00 00 00 00 00 00 00 00 00 00 
       00001A08 00 00 00 00 00 00 00 00 00 00 
       00001A12 00 00 00 00 00 00 00 00 00 00 
       00001A1C 00 00 00 00 00 00 00 00 00 00 
       00001A26 00 00 00 00 00 00 00 00 00 00 
       00001A30 00 00 00 00 00 00 00 00 00 00 
       00001A3A 00 00 00 00 00 00 00 00 00 00 
       00001A44 00 00 00 00 00 00 00 00 00 00 
       00001A4E 00 00 00 00 00 00 00 00 00 00 
       00001A58 00 00 00 00 00 00 00 00 00 00 
       00001A62 00 00 00 00 00 00 00 00 00 00 
       00001A6C 00 00 00 00 00 00 00 00 00 00 
       00001A76 00 00 00 00 00 00 00 00 00 00 
       00001A80 00 00 00 00 00 00 00 00 00 00 
       00001A8A 00 00 00 00 00 00 00 00 00 00 
       00001A94 00 00 00 00 00 00 00 00 00 00 
       00001A9E 00 00 00 00 00 00 00 00 00 00 
       00001AA8 00 00 00 00 00 00 00 00 00 00 
       00001AB2 00 00 00 00 00 00 00 00 00 00 
       00001ABC 00 00 00 00 00 00 00 00 00 00 
       00001AC6 00 00 00 00 00 00 00 00 00 00 
       00001AD0 00 00 00 00 00 00 00 00 00 00 
       00001ADA 00 00 00 00 00 00 00 00 00 00 
       00001AE4 00 00 00 00 00 00 00 00 00 00 
       00001AEE 00 00 00 00 00 00 00 00 00 00 
       00001AF8 00 00 00 00 00 00 00 00 00 00 
       00001B02 00 00 00 00 00 00 00 00 00 00 
       00001B0C 00 00 00 00 00 00 00 00 00 00 
       00001B16 00 00 00 00 00 00 00 00 00 00 
  4959                                          [SECTION .data]
  4960 00001B20                                 LC142:
  4961 00001B20 69 6E 70 75 74 20 34 20 73 74   	DB	"input 4 stamp values:",0x00
       00001B2A 61 6D 70 20 76 61 6C 75 65 73 
       00001B34 3A 00 
  4962 00001B36                                 LC143:
  4963 00001B36 54 68 65 20 6D 61 78 20 69 73   	DB	"The max is %d",0x0A,0x00
       00001B40 20 25 64 0A 00 
  4964                                          [SECTION .text]
  4965 00003054                                 	GLOBAL	_cmd_stamp
  4966 00003054                                 _cmd_stamp:
  4967 00003054 55                              	PUSH	EBP
  4968 00003055 89 E5                           	MOV	EBP,ESP
  4969 00003057 57                              	PUSH	EDI
  4970 00003058 56                              	PUSH	ESI
  4971 00003059 53                              	PUSH	EBX
  4972 0000305A 8D 7D D4                        	LEA	EDI,DWORD [-44+EBP]
  4973 0000305D 81 EC 000000AC                  	SUB	ESP,172
  4974 00003063 E8 [00000000]                   	CALL	_task_now
  4975 00003068 68 [00001B20]                   	PUSH	LC142
  4976 0000306D 89 C3                           	MOV	EBX,EAX
  4977 0000306F FF 75 08                        	PUSH	DWORD [8+EBP]
  4978 00003072 E8 FFFFD67C                     	CALL	_cons_putstr0
  4979 00003077 FF 75 0C                        	PUSH	DWORD [12+EBP]
  4980 0000307A FF 75 08                        	PUSH	DWORD [8+EBP]
  4981 0000307D E8 FFFFFFBC                     	CALL	_cmd_clearline
  4982 00003082 FF B3 000000B8                  	PUSH	DWORD [184+EBX]
  4983 00003088 FF 75 08                        	PUSH	DWORD [8+EBP]
  4984 0000308B 31 DB                           	XOR	EBX,EBX
  4985 0000308D E8 FFFFFFAC                     	CALL	_cmd_clearline
  4986 00003092 FC                              	CLD
  4987 00003093 B8 00000007                     	MOV	EAX,7
  4988 00003098 8B 75 08                        	MOV	ESI,DWORD [8+EBP]
  4989 0000309B 89 C1                           	MOV	ECX,EAX
  4990 0000309D F3                              	REP
  4991 0000309E A5                              	MOVSD
  4992 0000309F FF 75 0C                        	PUSH	DWORD [12+EBP]
  4993 000030A2 83 EC 1C                        	SUB	ESP,28
  4994 000030A5 89 C1                           	MOV	ECX,EAX
  4995 000030A7 89 E7                           	MOV	EDI,ESP
  4996 000030A9 8D 75 D4                        	LEA	ESI,DWORD [-44+EBP]
  4997 000030AC F3                              	REP
  4998 000030AD A5                              	MOVSD
  4999 000030AE 31 F6                           	XOR	ESI,ESI
  5000 000030B0 E8 00000201                     	CALL	_get_1_line
  5001 000030B5 8B 55 08                        	MOV	EDX,DWORD [8+EBP]
  5002 000030B8 89 C1                           	MOV	ECX,EAX
  5003 000030BA 83 C4 38                        	ADD	ESP,56
  5004 000030BD 83 42 08 20                     	ADD	DWORD [8+EDX],32
  5005 000030C1 80 38 20                        	CMP	BYTE [EAX],32
  5006 000030C4 7F 06                           	JG	L887
  5007 000030C6                                 L847:
  5008 000030C6 41                              	INC	ECX
  5009 000030C7 80 39 20                        	CMP	BYTE [ECX],32
  5010 000030CA 7E FA                           	JLE	L847
  5011 000030CC                                 L887:
  5012 000030CC 80 39 00                        	CMP	BYTE [ECX],0
  5013 000030CF 74 45                           	JE	L889
  5014 000030D1                                 L858:
  5015 000030D1 8A 14 0B                        	MOV	DL,BYTE [EBX+ECX*1]
  5016 000030D4 8D 42 D0                        	LEA	EAX,DWORD [-48+EDX]
  5017 000030D7 3C 09                           	CMP	AL,9
  5018 000030D9 0F 87 000001D1                  	JA	L852
  5019 000030DF 0F BE C2                        	MOVSX	EAX,DL
  5020 000030E2 83 E8 30                        	SUB	EAX,48
  5021 000030E5 43                              	INC	EBX
  5022 000030E6 89 44 B5 A4                     	MOV	DWORD [-92+EBP+ESI*4],EAX
  5023 000030EA 8A 14 0B                        	MOV	DL,BYTE [EBX+ECX*1]
  5024 000030ED 8D 42 D0                        	LEA	EAX,DWORD [-48+EDX]
  5025 000030F0 3C 09                           	CMP	AL,9
  5026 000030F2 77 1B                           	JA	L891
  5027 000030F4                                 L856:
  5028 000030F4 6B 44 B5 A4 0A                  	IMUL	EAX,DWORD [-92+EBP+ESI*4],10
  5029 000030F9 0F BE D2                        	MOVSX	EDX,DL
  5030 000030FC 43                              	INC	EBX
  5031 000030FD 8D 44 02 D0                     	LEA	EAX,DWORD [-48+EDX+EAX*1]
  5032 00003101 89 44 B5 A4                     	MOV	DWORD [-92+EBP+ESI*4],EAX
  5033 00003105 8A 14 0B                        	MOV	DL,BYTE [EBX+ECX*1]
  5034 00003108 8D 42 D0                        	LEA	EAX,DWORD [-48+EDX]
  5035 0000310B 3C 09                           	CMP	AL,9
  5036 0000310D 76 E5                           	JBE	L856
  5037 0000310F                                 L891:
  5038 0000310F 46                              	INC	ESI
  5039 00003110                                 L848:
  5040 00003110 80 3C 0B 00                     	CMP	BYTE [EBX+ECX*1],0
  5041 00003114 75 BB                           	JNE	L858
  5042 00003116                                 L889:
  5043 00003116 8B 4D AC                        	MOV	ECX,DWORD [-84+EBP]
  5044 00003119 8B 75 B0                        	MOV	ESI,DWORD [-80+EBP]
  5045 0000311C 8B 45 A4                        	MOV	EAX,DWORD [-92+EBP]
  5046 0000311F 8B 55 A8                        	MOV	EDX,DWORD [-88+EBP]
  5047 00003122 31 DB                           	XOR	EBX,EBX
  5048 00003124 89 8D FFFFFF58                  	MOV	DWORD [-168+EBP],ECX
  5049 0000312A 89 B5 FFFFFF54                  	MOV	DWORD [-172+EBP],ESI
  5050 00003130 89 85 FFFFFF50                  	MOV	DWORD [-176+EBP],EAX
  5051 00003136 89 95 FFFFFF4C                  	MOV	DWORD [-180+EBP],EDX
  5052 0000313C                                 L879:
  5053 0000313C C7 45 98 00000000               	MOV	DWORD [-104+EBP],0
  5054 00003143 83 FB 05                        	CMP	EBX,5
  5055 00003146 0F 8F 00000121                  	JG	L895
  5056 0000314C 8B 8D FFFFFF58                  	MOV	ECX,DWORD [-168+EBP]
  5057 00003152 8B B5 FFFFFF54                  	MOV	ESI,DWORD [-172+EBP]
  5058 00003158 8B 85 FFFFFF50                  	MOV	EAX,DWORD [-176+EBP]
  5059 0000315E 8B 95 FFFFFF4C                  	MOV	EDX,DWORD [-180+EBP]
  5060 00003164 89 8D FFFFFF68                  	MOV	DWORD [-152+EBP],ECX
  5061 0000316A 89 B5 FFFFFF64                  	MOV	DWORD [-156+EBP],ESI
  5062 00003170 89 85 FFFFFF60                  	MOV	DWORD [-160+EBP],EAX
  5063 00003176 89 95 FFFFFF5C                  	MOV	DWORD [-164+EBP],EDX
  5064 0000317C                                 L878:
  5065 0000317C 8B 4D 98                        	MOV	ECX,DWORD [-104+EBP]
  5066 0000317F C7 45 94 00000000               	MOV	DWORD [-108+EBP],0
  5067 00003186 8D 04 19                        	LEA	EAX,DWORD [ECX+EBX*1]
  5068 00003189 83 F8 05                        	CMP	EAX,5
  5069 0000318C 0F 8F 000000C9                  	JG	L897
  5070 00003192 8B B5 FFFFFF68                  	MOV	ESI,DWORD [-152+EBP]
  5071 00003198 8B 95 FFFFFF64                  	MOV	EDX,DWORD [-156+EBP]
  5072 0000319E 89 B5 FFFFFF7C                  	MOV	DWORD [-132+EBP],ESI
  5073 000031A4 8B 8D FFFFFF60                  	MOV	ECX,DWORD [-160+EBP]
  5074 000031AA 8B B5 FFFFFF5C                  	MOV	ESI,DWORD [-164+EBP]
  5075 000031B0 89 95 FFFFFF78                  	MOV	DWORD [-136+EBP],EDX
  5076 000031B6 89 B5 FFFFFF70                  	MOV	DWORD [-144+EBP],ESI
  5077 000031BC 89 8D FFFFFF74                  	MOV	DWORD [-140+EBP],ECX
  5078 000031C2 89 C6                           	MOV	ESI,EAX
  5079 000031C4 89 85 FFFFFF6C                  	MOV	DWORD [-148+EBP],EAX
  5080 000031CA 89 C7                           	MOV	EDI,EAX
  5081 000031CC                                 L877:
  5082 000031CC C7 45 90 00000000               	MOV	DWORD [-112+EBP],0
  5083 000031D3 83 FF 05                        	CMP	EDI,5
  5084 000031D6 7F 6F                           	JG	L899
  5085 000031D8 8B 85 FFFFFF7C                  	MOV	EAX,DWORD [-132+EBP]
  5086 000031DE 8B 95 FFFFFF78                  	MOV	EDX,DWORD [-136+EBP]
  5087 000031E4 89 45 8C                        	MOV	DWORD [-116+EBP],EAX
  5088 000031E7 8B 8D FFFFFF74                  	MOV	ECX,DWORD [-140+EBP]
  5089 000031ED 8B 85 FFFFFF70                  	MOV	EAX,DWORD [-144+EBP]
  5090 000031F3 89 55 88                        	MOV	DWORD [-120+EBP],EDX
  5091 000031F6 89 4D 84                        	MOV	DWORD [-124+EBP],ECX
  5092 000031F9 89 45 80                        	MOV	DWORD [-128+EBP],EAX
  5093 000031FC C7 85 FFFFFF48 00000000         	MOV	DWORD [-184+EBP],0
  5094 00003206                                 L876:
  5095 00003206 8B 45 8C                        	MOV	EAX,DWORD [-116+EBP]
  5096 00003209 8B 55 84                        	MOV	EDX,DWORD [-124+EBP]
  5097 0000320C 0F AF 45 94                     	IMUL	EAX,DWORD [-108+EBP]
  5098 00003210 8B 4D 80                        	MOV	ECX,DWORD [-128+EBP]
  5099 00003213 03 85 FFFFFF48                  	ADD	EAX,DWORD [-184+EBP]
  5100 00003219 0F AF D3                        	IMUL	EDX,EBX
  5101 0000321C 0F AF 4D 98                     	IMUL	ECX,DWORD [-104+EBP]
  5102 00003220 01 CA                           	ADD	EDX,ECX
  5103 00003222 01 D0                           	ADD	EAX,EDX
  5104 00003224 74 07                           	JE	L873
  5105 00003226 FF 04 85 [00000B80]             	INC	DWORD [_s.0+EAX*4]
  5106 0000322D                                 L873:
  5107 0000322D 8B 85 FFFFFF6C                  	MOV	EAX,DWORD [-148+EBP]
  5108 00003233 FF 45 90                        	INC	DWORD [-112+EBP]
  5109 00003236 03 45 90                        	ADD	EAX,DWORD [-112+EBP]
  5110 00003239 8B 55 88                        	MOV	EDX,DWORD [-120+EBP]
  5111 0000323C 01 95 FFFFFF48                  	ADD	DWORD [-184+EBP],EDX
  5112 00003242 83 F8 05                        	CMP	EAX,5
  5113 00003245 7E BF                           	JLE	L876
  5114 00003247                                 L899:
  5115 00003247 46                              	INC	ESI
  5116 00003248 FF 85 FFFFFF6C                  	INC	DWORD [-148+EBP]
  5117 0000324E 47                              	INC	EDI
  5118 0000324F FF 45 94                        	INC	DWORD [-108+EBP]
  5119 00003252 83 FE 05                        	CMP	ESI,5
  5120 00003255 0F 8E FFFFFF71                  	JLE	L877
  5121 0000325B                                 L897:
  5122 0000325B FF 45 98                        	INC	DWORD [-104+EBP]
  5123 0000325E 8B 4D 98                        	MOV	ECX,DWORD [-104+EBP]
  5124 00003261 8D 04 19                        	LEA	EAX,DWORD [ECX+EBX*1]
  5125 00003264 83 F8 05                        	CMP	EAX,5
  5126 00003267 0F 8E FFFFFF0F                  	JLE	L878
  5127 0000326D                                 L895:
  5128 0000326D 43                              	INC	EBX
  5129 0000326E 83 FB 05                        	CMP	EBX,5
  5130 00003271 0F 8E FFFFFEC5                  	JLE	L879
  5131 00003277 BB 00000001                     	MOV	EBX,1
  5132 0000327C                                 L885:
  5133 0000327C 83 3C 9D [00000B80] 00          	CMP	DWORD [_s.0+EBX*4],0
  5134 00003284 74 09                           	JE	L881
  5135 00003286 43                              	INC	EBX
  5136 00003287 81 FB 000003E8                  	CMP	EBX,1000
  5137 0000328D 7E ED                           	JLE	L885
  5138 0000328F                                 L881:
  5139 0000328F 4B                              	DEC	EBX
  5140 00003290 53                              	PUSH	EBX
  5141 00003291 8D 5D B4                        	LEA	EBX,DWORD [-76+EBP]
  5142 00003294 68 [00001B36]                   	PUSH	LC143
  5143 00003299 53                              	PUSH	EBX
  5144 0000329A E8 [00000000]                   	CALL	_sprintf
  5145 0000329F 53                              	PUSH	EBX
  5146 000032A0 FF 75 08                        	PUSH	DWORD [8+EBP]
  5147 000032A3 E8 FFFFD44B                     	CALL	_cons_putstr0
  5148 000032A8 8D 65 F4                        	LEA	ESP,DWORD [-12+EBP]
  5149 000032AB 5B                              	POP	EBX
  5150 000032AC 5E                              	POP	ESI
  5151 000032AD 5F                              	POP	EDI
  5152 000032AE 5D                              	POP	EBP
  5153 000032AF C3                              	RET
  5154 000032B0                                 L852:
  5155 000032B0 43                              	INC	EBX
  5156 000032B1 E9 FFFFFE5A                     	JMP	L848
  5157 000032B6                                 	GLOBAL	_get_1_line
  5158 000032B6                                 _get_1_line:
  5159 000032B6 55                              	PUSH	EBP
  5160 000032B7 89 E5                           	MOV	EBP,ESP
  5161 000032B9 57                              	PUSH	EDI
  5162 000032BA 56                              	PUSH	ESI
  5163 000032BB 53                              	PUSH	EBX
  5164 000032BC 51                              	PUSH	ECX
  5165 000032BD E8 [00000000]                   	CALL	_task_now
  5166 000032C2 89 C7                           	MOV	EDI,EAX
  5167 000032C4                                 L902:
  5168 000032C4 8D 5F 10                        	LEA	EBX,DWORD [16+EDI]
  5169 000032C7 E8 [00000000]                   	CALL	_io_cli
  5170 000032CC 53                              	PUSH	EBX
  5171 000032CD E8 [00000000]                   	CALL	_fifo32_status
  5172 000032D2 5A                              	POP	EDX
  5173 000032D3 85 C0                           	TEST	EAX,EAX
  5174 000032D5 0F 84 000001FE                  	JE	L927
  5175 000032DB 53                              	PUSH	EBX
  5176 000032DC E8 [00000000]                   	CALL	_fifo32_get
  5177 000032E1 89 C6                           	MOV	ESI,EAX
  5178 000032E3 E8 [00000000]                   	CALL	_io_sti
  5179 000032E8 58                              	POP	EAX
  5180 000032E9 83 FE 01                        	CMP	ESI,1
  5181 000032EC 0F 8E 00000190                  	JLE	L928
  5182 000032F2                                 L907:
  5183 000032F2 83 FE 02                        	CMP	ESI,2
  5184 000032F5 0F 84 0000017B                  	JE	L929
  5185 000032FB                                 L912:
  5186 000032FB 83 FE 03                        	CMP	ESI,3
  5187 000032FE 0F 84 0000013E                  	JE	L930
  5188 00003304                                 L913:
  5189 00003304 83 FE 04                        	CMP	ESI,4
  5190 00003307 0F 84 0000011F                  	JE	L931
  5191 0000330D                                 L915:
  5192 0000330D 8D 86 FFFFFF00                  	LEA	EAX,DWORD [-256+ESI]
  5193 00003313 89 45 F0                        	MOV	DWORD [-16+EBP],EAX
  5194 00003316 3D 000000FF                     	CMP	EAX,255
  5195 0000331B 77 23                           	JA	L916
  5196 0000331D 81 FE 00000108                  	CMP	ESI,264
  5197 00003323 0F 84 000000E6                  	JE	L932
  5198 00003329 81 FE 0000010A                  	CMP	ESI,266
  5199 0000332F 0F 84 00000088                  	JE	L933
  5200 00003335 8B 4D 0C                        	MOV	ECX,DWORD [12+EBP]
  5201 00003338 81 F9 0000010F                  	CMP	ECX,271
  5202 0000333E 7E 53                           	JLE	L934
  5203 00003340                                 L916:
  5204 00003340 8B 5D 08                        	MOV	EBX,DWORD [8+EBP]
  5205 00003343 85 DB                           	TEST	EBX,EBX
  5206 00003345 0F 84 FFFFFF79                  	JE	L902
  5207 0000334B 83 7D 14 00                     	CMP	DWORD [20+EBP],0
  5208 0000334F 78 22                           	JS	L925
  5209 00003351 8B 4D 10                        	MOV	ECX,DWORD [16+EBP]
  5210 00003354 8B 55 0C                        	MOV	EDX,DWORD [12+EBP]
  5211 00003357 8D 41 0F                        	LEA	EAX,DWORD [15+ECX]
  5212 0000335A 50                              	PUSH	EAX
  5213 0000335B 8D 42 07                        	LEA	EAX,DWORD [7+EDX]
  5214 0000335E 50                              	PUSH	EAX
  5215 0000335F 51                              	PUSH	ECX
  5216 00003360 52                              	PUSH	EDX
  5217 00003361 0F B6 45 14                     	MOVZX	EAX,BYTE [20+EBP]
  5218 00003365 50                              	PUSH	EAX
  5219 00003366 FF 73 04                        	PUSH	DWORD [4+EBX]
  5220 00003369 FF 33                           	PUSH	DWORD [EBX]
  5221 0000336B E8 [00000000]                   	CALL	_boxfill8
  5222 00003370 83 C4 1C                        	ADD	ESP,28
  5223 00003373                                 L925:
  5224 00003373 8B 4D 10                        	MOV	ECX,DWORD [16+EBP]
  5225 00003376 8B 55 0C                        	MOV	EDX,DWORD [12+EBP]
  5226 00003379 8D 41 10                        	LEA	EAX,DWORD [16+ECX]
  5227 0000337C 50                              	PUSH	EAX
  5228 0000337D 8D 42 08                        	LEA	EAX,DWORD [8+EDX]
  5229 00003380 50                              	PUSH	EAX
  5230 00003381 51                              	PUSH	ECX
  5231 00003382 52                              	PUSH	EDX
  5232 00003383 FF 75 08                        	PUSH	DWORD [8+EBP]
  5233 00003386 E8 [00000000]                   	CALL	_sheet_refresh
  5234 0000338B 83 C4 14                        	ADD	ESP,20
  5235 0000338E E9 FFFFFF31                     	JMP	L902
  5236 00003393                                 L934:
  5237 00003393 89 C8                           	MOV	EAX,ECX
  5238 00003395 BA 00000008                     	MOV	EDX,8
  5239 0000339A 89 D3                           	MOV	EBX,EDX
  5240 0000339C 99                              	CDQ
  5241 0000339D F7 FB                           	IDIV	EBX
  5242 0000339F 8B 55 24                        	MOV	EDX,DWORD [36+EBP]
  5243 000033A2 89 C1                           	MOV	ECX,EAX
  5244 000033A4 89 F0                           	MOV	EAX,ESI
  5245 000033A6 88 44 11 FE                     	MOV	BYTE [-2+ECX+EDX*1],AL
  5246 000033AA 8D 45 08                        	LEA	EAX,DWORD [8+EBP]
  5247 000033AD 6A 01                           	PUSH	1
  5248 000033AF FF 75 F0                        	PUSH	DWORD [-16+EBP]
  5249 000033B2 50                              	PUSH	EAX
  5250 000033B3 E8 FFFFD12D                     	CALL	_cons_putchar
  5251 000033B8                                 L926:
  5252 000033B8 83 C4 0C                        	ADD	ESP,12
  5253 000033BB EB 83                           	JMP	L916
  5254 000033BD                                 L933:
  5255 000033BD 6A 00                           	PUSH	0
  5256 000033BF 8D 45 08                        	LEA	EAX,DWORD [8+EBP]
  5257 000033C2 6A 20                           	PUSH	32
  5258 000033C4 50                              	PUSH	EAX
  5259 000033C5 E8 FFFFD11B                     	CALL	_cons_putchar
  5260 000033CA 8B 5D 24                        	MOV	EBX,DWORD [36+EBP]
  5261 000033CD 8B 45 0C                        	MOV	EAX,DWORD [12+EBP]
  5262 000033D0 BA 00000008                     	MOV	EDX,8
  5263 000033D5 89 D1                           	MOV	ECX,EDX
  5264 000033D7 99                              	CDQ
  5265 000033D8 F7 F9                           	IDIV	ECX
  5266 000033DA C6 44 18 FE 00                  	MOV	BYTE [-2+EAX+EBX*1],0
  5267 000033DF 8D 45 08                        	LEA	EAX,DWORD [8+EBP]
  5268 000033E2 50                              	PUSH	EAX
  5269 000033E3 E8 FFFFD1B8                     	CALL	_cons_newline
  5270 000033E8 83 C4 10                        	ADD	ESP,16
  5271 000033EB 83 7D 08 00                     	CMP	DWORD [8+EBP],0
  5272 000033EF 74 0B                           	JE	L935
  5273 000033F1                                 L903:
  5274 000033F1 8B 45 24                        	MOV	EAX,DWORD [36+EBP]
  5275 000033F4 8D 65 F4                        	LEA	ESP,DWORD [-12+EBP]
  5276 000033F7 5B                              	POP	EBX
  5277 000033F8 5E                              	POP	ESI
  5278 000033F9 5F                              	POP	EDI
  5279 000033FA 5D                              	POP	EBP
  5280 000033FB C3                              	RET
  5281 000033FC                                 L935:
  5282 000033FC FF B7 000000B4                  	PUSH	DWORD [180+EDI]
  5283 00003402 8D 45 08                        	LEA	EAX,DWORD [8+EBP]
  5284 00003405 50                              	PUSH	EAX
  5285 00003406 E8 FFFFF065                     	CALL	_cmd_exit
  5286 0000340B 59                              	POP	ECX
  5287 0000340C 5B                              	POP	EBX
  5288 0000340D EB E2                           	JMP	L903
  5289 0000340F                                 L932:
  5290 0000340F 83 7D 0C 10                     	CMP	DWORD [12+EBP],16
  5291 00003413 0F 8E FFFFFF27                  	JLE	L916
  5292 00003419 6A 00                           	PUSH	0
  5293 0000341B 8D 45 08                        	LEA	EAX,DWORD [8+EBP]
  5294 0000341E 6A 20                           	PUSH	32
  5295 00003420 50                              	PUSH	EAX
  5296 00003421 E8 FFFFD0BF                     	CALL	_cons_putchar
  5297 00003426 83 6D 0C 08                     	SUB	DWORD [12+EBP],8
  5298 0000342A EB 8C                           	JMP	L926
  5299 0000342C                                 L931:
  5300 0000342C FF B7 000000B4                  	PUSH	DWORD [180+EDI]
  5301 00003432 8D 45 08                        	LEA	EAX,DWORD [8+EBP]
  5302 00003435 50                              	PUSH	EAX
  5303 00003436 E8 FFFFF035                     	CALL	_cmd_exit
  5304 0000343B 58                              	POP	EAX
  5305 0000343C 5A                              	POP	EDX
  5306 0000343D E9 FFFFFECB                     	JMP	L915
  5307 00003442                                 L930:
  5308 00003442 8B 5D 08                        	MOV	EBX,DWORD [8+EBP]
  5309 00003445 85 DB                           	TEST	EBX,EBX
  5310 00003447 75 0C                           	JNE	L936
  5311 00003449                                 L914:
  5312 00003449 C7 45 14 FFFFFFFF               	MOV	DWORD [20+EBP],-1
  5313 00003450 E9 FFFFFEAF                     	JMP	L913
  5314 00003455                                 L936:
  5315 00003455 8B 4D 10                        	MOV	ECX,DWORD [16+EBP]
  5316 00003458 8B 55 0C                        	MOV	EDX,DWORD [12+EBP]
  5317 0000345B 8D 41 0F                        	LEA	EAX,DWORD [15+ECX]
  5318 0000345E 50                              	PUSH	EAX
  5319 0000345F 8D 42 07                        	LEA	EAX,DWORD [7+EDX]
  5320 00003462 50                              	PUSH	EAX
  5321 00003463 51                              	PUSH	ECX
  5322 00003464 52                              	PUSH	EDX
  5323 00003465 6A 00                           	PUSH	0
  5324 00003467 FF 73 04                        	PUSH	DWORD [4+EBX]
  5325 0000346A FF 33                           	PUSH	DWORD [EBX]
  5326 0000346C E8 [00000000]                   	CALL	_boxfill8
  5327 00003471 83 C4 1C                        	ADD	ESP,28
  5328 00003474 EB D3                           	JMP	L914
  5329 00003476                                 L929:
  5330 00003476 C7 45 14 00000007               	MOV	DWORD [20+EBP],7
  5331 0000347D E9 FFFFFE79                     	JMP	L912
  5332 00003482                                 L928:
  5333 00003482 83 7D 08 00                     	CMP	DWORD [8+EBP],0
  5334 00003486 0F 84 FFFFFE66                  	JE	L907
  5335 0000348C 85 F6                           	TEST	ESI,ESI
  5336 0000348E 74 2C                           	JE	L908
  5337 00003490 6A 00                           	PUSH	0
  5338 00003492 53                              	PUSH	EBX
  5339 00003493 FF 75 18                        	PUSH	DWORD [24+EBP]
  5340 00003496 E8 [00000000]                   	CALL	_timer_init
  5341 0000349B 83 C4 0C                        	ADD	ESP,12
  5342 0000349E 83 7D 14 00                     	CMP	DWORD [20+EBP],0
  5343 000034A2 78 07                           	JS	L910
  5344 000034A4 C7 45 14 00000007               	MOV	DWORD [20+EBP],7
  5345 000034AB                                 L910:
  5346 000034AB 6A 32                           	PUSH	50
  5347 000034AD FF 75 18                        	PUSH	DWORD [24+EBP]
  5348 000034B0 E8 [00000000]                   	CALL	_timer_settime
  5349 000034B5 59                              	POP	ECX
  5350 000034B6 5B                              	POP	EBX
  5351 000034B7 E9 FFFFFE36                     	JMP	L907
  5352 000034BC                                 L908:
  5353 000034BC 6A 01                           	PUSH	1
  5354 000034BE 53                              	PUSH	EBX
  5355 000034BF FF 75 18                        	PUSH	DWORD [24+EBP]
  5356 000034C2 E8 [00000000]                   	CALL	_timer_init
  5357 000034C7 83 C4 0C                        	ADD	ESP,12
  5358 000034CA 83 7D 14 00                     	CMP	DWORD [20+EBP],0
  5359 000034CE 78 DB                           	JS	L910
  5360 000034D0 C7 45 14 00000000               	MOV	DWORD [20+EBP],0
  5361 000034D7 EB D2                           	JMP	L910
  5362 000034D9                                 L927:
  5363 000034D9 57                              	PUSH	EDI
  5364 000034DA E8 [00000000]                   	CALL	_task_sleep
  5365 000034DF E8 [00000000]                   	CALL	_io_sti
  5366 000034E4 58                              	POP	EAX
  5367 000034E5 E9 FFFFFDDA                     	JMP	L902
  5368 000034EA                                 	GLOBAL	_log
  5369                                          [SECTION .data]
  5370 00001B45 00 00 00                        	ALIGNB	4
  5371 00001B48                                 _log:
  5372 00001B48 00 00 00 00                     	RESB	4
  5373 00001B4C                                 	GLOBAL	_cp
  5374                                          [SECTION .data]
  5375 00001B4C                                 	ALIGNB	4
  5376 00001B4C                                 _cp:
  5377 00001B4C 00 00 00 00                     	RESB	4
