     1 00000000                                 [FORMAT "WCOFF"]
     2 00000000                                 [INSTRSET "i486p"]
     3 00000000                                 [OPTIMIZE 1]
     4 00000000                                 [OPTION 1]
     5 00000000                                 [BITS 32]
     6 00000000                                 	EXTERN	_task_now
     7 00000000                                 	EXTERN	_memman_alloc_4k
     8 00000000                                 	EXTERN	_timer_alloc
     9 00000000                                 	EXTERN	_timer_init
    10 00000000                                 	EXTERN	_timer_settime
    11 00000000                                 	EXTERN	_file_readfat
    12 00000000                                 	EXTERN	_io_cli
    13 00000000                                 	EXTERN	_fifo32_status
    14 00000000                                 	EXTERN	_fifo32_get
    15 00000000                                 	EXTERN	_io_sti
    16 00000000                                 	EXTERN	_boxfill8
    17 00000000                                 	EXTERN	_sheet_refresh
    18 00000000                                 	EXTERN	_strcpy
    19 00000000                                 	EXTERN	_newBackGround
    20 00000000                                 	EXTERN	_task_sleep
    21 00000000                                 	EXTERN	_putfonts8_asc_sht
    22 00000000                                 	EXTERN	_sprintf
    23 00000000                                 	EXTERN	_myfinfo_search
    24 00000000                                 	EXTERN	_myfread
    25 00000000                                 	EXTERN	_get_size_myfdata
    26 00000000                                 	EXTERN	_myfopen
    27 00000000                                 	EXTERN	_myfwrite
    28 00000000                                 	EXTERN	_strcat
    29 00000000                                 	EXTERN	_myfsave
    30 00000000                                 	EXTERN	_myfclose
    31 00000000                                 	EXTERN	_get_newdinfo
    32 00000000                                 	EXTERN	_get_newfdata
    33 00000000                                 	EXTERN	_memman_total
    34 00000000                                 	EXTERN	_file_loadfile
    35 00000000                                 	EXTERN	_memman_free_4k
    36 00000000                                 	EXTERN	_timer_cancel
    37 00000000                                 	EXTERN	_fifo32_put
    38 00000000                                 	EXTERN	_taskctl
    39 00000000                                 	EXTERN	_open_console
    40 00000000                                 	EXTERN	_sheet_slide
    41 00000000                                 	EXTERN	_sheet_updown
    42 00000000                                 	EXTERN	_open_constask
    43 00000000                                 	EXTERN	_file_search
    44 00000000                                 	EXTERN	_file_loadfile2
    45 00000000                                 	EXTERN	_set_segmdesc
    46 00000000                                 	EXTERN	_start_app
    47 00000000                                 	EXTERN	_timer_cancelall
    48 00000000                                 	EXTERN	_sheet_free
    49 00000000                                 	EXTERN	_sheet_alloc
    50 00000000                                 	EXTERN	_sheet_setbuf
    51 00000000                                 	EXTERN	_make_window8
    52 00000000                                 	EXTERN	_putfonts8_asc
    53 00000000                                 	EXTERN	_memman_init
    54 00000000                                 	EXTERN	_memman_free
    55 00000000                                 	EXTERN	_memman_alloc
    56 00000000                                 	EXTERN	_timer_free
    57 00000000                                 	EXTERN	_io_in8
    58 00000000                                 	EXTERN	_io_out8
    59 00000000                                 [FILE "console.c"]
    60 00000000                                 	GLOBAL	_console_id
    61                                          [SECTION .data]
    62 00000000                                 	ALIGNB	4
    63 00000000                                 _console_id:
    64 00000000 00000000                        	DD	0
    65 00000004                                 	GLOBAL	_setfdata
    66 00000004                                 	ALIGNB	4
    67 00000004                                 _setfdata:
    68 00000004 00000000                        	DD	0
    69 00000008                                 	GLOBAL	_cmdhisbuf
    70 00000008                                 	ALIGNB	4
    71 00000008                                 _cmdhisbuf:
    72 00000008 [00000BE0]                      	DD	_cmd_buf
    73                                          [SECTION .text]
    74 00000000                                 	GLOBAL	_debug_print
    75 00000000                                 _debug_print:
    76 00000000 55                              	PUSH	EBP
    77 00000001 89 E5                           	MOV	EBP,ESP
    78 00000003 5D                              	POP	EBP
    79 00000004 C3                              	RET
    80                                          [SECTION .data]
    81 0000000C                                 LC5:
    82 0000000C 74 69 6D 65 00                  	DB	"time",0x00
    83 00000011                                 LC4:
    84 00000011 6E 65 77 62 67 20 33 2E 6A 70   	DB	"newbg 3.jpg",0x00
       0000001B 67 00 
    85 0000001D                                 LC3:
    86 0000001D 6E 65 77 62 67 20 32 2E 6A 70   	DB	"newbg 2.jpg",0x00
       00000027 67 00 
    87 00000029                                 LC2:
    88 00000029 75 73 65 72 00                  	DB	"user",0x00
    89 0000002E                                 LC1:
    90 0000002E 69 6E 76 61 64 65 72 00         	DB	"invader",0x00
    91 00000036                                 LC0:
    92 00000036 6E 6F 6F 64 6C 65 00            	DB	"noodle",0x00
    93                                          [SECTION .text]
    94 00000005                                 	GLOBAL	_console_task
    95 00000005                                 _console_task:
    96 00000005 55                              	PUSH	EBP
    97 00000006 89 E5                           	MOV	EBP,ESP
    98 00000008 57                              	PUSH	EDI
    99 00000009 56                              	PUSH	ESI
   100 0000000A 53                              	PUSH	EBX
   101 0000000B 81 EC 00000108                  	SUB	ESP,264
   102 00000011 8B 5D 08                        	MOV	EBX,DWORD [8+EBP]
   103 00000014 E8 [00000000]                   	CALL	_task_now
   104 00000019 68 00002D00                     	PUSH	11520
   105 0000001E 68 003C0000                     	PUSH	3932160
   106 00000023 89 85 FFFFFF00                  	MOV	DWORD [-256+EBP],EAX
   107 00000029 E8 [00000000]                   	CALL	_memman_alloc_4k
   108 0000002E 8B 95 FFFFFF00                  	MOV	EDX,DWORD [-256+EBP]
   109 00000034 8B 35 00000FE8                  	MOV	ESI,DWORD [4072]
   110 0000003A 89 5D D4                        	MOV	DWORD [-44+EBP],EBX
   111 0000003D 89 85 FFFFFEFC                  	MOV	DWORD [-260+EBP],EAX
   112 00000043 A1 [00000000]                   	MOV	EAX,DWORD [_console_id]
   113 00000048 89 45 EC                        	MOV	DWORD [-20+EBP],EAX
   114 0000004B 40                              	INC	EAX
   115 0000004C A3 [00000000]                   	MOV	DWORD [_console_id],EAX
   116 00000051 85 DB                           	TEST	EBX,EBX
   117 00000053 8D 45 D4                        	LEA	EAX,DWORD [-44+EBP]
   118 00000056 89 82 000000A4                  	MOV	DWORD [164+EDX],EAX
   119 0000005C 8D 85 FFFFFF04                  	LEA	EAX,DWORD [-252+EBP]
   120 00000062 89 82 000000B8                  	MOV	DWORD [184+EDX],EAX
   121 00000068 58                              	POP	EAX
   122 00000069 C7 45 D8 00000008               	MOV	DWORD [-40+EBP],8
   123 00000070 C7 45 DC 0000001C               	MOV	DWORD [-36+EBP],28
   124 00000077 C7 45 E0 FFFFFFFF               	MOV	DWORD [-32+EBP],-1
   125 0000007E C7 45 E8 00400000               	MOV	DWORD [-24+EBP],4194304
   126 00000085 5A                              	POP	EDX
   127 00000086 74 27                           	JE	L3
   128 00000088 E8 [00000000]                   	CALL	_timer_alloc
   129 0000008D 8B 95 FFFFFF00                  	MOV	EDX,DWORD [-256+EBP]
   130 00000093 6A 01                           	PUSH	1
   131 00000095 83 C2 10                        	ADD	EDX,16
   132 00000098 52                              	PUSH	EDX
   133 00000099 89 45 E4                        	MOV	DWORD [-28+EBP],EAX
   134 0000009C 50                              	PUSH	EAX
   135 0000009D E8 [00000000]                   	CALL	_timer_init
   136 000000A2 6A 32                           	PUSH	50
   137 000000A4 FF 75 E4                        	PUSH	DWORD [-28+EBP]
   138 000000A7 E8 [00000000]                   	CALL	_timer_settime
   139 000000AC 83 C4 14                        	ADD	ESP,20
   140 000000AF                                 L3:
   141 000000AF 68 00100200                     	PUSH	1049088
   142 000000B4 FF B5 FFFFFEFC                  	PUSH	DWORD [-260+EBP]
   143 000000BA E8 [00000000]                   	CALL	_file_readfat
   144 000000BF 31 C0                           	XOR	EAX,EAX
   145 000000C1 5B                              	POP	EBX
   146 000000C2 5F                              	POP	EDI
   147 000000C3 BF 00000007                     	MOV	EDI,7
   148 000000C8                                 L8:
   149 000000C8 C7 84 05 FFFFFF74 00000000      	MOV	DWORD [-140+EBP+EAX*1],0
   150 000000D3 83 C0 0C                        	ADD	EAX,12
   151 000000D6 4F                              	DEC	EDI
   152 000000D7 79 EF                           	JNS	L8
   153 000000D9 8B 8D FFFFFF00                  	MOV	ECX,DWORD [-256+EBP]
   154 000000DF 8B 9D FFFFFEFC                  	MOV	EBX,DWORD [-260+EBP]
   155 000000E5 8D 85 FFFFFF74                  	LEA	EAX,DWORD [-140+EBP]
   156 000000EB 89 81 000000B0                  	MOV	DWORD [176+ECX],EAX
   157 000000F1 89 99 000000B4                  	MOV	DWORD [180+ECX],EBX
   158 000000F7 80 BE 00001000 FF               	CMP	BYTE [4096+ESI],-1
   159 000000FE C6 81 000000C1 00               	MOV	BYTE [193+ECX],0
   160 00000105 0F 95 81 000000C0               	SETNE	BYTE [192+ECX]
   161 0000010C 8B 45 EC                        	MOV	EAX,DWORD [-20+EBP]
   162 0000010F 83 F8 01                        	CMP	EAX,1
   163 00000112 0F 84 000006F4                  	JE	L92
   164 00000118 85 C0                           	TEST	EAX,EAX
   165 0000011A 75 0A                           	JNE	L12
   166 0000011C 8D 45 D4                        	LEA	EAX,DWORD [-44+EBP]
   167 0000011F 50                              	PUSH	EAX
   168 00000120 E8 00001CF4                     	CALL	_cmd_setlog
   169 00000125                                 L89:
   170 00000125 59                              	POP	ECX
   171 00000126                                 L12:
   172 00000126 8D 5D D4                        	LEA	EBX,DWORD [-44+EBP]
   173 00000129 53                              	PUSH	EBX
   174 0000012A E8 0000095A                     	CALL	_cons_putdir
   175 0000012F 6A 01                           	PUSH	1
   176 00000131 6A 3E                           	PUSH	62
   177 00000133 89 C6                           	MOV	ESI,EAX
   178 00000135 53                              	PUSH	EBX
   179 00000136 E8 000006DF                     	CALL	_cons_putchar
   180 0000013B 83 C4 10                        	ADD	ESP,16
   181 0000013E                                 L14:
   182 0000013E E8 [00000000]                   	CALL	_io_cli
   183 00000143 8B 9D FFFFFF00                  	MOV	EBX,DWORD [-256+EBP]
   184 00000149 83 C3 10                        	ADD	EBX,16
   185 0000014C 53                              	PUSH	EBX
   186 0000014D E8 [00000000]                   	CALL	_fifo32_status
   187 00000152 5A                              	POP	EDX
   188 00000153 85 C0                           	TEST	EAX,EAX
   189 00000155 0F 84 0000069B                  	JE	L93
   190 0000015B 53                              	PUSH	EBX
   191 0000015C E8 [00000000]                   	CALL	_fifo32_get
   192 00000161 89 C7                           	MOV	EDI,EAX
   193 00000163 E8 [00000000]                   	CALL	_io_sti
   194 00000168 58                              	POP	EAX
   195 00000169 83 FF 01                        	CMP	EDI,1
   196 0000016C 0F 8E 0000062D                  	JLE	L94
   197 00000172                                 L19:
   198 00000172 83 FF 02                        	CMP	EDI,2
   199 00000175 0F 84 00000618                  	JE	L95
   200 0000017B                                 L24:
   201 0000017B 83 FF 03                        	CMP	EDI,3
   202 0000017E 0F 84 000005DD                  	JE	L96
   203 00000184                                 L25:
   204 00000184 83 FF 04                        	CMP	EDI,4
   205 00000187 0F 84 000005BE                  	JE	L97
   206 0000018D                                 L27:
   207 0000018D 83 FF 06                        	CMP	EDI,6
   208 00000190 0F 84 00000599                  	JE	L98
   209 00000196                                 L29:
   210 00000196 83 FF 0C                        	CMP	EDI,12
   211 00000199 0F 84 0000051B                  	JE	L99
   212 0000019F                                 L35:
   213 0000019F 83 FF 0D                        	CMP	EDI,13
   214 000001A2 0F 84 000004F6                  	JE	L100
   215 000001A8                                 L36:
   216 000001A8 83 FF 12                        	CMP	EDI,18
   217 000001AB 0F 84 000004D1                  	JE	L101
   218 000001B1                                 L37:
   219 000001B1 83 FF 15                        	CMP	EDI,21
   220 000001B4 0F 84 000004AC                  	JE	L102
   221 000001BA                                 L38:
   222 000001BA 83 FF 16                        	CMP	EDI,22
   223 000001BD 0F 84 00000487                  	JE	L103
   224 000001C3                                 L39:
   225 000001C3 83 FF 17                        	CMP	EDI,23
   226 000001C6 0F 84 00000462                  	JE	L104
   227 000001CC                                 L40:
   228 000001CC 8D 87 FFFFFF00                  	LEA	EAX,DWORD [-256+EDI]
   229 000001D2 3D 000000FF                     	CMP	EAX,255
   230 000001D7 77 69                           	JA	L41
   231 000001D9 81 FF 00000108                  	CMP	EDI,264
   232 000001DF 0F 84 00000423                  	JE	L105
   233 000001E5 81 FF 0000010A                  	CMP	EDI,266
   234 000001EB 0F 84 00000209                  	JE	L106
   235 000001F1 81 FF 00000112                  	CMP	EDI,274
   236 000001F7 0F 84 00000154                  	JE	L107
   237 000001FD                                 L60:
   238 000001FD 81 FF 00000114                  	CMP	EDI,276
   239 00000203 0F 84 0000008C                  	JE	L108
   240 00000209                                 L68:
   241 00000209 8B 4D D8                        	MOV	ECX,DWORD [-40+EBP]
   242 0000020C 81 F9 000000EF                  	CMP	ECX,239
   243 00000212 7F 2E                           	JG	L41
   244 00000214 89 C8                           	MOV	EAX,ECX
   245 00000216 BA 00000008                     	MOV	EDX,8
   246 0000021B 89 D3                           	MOV	EBX,EDX
   247 0000021D 6A 01                           	PUSH	1
   248 0000021F 99                              	CDQ
   249 00000220 F7 FB                           	IDIV	EBX
   250 00000222 89 C1                           	MOV	ECX,EAX
   251 00000224 89 F8                           	MOV	EAX,EDI
   252 00000226 29 F1                           	SUB	ECX,ESI
   253 00000228 88 84 0D FFFFFF02               	MOV	BYTE [-254+EBP+ECX*1],AL
   254 0000022F 8D 87 FFFFFF00                  	LEA	EAX,DWORD [-256+EDI]
   255 00000235 50                              	PUSH	EAX
   256 00000236 8D 45 D4                        	LEA	EAX,DWORD [-44+EBP]
   257 00000239 50                              	PUSH	EAX
   258 0000023A E8 000005DB                     	CALL	_cons_putchar
   259 0000023F                                 L91:
   260 0000023F 83 C4 0C                        	ADD	ESP,12
   261 00000242                                 L41:
   262 00000242 8B 5D D4                        	MOV	EBX,DWORD [-44+EBP]
   263 00000245 85 DB                           	TEST	EBX,EBX
   264 00000247 0F 84 FFFFFEF1                  	JE	L14
   265 0000024D 83 7D E0 00                     	CMP	DWORD [-32+EBP],0
   266 00000251 78 22                           	JS	L80
   267 00000253 8B 4D DC                        	MOV	ECX,DWORD [-36+EBP]
   268 00000256 8B 55 D8                        	MOV	EDX,DWORD [-40+EBP]
   269 00000259 8D 41 0F                        	LEA	EAX,DWORD [15+ECX]
   270 0000025C 50                              	PUSH	EAX
   271 0000025D 8D 42 07                        	LEA	EAX,DWORD [7+EDX]
   272 00000260 50                              	PUSH	EAX
   273 00000261 51                              	PUSH	ECX
   274 00000262 52                              	PUSH	EDX
   275 00000263 0F B6 45 E0                     	MOVZX	EAX,BYTE [-32+EBP]
   276 00000267 50                              	PUSH	EAX
   277 00000268 FF 73 04                        	PUSH	DWORD [4+EBX]
   278 0000026B FF 33                           	PUSH	DWORD [EBX]
   279 0000026D E8 [00000000]                   	CALL	_boxfill8
   280 00000272 83 C4 1C                        	ADD	ESP,28
   281 00000275                                 L80:
   282 00000275 8B 4D DC                        	MOV	ECX,DWORD [-36+EBP]
   283 00000278 8B 55 D8                        	MOV	EDX,DWORD [-40+EBP]
   284 0000027B 8D 41 10                        	LEA	EAX,DWORD [16+ECX]
   285 0000027E 50                              	PUSH	EAX
   286 0000027F 8D 42 08                        	LEA	EAX,DWORD [8+EDX]
   287 00000282 50                              	PUSH	EAX
   288 00000283 51                              	PUSH	ECX
   289 00000284 52                              	PUSH	EDX
   290 00000285 FF 75 D4                        	PUSH	DWORD [-44+EBP]
   291 00000288 E8 [00000000]                   	CALL	_sheet_refresh
   292 0000028D 83 C4 14                        	ADD	ESP,20
   293 00000290 E9 FFFFFEA9                     	JMP	L14
   294 00000295                                 L108:
   295 00000295 8B 15 [00000BD4]                	MOV	EDX,DWORD [_cmdhis+20]
   296 0000029B A1 [00000BD0]                   	MOV	EAX,DWORD [_cmdhis+16]
   297 000002A0 83 3C 82 00                     	CMP	DWORD [EDX+EAX*4],0
   298 000002A4 0F 84 FFFFFF5F                  	JE	L68
   299 000002AA 83 7D D8 18                     	CMP	DWORD [-40+EBP],24
   300 000002AE 7E 1E                           	JLE	L87
   301 000002B0                                 L72:
   302 000002B0 6A 00                           	PUSH	0
   303 000002B2 8D 45 D4                        	LEA	EAX,DWORD [-44+EBP]
   304 000002B5 6A 20                           	PUSH	32
   305 000002B7 50                              	PUSH	EAX
   306 000002B8 E8 0000055D                     	CALL	_cons_putchar
   307 000002BD 83 C4 0C                        	ADD	ESP,12
   308 000002C0 8B 45 D8                        	MOV	EAX,DWORD [-40+EBP]
   309 000002C3 83 E8 08                        	SUB	EAX,8
   310 000002C6 89 45 D8                        	MOV	DWORD [-40+EBP],EAX
   311 000002C9 83 F8 18                        	CMP	EAX,24
   312 000002CC 7F E2                           	JG	L72
   313 000002CE                                 L87:
   314 000002CE 8B 15 [00000BD0]                	MOV	EDX,DWORD [_cmdhis+16]
   315 000002D4 A1 [00000BD4]                   	MOV	EAX,DWORD [_cmdhis+20]
   316 000002D9 FF 34 90                        	PUSH	DWORD [EAX+EDX*4]
   317 000002DC 8D 45 D4                        	LEA	EAX,DWORD [-44+EBP]
   318 000002DF 50                              	PUSH	EAX
   319 000002E0 E8 00000743                     	CALL	_cons_putstr0
   320 000002E5 A1 [00000BD4]                   	MOV	EAX,DWORD [_cmdhis+20]
   321 000002EA 8B 15 [00000BD0]                	MOV	EDX,DWORD [_cmdhis+16]
   322 000002F0 FF 34 90                        	PUSH	DWORD [EAX+EDX*4]
   323 000002F3 8D 85 FFFFFF04                  	LEA	EAX,DWORD [-252+EBP]
   324 000002F9 50                              	PUSH	EAX
   325 000002FA E8 [00000000]                   	CALL	_strcpy
   326 000002FF 83 C4 10                        	ADD	ESP,16
   327 00000302 8B 15 [00000BD0]                	MOV	EDX,DWORD [_cmdhis+16]
   328 00000308 8B 0D [00000BC0]                	MOV	ECX,DWORD [_cmdhis]
   329 0000030E 8D 42 01                        	LEA	EAX,DWORD [1+EDX]
   330 00000311 A3 [00000BD0]                   	MOV	DWORD [_cmdhis+16],EAX
   331 00000316 39 C8                           	CMP	EAX,ECX
   332 00000318 74 2F                           	JE	L109
   333 0000031A                                 L73:
   334 0000031A 83 3D [00000BD0] 20             	CMP	DWORD [_cmdhis+16],32
   335 00000321 0F 85 FFFFFF1B                  	JNE	L41
   336 00000327 85 C9                           	TEST	ECX,ECX
   337 00000329 75 0F                           	JNE	L75
   338 0000032B                                 L90:
   339 0000032B C7 05 [00000BD0] 0000001F       	MOV	DWORD [_cmdhis+16],31
   340 00000335 E9 FFFFFF08                     	JMP	L41
   341 0000033A                                 L75:
   342 0000033A C7 05 [00000BD0] 00000000       	MOV	DWORD [_cmdhis+16],0
   343 00000344 E9 FFFFFEF9                     	JMP	L41
   344 00000349                                 L109:
   345 00000349 89 15 [00000BD0]                	MOV	DWORD [_cmdhis+16],EDX
   346 0000034F EB C9                           	JMP	L73
   347 00000351                                 L107:
   348 00000351 8B 15 [00000BD4]                	MOV	EDX,DWORD [_cmdhis+20]
   349 00000357 A1 [00000BD0]                   	MOV	EAX,DWORD [_cmdhis+16]
   350 0000035C 83 3C 82 00                     	CMP	DWORD [EDX+EAX*4],0
   351 00000360 0F 84 FFFFFE97                  	JE	L60
   352 00000366 83 7D D8 18                     	CMP	DWORD [-40+EBP],24
   353 0000036A 7E 1E                           	JLE	L85
   354 0000036C                                 L64:
   355 0000036C 6A 00                           	PUSH	0
   356 0000036E 8D 45 D4                        	LEA	EAX,DWORD [-44+EBP]
   357 00000371 6A 20                           	PUSH	32
   358 00000373 50                              	PUSH	EAX
   359 00000374 E8 000004A1                     	CALL	_cons_putchar
   360 00000379 83 C4 0C                        	ADD	ESP,12
   361 0000037C 8B 45 D8                        	MOV	EAX,DWORD [-40+EBP]
   362 0000037F 83 E8 08                        	SUB	EAX,8
   363 00000382 89 45 D8                        	MOV	DWORD [-40+EBP],EAX
   364 00000385 83 F8 18                        	CMP	EAX,24
   365 00000388 7F E2                           	JG	L64
   366 0000038A                                 L85:
   367 0000038A 8B 15 [00000BD0]                	MOV	EDX,DWORD [_cmdhis+16]
   368 00000390 A1 [00000BD4]                   	MOV	EAX,DWORD [_cmdhis+20]
   369 00000395 FF 34 90                        	PUSH	DWORD [EAX+EDX*4]
   370 00000398 8D 45 D4                        	LEA	EAX,DWORD [-44+EBP]
   371 0000039B 50                              	PUSH	EAX
   372 0000039C E8 00000687                     	CALL	_cons_putstr0
   373 000003A1 A1 [00000BD4]                   	MOV	EAX,DWORD [_cmdhis+20]
   374 000003A6 8B 15 [00000BD0]                	MOV	EDX,DWORD [_cmdhis+16]
   375 000003AC FF 34 90                        	PUSH	DWORD [EAX+EDX*4]
   376 000003AF 8D 85 FFFFFF04                  	LEA	EAX,DWORD [-252+EBP]
   377 000003B5 50                              	PUSH	EAX
   378 000003B6 E8 [00000000]                   	CALL	_strcpy
   379 000003BB 83 C4 10                        	ADD	ESP,16
   380 000003BE 8B 15 [00000BC4]                	MOV	EDX,DWORD [_cmdhis+4]
   381 000003C4 39 15 [00000BD0]                	CMP	DWORD [_cmdhis+16],EDX
   382 000003CA 74 24                           	JE	L110
   383 000003CC                                 L65:
   384 000003CC A1 [00000BD0]                   	MOV	EAX,DWORD [_cmdhis+16]
   385 000003D1 48                              	DEC	EAX
   386 000003D2 39 15 [00000BC0]                	CMP	DWORD [_cmdhis],EDX
   387 000003D8 A3 [00000BD0]                   	MOV	DWORD [_cmdhis+16],EAX
   388 000003DD 0F 8D FFFFFE5F                  	JGE	L41
   389 000003E3 85 C0                           	TEST	EAX,EAX
   390 000003E5 0F 89 FFFFFE57                  	JNS	L41
   391 000003EB E9 FFFFFF3B                     	JMP	L90
   392 000003F0                                 L110:
   393 000003F0 8D 42 01                        	LEA	EAX,DWORD [1+EDX]
   394 000003F3 A3 [00000BD0]                   	MOV	DWORD [_cmdhis+16],EAX
   395 000003F8 EB D2                           	JMP	L65
   396 000003FA                                 L106:
   397 000003FA 6A 00                           	PUSH	0
   398 000003FC 8D 5D D4                        	LEA	EBX,DWORD [-44+EBP]
   399 000003FF 6A 20                           	PUSH	32
   400 00000401 53                              	PUSH	EBX
   401 00000402 E8 00000413                     	CALL	_cons_putchar
   402 00000407 53                              	PUSH	EBX
   403 00000408 8B 45 D8                        	MOV	EAX,DWORD [-40+EBP]
   404 0000040B BA 00000008                     	MOV	EDX,8
   405 00000410 89 D1                           	MOV	ECX,EDX
   406 00000412 99                              	CDQ
   407 00000413 F7 F9                           	IDIV	ECX
   408 00000415 29 F0                           	SUB	EAX,ESI
   409 00000417 C6 84 05 FFFFFF02 00            	MOV	BYTE [-254+EBP+EAX*1],0
   410 0000041F E8 000004B1                     	CALL	_cons_newline
   411 00000424 83 C4 10                        	ADD	ESP,16
   412 00000427 8B 35 [00000BD8]                	MOV	ESI,DWORD [_cmdhis+24]
   413 0000042D C7 05 [00000BD4] [00000BE0]     	MOV	DWORD [_cmdhis+20],_cmd_buf
   414 00000437 89 35 [00000BE0]                	MOV	DWORD [_cmd_buf],ESI
   415 0000043D C7 05 [00000BC0] 00000000       	MOV	DWORD [_cmdhis],0
   416 00000447 C7 05 [00000BC4] 00000000       	MOV	DWORD [_cmdhis+4],0
   417 00000451 C7 05 [00000BC8] 00000080       	MOV	DWORD [_cmdhis+8],128
   418 0000045B C7 05 [00000BCC] 00000000       	MOV	DWORD [_cmdhis+12],0
   419 00000465 C7 05 [00000BD0] 00000000       	MOV	DWORD [_cmdhis+16],0
   420 0000046F 80 BD FFFFFF04 00               	CMP	BYTE [-252+EBP],0
   421 00000476 0F 84 00000113                  	JE	L46
   422 0000047C 8B 15 [00000BC8]                	MOV	EDX,DWORD [_cmdhis+8]
   423 00000482 8B 0D [00000BC4]                	MOV	ECX,DWORD [_cmdhis+4]
   424 00000488 A1 [00000BD4]                   	MOV	EAX,DWORD [_cmdhis+20]
   425 0000048D 89 95 FFFFFEF8                  	MOV	DWORD [-264+EBP],EDX
   426 00000493 8D 1C 32                        	LEA	EBX,DWORD [EDX+ESI*1]
   427 00000496 89 8D FFFFFEEC                  	MOV	DWORD [-276+EBP],ECX
   428 0000049C 8B 14 88                        	MOV	EDX,DWORD [EAX+ECX*4]
   429 0000049F 89 85 FFFFFEF4                  	MOV	DWORD [-268+EBP],EAX
   430 000004A5 39 D3                           	CMP	EBX,EDX
   431 000004A7 77 77                           	JA	L48
   432 000004A9 8B 0D [00000BC0]                	MOV	ECX,DWORD [_cmdhis]
   433 000004AF 8B 85 FFFFFEEC                  	MOV	EAX,DWORD [-276+EBP]
   434 000004B5 89 8D FFFFFEF0                  	MOV	DWORD [-272+EBP],ECX
   435 000004BB 39 C1                           	CMP	ECX,EAX
   436 000004BD 74 61                           	JE	L48
   437 000004BF FC                              	CLD
   438 000004C0 83 C9 FF                        	OR	ECX,-1
   439 000004C3 31 C0                           	XOR	EAX,EAX
   440 000004C5 8D BD FFFFFF04                  	LEA	EDI,DWORD [-252+EBP]
   441 000004CB F2                              	REPNE
   442 000004CC AE                              	SCASB
   443 000004CD F7 D1                           	NOT	ECX
   444 000004CF 8D 0C 19                        	LEA	ECX,DWORD [ECX+EBX*1]
   445 000004D2 39 D1                           	CMP	ECX,EDX
   446 000004D4 76 4A                           	JBE	L48
   447 000004D6                                 L54:
   448 000004D6 8B 9D FFFFFEEC                  	MOV	EBX,DWORD [-276+EBP]
   449 000004DC 43                              	INC	EBX
   450 000004DD 83 FB 20                        	CMP	EBX,32
   451 000004E0 0F 84 0000011B                  	JE	L111
   452 000004E6                                 L52:
   453 000004E6 3B 9D FFFFFEF0                  	CMP	EBX,DWORD [-272+EBP]
   454 000004EC 74 2C                           	JE	L88
   455 000004EE 8B 8D FFFFFEF8                  	MOV	ECX,DWORD [-264+EBP]
   456 000004F4 31 C0                           	XOR	EAX,EAX
   457 000004F6 FC                              	CLD
   458 000004F7 8D 14 31                        	LEA	EDX,DWORD [ECX+ESI*1]
   459 000004FA 8D BD FFFFFF04                  	LEA	EDI,DWORD [-252+EBP]
   460 00000500 83 C9 FF                        	OR	ECX,-1
   461 00000503 F2                              	REPNE
   462 00000504 AE                              	SCASB
   463 00000505 8B 85 FFFFFEF4                  	MOV	EAX,DWORD [-268+EBP]
   464 0000050B 89 9D FFFFFEEC                  	MOV	DWORD [-276+EBP],EBX
   465 00000511 F7 D1                           	NOT	ECX
   466 00000513 01 CA                           	ADD	EDX,ECX
   467 00000515 3B 14 98                        	CMP	EDX,DWORD [EAX+EBX*4]
   468 00000518 77 BC                           	JA	L54
   469 0000051A                                 L88:
   470 0000051A 89 1D [00000BC4]                	MOV	DWORD [_cmdhis+4],EBX
   471 00000520                                 L48:
   472 00000520 A1 [00000BC8]                   	MOV	EAX,DWORD [_cmdhis+8]
   473 00000525 8D BD FFFFFF04                  	LEA	EDI,DWORD [-252+EBP]
   474 0000052B 03 05 [00000BD8]                	ADD	EAX,DWORD [_cmdhis+24]
   475 00000531 57                              	PUSH	EDI
   476 00000532 50                              	PUSH	EAX
   477 00000533 E8 [00000000]                   	CALL	_strcpy
   478 00000538 83 C9 FF                        	OR	ECX,-1
   479 0000053B 8B 1D [00000BC0]                	MOV	EBX,DWORD [_cmdhis]
   480 00000541 8B 15 [00000BC8]                	MOV	EDX,DWORD [_cmdhis+8]
   481 00000547 A1 [00000BD8]                   	MOV	EAX,DWORD [_cmdhis+24]
   482 0000054C 8B 35 [00000BD4]                	MOV	ESI,DWORD [_cmdhis+20]
   483 00000552 01 D0                           	ADD	EAX,EDX
   484 00000554 FC                              	CLD
   485 00000555 89 04 9E                        	MOV	DWORD [ESI+EBX*4],EAX
   486 00000558 31 C0                           	XOR	EAX,EAX
   487 0000055A F2                              	REPNE
   488 0000055B AE                              	SCASB
   489 0000055C F7 D1                           	NOT	ECX
   490 0000055E 01 CA                           	ADD	EDX,ECX
   491 00000560 89 1D [00000BD0]                	MOV	DWORD [_cmdhis+16],EBX
   492 00000566 59                              	POP	ECX
   493 00000567 43                              	INC	EBX
   494 00000568 89 15 [00000BC8]                	MOV	DWORD [_cmdhis+8],EDX
   495 0000056E 89 1D [00000BC0]                	MOV	DWORD [_cmdhis],EBX
   496 00000574 5F                              	POP	EDI
   497 00000575 83 FB 20                        	CMP	EBX,32
   498 00000578 74 78                           	JE	L112
   499 0000057A                                 L55:
   500 0000057A 8B 15 [00000BC0]                	MOV	EDX,DWORD [_cmdhis]
   501 00000580 39 15 [00000BC4]                	CMP	DWORD [_cmdhis+4],EDX
   502 00000586 74 51                           	JE	L113
   503 00000588                                 L56:
   504 00000588 C7 04 96 00000000               	MOV	DWORD [ESI+EDX*4],0
   505 0000058F                                 L46:
   506 0000058F FF 75 0C                        	PUSH	DWORD [12+EBP]
   507 00000592 FF B5 FFFFFEFC                  	PUSH	DWORD [-260+EBP]
   508 00000598 8D 5D D4                        	LEA	EBX,DWORD [-44+EBP]
   509 0000059B 8D 85 FFFFFF04                  	LEA	EAX,DWORD [-252+EBP]
   510 000005A1 53                              	PUSH	EBX
   511 000005A2 50                              	PUSH	EAX
   512 000005A3 E8 000005C8                     	CALL	_cons_runcmd
   513 000005A8 83 C4 10                        	ADD	ESP,16
   514 000005AB 83 7D D4 00                     	CMP	DWORD [-44+EBP],0
   515 000005AF 75 0E                           	JNE	L58
   516 000005B1 FF B5 FFFFFEFC                  	PUSH	DWORD [-260+EBP]
   517 000005B7 53                              	PUSH	EBX
   518 000005B8 E8 000021BF                     	CALL	_cmd_exit
   519 000005BD 58                              	POP	EAX
   520 000005BE 5A                              	POP	EDX
   521 000005BF                                 L58:
   522 000005BF 53                              	PUSH	EBX
   523 000005C0 E8 000004C4                     	CALL	_cons_putdir
   524 000005C5 6A 01                           	PUSH	1
   525 000005C7 6A 3E                           	PUSH	62
   526 000005C9 89 C6                           	MOV	ESI,EAX
   527 000005CB 53                              	PUSH	EBX
   528 000005CC E8 00000249                     	CALL	_cons_putchar
   529 000005D1 83 C4 10                        	ADD	ESP,16
   530 000005D4 E9 FFFFFC69                     	JMP	L41
   531 000005D9                                 L113:
   532 000005D9 8D 42 01                        	LEA	EAX,DWORD [1+EDX]
   533 000005DC A3 [00000BC4]                   	MOV	DWORD [_cmdhis+4],EAX
   534 000005E1 83 F8 20                        	CMP	EAX,32
   535 000005E4 75 A2                           	JNE	L56
   536 000005E6 C7 05 [00000BC4] 00000000       	MOV	DWORD [_cmdhis+4],0
   537 000005F0 EB 96                           	JMP	L56
   538 000005F2                                 L112:
   539 000005F2 C7 05 [00000BC0] 00000000       	MOV	DWORD [_cmdhis],0
   540 000005FC E9 FFFFFF79                     	JMP	L55
   541 00000601                                 L111:
   542 00000601 31 DB                           	XOR	EBX,EBX
   543 00000603 E9 FFFFFEDE                     	JMP	L52
   544 00000608                                 L105:
   545 00000608 8D 04 F5 00000010               	LEA	EAX,DWORD [16+ESI*8]
   546 0000060F 39 45 D8                        	CMP	DWORD [-40+EBP],EAX
   547 00000612 0F 8E FFFFFC2A                  	JLE	L41
   548 00000618 6A 00                           	PUSH	0
   549 0000061A 8D 45 D4                        	LEA	EAX,DWORD [-44+EBP]
   550 0000061D 6A 20                           	PUSH	32
   551 0000061F 50                              	PUSH	EAX
   552 00000620 E8 000001F5                     	CALL	_cons_putchar
   553 00000625 83 6D D8 08                     	SUB	DWORD [-40+EBP],8
   554 00000629 E9 FFFFFC11                     	JMP	L91
   555 0000062E                                 L104:
   556 0000062E 68 [0000000C]                   	PUSH	LC5
   557 00000633 8D 45 D4                        	LEA	EAX,DWORD [-44+EBP]
   558 00000636 FF B5 FFFFFEFC                  	PUSH	DWORD [-260+EBP]
   559 0000063C 50                              	PUSH	EAX
   560 0000063D E8 00002377                     	CALL	_cmd_app
   561 00000642 83 C4 0C                        	ADD	ESP,12
   562 00000645 E9 FFFFFB82                     	JMP	L40
   563 0000064A                                 L103:
   564 0000064A 8D 45 D4                        	LEA	EAX,DWORD [-44+EBP]
   565 0000064D 50                              	PUSH	EAX
   566 0000064E FF B5 FFFFFEFC                  	PUSH	DWORD [-260+EBP]
   567 00000654 68 [00000011]                   	PUSH	LC4
   568 00000659 E8 [00000000]                   	CALL	_newBackGround
   569 0000065E 83 C4 0C                        	ADD	ESP,12
   570 00000661 E9 FFFFFB5D                     	JMP	L39
   571 00000666                                 L102:
   572 00000666 8D 45 D4                        	LEA	EAX,DWORD [-44+EBP]
   573 00000669 50                              	PUSH	EAX
   574 0000066A FF B5 FFFFFEFC                  	PUSH	DWORD [-260+EBP]
   575 00000670 68 [0000001D]                   	PUSH	LC3
   576 00000675 E8 [00000000]                   	CALL	_newBackGround
   577 0000067A 83 C4 0C                        	ADD	ESP,12
   578 0000067D E9 FFFFFB38                     	JMP	L38
   579 00000682                                 L101:
   580 00000682 68 [00000029]                   	PUSH	LC2
   581 00000687 8D 45 D4                        	LEA	EAX,DWORD [-44+EBP]
   582 0000068A FF B5 FFFFFEFC                  	PUSH	DWORD [-260+EBP]
   583 00000690 50                              	PUSH	EAX
   584 00000691 E8 00002323                     	CALL	_cmd_app
   585 00000696 83 C4 0C                        	ADD	ESP,12
   586 00000699 E9 FFFFFB13                     	JMP	L37
   587 0000069E                                 L100:
   588 0000069E 68 [0000002E]                   	PUSH	LC1
   589 000006A3 8D 45 D4                        	LEA	EAX,DWORD [-44+EBP]
   590 000006A6 FF B5 FFFFFEFC                  	PUSH	DWORD [-260+EBP]
   591 000006AC 50                              	PUSH	EAX
   592 000006AD E8 00002307                     	CALL	_cmd_app
   593 000006B2 83 C4 0C                        	ADD	ESP,12
   594 000006B5 E9 FFFFFAEE                     	JMP	L36
   595 000006BA                                 L99:
   596 000006BA FF 75 0C                        	PUSH	DWORD [12+EBP]
   597 000006BD FF B5 FFFFFEFC                  	PUSH	DWORD [-260+EBP]
   598 000006C3 8D 45 D4                        	LEA	EAX,DWORD [-44+EBP]
   599 000006C6 50                              	PUSH	EAX
   600 000006C7 8D 85 FFFFFF04                  	LEA	EAX,DWORD [-252+EBP]
   601 000006CD 50                              	PUSH	EAX
   602 000006CE C6 85 FFFFFF04 47               	MOV	BYTE [-252+EBP],71
   603 000006D5 C6 85 FFFFFF05 56               	MOV	BYTE [-251+EBP],86
   604 000006DC C6 85 FFFFFF06 49               	MOV	BYTE [-250+EBP],73
   605 000006E3 C6 85 FFFFFF07 45               	MOV	BYTE [-249+EBP],69
   606 000006EA C6 85 FFFFFF08 57               	MOV	BYTE [-248+EBP],87
   607 000006F1 C6 85 FFFFFF09 20               	MOV	BYTE [-247+EBP],32
   608 000006F8 C6 85 FFFFFF0A 35               	MOV	BYTE [-246+EBP],53
   609 000006FF C6 85 FFFFFF0B 2E               	MOV	BYTE [-245+EBP],46
   610 00000706 C6 85 FFFFFF0C 4A               	MOV	BYTE [-244+EBP],74
   611 0000070D C6 85 FFFFFF0D 50               	MOV	BYTE [-243+EBP],80
   612 00000714 C6 85 FFFFFF0E 47               	MOV	BYTE [-242+EBP],71
   613 0000071B C6 85 FFFFFF0F 00               	MOV	BYTE [-241+EBP],0
   614 00000722 E8 00000449                     	CALL	_cons_runcmd
   615 00000727 83 C4 10                        	ADD	ESP,16
   616 0000072A E9 FFFFFA70                     	JMP	L35
   617 0000072F                                 L98:
   618 0000072F 68 [00000036]                   	PUSH	LC0
   619 00000734 8D 45 D4                        	LEA	EAX,DWORD [-44+EBP]
   620 00000737 FF B5 FFFFFEFC                  	PUSH	DWORD [-260+EBP]
   621 0000073D 50                              	PUSH	EAX
   622 0000073E E8 00002276                     	CALL	_cmd_app
   623 00000743 83 C4 0C                        	ADD	ESP,12
   624 00000746 E9 FFFFFA4B                     	JMP	L29
   625 0000074B                                 L97:
   626 0000074B FF B5 FFFFFEFC                  	PUSH	DWORD [-260+EBP]
   627 00000751 8D 45 D4                        	LEA	EAX,DWORD [-44+EBP]
   628 00000754 50                              	PUSH	EAX
   629 00000755 E8 00002022                     	CALL	_cmd_exit
   630 0000075A 58                              	POP	EAX
   631 0000075B 5A                              	POP	EDX
   632 0000075C E9 FFFFFA2C                     	JMP	L27
   633 00000761                                 L96:
   634 00000761 8B 5D D4                        	MOV	EBX,DWORD [-44+EBP]
   635 00000764 85 DB                           	TEST	EBX,EBX
   636 00000766 74 1F                           	JE	L26
   637 00000768 8B 4D DC                        	MOV	ECX,DWORD [-36+EBP]
   638 0000076B 8B 55 D8                        	MOV	EDX,DWORD [-40+EBP]
   639 0000076E 8D 41 0F                        	LEA	EAX,DWORD [15+ECX]
   640 00000771 50                              	PUSH	EAX
   641 00000772 8D 42 07                        	LEA	EAX,DWORD [7+EDX]
   642 00000775 50                              	PUSH	EAX
   643 00000776 51                              	PUSH	ECX
   644 00000777 52                              	PUSH	EDX
   645 00000778 6A 00                           	PUSH	0
   646 0000077A FF 73 04                        	PUSH	DWORD [4+EBX]
   647 0000077D FF 33                           	PUSH	DWORD [EBX]
   648 0000077F E8 [00000000]                   	CALL	_boxfill8
   649 00000784 83 C4 1C                        	ADD	ESP,28
   650 00000787                                 L26:
   651 00000787 C7 45 E0 FFFFFFFF               	MOV	DWORD [-32+EBP],-1
   652 0000078E E9 FFFFF9F1                     	JMP	L25
   653 00000793                                 L95:
   654 00000793 C7 45 E0 00000007               	MOV	DWORD [-32+EBP],7
   655 0000079A E9 FFFFF9DC                     	JMP	L24
   656 0000079F                                 L94:
   657 0000079F 83 7D D4 00                     	CMP	DWORD [-44+EBP],0
   658 000007A3 0F 84 FFFFF9C9                  	JE	L19
   659 000007A9 85 FF                           	TEST	EDI,EDI
   660 000007AB 74 2C                           	JE	L20
   661 000007AD 6A 00                           	PUSH	0
   662 000007AF 53                              	PUSH	EBX
   663 000007B0 FF 75 E4                        	PUSH	DWORD [-28+EBP]
   664 000007B3 E8 [00000000]                   	CALL	_timer_init
   665 000007B8 83 C4 0C                        	ADD	ESP,12
   666 000007BB 83 7D E0 00                     	CMP	DWORD [-32+EBP],0
   667 000007BF 78 07                           	JS	L22
   668 000007C1 C7 45 E0 00000007               	MOV	DWORD [-32+EBP],7
   669 000007C8                                 L22:
   670 000007C8 6A 32                           	PUSH	50
   671 000007CA FF 75 E4                        	PUSH	DWORD [-28+EBP]
   672 000007CD E8 [00000000]                   	CALL	_timer_settime
   673 000007D2 59                              	POP	ECX
   674 000007D3 5B                              	POP	EBX
   675 000007D4 E9 FFFFF999                     	JMP	L19
   676 000007D9                                 L20:
   677 000007D9 6A 01                           	PUSH	1
   678 000007DB 53                              	PUSH	EBX
   679 000007DC FF 75 E4                        	PUSH	DWORD [-28+EBP]
   680 000007DF E8 [00000000]                   	CALL	_timer_init
   681 000007E4 83 C4 0C                        	ADD	ESP,12
   682 000007E7 83 7D E0 00                     	CMP	DWORD [-32+EBP],0
   683 000007EB 78 DB                           	JS	L22
   684 000007ED C7 45 E0 00000000               	MOV	DWORD [-32+EBP],0
   685 000007F4 EB D2                           	JMP	L22
   686 000007F6                                 L93:
   687 000007F6 FF B5 FFFFFF00                  	PUSH	DWORD [-256+EBP]
   688 000007FC E8 [00000000]                   	CALL	_task_sleep
   689 00000801 E8 [00000000]                   	CALL	_io_sti
   690 00000806 58                              	POP	EAX
   691 00000807 E9 FFFFF932                     	JMP	L14
   692 0000080C                                 L92:
   693 0000080C 8D 45 D4                        	LEA	EAX,DWORD [-44+EBP]
   694 0000080F 50                              	PUSH	EAX
   695 00000810 E8 00001C09                     	CALL	_cmd_mkfs
   696 00000815 E9 FFFFF90B                     	JMP	L89
   697                                          [SECTION .data]
   698 0000003D                                 LC6:
   699 0000003D 20 00                           	DB	" ",0x00
   700                                          [SECTION .text]
   701 0000081A                                 	GLOBAL	_cons_putchar
   702 0000081A                                 _cons_putchar:
   703 0000081A 55                              	PUSH	EBP
   704 0000081B 89 E5                           	MOV	EBP,ESP
   705 0000081D 53                              	PUSH	EBX
   706 0000081E 50                              	PUSH	EAX
   707 0000081F 8B 45 0C                        	MOV	EAX,DWORD [12+EBP]
   708 00000822 8A 55 10                        	MOV	DL,BYTE [16+EBP]
   709 00000825 8B 5D 08                        	MOV	EBX,DWORD [8+EBP]
   710 00000828 88 55 F9                        	MOV	BYTE [-7+EBP],DL
   711 0000082B 88 45 FA                        	MOV	BYTE [-6+EBP],AL
   712 0000082E 3C 09                           	CMP	AL,9
   713 00000830 C6 45 FB 00                     	MOV	BYTE [-5+EBP],0
   714 00000834 74 52                           	JE	L116
   715 00000836 3C 0A                           	CMP	AL,10
   716 00000838 74 2A                           	JE	L130
   717 0000083A 3C 0D                           	CMP	AL,13
   718 0000083C 74 21                           	JE	L114
   719 0000083E 8B 13                           	MOV	EDX,DWORD [EBX]
   720 00000840 85 D2                           	TEST	EDX,EDX
   721 00000842 75 29                           	JNE	L131
   722 00000844                                 L127:
   723 00000844 80 7D F9 00                     	CMP	BYTE [-7+EBP],0
   724 00000848 74 15                           	JE	L114
   725 0000084A 8B 43 04                        	MOV	EAX,DWORD [4+EBX]
   726 0000084D 8B 13                           	MOV	EDX,DWORD [EBX]
   727 0000084F 83 C0 08                        	ADD	EAX,8
   728 00000852 89 43 04                        	MOV	DWORD [4+EBX],EAX
   729 00000855 8B 52 04                        	MOV	EDX,DWORD [4+EDX]
   730 00000858 83 EA 08                        	SUB	EDX,8
   731 0000085B 39 D0                           	CMP	EAX,EDX
   732 0000085D 74 05                           	JE	L130
   733 0000085F                                 L114:
   734 0000085F 8B 5D FC                        	MOV	EBX,DWORD [-4+EBP]
   735 00000862 C9                              	LEAVE
   736 00000863 C3                              	RET
   737 00000864                                 L130:
   738 00000864 53                              	PUSH	EBX
   739 00000865 E8 0000006B                     	CALL	_cons_newline
   740 0000086A 59                              	POP	ECX
   741 0000086B EB F2                           	JMP	L114
   742 0000086D                                 L131:
   743 0000086D 6A 01                           	PUSH	1
   744 0000086F 8D 45 FA                        	LEA	EAX,DWORD [-6+EBP]
   745 00000872 50                              	PUSH	EAX
   746 00000873 6A 00                           	PUSH	0
   747 00000875 6A 07                           	PUSH	7
   748 00000877 FF 73 08                        	PUSH	DWORD [8+EBX]
   749 0000087A FF 73 04                        	PUSH	DWORD [4+EBX]
   750 0000087D 52                              	PUSH	EDX
   751 0000087E E8 [00000000]                   	CALL	_putfonts8_asc_sht
   752 00000883 83 C4 1C                        	ADD	ESP,28
   753 00000886 EB BC                           	JMP	L127
   754 00000888                                 L116:
   755 00000888 8B 03                           	MOV	EAX,DWORD [EBX]
   756 0000088A 85 C0                           	TEST	EAX,EAX
   757 0000088C 75 2B                           	JNE	L132
   758 0000088E                                 L119:
   759 0000088E 8B 43 04                        	MOV	EAX,DWORD [4+EBX]
   760 00000891 8B 13                           	MOV	EDX,DWORD [EBX]
   761 00000893 83 C0 08                        	ADD	EAX,8
   762 00000896 89 43 04                        	MOV	DWORD [4+EBX],EAX
   763 00000899 8B 52 04                        	MOV	EDX,DWORD [4+EDX]
   764 0000089C 83 EA 08                        	SUB	EDX,8
   765 0000089F 39 D0                           	CMP	EAX,EDX
   766 000008A1 74 0D                           	JE	L133
   767 000008A3                                 L120:
   768 000008A3 8B 43 04                        	MOV	EAX,DWORD [4+EBX]
   769 000008A6 83 E8 08                        	SUB	EAX,8
   770 000008A9 83 E0 1F                        	AND	EAX,31
   771 000008AC 75 DA                           	JNE	L116
   772 000008AE EB AF                           	JMP	L114
   773 000008B0                                 L133:
   774 000008B0 53                              	PUSH	EBX
   775 000008B1 E8 0000001F                     	CALL	_cons_newline
   776 000008B6 58                              	POP	EAX
   777 000008B7 EB EA                           	JMP	L120
   778 000008B9                                 L132:
   779 000008B9 6A 01                           	PUSH	1
   780 000008BB 68 [0000003D]                   	PUSH	LC6
   781 000008C0 6A 00                           	PUSH	0
   782 000008C2 6A 07                           	PUSH	7
   783 000008C4 FF 73 08                        	PUSH	DWORD [8+EBX]
   784 000008C7 FF 73 04                        	PUSH	DWORD [4+EBX]
   785 000008CA 50                              	PUSH	EAX
   786 000008CB E8 [00000000]                   	CALL	_putfonts8_asc_sht
   787 000008D0 83 C4 1C                        	ADD	ESP,28
   788 000008D3 EB B9                           	JMP	L119
   789 000008D5                                 	GLOBAL	_cons_newline
   790 000008D5                                 _cons_newline:
   791 000008D5 55                              	PUSH	EBP
   792 000008D6 89 E5                           	MOV	EBP,ESP
   793 000008D8 57                              	PUSH	EDI
   794 000008D9 56                              	PUSH	ESI
   795 000008DA 53                              	PUSH	EBX
   796 000008DB 83 EC 14                        	SUB	ESP,20
   797 000008DE 8B 45 08                        	MOV	EAX,DWORD [8+EBP]
   798 000008E1 8B 00                           	MOV	EAX,DWORD [EAX]
   799 000008E3 89 45 E8                        	MOV	DWORD [-24+EBP],EAX
   800 000008E6 8B 58 08                        	MOV	EBX,DWORD [8+EAX]
   801 000008E9 8B 50 04                        	MOV	EDX,DWORD [4+EAX]
   802 000008EC 83 EA 10                        	SUB	EDX,16
   803 000008EF 8D 4B DB                        	LEA	ECX,DWORD [-37+EBX]
   804 000008F2 89 55 F0                        	MOV	DWORD [-16+EBP],EDX
   805 000008F5 89 4D EC                        	MOV	DWORD [-20+EBP],ECX
   806 000008F8 E8 [00000000]                   	CALL	_task_now
   807 000008FD 8D 53 E7                        	LEA	EDX,DWORD [-25+EBX]
   808 00000900 8B 5D 08                        	MOV	EBX,DWORD [8+EBP]
   809 00000903 89 45 E4                        	MOV	DWORD [-28+EBP],EAX
   810 00000906 8B 43 08                        	MOV	EAX,DWORD [8+EBX]
   811 00000909 39 D0                           	CMP	EAX,EDX
   812 0000090B 7D 36                           	JGE	L135
   813 0000090D 83 C0 10                        	ADD	EAX,16
   814 00000910 89 43 08                        	MOV	DWORD [8+EBX],EAX
   815 00000913                                 L136:
   816 00000913 8B 45 08                        	MOV	EAX,DWORD [8+EBP]
   817 00000916 8B 55 E4                        	MOV	EDX,DWORD [-28+EBP]
   818 00000919 C7 40 04 00000008               	MOV	DWORD [4+EAX],8
   819 00000920 80 BA 000000C0 01               	CMP	BYTE [192+EDX],1
   820 00000927 74 08                           	JE	L167
   821 00000929                                 L134:
   822 00000929 8D 65 F4                        	LEA	ESP,DWORD [-12+EBP]
   823 0000092C 5B                              	POP	EBX
   824 0000092D 5E                              	POP	ESI
   825 0000092E 5F                              	POP	EDI
   826 0000092F 5D                              	POP	EBP
   827 00000930 C3                              	RET
   828 00000931                                 L167:
   829 00000931 80 BA 000000C1 00               	CMP	BYTE [193+EDX],0
   830 00000938 74 EF                           	JE	L134
   831 0000093A C7 40 04 00000010               	MOV	DWORD [4+EAX],16
   832 00000941 EB E6                           	JMP	L134
   833 00000943                                 L135:
   834 00000943 83 7D E8 00                     	CMP	DWORD [-24+EBP],0
   835 00000947 74 CA                           	JE	L136
   836 00000949 BF 0000001C                     	MOV	EDI,28
   837 0000094E 39 D7                           	CMP	EDI,EDX
   838 00000950 7D 45                           	JGE	L160
   839 00000952                                 L147:
   840 00000952 8B 45 F0                        	MOV	EAX,DWORD [-16+EBP]
   841 00000955 BE 00000008                     	MOV	ESI,8
   842 0000095A 83 C0 08                        	ADD	EAX,8
   843 0000095D 89 45 E0                        	MOV	DWORD [-32+EBP],EAX
   844 00000960 39 C6                           	CMP	ESI,EAX
   845 00000962 7D 28                           	JGE	L162
   846 00000964                                 L146:
   847 00000964 8B 55 E8                        	MOV	EDX,DWORD [-24+EBP]
   848 00000967 8B 45 E8                        	MOV	EAX,DWORD [-24+EBP]
   849 0000096A 8B 4A 04                        	MOV	ECX,DWORD [4+EDX]
   850 0000096D 8B 18                           	MOV	EBX,DWORD [EAX]
   851 0000096F 8D 47 10                        	LEA	EAX,DWORD [16+EDI]
   852 00000972 89 FA                           	MOV	EDX,EDI
   853 00000974 0F AF C1                        	IMUL	EAX,ECX
   854 00000977 0F AF D1                        	IMUL	EDX,ECX
   855 0000097A 8D 04 30                        	LEA	EAX,DWORD [EAX+ESI*1]
   856 0000097D 8D 14 32                        	LEA	EDX,DWORD [EDX+ESI*1]
   857 00000980 46                              	INC	ESI
   858 00000981 8A 04 18                        	MOV	AL,BYTE [EAX+EBX*1]
   859 00000984 88 04 1A                        	MOV	BYTE [EDX+EBX*1],AL
   860 00000987 3B 75 E0                        	CMP	ESI,DWORD [-32+EBP]
   861 0000098A 7C D8                           	JL	L146
   862 0000098C                                 L162:
   863 0000098C 8B 45 EC                        	MOV	EAX,DWORD [-20+EBP]
   864 0000098F 47                              	INC	EDI
   865 00000990 83 C0 0C                        	ADD	EAX,12
   866 00000993 39 C7                           	CMP	EDI,EAX
   867 00000995 7C BB                           	JL	L147
   868 00000997                                 L160:
   869 00000997 8B 7D EC                        	MOV	EDI,DWORD [-20+EBP]
   870 0000099A 8B 45 EC                        	MOV	EAX,DWORD [-20+EBP]
   871 0000099D 83 C7 0C                        	ADD	EDI,12
   872 000009A0 83 C0 1C                        	ADD	EAX,28
   873 000009A3 39 C7                           	CMP	EDI,EAX
   874 000009A5 7D 31                           	JGE	L164
   875 000009A7                                 L157:
   876 000009A7 8B 4D F0                        	MOV	ECX,DWORD [-16+EBP]
   877 000009AA BE 00000008                     	MOV	ESI,8
   878 000009AF 83 C1 08                        	ADD	ECX,8
   879 000009B2 39 CE                           	CMP	ESI,ECX
   880 000009B4 7D 17                           	JGE	L166
   881 000009B6                                 L156:
   882 000009B6 8B 55 E8                        	MOV	EDX,DWORD [-24+EBP]
   883 000009B9 89 F8                           	MOV	EAX,EDI
   884 000009BB 0F AF 42 04                     	IMUL	EAX,DWORD [4+EDX]
   885 000009BF 8B 12                           	MOV	EDX,DWORD [EDX]
   886 000009C1 8D 04 30                        	LEA	EAX,DWORD [EAX+ESI*1]
   887 000009C4 46                              	INC	ESI
   888 000009C5 39 CE                           	CMP	ESI,ECX
   889 000009C7 C6 04 10 00                     	MOV	BYTE [EAX+EDX*1],0
   890 000009CB 7C E9                           	JL	L156
   891 000009CD                                 L166:
   892 000009CD 8B 45 EC                        	MOV	EAX,DWORD [-20+EBP]
   893 000009D0 47                              	INC	EDI
   894 000009D1 83 C0 1C                        	ADD	EAX,28
   895 000009D4 39 C7                           	CMP	EDI,EAX
   896 000009D6 7C CF                           	JL	L157
   897 000009D8                                 L164:
   898 000009D8 8B 45 EC                        	MOV	EAX,DWORD [-20+EBP]
   899 000009DB 83 C0 1C                        	ADD	EAX,28
   900 000009DE 50                              	PUSH	EAX
   901 000009DF 8B 45 F0                        	MOV	EAX,DWORD [-16+EBP]
   902 000009E2 83 C0 08                        	ADD	EAX,8
   903 000009E5 50                              	PUSH	EAX
   904 000009E6 6A 1C                           	PUSH	28
   905 000009E8 6A 08                           	PUSH	8
   906 000009EA FF 75 E8                        	PUSH	DWORD [-24+EBP]
   907 000009ED E8 [00000000]                   	CALL	_sheet_refresh
   908 000009F2 83 C4 14                        	ADD	ESP,20
   909 000009F5 E9 FFFFFF19                     	JMP	L136
   910 000009FA                                 	GLOBAL	_cons_putstr
   911 000009FA                                 _cons_putstr:
   912 000009FA 55                              	PUSH	EBP
   913 000009FB 89 E5                           	MOV	EBP,ESP
   914 000009FD 56                              	PUSH	ESI
   915 000009FE 53                              	PUSH	EBX
   916 000009FF 8B 5D 0C                        	MOV	EBX,DWORD [12+EBP]
   917 00000A02 8B 75 08                        	MOV	ESI,DWORD [8+EBP]
   918 00000A05 80 3B 00                        	CMP	BYTE [EBX],0
   919 00000A08 75 07                           	JNE	L173
   920 00000A0A                                 L175:
   921 00000A0A 8D 65 F8                        	LEA	ESP,DWORD [-8+EBP]
   922 00000A0D 5B                              	POP	EBX
   923 00000A0E 5E                              	POP	ESI
   924 00000A0F 5D                              	POP	EBP
   925 00000A10 C3                              	RET
   926 00000A11                                 L173:
   927 00000A11 6A 01                           	PUSH	1
   928 00000A13 0F BE 03                        	MOVSX	EAX,BYTE [EBX]
   929 00000A16 50                              	PUSH	EAX
   930 00000A17 43                              	INC	EBX
   931 00000A18 56                              	PUSH	ESI
   932 00000A19 E8 FFFFFDFC                     	CALL	_cons_putchar
   933 00000A1E 83 C4 0C                        	ADD	ESP,12
   934 00000A21 80 3B 00                        	CMP	BYTE [EBX],0
   935 00000A24 75 EB                           	JNE	L173
   936 00000A26 EB E2                           	JMP	L175
   937 00000A28                                 	GLOBAL	_cons_putstr0
   938 00000A28                                 _cons_putstr0:
   939 00000A28 55                              	PUSH	EBP
   940 00000A29 89 E5                           	MOV	EBP,ESP
   941 00000A2B 56                              	PUSH	ESI
   942 00000A2C 53                              	PUSH	EBX
   943 00000A2D 8B 5D 0C                        	MOV	EBX,DWORD [12+EBP]
   944 00000A30 8B 75 08                        	MOV	ESI,DWORD [8+EBP]
   945 00000A33 80 3B 00                        	CMP	BYTE [EBX],0
   946 00000A36 75 07                           	JNE	L181
   947 00000A38                                 L183:
   948 00000A38 8D 65 F8                        	LEA	ESP,DWORD [-8+EBP]
   949 00000A3B 5B                              	POP	EBX
   950 00000A3C 5E                              	POP	ESI
   951 00000A3D 5D                              	POP	EBP
   952 00000A3E C3                              	RET
   953 00000A3F                                 L181:
   954 00000A3F 6A 01                           	PUSH	1
   955 00000A41 0F BE 03                        	MOVSX	EAX,BYTE [EBX]
   956 00000A44 50                              	PUSH	EAX
   957 00000A45 43                              	INC	EBX
   958 00000A46 56                              	PUSH	ESI
   959 00000A47 E8 FFFFFDCE                     	CALL	_cons_putchar
   960 00000A4C 83 C4 0C                        	ADD	ESP,12
   961 00000A4F 80 3B 00                        	CMP	BYTE [EBX],0
   962 00000A52 75 EB                           	JNE	L181
   963 00000A54 EB E2                           	JMP	L183
   964 00000A56                                 	GLOBAL	_cons_putstr1
   965 00000A56                                 _cons_putstr1:
   966 00000A56 55                              	PUSH	EBP
   967 00000A57 89 E5                           	MOV	EBP,ESP
   968 00000A59 57                              	PUSH	EDI
   969 00000A5A 56                              	PUSH	ESI
   970 00000A5B 53                              	PUSH	EBX
   971 00000A5C 8B 75 10                        	MOV	ESI,DWORD [16+EBP]
   972 00000A5F 31 DB                           	XOR	EBX,EBX
   973 00000A61 8B 7D 0C                        	MOV	EDI,DWORD [12+EBP]
   974 00000A64 39 F3                           	CMP	EBX,ESI
   975 00000A66 7C 08                           	JL	L189
   976 00000A68                                 L191:
   977 00000A68 8D 65 F4                        	LEA	ESP,DWORD [-12+EBP]
   978 00000A6B 5B                              	POP	EBX
   979 00000A6C 5E                              	POP	ESI
   980 00000A6D 5F                              	POP	EDI
   981 00000A6E 5D                              	POP	EBP
   982 00000A6F C3                              	RET
   983 00000A70                                 L189:
   984 00000A70 6A 01                           	PUSH	1
   985 00000A72 0F BE 04 3B                     	MOVSX	EAX,BYTE [EBX+EDI*1]
   986 00000A76 50                              	PUSH	EAX
   987 00000A77 43                              	INC	EBX
   988 00000A78 FF 75 08                        	PUSH	DWORD [8+EBP]
   989 00000A7B E8 FFFFFD9A                     	CALL	_cons_putchar
   990 00000A80 83 C4 0C                        	ADD	ESP,12
   991 00000A83 39 F3                           	CMP	EBX,ESI
   992 00000A85 7C E9                           	JL	L189
   993 00000A87 EB DF                           	JMP	L191
   994 00000A89                                 	GLOBAL	_cons_putdir
   995 00000A89                                 _cons_putdir:
   996 00000A89 55                              	PUSH	EBP
   997 00000A8A 89 E5                           	MOV	EBP,ESP
   998 00000A8C 56                              	PUSH	ESI
   999 00000A8D 53                              	PUSH	EBX
  1000 00000A8E 31 DB                           	XOR	EBX,EBX
  1001 00000A90 83 EC 40                        	SUB	ESP,64
  1002 00000A93 8D 45 B8                        	LEA	EAX,DWORD [-72+EBP]
  1003 00000A96 8B 75 08                        	MOV	ESI,DWORD [8+EBP]
  1004 00000A99 FF 76 14                        	PUSH	DWORD [20+ESI]
  1005 00000A9C 50                              	PUSH	EAX
  1006 00000A9D E8 00000026                     	CALL	_get_pathname
  1007 00000AA2 5A                              	POP	EDX
  1008 00000AA3 31 C0                           	XOR	EAX,EAX
  1009 00000AA5 59                              	POP	ECX
  1010 00000AA6 80 7D B8 00                     	CMP	BYTE [-72+EBP],0
  1011 00000AAA 74 09                           	JE	L199
  1012 00000AAC                                 L197:
  1013 00000AAC 40                              	INC	EAX
  1014 00000AAD 43                              	INC	EBX
  1015 00000AAE 80 7C 05 B8 00                  	CMP	BYTE [-72+EBP+EAX*1],0
  1016 00000AB3 75 F7                           	JNE	L197
  1017 00000AB5                                 L199:
  1018 00000AB5 8D 45 B8                        	LEA	EAX,DWORD [-72+EBP]
  1019 00000AB8 50                              	PUSH	EAX
  1020 00000AB9 56                              	PUSH	ESI
  1021 00000ABA E8 FFFFFF3B                     	CALL	_cons_putstr
  1022 00000ABF 8D 65 F8                        	LEA	ESP,DWORD [-8+EBP]
  1023 00000AC2 89 D8                           	MOV	EAX,EBX
  1024 00000AC4 5B                              	POP	EBX
  1025 00000AC5 5E                              	POP	ESI
  1026 00000AC6 5D                              	POP	EBP
  1027 00000AC7 C3                              	RET
  1028                                          [SECTION .data]
  1029 0000003F                                 LC7:
  1030 0000003F 00                              	DB	0x00
  1031 00000040                                 LC10:
  1032 00000040 2F 25 73 00                     	DB	"/%s",0x00
  1033 00000044                                 LC9:
  1034 00000044 25 73 00                        	DB	"%s",0x00
  1035 00000047                                 LC8:
  1036 00000047 25 73 2F 25 73 00               	DB	"%s/%s",0x00
  1037                                          [SECTION .text]
  1038 00000AC8                                 	GLOBAL	_get_pathname
  1039 00000AC8                                 _get_pathname:
  1040 00000AC8 55                              	PUSH	EBP
  1041 00000AC9 89 E5                           	MOV	EBP,ESP
  1042 00000ACB 57                              	PUSH	EDI
  1043 00000ACC 56                              	PUSH	ESI
  1044 00000ACD 53                              	PUSH	EBX
  1045 00000ACE 81 EC 000000B8                  	SUB	ESP,184
  1046 00000AD4 8B 7D 0C                        	MOV	EDI,DWORD [12+EBP]
  1047 00000AD7 68 [0000003F]                   	PUSH	LC7
  1048 00000ADC FF 75 08                        	PUSH	DWORD [8+EBP]
  1049 00000ADF E8 [00000000]                   	CALL	_sprintf
  1050 00000AE4 58                              	POP	EAX
  1051 00000AE5 5A                              	POP	EDX
  1052 00000AE6 83 BF 000007D8 00               	CMP	DWORD [2008+EDI],0
  1053 00000AED 75 27                           	JNE	L204
  1054 00000AEF                                 L206:
  1055 00000AEF FF 75 08                        	PUSH	DWORD [8+EBP]
  1056 00000AF2 68 [00000040]                   	PUSH	LC10
  1057 00000AF7 8D 5D 84                        	LEA	EBX,DWORD [-124+EBP]
  1058 00000AFA 53                              	PUSH	EBX
  1059 00000AFB E8 [00000000]                   	CALL	_sprintf
  1060 00000B00 53                              	PUSH	EBX
  1061 00000B01 68 [00000044]                   	PUSH	LC9
  1062 00000B06 FF 75 08                        	PUSH	DWORD [8+EBP]
  1063 00000B09 E8 [00000000]                   	CALL	_sprintf
  1064 00000B0E 8D 65 F4                        	LEA	ESP,DWORD [-12+EBP]
  1065 00000B11 5B                              	POP	EBX
  1066 00000B12 5E                              	POP	ESI
  1067 00000B13 5F                              	POP	EDI
  1068 00000B14 5D                              	POP	EBP
  1069 00000B15 C3                              	RET
  1070 00000B16                                 L204:
  1071 00000B16 8D 87 000007D0                  	LEA	EAX,DWORD [2000+EDI]
  1072 00000B1C 8D B5 FFFFFF3C                  	LEA	ESI,DWORD [-196+EBP]
  1073 00000B22 50                              	PUSH	EAX
  1074 00000B23 8D 9D FFFFFF44                  	LEA	EBX,DWORD [-188+EBP]
  1075 00000B29 56                              	PUSH	ESI
  1076 00000B2A E8 [00000000]                   	CALL	_sprintf
  1077 00000B2F FF 75 08                        	PUSH	DWORD [8+EBP]
  1078 00000B32 56                              	PUSH	ESI
  1079 00000B33 68 [00000047]                   	PUSH	LC8
  1080 00000B38 53                              	PUSH	EBX
  1081 00000B39 E8 [00000000]                   	CALL	_sprintf
  1082 00000B3E 8B BF 000007D8                  	MOV	EDI,DWORD [2008+EDI]
  1083 00000B44 53                              	PUSH	EBX
  1084 00000B45 68 [00000044]                   	PUSH	LC9
  1085 00000B4A FF 75 08                        	PUSH	DWORD [8+EBP]
  1086 00000B4D E8 [00000000]                   	CALL	_sprintf
  1087 00000B52 83 C4 24                        	ADD	ESP,36
  1088 00000B55 68 [0000003F]                   	PUSH	LC7
  1089 00000B5A 56                              	PUSH	ESI
  1090 00000B5B E8 [00000000]                   	CALL	_sprintf
  1091 00000B60 5B                              	POP	EBX
  1092 00000B61 5E                              	POP	ESI
  1093 00000B62 83 BF 000007D8 00               	CMP	DWORD [2008+EDI],0
  1094 00000B69 75 AB                           	JNE	L204
  1095 00000B6B E9 FFFFFF7F                     	JMP	L206
  1096                                          [SECTION .data]
  1097 0000004D                                 LC11:
  1098 0000004D 63 61 74 20 00                  	DB	"cat ",0x00
  1099 00000052                                 LC12:
  1100 00000052 63 64 20 00                     	DB	"cd ",0x00
  1101 00000056                                 LC13:
  1102 00000056 63 6C 73 00                     	DB	"cls",0x00
  1103 0000005A                                 LC14:
  1104 0000005A 64 69 72 00                     	DB	"dir",0x00
  1105 0000005E                                 LC15:
  1106 0000005E 65 78 69 74 00                  	DB	"exit",0x00
  1107 00000063                                 LC16:
  1108 00000063 65 64 69 74 20 00               	DB	"edit ",0x00
  1109 00000069                                 LC17:
  1110 00000069 66 64 64 69 72 00               	DB	"fddir",0x00
  1111 0000006F                                 LC18:
  1112 0000006F 66 76 69 65 77 20 00            	DB	"fview ",0x00
  1113 00000076                                 LC19:
  1114 00000076 6C 61 6E 67 6D 6F 64 65 20 00   	DB	"langmode ",0x00
  1115 00000080                                 LC20:
  1116 00000080 6C 6F 67 00                     	DB	"log",0x00
  1117 00000084                                 LC21:
  1118 00000084 6C 6F 67 63 6C 73 00            	DB	"logcls",0x00
  1119 0000008B                                 LC22:
  1120 0000008B 6D 65 6D 00                     	DB	"mem",0x00
  1121 0000008F                                 LC23:
  1122 0000008F 6D 6B 66 73 00                  	DB	"mkfs",0x00
  1123 00000094                                 LC24:
  1124 00000094 6D 6B 64 69 72 20 00            	DB	"mkdir ",0x00
  1125 0000009B                                 LC25:
  1126 0000009B 6D 6B 66 69 6C 65 20 00         	DB	"mkfile ",0x00
  1127 000000A3                                 LC26:
  1128 000000A3 6D 65 6D 6D 61 70 00            	DB	"memmap",0x00
  1129 000000AA                                 LC27:
  1130 000000AA 6E 63 73 74 20 00               	DB	"ncst ",0x00
  1131 000000B0                                 LC28:
  1132 000000B0 73 74 61 72 74 20 00            	DB	"start ",0x00
  1133 000000B7                                 LC29:
  1134 000000B7 73 65 74 6C 6F 67 00            	DB	"setlog",0x00
  1135 000000BE                                 LC30:
  1136 000000BE 73 68 6F 77 20 00               	DB	"show ",0x00
  1137 000000C4                                 LC31:
  1138 000000C4 74 65 73 74 00                  	DB	"test",0x00
  1139 000000C9                                 LC32:
  1140 000000C9 74 6F 70 00                     	DB	"top",0x00
  1141 000000CD                                 LC33:
  1142 000000CD 73 74 61 6D 70 00               	DB	"stamp",0x00
  1143 000000D3                                 LC34:
  1144 000000D3 42 61 64 20 63 6F 6D 6D 61 6E   	DB	"Bad command.",0x0A,0x0A,0x00
       000000DD 64 2E 0A 0A 00 
  1145                                          [SECTION .text]
  1146 00000B70                                 	GLOBAL	_cons_runcmd
  1147 00000B70                                 _cons_runcmd:
  1148 00000B70 55                              	PUSH	EBP
  1149 00000B71 89 E5                           	MOV	EBP,ESP
  1150 00000B73 57                              	PUSH	EDI
  1151 00000B74 56                              	PUSH	ESI
  1152 00000B75 BF [0000004D]                   	MOV	EDI,LC11
  1153 00000B7A 53                              	PUSH	EBX
  1154 00000B7B 83 EC 0C                        	SUB	ESP,12
  1155 00000B7E 8B 45 08                        	MOV	EAX,DWORD [8+EBP]
  1156 00000B81 8B 4D 10                        	MOV	ECX,DWORD [16+EBP]
  1157 00000B84 89 45 E8                        	MOV	DWORD [-24+EBP],EAX
  1158 00000B87 89 4D F0                        	MOV	DWORD [-16+EBP],ECX
  1159 00000B8A 8B 45 14                        	MOV	EAX,DWORD [20+EBP]
  1160 00000B8D 8B 75 E8                        	MOV	ESI,DWORD [-24+EBP]
  1161 00000B90 89 45 EC                        	MOV	DWORD [-20+EBP],EAX
  1162 00000B93 8B 5D 0C                        	MOV	EBX,DWORD [12+EBP]
  1163 00000B96 B8 00000004                     	MOV	EAX,4
  1164 00000B9B FC                              	CLD
  1165 00000B9C 89 C1                           	MOV	ECX,EAX
  1166 00000B9E F3                              	REPE
  1167 00000B9F A6                              	CMPSB
  1168 00000BA0 75 09                           	JNE	L208
  1169 00000BA2 83 3B 00                        	CMP	DWORD [EBX],0
  1170 00000BA5 0F 85 0000042B                  	JNE	L256
  1171 00000BAB                                 L208:
  1172 00000BAB B8 00000003                     	MOV	EAX,3
  1173 00000BB0 8B 75 E8                        	MOV	ESI,DWORD [-24+EBP]
  1174 00000BB3 FC                              	CLD
  1175 00000BB4 BF [00000052]                   	MOV	EDI,LC12
  1176 00000BB9 89 C1                           	MOV	ECX,EAX
  1177 00000BBB F3                              	REPE
  1178 00000BBC A6                              	CMPSB
  1179 00000BBD 0F 84 00000401                  	JE	L257
  1180 00000BC3 B8 00000004                     	MOV	EAX,4
  1181 00000BC8 8B 75 E8                        	MOV	ESI,DWORD [-24+EBP]
  1182 00000BCB FC                              	CLD
  1183 00000BCC BF [00000056]                   	MOV	EDI,LC13
  1184 00000BD1 89 C1                           	MOV	ECX,EAX
  1185 00000BD3 F3                              	REPE
  1186 00000BD4 A6                              	CMPSB
  1187 00000BD5 75 09                           	JNE	L212
  1188 00000BD7 83 3B 00                        	CMP	DWORD [EBX],0
  1189 00000BDA 0F 85 000003D5                  	JNE	L258
  1190 00000BE0                                 L212:
  1191 00000BE0 B8 00000004                     	MOV	EAX,4
  1192 00000BE5 8B 75 E8                        	MOV	ESI,DWORD [-24+EBP]
  1193 00000BE8 FC                              	CLD
  1194 00000BE9 BF [0000005A]                   	MOV	EDI,LC14
  1195 00000BEE 89 C1                           	MOV	ECX,EAX
  1196 00000BF0 F3                              	REPE
  1197 00000BF1 A6                              	CMPSB
  1198 00000BF2 75 09                           	JNE	L214
  1199 00000BF4 83 3B 00                        	CMP	DWORD [EBX],0
  1200 00000BF7 0F 85 000003A9                  	JNE	L259
  1201 00000BFD                                 L214:
  1202 00000BFD B8 00000005                     	MOV	EAX,5
  1203 00000C02 8B 75 E8                        	MOV	ESI,DWORD [-24+EBP]
  1204 00000C05 FC                              	CLD
  1205 00000C06 BF [0000005E]                   	MOV	EDI,LC15
  1206 00000C0B 89 C1                           	MOV	ECX,EAX
  1207 00000C0D F3                              	REPE
  1208 00000C0E A6                              	CMPSB
  1209 00000C0F 0F 84 0000037C                  	JE	L260
  1210 00000C15 B8 00000005                     	MOV	EAX,5
  1211 00000C1A 8B 75 E8                        	MOV	ESI,DWORD [-24+EBP]
  1212 00000C1D FC                              	CLD
  1213 00000C1E BF [00000063]                   	MOV	EDI,LC16
  1214 00000C23 89 C1                           	MOV	ECX,EAX
  1215 00000C25 F3                              	REPE
  1216 00000C26 A6                              	CMPSB
  1217 00000C27 75 09                           	JNE	L218
  1218 00000C29 83 3B 00                        	CMP	DWORD [EBX],0
  1219 00000C2C 0F 85 0000034A                  	JNE	L261
  1220 00000C32                                 L218:
  1221 00000C32 B8 00000006                     	MOV	EAX,6
  1222 00000C37 8B 75 E8                        	MOV	ESI,DWORD [-24+EBP]
  1223 00000C3A FC                              	CLD
  1224 00000C3B BF [00000069]                   	MOV	EDI,LC17
  1225 00000C40 89 C1                           	MOV	ECX,EAX
  1226 00000C42 F3                              	REPE
  1227 00000C43 A6                              	CMPSB
  1228 00000C44 75 09                           	JNE	L220
  1229 00000C46 83 3B 00                        	CMP	DWORD [EBX],0
  1230 00000C49 0F 85 0000031E                  	JNE	L262
  1231 00000C4F                                 L220:
  1232 00000C4F B8 00000006                     	MOV	EAX,6
  1233 00000C54 8B 75 E8                        	MOV	ESI,DWORD [-24+EBP]
  1234 00000C57 FC                              	CLD
  1235 00000C58 BF [0000006F]                   	MOV	EDI,LC18
  1236 00000C5D 89 C1                           	MOV	ECX,EAX
  1237 00000C5F F3                              	REPE
  1238 00000C60 A6                              	CMPSB
  1239 00000C61 75 09                           	JNE	L222
  1240 00000C63 83 3B 00                        	CMP	DWORD [EBX],0
  1241 00000C66 0F 85 000002EC                  	JNE	L263
  1242 00000C6C                                 L222:
  1243 00000C6C B8 00000009                     	MOV	EAX,9
  1244 00000C71 8B 75 E8                        	MOV	ESI,DWORD [-24+EBP]
  1245 00000C74 FC                              	CLD
  1246 00000C75 BF [00000076]                   	MOV	EDI,LC19
  1247 00000C7A 89 C1                           	MOV	ECX,EAX
  1248 00000C7C F3                              	REPE
  1249 00000C7D A6                              	CMPSB
  1250 00000C7E 0F 84 000002BF                  	JE	L264
  1251 00000C84 B8 00000004                     	MOV	EAX,4
  1252 00000C89 8B 75 E8                        	MOV	ESI,DWORD [-24+EBP]
  1253 00000C8C FC                              	CLD
  1254 00000C8D BF [00000080]                   	MOV	EDI,LC20
  1255 00000C92 89 C1                           	MOV	ECX,EAX
  1256 00000C94 F3                              	REPE
  1257 00000C95 A6                              	CMPSB
  1258 00000C96 75 09                           	JNE	L226
  1259 00000C98 83 3B 00                        	CMP	DWORD [EBX],0
  1260 00000C9B 0F 85 00000293                  	JNE	L265
  1261 00000CA1                                 L226:
  1262 00000CA1 B8 00000007                     	MOV	EAX,7
  1263 00000CA6 8B 75 E8                        	MOV	ESI,DWORD [-24+EBP]
  1264 00000CA9 FC                              	CLD
  1265 00000CAA BF [00000084]                   	MOV	EDI,LC21
  1266 00000CAF 89 C1                           	MOV	ECX,EAX
  1267 00000CB1 F3                              	REPE
  1268 00000CB2 A6                              	CMPSB
  1269 00000CB3 75 09                           	JNE	L228
  1270 00000CB5 83 3B 00                        	CMP	DWORD [EBX],0
  1271 00000CB8 0F 85 00000267                  	JNE	L266
  1272 00000CBE                                 L228:
  1273 00000CBE B8 00000004                     	MOV	EAX,4
  1274 00000CC3 8B 75 E8                        	MOV	ESI,DWORD [-24+EBP]
  1275 00000CC6 FC                              	CLD
  1276 00000CC7 BF [0000008B]                   	MOV	EDI,LC22
  1277 00000CCC 89 C1                           	MOV	ECX,EAX
  1278 00000CCE F3                              	REPE
  1279 00000CCF A6                              	CMPSB
  1280 00000CD0 75 09                           	JNE	L230
  1281 00000CD2 83 3B 00                        	CMP	DWORD [EBX],0
  1282 00000CD5 0F 85 00000235                  	JNE	L267
  1283 00000CDB                                 L230:
  1284 00000CDB B8 00000005                     	MOV	EAX,5
  1285 00000CE0 8B 75 E8                        	MOV	ESI,DWORD [-24+EBP]
  1286 00000CE3 FC                              	CLD
  1287 00000CE4 BF [0000008F]                   	MOV	EDI,LC23
  1288 00000CE9 89 C1                           	MOV	ECX,EAX
  1289 00000CEB F3                              	REPE
  1290 00000CEC A6                              	CMPSB
  1291 00000CED 75 09                           	JNE	L232
  1292 00000CEF 83 3B 00                        	CMP	DWORD [EBX],0
  1293 00000CF2 0F 85 00000209                  	JNE	L268
  1294 00000CF8                                 L232:
  1295 00000CF8 B8 00000006                     	MOV	EAX,6
  1296 00000CFD 8B 75 E8                        	MOV	ESI,DWORD [-24+EBP]
  1297 00000D00 FC                              	CLD
  1298 00000D01 BF [00000094]                   	MOV	EDI,LC24
  1299 00000D06 89 C1                           	MOV	ECX,EAX
  1300 00000D08 F3                              	REPE
  1301 00000D09 A6                              	CMPSB
  1302 00000D0A 0F 84 000001DC                  	JE	L269
  1303 00000D10 B8 00000007                     	MOV	EAX,7
  1304 00000D15 8B 75 E8                        	MOV	ESI,DWORD [-24+EBP]
  1305 00000D18 FC                              	CLD
  1306 00000D19 BF [0000009B]                   	MOV	EDI,LC25
  1307 00000D1E 89 C1                           	MOV	ECX,EAX
  1308 00000D20 F3                              	REPE
  1309 00000D21 A6                              	CMPSB
  1310 00000D22 0F 84 000001AF                  	JE	L270
  1311 00000D28 B8 00000007                     	MOV	EAX,7
  1312 00000D2D 8B 75 E8                        	MOV	ESI,DWORD [-24+EBP]
  1313 00000D30 FC                              	CLD
  1314 00000D31 BF [000000A3]                   	MOV	EDI,LC26
  1315 00000D36 89 C1                           	MOV	ECX,EAX
  1316 00000D38 F3                              	REPE
  1317 00000D39 A6                              	CMPSB
  1318 00000D3A 75 09                           	JNE	L238
  1319 00000D3C 83 3B 00                        	CMP	DWORD [EBX],0
  1320 00000D3F 0F 85 0000017D                  	JNE	L271
  1321 00000D45                                 L238:
  1322 00000D45 B8 00000005                     	MOV	EAX,5
  1323 00000D4A 8B 75 E8                        	MOV	ESI,DWORD [-24+EBP]
  1324 00000D4D FC                              	CLD
  1325 00000D4E BF [000000AA]                   	MOV	EDI,LC27
  1326 00000D53 89 C1                           	MOV	ECX,EAX
  1327 00000D55 F3                              	REPE
  1328 00000D56 A6                              	CMPSB
  1329 00000D57 0F 84 0000014A                  	JE	L272
  1330 00000D5D B8 00000006                     	MOV	EAX,6
  1331 00000D62 8B 75 E8                        	MOV	ESI,DWORD [-24+EBP]
  1332 00000D65 FC                              	CLD
  1333 00000D66 BF [000000B0]                   	MOV	EDI,LC28
  1334 00000D6B 89 C1                           	MOV	ECX,EAX
  1335 00000D6D F3                              	REPE
  1336 00000D6E A6                              	CMPSB
  1337 00000D6F 0F 84 00000117                  	JE	L273
  1338 00000D75 B8 00000007                     	MOV	EAX,7
  1339 00000D7A 8B 75 E8                        	MOV	ESI,DWORD [-24+EBP]
  1340 00000D7D FC                              	CLD
  1341 00000D7E BF [000000B7]                   	MOV	EDI,LC29
  1342 00000D83 89 C1                           	MOV	ECX,EAX
  1343 00000D85 F3                              	REPE
  1344 00000D86 A6                              	CMPSB
  1345 00000D87 75 09                           	JNE	L244
  1346 00000D89 83 3B 00                        	CMP	DWORD [EBX],0
  1347 00000D8C 0F 85 000000EB                  	JNE	L274
  1348 00000D92                                 L244:
  1349 00000D92 B8 00000005                     	MOV	EAX,5
  1350 00000D97 8B 75 E8                        	MOV	ESI,DWORD [-24+EBP]
  1351 00000D9A FC                              	CLD
  1352 00000D9B BF [000000BE]                   	MOV	EDI,LC30
  1353 00000DA0 89 C1                           	MOV	ECX,EAX
  1354 00000DA2 F3                              	REPE
  1355 00000DA3 A6                              	CMPSB
  1356 00000DA4 75 09                           	JNE	L246
  1357 00000DA6 83 3B 00                        	CMP	DWORD [EBX],0
  1358 00000DA9 0F 85 000000B9                  	JNE	L275
  1359 00000DAF                                 L246:
  1360 00000DAF B8 00000005                     	MOV	EAX,5
  1361 00000DB4 8B 75 E8                        	MOV	ESI,DWORD [-24+EBP]
  1362 00000DB7 FC                              	CLD
  1363 00000DB8 BF [000000C4]                   	MOV	EDI,LC31
  1364 00000DBD 89 C1                           	MOV	ECX,EAX
  1365 00000DBF F3                              	REPE
  1366 00000DC0 A6                              	CMPSB
  1367 00000DC1 75 09                           	JNE	L248
  1368 00000DC3 83 3B 00                        	CMP	DWORD [EBX],0
  1369 00000DC6 0F 85 0000008D                  	JNE	L276
  1370 00000DCC                                 L248:
  1371 00000DCC B8 00000004                     	MOV	EAX,4
  1372 00000DD1 8B 75 E8                        	MOV	ESI,DWORD [-24+EBP]
  1373 00000DD4 FC                              	CLD
  1374 00000DD5 BF [000000C9]                   	MOV	EDI,LC32
  1375 00000DDA 89 C1                           	MOV	ECX,EAX
  1376 00000DDC F3                              	REPE
  1377 00000DDD A6                              	CMPSB
  1378 00000DDE 75 05                           	JNE	L250
  1379 00000DE0 83 3B 00                        	CMP	DWORD [EBX],0
  1380 00000DE3 75 65                           	JNE	L277
  1381 00000DE5                                 L250:
  1382 00000DE5 B8 00000006                     	MOV	EAX,6
  1383 00000DEA 8B 75 E8                        	MOV	ESI,DWORD [-24+EBP]
  1384 00000DED FC                              	CLD
  1385 00000DEE BF [000000CD]                   	MOV	EDI,LC33
  1386 00000DF3 89 C1                           	MOV	ECX,EAX
  1387 00000DF5 F3                              	REPE
  1388 00000DF6 A6                              	CMPSB
  1389 00000DF7 75 05                           	JNE	L252
  1390 00000DF9 83 3B 00                        	CMP	DWORD [EBX],0
  1391 00000DFC 75 37                           	JNE	L278
  1392 00000DFE                                 L252:
  1393 00000DFE 8B 4D E8                        	MOV	ECX,DWORD [-24+EBP]
  1394 00000E01 80 39 00                        	CMP	BYTE [ECX],0
  1395 00000E04 75 08                           	JNE	L279
  1396 00000E06                                 L207:
  1397 00000E06 8D 65 F4                        	LEA	ESP,DWORD [-12+EBP]
  1398 00000E09 5B                              	POP	EBX
  1399 00000E0A 5E                              	POP	ESI
  1400 00000E0B 5F                              	POP	EDI
  1401 00000E0C 5D                              	POP	EBP
  1402 00000E0D C3                              	RET
  1403 00000E0E                                 L279:
  1404 00000E0E 51                              	PUSH	ECX
  1405 00000E0F FF 75 F0                        	PUSH	DWORD [-16+EBP]
  1406 00000E12 53                              	PUSH	EBX
  1407 00000E13 E8 00001BA1                     	CALL	_cmd_app
  1408 00000E18 83 C4 0C                        	ADD	ESP,12
  1409 00000E1B 85 C0                           	TEST	EAX,EAX
  1410 00000E1D 75 E7                           	JNE	L207
  1411 00000E1F C7 45 0C [000000D3]             	MOV	DWORD [12+EBP],LC34
  1412 00000E26 89 5D 08                        	MOV	DWORD [8+EBP],EBX
  1413 00000E29 8D 65 F4                        	LEA	ESP,DWORD [-12+EBP]
  1414 00000E2C 5B                              	POP	EBX
  1415 00000E2D 5E                              	POP	ESI
  1416 00000E2E 5F                              	POP	EDI
  1417 00000E2F 5D                              	POP	EBP
  1418 00000E30 E9 FFFFFBF3                     	JMP	_cons_putstr0
  1419 00000E35                                 L278:
  1420 00000E35 8B 45 E8                        	MOV	EAX,DWORD [-24+EBP]
  1421 00000E38 89 5D 08                        	MOV	DWORD [8+EBP],EBX
  1422 00000E3B 89 45 0C                        	MOV	DWORD [12+EBP],EAX
  1423 00000E3E 8D 65 F4                        	LEA	ESP,DWORD [-12+EBP]
  1424 00000E41 5B                              	POP	EBX
  1425 00000E42 5E                              	POP	ESI
  1426 00000E43 5F                              	POP	EDI
  1427 00000E44 5D                              	POP	EBP
  1428 00000E45 E9 00002516                     	JMP	_cmd_stamp
  1429 00000E4A                                 L277:
  1430 00000E4A 89 5D 08                        	MOV	DWORD [8+EBP],EBX
  1431 00000E4D 8D 65 F4                        	LEA	ESP,DWORD [-12+EBP]
  1432 00000E50 5B                              	POP	EBX
  1433 00000E51 5E                              	POP	ESI
  1434 00000E52 5F                              	POP	EDI
  1435 00000E53 5D                              	POP	EBP
  1436 00000E54 E9 00001AA9                     	JMP	_cmd_top
  1437 00000E59                                 L276:
  1438 00000E59 89 5D 08                        	MOV	DWORD [8+EBP],EBX
  1439 00000E5C 8D 65 F4                        	LEA	ESP,DWORD [-12+EBP]
  1440 00000E5F 5B                              	POP	EBX
  1441 00000E60 5E                              	POP	ESI
  1442 00000E61 5F                              	POP	EDI
  1443 00000E62 5D                              	POP	EBP
  1444 00000E63 E9 000012B7                     	JMP	_cmd_test
  1445 00000E68                                 L275:
  1446 00000E68 8B 45 E8                        	MOV	EAX,DWORD [-24+EBP]
  1447 00000E6B 89 5D 08                        	MOV	DWORD [8+EBP],EBX
  1448 00000E6E 89 45 0C                        	MOV	DWORD [12+EBP],EAX
  1449 00000E71 8D 65 F4                        	LEA	ESP,DWORD [-12+EBP]
  1450 00000E74 5B                              	POP	EBX
  1451 00000E75 5E                              	POP	ESI
  1452 00000E76 5F                              	POP	EDI
  1453 00000E77 5D                              	POP	EBP
  1454 00000E78 E9 000012FB                     	JMP	_cmd_show
  1455 00000E7D                                 L274:
  1456 00000E7D 89 5D 08                        	MOV	DWORD [8+EBP],EBX
  1457 00000E80 8D 65 F4                        	LEA	ESP,DWORD [-12+EBP]
  1458 00000E83 5B                              	POP	EBX
  1459 00000E84 5E                              	POP	ESI
  1460 00000E85 5F                              	POP	EDI
  1461 00000E86 5D                              	POP	EBP
  1462 00000E87 E9 00000F8D                     	JMP	_cmd_setlog
  1463 00000E8C                                 L273:
  1464 00000E8C 8B 45 EC                        	MOV	EAX,DWORD [-20+EBP]
  1465 00000E8F 8B 4D E8                        	MOV	ECX,DWORD [-24+EBP]
  1466 00000E92 89 45 10                        	MOV	DWORD [16+EBP],EAX
  1467 00000E95 89 4D 0C                        	MOV	DWORD [12+EBP],ECX
  1468 00000E98 89 5D 08                        	MOV	DWORD [8+EBP],EBX
  1469 00000E9B 8D 65 F4                        	LEA	ESP,DWORD [-12+EBP]
  1470 00000E9E 5B                              	POP	EBX
  1471 00000E9F 5E                              	POP	ESI
  1472 00000EA0 5F                              	POP	EDI
  1473 00000EA1 5D                              	POP	EBP
  1474 00000EA2 E9 0000196D                     	JMP	_cmd_start
  1475 00000EA7                                 L272:
  1476 00000EA7 8B 45 EC                        	MOV	EAX,DWORD [-20+EBP]
  1477 00000EAA 8B 4D E8                        	MOV	ECX,DWORD [-24+EBP]
  1478 00000EAD 89 45 10                        	MOV	DWORD [16+EBP],EAX
  1479 00000EB0 89 4D 0C                        	MOV	DWORD [12+EBP],ECX
  1480 00000EB3 89 5D 08                        	MOV	DWORD [8+EBP],EBX
  1481 00000EB6 8D 65 F4                        	LEA	ESP,DWORD [-12+EBP]
  1482 00000EB9 5B                              	POP	EBX
  1483 00000EBA 5E                              	POP	ESI
  1484 00000EBB 5F                              	POP	EDI
  1485 00000EBC 5D                              	POP	EBP
  1486 00000EBD E9 000019DC                     	JMP	_cmd_ncst
  1487 00000EC2                                 L271:
  1488 00000EC2 8B 45 EC                        	MOV	EAX,DWORD [-20+EBP]
  1489 00000EC5 89 5D 08                        	MOV	DWORD [8+EBP],EBX
  1490 00000EC8 89 45 0C                        	MOV	DWORD [12+EBP],EAX
  1491 00000ECB 8D 65 F4                        	LEA	ESP,DWORD [-12+EBP]
  1492 00000ECE 5B                              	POP	EBX
  1493 00000ECF 5E                              	POP	ESI
  1494 00000ED0 5F                              	POP	EDI
  1495 00000ED1 5D                              	POP	EBP
  1496 00000ED2 E9 00001030                     	JMP	_cmd_memmap
  1497 00000ED7                                 L270:
  1498 00000ED7 8B 45 E8                        	MOV	EAX,DWORD [-24+EBP]
  1499 00000EDA 89 5D 08                        	MOV	DWORD [8+EBP],EBX
  1500 00000EDD 89 45 0C                        	MOV	DWORD [12+EBP],EAX
  1501 00000EE0 8D 65 F4                        	LEA	ESP,DWORD [-12+EBP]
  1502 00000EE3 5B                              	POP	EBX
  1503 00000EE4 5E                              	POP	ESI
  1504 00000EE5 5F                              	POP	EDI
  1505 00000EE6 5D                              	POP	EBP
  1506 00000EE7 E9 00000C7A                     	JMP	_cmd_mkfile
  1507 00000EEC                                 L269:
  1508 00000EEC 8B 45 E8                        	MOV	EAX,DWORD [-24+EBP]
  1509 00000EEF 89 5D 08                        	MOV	DWORD [8+EBP],EBX
  1510 00000EF2 89 45 0C                        	MOV	DWORD [12+EBP],EAX
  1511 00000EF5 8D 65 F4                        	LEA	ESP,DWORD [-12+EBP]
  1512 00000EF8 5B                              	POP	EBX
  1513 00000EF9 5E                              	POP	ESI
  1514 00000EFA 5F                              	POP	EDI
  1515 00000EFB 5D                              	POP	EBP
  1516 00000EFC E9 00000A79                     	JMP	_cmd_mkdir
  1517 00000F01                                 L268:
  1518 00000F01 89 5D 08                        	MOV	DWORD [8+EBP],EBX
  1519 00000F04 8D 65 F4                        	LEA	ESP,DWORD [-12+EBP]
  1520 00000F07 5B                              	POP	EBX
  1521 00000F08 5E                              	POP	ESI
  1522 00000F09 5F                              	POP	EDI
  1523 00000F0A 5D                              	POP	EBP
  1524 00000F0B E9 0000150E                     	JMP	_cmd_mkfs
  1525 00000F10                                 L267:
  1526 00000F10 8B 45 EC                        	MOV	EAX,DWORD [-20+EBP]
  1527 00000F13 89 5D 08                        	MOV	DWORD [8+EBP],EBX
  1528 00000F16 89 45 0C                        	MOV	DWORD [12+EBP],EAX
  1529 00000F19 8D 65 F4                        	LEA	ESP,DWORD [-12+EBP]
  1530 00000F1C 5B                              	POP	EBX
  1531 00000F1D 5E                              	POP	ESI
  1532 00000F1E 5F                              	POP	EDI
  1533 00000F1F 5D                              	POP	EBP
  1534 00000F20 E9 00000F3D                     	JMP	_cmd_mem
  1535 00000F25                                 L266:
  1536 00000F25 89 5D 08                        	MOV	DWORD [8+EBP],EBX
  1537 00000F28 8D 65 F4                        	LEA	ESP,DWORD [-12+EBP]
  1538 00000F2B 5B                              	POP	EBX
  1539 00000F2C 5E                              	POP	ESI
  1540 00000F2D 5F                              	POP	EDI
  1541 00000F2E 5D                              	POP	EBP
  1542 00000F2F E9 00001164                     	JMP	_cmd_logcls
  1543 00000F34                                 L265:
  1544 00000F34 89 5D 08                        	MOV	DWORD [8+EBP],EBX
  1545 00000F37 8D 65 F4                        	LEA	ESP,DWORD [-12+EBP]
  1546 00000F3A 5B                              	POP	EBX
  1547 00000F3B 5E                              	POP	ESI
  1548 00000F3C 5F                              	POP	EDI
  1549 00000F3D 5D                              	POP	EBP
  1550 00000F3E E9 00001005                     	JMP	_cmd_log
  1551 00000F43                                 L264:
  1552 00000F43 8B 45 E8                        	MOV	EAX,DWORD [-24+EBP]
  1553 00000F46 89 5D 08                        	MOV	DWORD [8+EBP],EBX
  1554 00000F49 89 45 0C                        	MOV	DWORD [12+EBP],EAX
  1555 00000F4C 8D 65 F4                        	LEA	ESP,DWORD [-12+EBP]
  1556 00000F4F 5B                              	POP	EBX
  1557 00000F50 5E                              	POP	ESI
  1558 00000F51 5F                              	POP	EDI
  1559 00000F52 5D                              	POP	EBP
  1560 00000F53 E9 00001A23                     	JMP	_cmd_langmode
  1561 00000F58                                 L263:
  1562 00000F58 8B 45 E8                        	MOV	EAX,DWORD [-24+EBP]
  1563 00000F5B 89 5D 08                        	MOV	DWORD [8+EBP],EBX
  1564 00000F5E 89 45 0C                        	MOV	DWORD [12+EBP],EAX
  1565 00000F61 8D 65 F4                        	LEA	ESP,DWORD [-12+EBP]
  1566 00000F64 5B                              	POP	EBX
  1567 00000F65 5E                              	POP	ESI
  1568 00000F66 5F                              	POP	EDI
  1569 00000F67 5D                              	POP	EBP
  1570 00000F68 E9 00001356                     	JMP	_cmd_fview
  1571 00000F6D                                 L262:
  1572 00000F6D 89 5D 08                        	MOV	DWORD [8+EBP],EBX
  1573 00000F70 8D 65 F4                        	LEA	ESP,DWORD [-12+EBP]
  1574 00000F73 5B                              	POP	EBX
  1575 00000F74 5E                              	POP	ESI
  1576 00000F75 5F                              	POP	EDI
  1577 00000F76 5D                              	POP	EBP
  1578 00000F77 E9 0000174C                     	JMP	_cmd_fddir
  1579 00000F7C                                 L261:
  1580 00000F7C 8B 45 E8                        	MOV	EAX,DWORD [-24+EBP]
  1581 00000F7F 89 5D 08                        	MOV	DWORD [8+EBP],EBX
  1582 00000F82 89 45 0C                        	MOV	DWORD [12+EBP],EAX
  1583 00000F85 8D 65 F4                        	LEA	ESP,DWORD [-12+EBP]
  1584 00000F88 5B                              	POP	EBX
  1585 00000F89 5E                              	POP	ESI
  1586 00000F8A 5F                              	POP	EDI
  1587 00000F8B 5D                              	POP	EBP
  1588 00000F8C E9 00000418                     	JMP	_cmd_edit
  1589 00000F91                                 L260:
  1590 00000F91 8B 45 F0                        	MOV	EAX,DWORD [-16+EBP]
  1591 00000F94 89 5D 08                        	MOV	DWORD [8+EBP],EBX
  1592 00000F97 89 45 0C                        	MOV	DWORD [12+EBP],EAX
  1593 00000F9A 8D 65 F4                        	LEA	ESP,DWORD [-12+EBP]
  1594 00000F9D 5B                              	POP	EBX
  1595 00000F9E 5E                              	POP	ESI
  1596 00000F9F 5F                              	POP	EDI
  1597 00000FA0 5D                              	POP	EBP
  1598 00000FA1 E9 000017D6                     	JMP	_cmd_exit
  1599 00000FA6                                 L259:
  1600 00000FA6 89 5D 08                        	MOV	DWORD [8+EBP],EBX
  1601 00000FA9 8D 65 F4                        	LEA	ESP,DWORD [-12+EBP]
  1602 00000FAC 5B                              	POP	EBX
  1603 00000FAD 5E                              	POP	ESI
  1604 00000FAE 5F                              	POP	EDI
  1605 00000FAF 5D                              	POP	EBP
  1606 00000FB0 E9 000015FA                     	JMP	_cmd_dir
  1607 00000FB5                                 L258:
  1608 00000FB5 89 5D 08                        	MOV	DWORD [8+EBP],EBX
  1609 00000FB8 8D 65 F4                        	LEA	ESP,DWORD [-12+EBP]
  1610 00000FBB 5B                              	POP	EBX
  1611 00000FBC 5E                              	POP	ESI
  1612 00000FBD 5F                              	POP	EDI
  1613 00000FBE 5D                              	POP	EBP
  1614 00000FBF E9 00001051                     	JMP	_cmd_cls
  1615 00000FC4                                 L257:
  1616 00000FC4 8B 45 E8                        	MOV	EAX,DWORD [-24+EBP]
  1617 00000FC7 89 5D 08                        	MOV	DWORD [8+EBP],EBX
  1618 00000FCA 89 45 0C                        	MOV	DWORD [12+EBP],EAX
  1619 00000FCD 8D 65 F4                        	LEA	ESP,DWORD [-12+EBP]
  1620 00000FD0 5B                              	POP	EBX
  1621 00000FD1 5E                              	POP	ESI
  1622 00000FD2 5F                              	POP	EDI
  1623 00000FD3 5D                              	POP	EBP
  1624 00000FD4 EB 1B                           	JMP	_cmd_cd
  1625 00000FD6                                 L256:
  1626 00000FD6 8B 45 E8                        	MOV	EAX,DWORD [-24+EBP]
  1627 00000FD9 8B 4D F0                        	MOV	ECX,DWORD [-16+EBP]
  1628 00000FDC 89 45 10                        	MOV	DWORD [16+EBP],EAX
  1629 00000FDF 89 4D 0C                        	MOV	DWORD [12+EBP],ECX
  1630 00000FE2 89 5D 08                        	MOV	DWORD [8+EBP],EBX
  1631 00000FE5 8D 65 F4                        	LEA	ESP,DWORD [-12+EBP]
  1632 00000FE8 5B                              	POP	EBX
  1633 00000FE9 5E                              	POP	ESI
  1634 00000FEA 5F                              	POP	EDI
  1635 00000FEB 5D                              	POP	EBP
  1636 00000FEC E9 00000F88                     	JMP	_cmd_cat
  1637 00000FF1                                 	GLOBAL	_cmd_cd
  1638 00000FF1                                 _cmd_cd:
  1639 00000FF1 55                              	PUSH	EBP
  1640 00000FF2 89 E5                           	MOV	EBP,ESP
  1641 00000FF4 53                              	PUSH	EBX
  1642 00000FF5 8B 45 0C                        	MOV	EAX,DWORD [12+EBP]
  1643 00000FF8 8B 5D 08                        	MOV	EBX,DWORD [8+EBP]
  1644 00000FFB 83 C0 03                        	ADD	EAX,3
  1645 00000FFE 50                              	PUSH	EAX
  1646 00000FFF 53                              	PUSH	EBX
  1647 00001000 E8 00000071                     	CALL	_parse_cdline
  1648 00001005 59                              	POP	ECX
  1649 00001006 5A                              	POP	EDX
  1650 00001007 85 C0                           	TEST	EAX,EAX
  1651 00001009 74 03                           	JE	L280
  1652 0000100B 89 43 14                        	MOV	DWORD [20+EBX],EAX
  1653 0000100E                                 L280:
  1654 0000100E 8B 5D FC                        	MOV	EBX,DWORD [-4+EBP]
  1655 00001011 C9                              	LEAVE
  1656 00001012 C3                              	RET
  1657 00001013                                 	GLOBAL	_get_dirname
  1658 00001013                                 _get_dirname:
  1659 00001013 55                              	PUSH	EBP
  1660 00001014 A1 [00000FE0]                   	MOV	EAX,DWORD [_cp]
  1661 00001019 89 E5                           	MOV	EBP,ESP
  1662 0000101B 31 C9                           	XOR	ECX,ECX
  1663 0000101D 56                              	PUSH	ESI
  1664 0000101E 53                              	PUSH	EBX
  1665 0000101F 8B 75 08                        	MOV	ESI,DWORD [8+EBP]
  1666 00001022 8B 5D 0C                        	MOV	EBX,DWORD [12+EBP]
  1667 00001025 8A 14 18                        	MOV	DL,BYTE [EAX+EBX*1]
  1668 00001028 8D 42 BF                        	LEA	EAX,DWORD [-65+EDX]
  1669 0000102B 3C 19                           	CMP	AL,25
  1670 0000102D 77 37                           	JA	L289
  1671 0000102F                                 L286:
  1672 0000102F A1 [00000FE0]                   	MOV	EAX,DWORD [_cp]
  1673 00001034 8A 04 18                        	MOV	AL,BYTE [EAX+EBX*1]
  1674 00001037 88 04 31                        	MOV	BYTE [ECX+ESI*1],AL
  1675 0000103A 41                              	INC	ECX
  1676 0000103B A1 [00000FE0]                   	MOV	EAX,DWORD [_cp]
  1677 00001040 40                              	INC	EAX
  1678 00001041 A3 [00000FE0]                   	MOV	DWORD [_cp],EAX
  1679 00001046 8A 14 18                        	MOV	DL,BYTE [EAX+EBX*1]
  1680 00001049 8D 42 BF                        	LEA	EAX,DWORD [-65+EDX]
  1681 0000104C 3C 19                           	CMP	AL,25
  1682 0000104E 76 DF                           	JBE	L286
  1683 00001050 8D 42 9F                        	LEA	EAX,DWORD [-97+EDX]
  1684 00001053 3C 19                           	CMP	AL,25
  1685 00001055 76 D8                           	JBE	L286
  1686 00001057 8D 42 D0                        	LEA	EAX,DWORD [-48+EDX]
  1687 0000105A 3C 09                           	CMP	AL,9
  1688 0000105C 76 D1                           	JBE	L286
  1689 0000105E                                 L288:
  1690 0000105E C6 04 31 00                     	MOV	BYTE [ECX+ESI*1],0
  1691 00001062 5B                              	POP	EBX
  1692 00001063 5E                              	POP	ESI
  1693 00001064 5D                              	POP	EBP
  1694 00001065 C3                              	RET
  1695 00001066                                 L289:
  1696 00001066 8D 42 9F                        	LEA	EAX,DWORD [-97+EDX]
  1697 00001069 3C 19                           	CMP	AL,25
  1698 0000106B 76 C2                           	JBE	L286
  1699 0000106D 8D 42 D0                        	LEA	EAX,DWORD [-48+EDX]
  1700 00001070 3C 09                           	CMP	AL,9
  1701 00001072 76 BB                           	JBE	L286
  1702 00001074 EB E8                           	JMP	L288
  1703                                          [SECTION .data]
  1704 000000E2                                 LC35:
  1705 000000E2 2A 2A 2A 2A 2A 49 4E 20 46 55   	DB	"*****IN FUNC: parse_cdline()*****",0x0A,0x00
       000000EC 4E 43 3A 20 70 61 72 73 65 5F 
       000000F6 63 64 6C 69 6E 65 28 29 2A 2A 
       00000100 2A 2A 2A 0A 00 
  1706 00000105                                 LC36:
  1707 00000105 4E 2F 41 00                     	DB	"N/A",0x00
  1708 00000109                                 LC46:
  1709 00000109 5B 25 64 5D 63 68 61 6E 67 65   	DB	"[%d]change directory: %s -> %s",0x0A,0x00
       00000113 20 64 69 72 65 63 74 6F 72 79 
       0000011D 3A 20 25 73 20 2D 3E 20 25 73 
       00000127 0A 00 
  1710 00000129                                 LC47:
  1711 00000129 5B 52 45 53 55 4C 54 5D 64 65   	DB	"[RESULT]destination: %s -> %s",0x0A,0x00
       00000133 73 74 69 6E 61 74 69 6F 6E 3A 
       0000013D 20 25 73 20 2D 3E 20 25 73 0A 
       00000147 00 
  1712 00000148                                 LC43:
  1713 00000148 2A 2A 2A 2A 2A 2A 2A 2A 2A 2A   	DB	"*********************************",0x0A,0x00
       00000152 2A 2A 2A 2A 2A 2A 2A 2A 2A 2A 
       0000015C 2A 2A 2A 2A 2A 2A 2A 2A 2A 2A 
       00000166 2A 2A 2A 0A 00 
  1714 0000016B                                 LC45:
  1715 0000016B 43 61 6E 27 74 20 66 69 6E 64   	DB	"Can't find this directory.",0x0A,0x00
       00000175 20 74 68 69 73 20 64 69 72 65 
       0000017F 63 74 6F 72 79 2E 0A 00 
  1716 00000187                                 LC37:
  1717 00000187 66 69 6C 65 6E 61 6D 65 20 68   	DB	"filename has found.",0x0A,0x00
       00000191 61 73 20 66 6F 75 6E 64 2E 0A 
       0000019B 00 
  1718 0000019C                                 LC38:
  1719 0000019C 63 68 61 6E 67 65 20 64 69 72   	DB	"change directory using relative path",0x0A,0x00
       000001A6 65 63 74 6F 72 79 20 75 73 69 
       000001B0 6E 67 20 72 65 6C 61 74 69 76 
       000001BA 65 20 70 61 74 68 0A 00 
  1720 000001C2                                 LC41:
  1721 000001C2 22 2E 2E 22 20 68 61 73 20 66   	DB	0x22,"..",0x22," has found.",0x0A,0x00
       000001CC 6F 75 6E 64 2E 0A 00 
  1722 000001D3                                 LC42:
  1723 000001D3 43 61 6E 27 74 20 6D 6F 76 65   	DB	"Can't move because here is ROOT directory.",0x0A,0x00
       000001DD 20 62 65 63 61 75 73 65 20 68 
       000001E7 65 72 65 20 69 73 20 52 4F 4F 
       000001F1 54 20 64 69 72 65 63 74 6F 72 
       000001FB 79 2E 0A 00 
  1724 000001FF                                 LC44:
  1725 000001FF 49 6E 63 6F 72 72 65 63 74 20   	DB	"Incorrect initial character.",0x0A,0x00
       00000209 69 6E 69 74 69 61 6C 20 63 68 
       00000213 61 72 61 63 74 65 72 2E 0A 00 
  1726 0000021D                                 LC39:
  1727 0000021D 27 2F 27 20 68 61 73 20 66 6F   	DB	"'/' has found.",0x0A,0x00
       00000227 75 6E 64 2E 0A 00 
  1728 0000022D                                 LC40:
  1729 0000022D 63 68 61 6E 67 65 20 64 69 72   	DB	"change directory using absolute path",0x0A,0x00
       00000237 65 63 74 6F 72 79 20 75 73 69 
       00000241 6E 67 20 61 62 73 6F 6C 75 74 
       0000024B 65 20 70 61 74 68 0A 00 
  1730                                          [SECTION .text]
  1731 00001076                                 	GLOBAL	_parse_cdline
  1732 00001076                                 _parse_cdline:
  1733 00001076 55                              	PUSH	EBP
  1734 00001077 89 E5                           	MOV	EBP,ESP
  1735 00001079 57                              	PUSH	EDI
  1736 0000107A 56                              	PUSH	ESI
  1737 0000107B 31 FF                           	XOR	EDI,EDI
  1738 0000107D 53                              	PUSH	EBX
  1739 0000107E 81 EC 0000015C                  	SUB	ESP,348
  1740 00001084 8B 75 0C                        	MOV	ESI,DWORD [12+EBP]
  1741 00001087 68 [000000E2]                   	PUSH	LC35
  1742 0000108C C7 85 FFFFFE98 00000000         	MOV	DWORD [-360+EBP],0
  1743 00001096 E8 FFFFEF65                     	CALL	_debug_print
  1744 0000109B 8D 85 FFFFFF14                  	LEA	EAX,DWORD [-236+EBP]
  1745 000010A1 68 [00000105]                   	PUSH	LC36
  1746 000010A6 50                              	PUSH	EAX
  1747 000010A7 C7 05 [00000FE0] 00000000       	MOV	DWORD [_cp],0
  1748 000010B1 E8 [00000000]                   	CALL	_sprintf
  1749 000010B6 A1 [00000FE0]                   	MOV	EAX,DWORD [_cp]
  1750 000010BB 83 C4 0C                        	ADD	ESP,12
  1751 000010BE 80 3C 30 00                     	CMP	BYTE [EAX+ESI*1],0
  1752 000010C2 0F 84 00000091                  	JE	L315
  1753 000010C8                                 L313:
  1754 000010C8 83 3D [00000FE0] 00             	CMP	DWORD [_cp],0
  1755 000010CF 0F 85 0000021D                  	JNE	L317
  1756 000010D5                                 L294:
  1757 000010D5 8B 0D [00000FE0]                	MOV	ECX,DWORD [_cp]
  1758 000010DB 8A 14 31                        	MOV	DL,BYTE [ECX+ESI*1]
  1759 000010DE 8D 42 BF                        	LEA	EAX,DWORD [-65+EDX]
  1760 000010E1 3C 19                           	CMP	AL,25
  1761 000010E3 76 12                           	JBE	L296
  1762 000010E5 8D 42 9F                        	LEA	EAX,DWORD [-97+EDX]
  1763 000010E8 3C 19                           	CMP	AL,25
  1764 000010EA 76 0B                           	JBE	L296
  1765 000010EC 8D 42 D0                        	LEA	EAX,DWORD [-48+EDX]
  1766 000010EF 3C 09                           	CMP	AL,9
  1767 000010F1 0F 87 0000013F                  	JA	L295
  1768 000010F7                                 L296:
  1769 000010F7 85 C9                           	TEST	ECX,ECX
  1770 000010F9 0F 84 000000FE                  	JE	L318
  1771 000010FF                                 L298:
  1772 000010FF A1 [00000FE0]                   	MOV	EAX,DWORD [_cp]
  1773 00001104 8A 14 30                        	MOV	DL,BYTE [EAX+ESI*1]
  1774 00001107 80 FA 2E                        	CMP	DL,46
  1775 0000110A 0F 84 000000DD                  	JE	L319
  1776 00001110                                 L309:
  1777 00001110 84 D2                           	TEST	DL,DL
  1778 00001112 0F 85 00000095                  	JNE	L320
  1779 00001118                                 L305:
  1780 00001118 57                              	PUSH	EDI
  1781 00001119 8D 9D FFFFFEA4                  	LEA	EBX,DWORD [-348+EBP]
  1782 0000111F 53                              	PUSH	EBX
  1783 00001120 E8 FFFFF9A3                     	CALL	_get_pathname
  1784 00001125 8D 85 FFFFFF14                  	LEA	EAX,DWORD [-236+EBP]
  1785 0000112B 53                              	PUSH	EBX
  1786 0000112C 8D 5D 84                        	LEA	EBX,DWORD [-124+EBP]
  1787 0000112F 50                              	PUSH	EAX
  1788 00001130 FF B5 FFFFFE98                  	PUSH	DWORD [-360+EBP]
  1789 00001136 68 [00000109]                   	PUSH	LC46
  1790 0000113B 53                              	PUSH	EBX
  1791 0000113C E8 [00000000]                   	CALL	_sprintf
  1792 00001141 53                              	PUSH	EBX
  1793 00001142 E8 FFFFEEB9                     	CALL	_debug_print
  1794 00001147 A1 [00000FE0]                   	MOV	EAX,DWORD [_cp]
  1795 0000114C 83 C4 20                        	ADD	ESP,32
  1796 0000114F 80 3C 30 00                     	CMP	BYTE [EAX+ESI*1],0
  1797 00001153 0F 85 FFFFFF6F                  	JNE	L313
  1798 00001159                                 L315:
  1799 00001159 8B 45 08                        	MOV	EAX,DWORD [8+EBP]
  1800 0000115C 8D 9D FFFFFF14                  	LEA	EBX,DWORD [-236+EBP]
  1801 00001162 8D B5 FFFFFEA4                  	LEA	ESI,DWORD [-348+EBP]
  1802 00001168 FF 70 14                        	PUSH	DWORD [20+EAX]
  1803 0000116B 53                              	PUSH	EBX
  1804 0000116C E8 FFFFF957                     	CALL	_get_pathname
  1805 00001171 57                              	PUSH	EDI
  1806 00001172 56                              	PUSH	ESI
  1807 00001173 E8 FFFFF950                     	CALL	_get_pathname
  1808 00001178 56                              	PUSH	ESI
  1809 00001179 53                              	PUSH	EBX
  1810 0000117A 8D 5D 84                        	LEA	EBX,DWORD [-124+EBP]
  1811 0000117D 68 [00000129]                   	PUSH	LC47
  1812 00001182 53                              	PUSH	EBX
  1813 00001183 E8 [00000000]                   	CALL	_sprintf
  1814 00001188 83 C4 20                        	ADD	ESP,32
  1815 0000118B 53                              	PUSH	EBX
  1816 0000118C E8 FFFFEE6F                     	CALL	_debug_print
  1817 00001191 68 [00000148]                   	PUSH	LC43
  1818 00001196 E8 FFFFEE65                     	CALL	_debug_print
  1819 0000119B FF 75 08                        	PUSH	DWORD [8+EBP]
  1820 0000119E E8 FFFFF732                     	CALL	_cons_newline
  1821 000011A3 89 F8                           	MOV	EAX,EDI
  1822 000011A5                                 L290:
  1823 000011A5 8D 65 F4                        	LEA	ESP,DWORD [-12+EBP]
  1824 000011A8 5B                              	POP	EBX
  1825 000011A9 5E                              	POP	ESI
  1826 000011AA 5F                              	POP	EDI
  1827 000011AB 5D                              	POP	EBP
  1828 000011AC C3                              	RET
  1829 000011AD                                 L320:
  1830 000011AD 56                              	PUSH	ESI
  1831 000011AE 8D 9D FFFFFE9C                  	LEA	EBX,DWORD [-356+EBP]
  1832 000011B4 53                              	PUSH	EBX
  1833 000011B5 E8 FFFFFE59                     	CALL	_get_dirname
  1834 000011BA 6A 32                           	PUSH	50
  1835 000011BC 57                              	PUSH	EDI
  1836 000011BD 53                              	PUSH	EBX
  1837 000011BE E8 [00000000]                   	CALL	_myfinfo_search
  1838 000011C3 83 C4 14                        	ADD	ESP,20
  1839 000011C6 85 C0                           	TEST	EAX,EAX
  1840 000011C8 74 08                           	JE	L321
  1841 000011CA 8B 78 20                        	MOV	EDI,DWORD [32+EAX]
  1842 000011CD E9 FFFFFF46                     	JMP	L305
  1843 000011D2                                 L321:
  1844 000011D2 68 [0000016B]                   	PUSH	LC45
  1845 000011D7                                 L316:
  1846 000011D7 FF 75 08                        	PUSH	DWORD [8+EBP]
  1847 000011DA E8 0000012D                     	CALL	_cd_error
  1848 000011DF 68 [00000148]                   	PUSH	LC43
  1849 000011E4 E8 FFFFEE17                     	CALL	_debug_print
  1850 000011E9 31 C0                           	XOR	EAX,EAX
  1851 000011EB EB B8                           	JMP	L290
  1852 000011ED                                 L319:
  1853 000011ED 80 7C 30 01 2E                  	CMP	BYTE [1+EAX+ESI*1],46
  1854 000011F2 0F 85 FFFFFF18                  	JNE	L309
  1855 000011F8 E9 FFFFFF1B                     	JMP	L305
  1856 000011FD                                 L318:
  1857 000011FD 68 [00000187]                   	PUSH	LC37
  1858 00001202 8D 5D 84                        	LEA	EBX,DWORD [-124+EBP]
  1859 00001205 E8 FFFFEDF6                     	CALL	_debug_print
  1860 0000120A 68 [0000019C]                   	PUSH	LC38
  1861 0000120F 53                              	PUSH	EBX
  1862 00001210 E8 [00000000]                   	CALL	_sprintf
  1863 00001215 53                              	PUSH	EBX
  1864 00001216 E8 FFFFEDE5                     	CALL	_debug_print
  1865 0000121B 8B 45 08                        	MOV	EAX,DWORD [8+EBP]
  1866 0000121E 8B 78 14                        	MOV	EDI,DWORD [20+EAX]
  1867 00001221 8D 85 FFFFFF14                  	LEA	EAX,DWORD [-236+EBP]
  1868 00001227 57                              	PUSH	EDI
  1869 00001228 50                              	PUSH	EAX
  1870 00001229 E8 FFFFF89A                     	CALL	_get_pathname
  1871 0000122E 83 C4 18                        	ADD	ESP,24
  1872 00001231 E9 FFFFFEC9                     	JMP	L298
  1873 00001236                                 L295:
  1874 00001236 80 FA 2F                        	CMP	DL,47
  1875 00001239 74 79                           	JE	L322
  1876 0000123B 80 FA 2E                        	CMP	DL,46
  1877 0000123E 75 6A                           	JNE	L302
  1878 00001240 80 7C 31 01 2E                  	CMP	BYTE [1+ECX+ESI*1],46
  1879 00001245 75 63                           	JNE	L302
  1880 00001247 68 [000001C2]                   	PUSH	LC41
  1881 0000124C E8 FFFFEDAF                     	CALL	_debug_print
  1882 00001251 59                              	POP	ECX
  1883 00001252 A1 [00000FE0]                   	MOV	EAX,DWORD [_cp]
  1884 00001257 83 C0 02                        	ADD	EAX,2
  1885 0000125A A3 [00000FE0]                   	MOV	DWORD [_cp],EAX
  1886 0000125F 83 F8 02                        	CMP	EAX,2
  1887 00001262 74 1A                           	JE	L323
  1888 00001264                                 L303:
  1889 00001264 8B 87 000007D8                  	MOV	EAX,DWORD [2008+EDI]
  1890 0000126A 89 C7                           	MOV	EDI,EAX
  1891 0000126C 85 C0                           	TEST	EAX,EAX
  1892 0000126E 0F 85 FFFFFEA4                  	JNE	L305
  1893 00001274 68 [000001D3]                   	PUSH	LC42
  1894 00001279 E9 FFFFFF59                     	JMP	L316
  1895 0000127E                                 L323:
  1896 0000127E 68 [0000019C]                   	PUSH	LC38
  1897 00001283 8D 5D 84                        	LEA	EBX,DWORD [-124+EBP]
  1898 00001286 53                              	PUSH	EBX
  1899 00001287 E8 [00000000]                   	CALL	_sprintf
  1900 0000128C 53                              	PUSH	EBX
  1901 0000128D E8 FFFFED6E                     	CALL	_debug_print
  1902 00001292 8B 45 08                        	MOV	EAX,DWORD [8+EBP]
  1903 00001295 8B 78 14                        	MOV	EDI,DWORD [20+EAX]
  1904 00001298 8D 85 FFFFFF14                  	LEA	EAX,DWORD [-236+EBP]
  1905 0000129E 57                              	PUSH	EDI
  1906 0000129F 50                              	PUSH	EAX
  1907 000012A0 E8 FFFFF823                     	CALL	_get_pathname
  1908 000012A5 83 C4 14                        	ADD	ESP,20
  1909 000012A8 EB BA                           	JMP	L303
  1910 000012AA                                 L302:
  1911 000012AA 68 [000001FF]                   	PUSH	LC44
  1912 000012AF E9 FFFFFF23                     	JMP	L316
  1913 000012B4                                 L322:
  1914 000012B4 68 [0000021D]                   	PUSH	LC39
  1915 000012B9 E8 FFFFED42                     	CALL	_debug_print
  1916 000012BE 5B                              	POP	EBX
  1917 000012BF A1 [00000FE0]                   	MOV	EAX,DWORD [_cp]
  1918 000012C4 40                              	INC	EAX
  1919 000012C5 A3 [00000FE0]                   	MOV	DWORD [_cp],EAX
  1920 000012CA 48                              	DEC	EAX
  1921 000012CB 0F 85 FFFFFE2E                  	JNE	L298
  1922 000012D1 68 [0000022D]                   	PUSH	LC40
  1923 000012D6 8D 5D 84                        	LEA	EBX,DWORD [-124+EBP]
  1924 000012D9 53                              	PUSH	EBX
  1925 000012DA BF 00400000                     	MOV	EDI,4194304
  1926 000012DF E8 [00000000]                   	CALL	_sprintf
  1927 000012E4 53                              	PUSH	EBX
  1928 000012E5 E8 FFFFED16                     	CALL	_debug_print
  1929 000012EA 83 C4 0C                        	ADD	ESP,12
  1930 000012ED E9 FFFFFE0D                     	JMP	L298
  1931 000012F2                                 L317:
  1932 000012F2 57                              	PUSH	EDI
  1933 000012F3 8D 85 FFFFFF14                  	LEA	EAX,DWORD [-236+EBP]
  1934 000012F9 50                              	PUSH	EAX
  1935 000012FA E8 FFFFF7C9                     	CALL	_get_pathname
  1936 000012FF 58                              	POP	EAX
  1937 00001300 5A                              	POP	EDX
  1938 00001301 FF 85 FFFFFE98                  	INC	DWORD [-360+EBP]
  1939 00001307 E9 FFFFFDC9                     	JMP	L294
  1940 0000130C                                 	GLOBAL	_cd_error
  1941 0000130C                                 _cd_error:
  1942 0000130C 55                              	PUSH	EBP
  1943 0000130D 89 E5                           	MOV	EBP,ESP
  1944 0000130F 57                              	PUSH	EDI
  1945 00001310 56                              	PUSH	ESI
  1946 00001311 53                              	PUSH	EBX
  1947 00001312 8D 45 B4                        	LEA	EAX,DWORD [-76+EBP]
  1948 00001315 83 EC 40                        	SUB	ESP,64
  1949 00001318 31 DB                           	XOR	EBX,EBX
  1950 0000131A 8B 7D 08                        	MOV	EDI,DWORD [8+EBP]
  1951 0000131D FF 77 14                        	PUSH	DWORD [20+EDI]
  1952 00001320 50                              	PUSH	EAX
  1953 00001321 E8 FFFFF7A2                     	CALL	_get_pathname
  1954 00001326 59                              	POP	ECX
  1955 00001327 5E                              	POP	ESI
  1956 00001328 80 7D B4 00                     	CMP	BYTE [-76+EBP],0
  1957 0000132C 74 0D                           	JE	L344
  1958 0000132E                                 L329:
  1959 0000132E C6 44 1D B4 20                  	MOV	BYTE [-76+EBP+EBX*1],32
  1960 00001333 43                              	INC	EBX
  1961 00001334 80 7C 1D B4 00                  	CMP	BYTE [-76+EBP+EBX*1],0
  1962 00001339 75 F3                           	JNE	L329
  1963 0000133B                                 L344:
  1964 0000133B 31 D2                           	XOR	EDX,EDX
  1965 0000133D                                 L334:
  1966 0000133D 8D 4D F4                        	LEA	ECX,DWORD [-12+EBP]
  1967 00001340 8D 04 19                        	LEA	EAX,DWORD [ECX+EBX*1]
  1968 00001343 C6 44 02 C0 20                  	MOV	BYTE [-64+EDX+EAX*1],32
  1969 00001348 42                              	INC	EDX
  1970 00001349 83 FA 02                        	CMP	EDX,2
  1971 0000134C 7E EF                           	JLE	L334
  1972 0000134E BA 00000003                     	MOV	EDX,3
  1973 00001353 31 C9                           	XOR	ECX,ECX
  1974 00001355 8B 35 [00000FE0]                	MOV	ESI,DWORD [_cp]
  1975 0000135B                                 L341:
  1976 0000135B 39 F1                           	CMP	ECX,ESI
  1977 0000135D 7D 33                           	JGE	L348
  1978 0000135F 8D 45 F4                        	LEA	EAX,DWORD [-12+EBP]
  1979 00001362 01 D0                           	ADD	EAX,EDX
  1980 00001364 01 C8                           	ADD	EAX,ECX
  1981 00001366 41                              	INC	ECX
  1982 00001367 83 F9 31                        	CMP	ECX,49
  1983 0000136A C6 44 03 C0 20                  	MOV	BYTE [-64+EBX+EAX*1],32
  1984 0000136F 7E EA                           	JLE	L341
  1985 00001371                                 L336:
  1986 00001371 8D 45 B4                        	LEA	EAX,DWORD [-76+EBP]
  1987 00001374 50                              	PUSH	EAX
  1988 00001375 57                              	PUSH	EDI
  1989 00001376 E8 FFFFF67F                     	CALL	_cons_putstr
  1990 0000137B FF 75 0C                        	PUSH	DWORD [12+EBP]
  1991 0000137E 57                              	PUSH	EDI
  1992 0000137F E8 FFFFF676                     	CALL	_cons_putstr
  1993 00001384 57                              	PUSH	EDI
  1994 00001385 E8 FFFFF54B                     	CALL	_cons_newline
  1995 0000138A 8D 65 F4                        	LEA	ESP,DWORD [-12+EBP]
  1996 0000138D 5B                              	POP	EBX
  1997 0000138E 5E                              	POP	ESI
  1998 0000138F 5F                              	POP	EDI
  1999 00001390 5D                              	POP	EBP
  2000 00001391 C3                              	RET
  2001 00001392                                 L348:
  2002 00001392 8D 45 F4                        	LEA	EAX,DWORD [-12+EBP]
  2003 00001395 01 D0                           	ADD	EAX,EDX
  2004 00001397 01 C8                           	ADD	EAX,ECX
  2005 00001399 01 D8                           	ADD	EAX,EBX
  2006 0000139B C6 40 C0 5E                     	MOV	BYTE [-64+EAX],94
  2007 0000139F C6 40 C1 0A                     	MOV	BYTE [-63+EAX],10
  2008 000013A3 C6 40 C2 00                     	MOV	BYTE [-62+EAX],0
  2009 000013A7 EB C8                           	JMP	L336
  2010                                          [SECTION .data]
  2011 00000253                                 LC69:
  2012 00000253 43 61 6E 27 74 20 65 64 69 74   	DB	"Can't edit: There is no file being opened.",0x0A,0x00
       0000025D 3A 20 54 68 65 72 65 20 69 73 
       00000267 20 6E 6F 20 66 69 6C 65 20 62 
       00000271 65 69 6E 67 20 6F 70 65 6E 65 
       0000027B 64 2E 0A 00 
  2013 0000027F                                 LC77:
  2014 0000027F 75 6E 65 78 70 65 63 74 65 64   	DB	"unexpected error at edit mode.",0x0A,0x00
       00000289 20 65 72 72 6F 72 20 61 74 20 
       00000293 65 64 69 74 20 6D 6F 64 65 2E 
       0000029D 0A 00 
  2015 0000029F                                 LC78:
  2016 0000029F 65 64 69 74 20 72 65 73 75 6C   	DB	"edit result:",0x0A,"%s[EOF]",0x0A,0x00
       000002A9 74 3A 0A 25 73 5B 45 4F 46 5D 
       000002B3 0A 00 
  2017 000002B5                                 LC61:
  2018 000002B5 73 69 7A 65 3A 20 25 64 5B 62   	DB	"size: %d[byte]",0x0A,0x00
       000002BF 79 74 65 5D 0A 00 
  2019 000002C5                                 LC74:
  2020 000002C5 63 61 6E 27 74 20 6F 70 65 6E   	DB	"can't open: There is a file being opened.",0x0A,0x00
       000002CF 3A 20 54 68 65 72 65 20 69 73 
       000002D9 20 61 20 66 69 6C 65 20 62 65 
       000002E3 69 6E 67 20 6F 70 65 6E 65 64 
       000002ED 2E 0A 00 
  2021 000002F0                                 LC76:
  2022 000002F0 6F 70 65 6E 65 64 20 22 25 73   	DB	"opened ",0x22,"%s",0x22," file.",0x0A,0x00
       000002FA 22 20 66 69 6C 65 2E 0A 00 
  2023 00000303                                 LC75:
  2024 00000303 63 61 6E 27 74 20 6F 70 65 6E   	DB	"can't open ",0x22,"%s",0x22,".",0x0A,0x00
       0000030D 20 22 25 73 22 2E 0A 00 
  2025 00000315                                 LC73:
  2026 00000315 49 4E 53 20 4D 4F 44 45 20 52   	DB	"INS MODE RESULT: %s",0x0A,0x00
       0000031F 45 53 55 4C 54 3A 20 25 73 0A 
       00000329 00 
  2027 0000032A                                 LC71:
  2028 0000032A 63 68 61 72 20 2A 73 20 6F 75   	DB	"char *s out of myfwrite() is shown below.",0x0A,0x00
       00000334 74 20 6F 66 20 6D 79 66 77 72 
       0000033E 69 74 65 28 29 20 69 73 20 73 
       00000348 68 6F 77 6E 20 62 65 6C 6F 77 
       00000352 2E 0A 00 
  2029 00000355                                 LC72:
  2030 00000355 0A 00                           	DB	0x0A,0x00
  2031 00000357                                 LC70:
  2032 00000357 65 64 69 74 20 6C 69 6E 65 20   	DB	"edit line is too long.",0x00
       00000361 69 73 20 74 6F 6F 20 6C 6F 6E 
       0000036B 67 2E 00 
  2033 0000036E                                 LC49:
  2034 0000036E 6F 70 65 6E 00                  	DB	"open",0x00
  2035 00000373                                 LC51:
  2036 00000373 63 61 6E 27 74 20 65 64 69 74   	DB	"can't edit: There is no file being opened.",0x0A,0x00
       0000037D 3A 20 54 68 65 72 65 20 69 73 
       00000387 20 6E 6F 20 66 69 6C 65 20 62 
       00000391 65 69 6E 67 20 6F 70 65 6E 65 
       0000039B 64 2E 0A 00 
  2037 0000039F                                 LC53:
  2038 0000039F 69 6E 73 00                     	DB	"ins",0x00
  2039 000003A3                                 LC55:
  2040 000003A3 61 64 64 00                     	DB	"add",0x00
  2041 000003A7                                 LC57:
  2042 000003A7 73 68 6F 77 00                  	DB	"show",0x00
  2043 000003AC                                 LC62:
  2044 000003AC 63 6C 6F 73 65 00               	DB	"close",0x00
  2045 000003B2                                 LC65:
  2046 000003B2 73 61 76 65 00                  	DB	"save",0x00
  2047 000003B7                                 LC68:
  2048 000003B7 69 6E 76 61 6C 69 64 20 6F 70   	DB	"invalid option.",0x0A,0x00
       000003C1 74 69 6F 6E 2E 0A 00 
  2049 000003C8                                 LC67:
  2050 000003C8 66 69 6E 69 73 68 65 64 20 73   	DB	"finished saving opened file.",0x0A,0x00
       000003D2 61 76 69 6E 67 20 6F 70 65 6E 
       000003DC 65 64 20 66 69 6C 65 2E 0A 00 
  2051 000003E6                                 LC66:
  2052 000003E6 43 61 6E 27 74 20 73 61 76 65   	DB	"Can't save because of error in myfinfo_search() in myfsave()",0x0A,0x00
       000003F0 20 62 65 63 61 75 73 65 20 6F 
       000003FA 66 20 65 72 72 6F 72 20 69 6E 
       00000404 20 6D 79 66 69 6E 66 6F 5F 73 
       0000040E 65 61 72 63 68 28 29 20 69 6E 
       00000418 20 6D 79 66 73 61 76 65 28 29 
       00000422 0A 00 
  2053 00000424                                 LC63:
  2054 00000424 45 44 49 54 3A 63 6C 6F 73 65   	DB	"EDIT:close mode",0x0A,0x00
       0000042E 20 6D 6F 64 65 0A 00 
  2055 00000435                                 LC64:
  2056 00000435 6F 70 65 6E 65 64 20 66 69 6C   	DB	"opened file was closed.",0x0A,0x00
       0000043F 65 20 77 61 73 20 63 6C 6F 73 
       00000449 65 64 2E 0A 00 
  2057 0000044E                                 LC58:
  2058 0000044E 45 44 49 54 3A 73 68 6F 77 20   	DB	"EDIT:show mode",0x0A,0x00
       00000458 6D 6F 64 65 0A 00 
  2059 0000045E                                 LC59:
  2060 0000045E 73 65 74 66 64 61 74 61 2D 3E   	DB	"setfdata->head.stat=0x%02x",0x0A,0x00
       00000468 68 65 61 64 2E 73 74 61 74 3D 
       00000472 30 78 25 30 32 78 0A 00 
  2061 0000047A                                 LC60:
  2062 0000047A 25 73 5B 45 4F 46 5D 0A 00      	DB	"%s[EOF]",0x0A,0x00
  2063 00000483                                 LC56:
  2064 00000483 45 44 49 54 3A 61 64 64 20 6D   	DB	"EDIT:add mode",0x0A,0x00
       0000048D 6F 64 65 0A 00 
  2065 00000492                                 LC54:
  2066 00000492 45 44 49 54 3A 69 6E 73 65 72   	DB	"EDIT:insert mode",0x0A,0x00
       0000049C 74 20 6D 6F 64 65 0A 00 
  2067 000004A4                                 LC52:
  2068 000004A4 45 44 49 54 3A 63 6C 65 61 72   	DB	"EDIT:clear mode",0x0A,0x00
       000004AE 20 6D 6F 64 65 0A 00 
  2069 000004B5                                 LC50:
  2070 000004B5 45 44 49 54 3A 6F 70 65 6E 20   	DB	"EDIT:open mode",0x0A,0x00
       000004BF 6D 6F 64 65 0A 00 
  2071 000004C5                                 LC48:
  2072 000004C5 6F 70 74 69 6F 6E 20 69 73 20   	DB	"option is too long.",0x0A,0x00
       000004CF 74 6F 6F 20 6C 6F 6E 67 2E 0A 
       000004D9 00 
  2073                                          [SECTION .text]
  2074 000013A9                                 	GLOBAL	_cmd_edit
  2075 000013A9                                 _cmd_edit:
  2076 000013A9 55                              	PUSH	EBP
  2077 000013AA 89 E5                           	MOV	EBP,ESP
  2078 000013AC 57                              	PUSH	EDI
  2079 000013AD 56                              	PUSH	ESI
  2080 000013AE 53                              	PUSH	EBX
  2081 000013AF 81 EC 00000ACC                  	SUB	ESP,2764
  2082 000013B5 8B 45 08                        	MOV	EAX,DWORD [8+EBP]
  2083 000013B8 C6 85 FFFFF52B 00               	MOV	BYTE [-2773+EBP],0
  2084 000013BF 8B 40 14                        	MOV	EAX,DWORD [20+EAX]
  2085 000013C2 68 [0000003F]                   	PUSH	LC7
  2086 000013C7 89 85 FFFFF530                  	MOV	DWORD [-2768+EBP],EAX
  2087 000013CD 8D 85 FFFFFB74                  	LEA	EAX,DWORD [-1164+EBP]
  2088 000013D3 50                              	PUSH	EAX
  2089 000013D4 E8 [00000000]                   	CALL	_sprintf
  2090 000013D9 8D 85 FFFFFB34                  	LEA	EAX,DWORD [-1228+EBP]
  2091 000013DF 68 [0000003F]                   	PUSH	LC7
  2092 000013E4 50                              	PUSH	EAX
  2093 000013E5 E8 [00000000]                   	CALL	_sprintf
  2094 000013EA 8B 55 0C                        	MOV	EDX,DWORD [12+EBP]
  2095 000013ED C7 85 FFFFF52C 00000005         	MOV	DWORD [-2772+EBP],5
  2096 000013F7 83 C4 10                        	ADD	ESP,16
  2097 000013FA 80 7A 05 20                     	CMP	BYTE [5+EDX],32
  2098 000013FE 0F 84 0000055C                  	JE	L353
  2099 00001404                                 L409:
  2100 00001404 8B 55 0C                        	MOV	EDX,DWORD [12+EBP]
  2101 00001407 8B 8D FFFFF52C                  	MOV	ECX,DWORD [-2772+EBP]
  2102 0000140D 80 3C 11 2D                     	CMP	BYTE [ECX+EDX*1],45
  2103 00001411 0F 84 000002B7                  	JE	L428
  2104 00001417 83 3D [00000004] 00             	CMP	DWORD [_setfdata],0
  2105 0000141E 75 33                           	JNE	L380
  2106 00001420 80 BD FFFFF52B 08               	CMP	BYTE [-2773+EBP],8
  2107 00001427 74 2A                           	JE	L380
  2108 00001429 68 [00000253]                   	PUSH	LC69
  2109 0000142E                                 L427:
  2110 0000142E 8D 9D FFFFFB84                  	LEA	EBX,DWORD [-1148+EBP]
  2111 00001434 53                              	PUSH	EBX
  2112 00001435 E8 [00000000]                   	CALL	_sprintf
  2113 0000143A                                 L418:
  2114 0000143A 53                              	PUSH	EBX
  2115 0000143B FF 75 08                        	PUSH	DWORD [8+EBP]
  2116 0000143E E8 FFFFF5B7                     	CALL	_cons_putstr
  2117 00001443 FF 75 08                        	PUSH	DWORD [8+EBP]
  2118 00001446 E8 FFFFF48A                     	CALL	_cons_newline
  2119 0000144B                                 L349:
  2120 0000144B 8D 65 F4                        	LEA	ESP,DWORD [-12+EBP]
  2121 0000144E 5B                              	POP	EBX
  2122 0000144F 5E                              	POP	ESI
  2123 00001450 5F                              	POP	EDI
  2124 00001451 5D                              	POP	EBP
  2125 00001452 C3                              	RET
  2126 00001453                                 L380:
  2127 00001453 8B 4D 0C                        	MOV	ECX,DWORD [12+EBP]
  2128 00001456 8B 85 FFFFF52C                  	MOV	EAX,DWORD [-2772+EBP]
  2129 0000145C 31 DB                           	XOR	EBX,EBX
  2130 0000145E 80 3C 08 00                     	CMP	BYTE [EAX+ECX*1],0
  2131 00001462 74 2A                           	JE	L412
  2132 00001464                                 L386:
  2133 00001464 83 FB 2F                        	CMP	EBX,47
  2134 00001467 0F 8F 00000257                  	JG	L416
  2135 0000146D 8B 8D FFFFF52C                  	MOV	ECX,DWORD [-2772+EBP]
  2136 00001473 8B 55 0C                        	MOV	EDX,DWORD [12+EBP]
  2137 00001476 8A 04 11                        	MOV	AL,BYTE [ECX+EDX*1]
  2138 00001479 41                              	INC	ECX
  2139 0000147A 88 84 1D FFFFFB34               	MOV	BYTE [-1228+EBP+EBX*1],AL
  2140 00001481 89 8D FFFFF52C                  	MOV	DWORD [-2772+EBP],ECX
  2141 00001487 43                              	INC	EBX
  2142 00001488 80 3C 11 00                     	CMP	BYTE [ECX+EDX*1],0
  2143 0000148C 75 D6                           	JNE	L386
  2144 0000148E                                 L412:
  2145 0000148E C6 84 1D FFFFFB34 00            	MOV	BYTE [-1228+EBP+EBX*1],0
  2146 00001496 80 BD FFFFF52B 00               	CMP	BYTE [-2773+EBP],0
  2147 0000149D 0F 84 000001D4                  	JE	L388
  2148 000014A3 80 BD FFFFF52B 04               	CMP	BYTE [-2773+EBP],4
  2149 000014AA 0F 84 000001C7                  	JE	L388
  2150 000014B0 80 BD FFFFF52B 01               	CMP	BYTE [-2773+EBP],1
  2151 000014B7 0F 84 0000017C                  	JE	L429
  2152 000014BD 80 BD FFFFF52B 02               	CMP	BYTE [-2773+EBP],2
  2153 000014C4 0F 84 000000E3                  	JE	L430
  2154 000014CA 80 BD FFFFF52B 08               	CMP	BYTE [-2773+EBP],8
  2155 000014D1 74 57                           	JE	L431
  2156 000014D3 68 [0000027F]                   	PUSH	LC77
  2157 000014D8 E8 FFFFEB23                     	CALL	_debug_print
  2158 000014DD 5F                              	POP	EDI
  2159 000014DE                                 L389:
  2160 000014DE FF 35 [00000004]                	PUSH	DWORD [_setfdata]
  2161 000014E4 8D 9D FFFFF934                  	LEA	EBX,DWORD [-1740+EBP]
  2162 000014EA 53                              	PUSH	EBX
  2163 000014EB E8 [00000000]                   	CALL	_myfread
  2164 000014F0 53                              	PUSH	EBX
  2165 000014F1 68 [0000029F]                   	PUSH	LC78
  2166 000014F6 8D 9D FFFFFB84                  	LEA	EBX,DWORD [-1148+EBP]
  2167 000014FC 53                              	PUSH	EBX
  2168 000014FD E8 [00000000]                   	CALL	_sprintf
  2169 00001502 53                              	PUSH	EBX
  2170 00001503 FF 75 08                        	PUSH	DWORD [8+EBP]
  2171 00001506 E8 FFFFF4EF                     	CALL	_cons_putstr
  2172 0000150B FF 35 [00000004]                	PUSH	DWORD [_setfdata]
  2173 00001511 E8 [00000000]                   	CALL	_get_size_myfdata
  2174 00001516 83 C4 20                        	ADD	ESP,32
  2175 00001519                                 L421:
  2176 00001519 50                              	PUSH	EAX
  2177 0000151A 68 [000002B5]                   	PUSH	LC61
  2178 0000151F 53                              	PUSH	EBX
  2179 00001520 E8 [00000000]                   	CALL	_sprintf
  2180 00001525 E9 FFFFFF10                     	JMP	L418
  2181 0000152A                                 L431:
  2182 0000152A 83 3D [00000004] 00             	CMP	DWORD [_setfdata],0
  2183 00001531 74 0A                           	JE	L404
  2184 00001533 68 [000002C5]                   	PUSH	LC74
  2185 00001538 E9 FFFFFEF1                     	JMP	L427
  2186 0000153D                                 L404:
  2187 0000153D FF B5 FFFFF530                  	PUSH	DWORD [-2768+EBP]
  2188 00001543 8D 9D FFFFFB34                  	LEA	EBX,DWORD [-1228+EBP]
  2189 00001549 53                              	PUSH	EBX
  2190 0000154A E8 [00000000]                   	CALL	_myfopen
  2191 0000154F 89 C6                           	MOV	ESI,EAX
  2192 00001551 58                              	POP	EAX
  2193 00001552 5A                              	POP	EDX
  2194 00001553 85 F6                           	TEST	ESI,ESI
  2195 00001555 74 31                           	JE	L432
  2196 00001557 53                              	PUSH	EBX
  2197 00001558 8D 9D FFFFFB84                  	LEA	EBX,DWORD [-1148+EBP]
  2198 0000155E 68 [000002F0]                   	PUSH	LC76
  2199 00001563 53                              	PUSH	EBX
  2200 00001564 E8 [00000000]                   	CALL	_sprintf
  2201 00001569 53                              	PUSH	EBX
  2202 0000156A FF 75 08                        	PUSH	DWORD [8+EBP]
  2203 0000156D E8 FFFFF488                     	CALL	_cons_putstr
  2204 00001572 FF 75 08                        	PUSH	DWORD [8+EBP]
  2205 00001575 E8 FFFFF35B                     	CALL	_cons_newline
  2206 0000157A 89 35 [00000004]                	MOV	DWORD [_setfdata],ESI
  2207 00001580                                 L419:
  2208 00001580 83 C4 18                        	ADD	ESP,24
  2209 00001583 E9 FFFFFEC3                     	JMP	L349
  2210 00001588                                 L432:
  2211 00001588 53                              	PUSH	EBX
  2212 00001589 8D 9D FFFFFB84                  	LEA	EBX,DWORD [-1148+EBP]
  2213 0000158F 68 [00000303]                   	PUSH	LC75
  2214 00001594 53                              	PUSH	EBX
  2215 00001595 E8 [00000000]                   	CALL	_sprintf
  2216 0000159A 53                              	PUSH	EBX
  2217 0000159B FF 75 08                        	PUSH	DWORD [8+EBP]
  2218 0000159E E8 FFFFF457                     	CALL	_cons_putstr
  2219 000015A3 FF 75 08                        	PUSH	DWORD [8+EBP]
  2220 000015A6 E8 FFFFF32A                     	CALL	_cons_newline
  2221 000015AB EB D3                           	JMP	L419
  2222 000015AD                                 L430:
  2223 000015AD FF 35 [00000004]                	PUSH	DWORD [_setfdata]
  2224 000015B3 8D 85 FFFFF534                  	LEA	EAX,DWORD [-2764+EBP]
  2225 000015B9 31 F6                           	XOR	ESI,ESI
  2226 000015BB 50                              	PUSH	EAX
  2227 000015BC E8 [00000000]                   	CALL	_myfread
  2228 000015C1 59                              	POP	ECX
  2229 000015C2 31 C0                           	XOR	EAX,EAX
  2230 000015C4 5F                              	POP	EDI
  2231 000015C5 39 D8                           	CMP	EAX,EBX
  2232 000015C7 7D 18                           	JGE	L414
  2233 000015C9                                 L400:
  2234 000015C9 8A 94 05 FFFFFB34               	MOV	DL,BYTE [-1228+EBP+EAX*1]
  2235 000015D0 80 FA 20                        	CMP	DL,32
  2236 000015D3 74 4B                           	JE	L397
  2237 000015D5 88 94 05 FFFFF534               	MOV	BYTE [-2764+EBP+EAX*1],DL
  2238 000015DC                                 L395:
  2239 000015DC 40                              	INC	EAX
  2240 000015DD 39 D8                           	CMP	EAX,EBX
  2241 000015DF 7C E8                           	JL	L400
  2242 000015E1                                 L414:
  2243 000015E1 4E                              	DEC	ESI
  2244 000015E2 74 32                           	JE	L433
  2245 000015E4                                 L401:
  2246 000015E4 8D B5 FFFFF534                  	LEA	ESI,DWORD [-2764+EBP]
  2247 000015EA 8D 9D FFFFFB84                  	LEA	EBX,DWORD [-1148+EBP]
  2248 000015F0 56                              	PUSH	ESI
  2249 000015F1 68 [00000315]                   	PUSH	LC73
  2250 000015F6 53                              	PUSH	EBX
  2251 000015F7 E8 [00000000]                   	CALL	_sprintf
  2252 000015FC 53                              	PUSH	EBX
  2253 000015FD E8 FFFFE9FE                     	CALL	_debug_print
  2254 00001602 56                              	PUSH	ESI
  2255 00001603 FF 35 [00000004]                	PUSH	DWORD [_setfdata]
  2256 00001609 E8 [00000000]                   	CALL	_myfwrite
  2257 0000160E 83 C4 18                        	ADD	ESP,24
  2258 00001611 E9 FFFFFEC8                     	JMP	L389
  2259 00001616                                 L433:
  2260 00001616 C6 84 05 FFFFF534 00            	MOV	BYTE [-2764+EBP+EAX*1],0
  2261 0000161E EB C4                           	JMP	L401
  2262 00001620                                 L397:
  2263 00001620 80 BC 05 FFFFF534 00            	CMP	BYTE [-2764+EBP+EAX*1],0
  2264 00001628 75 B2                           	JNE	L395
  2265 0000162A C6 84 05 FFFFF534 20            	MOV	BYTE [-2764+EBP+EAX*1],32
  2266 00001632 BE 00000001                     	MOV	ESI,1
  2267 00001637 EB A3                           	JMP	L395
  2268 00001639                                 L429:
  2269 00001639 FF 35 [00000004]                	PUSH	DWORD [_setfdata]
  2270 0000163F 8D 9D FFFFF534                  	LEA	EBX,DWORD [-2764+EBP]
  2271 00001645 53                              	PUSH	EBX
  2272 00001646 E8 [00000000]                   	CALL	_myfread
  2273 0000164B 68 [0000003F]                   	PUSH	LC7
  2274 00001650 53                              	PUSH	EBX
  2275 00001651 E8 [00000000]                   	CALL	_sprintf
  2276 00001656 8D 85 FFFFFB34                  	LEA	EAX,DWORD [-1228+EBP]
  2277 0000165C 50                              	PUSH	EAX
  2278 0000165D 53                              	PUSH	EBX
  2279 0000165E E8 [00000000]                   	CALL	_strcat
  2280 00001663 53                              	PUSH	EBX
  2281 00001664 FF 35 [00000004]                	PUSH	DWORD [_setfdata]
  2282 0000166A E8 [00000000]                   	CALL	_myfwrite
  2283 0000166F 83 C4 20                        	ADD	ESP,32
  2284 00001672 E9 FFFFFE67                     	JMP	L389
  2285 00001677                                 L388:
  2286 00001677 FF 35 [00000004]                	PUSH	DWORD [_setfdata]
  2287 0000167D 8D 9D FFFFFB84                  	LEA	EBX,DWORD [-1148+EBP]
  2288 00001683 53                              	PUSH	EBX
  2289 00001684 E8 [00000000]                   	CALL	_myfread
  2290 00001689 8D 85 FFFFFB34                  	LEA	EAX,DWORD [-1228+EBP]
  2291 0000168F 50                              	PUSH	EAX
  2292 00001690 53                              	PUSH	EBX
  2293 00001691 E8 [00000000]                   	CALL	_strcat
  2294 00001696 68 [0000032A]                   	PUSH	LC71
  2295 0000169B E8 FFFFE960                     	CALL	_debug_print
  2296 000016A0 53                              	PUSH	EBX
  2297 000016A1 E8 FFFFE95A                     	CALL	_debug_print
  2298 000016A6 68 [00000355]                   	PUSH	LC72
  2299 000016AB E8 FFFFE950                     	CALL	_debug_print
  2300 000016B0 53                              	PUSH	EBX
  2301 000016B1 FF 35 [00000004]                	PUSH	DWORD [_setfdata]
  2302 000016B7 E8 [00000000]                   	CALL	_myfwrite
  2303 000016BC 83 C4 24                        	ADD	ESP,36
  2304 000016BF E9 FFFFFE1A                     	JMP	L389
  2305 000016C4                                 L416:
  2306 000016C4 68 [00000357]                   	PUSH	LC70
  2307 000016C9 E9 FFFFFD60                     	JMP	L427
  2308 000016CE                                 L428:
  2309 000016CE 41                              	INC	ECX
  2310 000016CF 31 DB                           	XOR	EBX,EBX
  2311 000016D1 89 8D FFFFF52C                  	MOV	DWORD [-2772+EBP],ECX
  2312 000016D7 8A 04 11                        	MOV	AL,BYTE [ECX+EDX*1]
  2313 000016DA 3C 20                           	CMP	AL,32
  2314 000016DC 74 33                           	JE	L356
  2315 000016DE 84 C0                           	TEST	AL,AL
  2316 000016E0 74 2F                           	JE	L356
  2317 000016E2                                 L360:
  2318 000016E2 83 FB 09                        	CMP	EBX,9
  2319 000016E5 0F 8F 0000026B                  	JG	L415
  2320 000016EB 8B 8D FFFFF52C                  	MOV	ECX,DWORD [-2772+EBP]
  2321 000016F1 8B 55 0C                        	MOV	EDX,DWORD [12+EBP]
  2322 000016F4 8A 04 11                        	MOV	AL,BYTE [ECX+EDX*1]
  2323 000016F7 41                              	INC	ECX
  2324 000016F8 88 84 1D FFFFFB74               	MOV	BYTE [-1164+EBP+EBX*1],AL
  2325 000016FF 89 8D FFFFF52C                  	MOV	DWORD [-2772+EBP],ECX
  2326 00001705 8A 04 11                        	MOV	AL,BYTE [ECX+EDX*1]
  2327 00001708 43                              	INC	EBX
  2328 00001709 3C 20                           	CMP	AL,32
  2329 0000170B 74 04                           	JE	L356
  2330 0000170D 84 C0                           	TEST	AL,AL
  2331 0000170F 75 D1                           	JNE	L360
  2332 00001711                                 L356:
  2333 00001711 FC                              	CLD
  2334 00001712 C6 84 1D FFFFFB74 00            	MOV	BYTE [-1164+EBP+EBX*1],0
  2335 0000171A 8D B5 FFFFFB74                  	LEA	ESI,DWORD [-1164+EBP]
  2336 00001720 BF [0000036E]                   	MOV	EDI,LC49
  2337 00001725 B9 00000005                     	MOV	ECX,5
  2338 0000172A F3                              	REPE
  2339 0000172B A6                              	CMPSB
  2340 0000172C 0F 84 0000020D                  	JE	L434
  2341 00001732                                 L361:
  2342 00001732 83 3D [00000004] 00             	CMP	DWORD [_setfdata],0
  2343 00001739 75 13                           	JNE	L362
  2344 0000173B 80 BD FFFFF52B 08               	CMP	BYTE [-2773+EBP],8
  2345 00001742 74 0A                           	JE	L362
  2346 00001744 68 [00000373]                   	PUSH	LC51
  2347 00001749 E9 FFFFFCE0                     	JMP	L427
  2348 0000174E                                 L362:
  2349 0000174E FC                              	CLD
  2350 0000174F 8D B5 FFFFFB74                  	LEA	ESI,DWORD [-1164+EBP]
  2351 00001755 BF [00000056]                   	MOV	EDI,LC13
  2352 0000175A B9 00000004                     	MOV	ECX,4
  2353 0000175F F3                              	REPE
  2354 00001760 A6                              	CMPSB
  2355 00001761 0F 84 000001AF                  	JE	L435
  2356 00001767 FC                              	CLD
  2357 00001768 8D B5 FFFFFB74                  	LEA	ESI,DWORD [-1164+EBP]
  2358 0000176E BF [0000039F]                   	MOV	EDI,LC53
  2359 00001773 B9 00000004                     	MOV	ECX,4
  2360 00001778 F3                              	REPE
  2361 00001779 A6                              	CMPSB
  2362 0000177A 0F 84 00000183                  	JE	L436
  2363 00001780 FC                              	CLD
  2364 00001781 8D B5 FFFFFB74                  	LEA	ESI,DWORD [-1164+EBP]
  2365 00001787 BF [000003A3]                   	MOV	EDI,LC55
  2366 0000178C B9 00000004                     	MOV	ECX,4
  2367 00001791 F3                              	REPE
  2368 00001792 A6                              	CMPSB
  2369 00001793 0F 84 00000153                  	JE	L437
  2370 00001799 FC                              	CLD
  2371 0000179A 8D B5 FFFFFB74                  	LEA	ESI,DWORD [-1164+EBP]
  2372 000017A0 BF [000003A7]                   	MOV	EDI,LC57
  2373 000017A5 B9 00000005                     	MOV	ECX,5
  2374 000017AA F3                              	REPE
  2375 000017AB A6                              	CMPSB
  2376 000017AC 0F 84 000000D5                  	JE	L438
  2377 000017B2 FC                              	CLD
  2378 000017B3 8D B5 FFFFFB74                  	LEA	ESI,DWORD [-1164+EBP]
  2379 000017B9 BF [000003AC]                   	MOV	EDI,LC62
  2380 000017BE B9 00000006                     	MOV	ECX,6
  2381 000017C3 F3                              	REPE
  2382 000017C4 A6                              	CMPSB
  2383 000017C5 0F 84 00000093                  	JE	L439
  2384 000017CB FC                              	CLD
  2385 000017CC 8D B5 FFFFFB74                  	LEA	ESI,DWORD [-1164+EBP]
  2386 000017D2 BF [000003B2]                   	MOV	EDI,LC65
  2387 000017D7 B9 00000005                     	MOV	ECX,5
  2388 000017DC F3                              	REPE
  2389 000017DD A6                              	CMPSB
  2390 000017DE 74 3E                           	JE	L440
  2391 000017E0 FC                              	CLD
  2392 000017E1 8D B5 FFFFFB74                  	LEA	ESI,DWORD [-1164+EBP]
  2393 000017E7 BF [0000036E]                   	MOV	EDI,LC49
  2394 000017EC B9 00000005                     	MOV	ECX,5
  2395 000017F1 F3                              	REPE
  2396 000017F2 A6                              	CMPSB
  2397 000017F3 75 1F                           	JNE	L441
  2398 000017F5                                 L364:
  2399 000017F5 8B 45 0C                        	MOV	EAX,DWORD [12+EBP]
  2400 000017F8 8B 95 FFFFF52C                  	MOV	EDX,DWORD [-2772+EBP]
  2401 000017FE 80 3C 02 20                     	CMP	BYTE [EDX+EAX*1],32
  2402 00001802 0F 85 FFFFFC4B                  	JNE	L380
  2403 00001808 42                              	INC	EDX
  2404 00001809 89 95 FFFFF52C                  	MOV	DWORD [-2772+EBP],EDX
  2405 0000180F E9 FFFFFC3F                     	JMP	L380
  2406 00001814                                 L441:
  2407 00001814 68 [000003B7]                   	PUSH	LC68
  2408 00001819 E9 FFFFFC10                     	JMP	L427
  2409 0000181E                                 L440:
  2410 0000181E FF 35 [00000004]                	PUSH	DWORD [_setfdata]
  2411 00001824 E8 [00000000]                   	CALL	_myfsave
  2412 00001829 5A                              	POP	EDX
  2413 0000182A 40                              	INC	EAX
  2414 0000182B 74 0A                           	JE	L442
  2415 0000182D 68 [000003C8]                   	PUSH	LC67
  2416 00001832 E9 FFFFFBF7                     	JMP	L427
  2417 00001837                                 L442:
  2418 00001837 68 [000003E6]                   	PUSH	LC66
  2419 0000183C 8D 9D FFFFFB84                  	LEA	EBX,DWORD [-1148+EBP]
  2420 00001842 53                              	PUSH	EBX
  2421 00001843 E8 [00000000]                   	CALL	_sprintf
  2422 00001848 53                              	PUSH	EBX
  2423 00001849 FF 75 08                        	PUSH	DWORD [8+EBP]
  2424 0000184C E8 FFFFF1A9                     	CALL	_cons_putstr
  2425 00001851 FF 75 08                        	PUSH	DWORD [8+EBP]
  2426 00001854 E8 FFFFF07C                     	CALL	_cons_newline
  2427 00001859 83 C4 14                        	ADD	ESP,20
  2428 0000185C EB 97                           	JMP	L364
  2429 0000185E                                 L439:
  2430 0000185E 68 [00000424]                   	PUSH	LC63
  2431 00001863 E8 FFFFE798                     	CALL	_debug_print
  2432 00001868 FF 35 [00000004]                	PUSH	DWORD [_setfdata]
  2433 0000186E E8 [00000000]                   	CALL	_myfclose
  2434 00001873 68 [00000435]                   	PUSH	LC64
  2435 00001878 C7 05 [00000004] 00000000       	MOV	DWORD [_setfdata],0
  2436 00001882 E9 FFFFFBA7                     	JMP	L427
  2437 00001887                                 L438:
  2438 00001887 68 [0000044E]                   	PUSH	LC58
  2439 0000188C 8D B5 FFFFF934                  	LEA	ESI,DWORD [-1740+EBP]
  2440 00001892 8D 9D FFFFFB84                  	LEA	EBX,DWORD [-1148+EBP]
  2441 00001898 E8 FFFFE763                     	CALL	_debug_print
  2442 0000189D FF 35 [00000004]                	PUSH	DWORD [_setfdata]
  2443 000018A3 56                              	PUSH	ESI
  2444 000018A4 E8 [00000000]                   	CALL	_myfread
  2445 000018A9 A1 [00000004]                   	MOV	EAX,DWORD [_setfdata]
  2446 000018AE 0F B6 00                        	MOVZX	EAX,BYTE [EAX]
  2447 000018B1 50                              	PUSH	EAX
  2448 000018B2 68 [0000045E]                   	PUSH	LC59
  2449 000018B7 53                              	PUSH	EBX
  2450 000018B8 E8 [00000000]                   	CALL	_sprintf
  2451 000018BD 53                              	PUSH	EBX
  2452 000018BE E8 FFFFE73D                     	CALL	_debug_print
  2453 000018C3 56                              	PUSH	ESI
  2454 000018C4 68 [0000047A]                   	PUSH	LC60
  2455 000018C9 53                              	PUSH	EBX
  2456 000018CA E8 [00000000]                   	CALL	_sprintf
  2457 000018CF 83 C4 28                        	ADD	ESP,40
  2458 000018D2 53                              	PUSH	EBX
  2459 000018D3 FF 75 08                        	PUSH	DWORD [8+EBP]
  2460 000018D6 E8 FFFFF11F                     	CALL	_cons_putstr
  2461 000018DB FF 35 [00000004]                	PUSH	DWORD [_setfdata]
  2462 000018E1 E8 [00000000]                   	CALL	_get_size_myfdata
  2463 000018E6 59                              	POP	ECX
  2464 000018E7 E9 FFFFFC2D                     	JMP	L421
  2465 000018EC                                 L437:
  2466 000018EC 68 [00000483]                   	PUSH	LC56
  2467 000018F1 E8 FFFFE70A                     	CALL	_debug_print
  2468 000018F6 C6 85 FFFFF52B 04               	MOV	BYTE [-2773+EBP],4
  2469 000018FD                                 L417:
  2470 000018FD 5B                              	POP	EBX
  2471 000018FE E9 FFFFFEF2                     	JMP	L364
  2472 00001903                                 L436:
  2473 00001903 68 [00000492]                   	PUSH	LC54
  2474 00001908 E8 FFFFE6F3                     	CALL	_debug_print
  2475 0000190D C6 85 FFFFF52B 02               	MOV	BYTE [-2773+EBP],2
  2476 00001914 EB E7                           	JMP	L417
  2477 00001916                                 L435:
  2478 00001916 68 [000004A4]                   	PUSH	LC52
  2479 0000191B E8 FFFFE6E0                     	CALL	_debug_print
  2480 00001920 68 [0000003F]                   	PUSH	LC7
  2481 00001925 FF 35 [00000004]                	PUSH	DWORD [_setfdata]
  2482 0000192B C6 85 FFFFF52B 01               	MOV	BYTE [-2773+EBP],1
  2483 00001932 E8 [00000000]                   	CALL	_myfwrite
  2484 00001937 83 C4 0C                        	ADD	ESP,12
  2485 0000193A E9 FFFFFEB6                     	JMP	L364
  2486 0000193F                                 L434:
  2487 0000193F 68 [000004B5]                   	PUSH	LC50
  2488 00001944 E8 FFFFE6B7                     	CALL	_debug_print
  2489 00001949 5E                              	POP	ESI
  2490 0000194A C6 85 FFFFF52B 08               	MOV	BYTE [-2773+EBP],8
  2491 00001951 E9 FFFFFDDC                     	JMP	L361
  2492 00001956                                 L415:
  2493 00001956 68 [000004C5]                   	PUSH	LC48
  2494 0000195B E9 FFFFFACE                     	JMP	L427
  2495 00001960                                 L353:
  2496 00001960 8B 4D 0C                        	MOV	ECX,DWORD [12+EBP]
  2497 00001963 FF 85 FFFFF52C                  	INC	DWORD [-2772+EBP]
  2498 00001969 8B 85 FFFFF52C                  	MOV	EAX,DWORD [-2772+EBP]
  2499 0000196F 80 3C 08 20                     	CMP	BYTE [EAX+ECX*1],32
  2500 00001973 74 EB                           	JE	L353
  2501 00001975 E9 FFFFFA8A                     	JMP	L409
  2502                                          [SECTION .data]
  2503 000004DA                                 LC79:
  2504 000004DA 64 69 72 65 63 74 6F 72 79 20   	DB	"directory name shoule be within 8 letters.",0x0A,0x00
       000004E4 6E 61 6D 65 20 73 68 6F 75 6C 
       000004EE 65 20 62 65 20 77 69 74 68 69 
       000004F8 6E 20 38 20 6C 65 74 74 65 72 
       00000502 73 2E 0A 00 
  2505 00000506                                 LC80:
  2506 00000506 74 68 69 73 20 64 69 72 65 63   	DB	"this directory name is already used, please use other name.",0x0A,0x00
       00000510 74 6F 72 79 20 6E 61 6D 65 20 
       0000051A 69 73 20 61 6C 72 65 61 64 79 
       00000524 20 75 73 65 64 2C 20 70 6C 65 
       0000052E 61 73 65 20 75 73 65 20 6F 74 
       00000538 68 65 72 20 6E 61 6D 65 2E 0A 
       00000542 00 
  2507 00000543                                 LC81:
  2508 00000543 09 6E 61 6D 65 20 3D 20 25 73   	DB	0x09,"name = %s",0x0A,0x09,"ext = %s",0x0A,0x09,"type = 0x%02x",0x0A,0x00
       0000054D 0A 09 65 78 74 20 3D 20 25 73 
       00000557 0A 09 74 79 70 65 20 3D 20 30 
       00000561 78 25 30 32 78 0A 00 
  2509 00000568                                 LC82:
  2510 00000568 63 72 65 61 74 65 64 20 64 69   	DB	"created directory: name = %s",0x0A,0x00
       00000572 72 65 63 74 6F 72 79 3A 20 6E 
       0000057C 61 6D 65 20 3D 20 25 73 0A 00 
  2511 00000586                                 LC83:
  2512 00000586 09 63 68 69 6C 64 20 64 69 72   	DB	0x09,"child dir address = 0x%08x",0x0A,0x00
       00000590 20 61 64 64 72 65 73 73 20 3D 
       0000059A 20 30 78 25 30 38 78 0A 00 
  2513 000005A3                                 LC84:
  2514 000005A3 09 74 79 70 65 3D 30 78 25 30   	DB	0x09,"type=0x%02x",0x0A,0x00
       000005AD 32 78 0A 00 
  2515 000005B1                                 LC85:
  2516 000005B1 09 63 68 69 6C 64 20 64 69 6E   	DB	0x09,"child dinfo addr = 0x%08x",0x0A,0x00
       000005BB 66 6F 20 61 64 64 72 20 3D 20 
       000005C5 30 78 25 30 38 78 0A 00 
  2517 000005CD                                 LC86:
  2518 000005CD 09 63 68 69 6C 64 20 64 69 6E   	DB	0x09,"child dinfo name = %s",0x0A,0x00
       000005D7 66 6F 20 6E 61 6D 65 20 3D 20 
       000005E1 25 73 0A 00 
  2519 000005E5                                 LC87:
  2520 000005E5 09 63 68 69 6C 64 20 64 69 6E   	DB	0x09,"child dinfo parent addr = 0x%08x",0x0A,0x00
       000005EF 66 6F 20 70 61 72 65 6E 74 20 
       000005F9 61 64 64 72 20 3D 20 30 78 25 
       00000603 30 38 78 0A 00 
  2521                                          [SECTION .text]
  2522 0000197A                                 	GLOBAL	_cmd_mkdir
  2523 0000197A                                 _cmd_mkdir:
  2524 0000197A 55                              	PUSH	EBP
  2525 0000197B 89 E5                           	MOV	EBP,ESP
  2526 0000197D 57                              	PUSH	EDI
  2527 0000197E 56                              	PUSH	ESI
  2528 0000197F 53                              	PUSH	EBX
  2529 00001980 31 DB                           	XOR	EBX,EBX
  2530 00001982 83 EC 48                        	SUB	ESP,72
  2531 00001985 8B 45 0C                        	MOV	EAX,DWORD [12+EBP]
  2532 00001988 8B 55 08                        	MOV	EDX,DWORD [8+EBP]
  2533 0000198B 8D 70 06                        	LEA	ESI,DWORD [6+EAX]
  2534 0000198E 8B 52 14                        	MOV	EDX,DWORD [20+EDX]
  2535 00001991 89 55 AC                        	MOV	DWORD [-84+EBP],EDX
  2536 00001994 89 75 B0                        	MOV	DWORD [-80+EBP],ESI
  2537 00001997 80 78 06 00                     	CMP	BYTE [6+EAX],0
  2538 0000199B 74 0A                           	JE	L470
  2539 0000199D                                 L448:
  2540 0000199D 43                              	INC	EBX
  2541 0000199E 8B 45 B0                        	MOV	EAX,DWORD [-80+EBP]
  2542 000019A1 80 3C 03 00                     	CMP	BYTE [EBX+EAX*1],0
  2543 000019A5 75 F6                           	JNE	L448
  2544 000019A7                                 L470:
  2545 000019A7 83 FB 08                        	CMP	EBX,8
  2546 000019AA 7E 27                           	JLE	L449
  2547 000019AC 68 [000004DA]                   	PUSH	LC79
  2548 000019B1 8D 5D B4                        	LEA	EBX,DWORD [-76+EBP]
  2549 000019B4 53                              	PUSH	EBX
  2550 000019B5 E8 [00000000]                   	CALL	_sprintf
  2551 000019BA 53                              	PUSH	EBX
  2552 000019BB FF 75 08                        	PUSH	DWORD [8+EBP]
  2553 000019BE E8 FFFFF037                     	CALL	_cons_putstr
  2554 000019C3                                 L477:
  2555 000019C3 FF 75 08                        	PUSH	DWORD [8+EBP]
  2556 000019C6 E8 FFFFEF0A                     	CALL	_cons_newline
  2557 000019CB 8D 65 F4                        	LEA	ESP,DWORD [-12+EBP]
  2558 000019CE 5B                              	POP	EBX
  2559 000019CF 5E                              	POP	ESI
  2560 000019D0 5F                              	POP	EDI
  2561 000019D1 5D                              	POP	EBP
  2562 000019D2 C3                              	RET
  2563 000019D3                                 L449:
  2564 000019D3 6A 32                           	PUSH	50
  2565 000019D5 FF 75 AC                        	PUSH	DWORD [-84+EBP]
  2566 000019D8 FF 75 B0                        	PUSH	DWORD [-80+EBP]
  2567 000019DB E8 [00000000]                   	CALL	_myfinfo_search
  2568 000019E0 83 C4 0C                        	ADD	ESP,12
  2569 000019E3 89 C6                           	MOV	ESI,EAX
  2570 000019E5 85 C0                           	TEST	EAX,EAX
  2571 000019E7 74 37                           	JE	L450
  2572 000019E9 68 [00000506]                   	PUSH	LC80
  2573 000019EE 8D 5D B4                        	LEA	EBX,DWORD [-76+EBP]
  2574 000019F1 53                              	PUSH	EBX
  2575 000019F2 E8 [00000000]                   	CALL	_sprintf
  2576 000019F7 53                              	PUSH	EBX
  2577 000019F8 FF 75 08                        	PUSH	DWORD [8+EBP]
  2578 000019FB E8 FFFFEFFA                     	CALL	_cons_putstr
  2579 00001A00 0F B6 46 0B                     	MOVZX	EAX,BYTE [11+ESI]
  2580 00001A04 50                              	PUSH	EAX
  2581 00001A05 8D 46 08                        	LEA	EAX,DWORD [8+ESI]
  2582 00001A08 50                              	PUSH	EAX
  2583 00001A09 56                              	PUSH	ESI
  2584 00001A0A 68 [00000543]                   	PUSH	LC81
  2585 00001A0F 53                              	PUSH	EBX
  2586 00001A10 E8 [00000000]                   	CALL	_sprintf
  2587 00001A15 83 C4 24                        	ADD	ESP,36
  2588 00001A18                                 L476:
  2589 00001A18 53                              	PUSH	EBX
  2590 00001A19 E8 FFFFE5E2                     	CALL	_debug_print
  2591 00001A1E EB A3                           	JMP	L477
  2592 00001A20                                 L450:
  2593 00001A20 31 DB                           	XOR	EBX,EBX
  2594 00001A22 8B 45 AC                        	MOV	EAX,DWORD [-84+EBP]
  2595 00001A25                                 L457:
  2596 00001A25 80 38 00                        	CMP	BYTE [EAX],0
  2597 00001A28 74 09                           	JE	L453
  2598 00001A2A 43                              	INC	EBX
  2599 00001A2B 83 C0 28                        	ADD	EAX,40
  2600 00001A2E 83 FB 31                        	CMP	EBX,49
  2601 00001A31 7E F2                           	JLE	L457
  2602 00001A33                                 L453:
  2603 00001A33 8B 55 B0                        	MOV	EDX,DWORD [-80+EBP]
  2604 00001A36 31 C9                           	XOR	ECX,ECX
  2605 00001A38 80 3A 00                        	CMP	BYTE [EDX],0
  2606 00001A3B 74 29                           	JE	L473
  2607 00001A3D                                 L463:
  2608 00001A3D 8B 75 B0                        	MOV	ESI,DWORD [-80+EBP]
  2609 00001A40 8A 14 31                        	MOV	DL,BYTE [ECX+ESI*1]
  2610 00001A43 8D 42 9F                        	LEA	EAX,DWORD [-97+EDX]
  2611 00001A46 3C 19                           	CMP	AL,25
  2612 00001A48 77 06                           	JA	L462
  2613 00001A4A 8D 42 E0                        	LEA	EAX,DWORD [-32+EDX]
  2614 00001A4D 88 04 31                        	MOV	BYTE [ECX+ESI*1],AL
  2615 00001A50                                 L462:
  2616 00001A50 6B C3 28                        	IMUL	EAX,EBX,40
  2617 00001A53 8B 75 B0                        	MOV	ESI,DWORD [-80+EBP]
  2618 00001A56 03 45 AC                        	ADD	EAX,DWORD [-84+EBP]
  2619 00001A59 8A 14 31                        	MOV	DL,BYTE [ECX+ESI*1]
  2620 00001A5C 88 14 01                        	MOV	BYTE [ECX+EAX*1],DL
  2621 00001A5F 41                              	INC	ECX
  2622 00001A60 80 3C 31 00                     	CMP	BYTE [ECX+ESI*1],0
  2623 00001A64 75 D7                           	JNE	L463
  2624 00001A66                                 L473:
  2625 00001A66 83 F9 07                        	CMP	ECX,7
  2626 00001A69 7F 10                           	JG	L475
  2627 00001A6B                                 L468:
  2628 00001A6B 6B C3 28                        	IMUL	EAX,EBX,40
  2629 00001A6E 03 45 AC                        	ADD	EAX,DWORD [-84+EBP]
  2630 00001A71 C6 04 01 20                     	MOV	BYTE [ECX+EAX*1],32
  2631 00001A75 41                              	INC	ECX
  2632 00001A76 83 F9 07                        	CMP	ECX,7
  2633 00001A79 7E F0                           	JLE	L468
  2634 00001A7B                                 L475:
  2635 00001A7B 6B FB 28                        	IMUL	EDI,EBX,40
  2636 00001A7E 8B 45 AC                        	MOV	EAX,DWORD [-84+EBP]
  2637 00001A81 8D 5D B4                        	LEA	EBX,DWORD [-76+EBP]
  2638 00001A84 8D 34 38                        	LEA	ESI,DWORD [EAX+EDI*1]
  2639 00001A87 E8 [00000000]                   	CALL	_get_newdinfo
  2640 00001A8C 8B 55 AC                        	MOV	EDX,DWORD [-84+EBP]
  2641 00001A8F 89 46 20                        	MOV	DWORD [32+ESI],EAX
  2642 00001A92 8D 46 10                        	LEA	EAX,DWORD [16+ESI]
  2643 00001A95 C6 44 3A 0B 10                  	MOV	BYTE [11+EDX+EDI*1],16
  2644 00001A9A C7 46 1C 00000028               	MOV	DWORD [28+ESI],40
  2645 00001AA1 C7 46 24 00000000               	MOV	DWORD [36+ESI],0
  2646 00001AA8 66 C7 40 0A 0000                	MOV	WORD [10+EAX],0
  2647 00001AAE 66 C7 40 08 0000                	MOV	WORD [8+EAX],0
  2648 00001AB4 56                              	PUSH	ESI
  2649 00001AB5 68 [00000568]                   	PUSH	LC82
  2650 00001ABA 53                              	PUSH	EBX
  2651 00001ABB E8 [00000000]                   	CALL	_sprintf
  2652 00001AC0 53                              	PUSH	EBX
  2653 00001AC1 FF 75 08                        	PUSH	DWORD [8+EBP]
  2654 00001AC4 E8 FFFFEF31                     	CALL	_cons_putstr
  2655 00001AC9 FF 76 20                        	PUSH	DWORD [32+ESI]
  2656 00001ACC 68 [00000586]                   	PUSH	LC83
  2657 00001AD1 53                              	PUSH	EBX
  2658 00001AD2 E8 [00000000]                   	CALL	_sprintf
  2659 00001AD7 83 C4 20                        	ADD	ESP,32
  2660 00001ADA 53                              	PUSH	EBX
  2661 00001ADB E8 FFFFE520                     	CALL	_debug_print
  2662 00001AE0 8B 55 AC                        	MOV	EDX,DWORD [-84+EBP]
  2663 00001AE3 0F B6 44 3A 0B                  	MOVZX	EAX,BYTE [11+EDX+EDI*1]
  2664 00001AE8 50                              	PUSH	EAX
  2665 00001AE9 68 [000005A3]                   	PUSH	LC84
  2666 00001AEE 53                              	PUSH	EBX
  2667 00001AEF E8 [00000000]                   	CALL	_sprintf
  2668 00001AF4 53                              	PUSH	EBX
  2669 00001AF5 E8 FFFFE506                     	CALL	_debug_print
  2670 00001AFA 8B 76 20                        	MOV	ESI,DWORD [32+ESI]
  2671 00001AFD 89 B6 000007DC                  	MOV	DWORD [2012+ESI],ESI
  2672 00001B03 8D BE 000007D0                  	LEA	EDI,DWORD [2000+ESI]
  2673 00001B09 FF 75 B0                        	PUSH	DWORD [-80+EBP]
  2674 00001B0C 57                              	PUSH	EDI
  2675 00001B0D E8 [00000000]                   	CALL	_sprintf
  2676 00001B12 8B 55 AC                        	MOV	EDX,DWORD [-84+EBP]
  2677 00001B15 8B 82 000007DC                  	MOV	EAX,DWORD [2012+EDX]
  2678 00001B1B 89 86 000007D8                  	MOV	DWORD [2008+ESI],EAX
  2679 00001B21 FF B6 000007DC                  	PUSH	DWORD [2012+ESI]
  2680 00001B27 68 [000005B1]                   	PUSH	LC85
  2681 00001B2C 53                              	PUSH	EBX
  2682 00001B2D E8 [00000000]                   	CALL	_sprintf
  2683 00001B32 83 C4 28                        	ADD	ESP,40
  2684 00001B35 53                              	PUSH	EBX
  2685 00001B36 E8 FFFFE4C5                     	CALL	_debug_print
  2686 00001B3B 57                              	PUSH	EDI
  2687 00001B3C 68 [000005CD]                   	PUSH	LC86
  2688 00001B41 53                              	PUSH	EBX
  2689 00001B42 E8 [00000000]                   	CALL	_sprintf
  2690 00001B47 53                              	PUSH	EBX
  2691 00001B48 E8 FFFFE4B3                     	CALL	_debug_print
  2692 00001B4D FF B6 000007D8                  	PUSH	DWORD [2008+ESI]
  2693 00001B53 68 [000005E5]                   	PUSH	LC87
  2694 00001B58 53                              	PUSH	EBX
  2695 00001B59 E8 [00000000]                   	CALL	_sprintf
  2696 00001B5E 83 C4 20                        	ADD	ESP,32
  2697 00001B61 E9 FFFFFEB2                     	JMP	L476
  2698                                          [SECTION .data]
  2699 00000608                                 LC90:
  2700 00000608 74 68 69 73 20 66 69 6C 65 20   	DB	"this file name is already used, please use other name.",0x0A,0x00
       00000612 6E 61 6D 65 20 69 73 20 61 6C 
       0000061C 72 65 61 64 79 20 75 73 65 64 
       00000626 2C 20 70 6C 65 61 73 65 20 75 
       00000630 73 65 20 6F 74 68 65 72 20 6E 
       0000063A 61 6D 65 2E 0A 00 
  2701 00000640                                 LC91:
  2702 00000640 66 64 61 74 61 2D 3E 68 65 61   	DB	"fdata->head.name =",0x09,0x09,"%s[EOF]",0x0A,0x00
       0000064A 64 2E 6E 61 6D 65 20 3D 09 09 
       00000654 25 73 5B 45 4F 46 5D 0A 00 
  2703 0000065D                                 LC92:
  2704 0000065D 64 69 6E 66 6F 2D 3E 66 69 6E   	DB	"dinfo->finfo[i].name =",0x09,"%s[EOF]",0x0A,0x00
       00000667 66 6F 5B 69 5D 2E 6E 61 6D 65 
       00000671 20 3D 09 25 73 5B 45 4F 46 5D 
       0000067B 0A 00 
  2705 0000067D                                 LC93:
  2706 0000067D 74 65 73 74 28 73 68 6F 75 6C   	DB	"test(should not be 0) = %d",0x0A,0x00
       00000687 64 20 6E 6F 74 20 62 65 20 30 
       00000691 29 20 3D 20 25 64 0A 00 
  2707 00000699                                 LC94:
  2708 00000699 63 72 65 61 74 65 64 20 66 69   	DB	"created file name = %s[EOF]",0x0A,0x00
       000006A3 6C 65 20 6E 61 6D 65 20 3D 20 
       000006AD 25 73 5B 45 4F 46 5D 0A 00 
  2709 000006B6                                 LC95:
  2710 000006B6 66 69 6C 65 20 6E 61 6D 65 20   	DB	"file name = %s",0x0A,0x00
       000006C0 3D 20 25 73 0A 00 
  2711 000006C6                                 LC96:
  2712 000006C6 66 69 6C 65 20 74 79 70 65 3D   	DB	"file type=0x%02x",0x0A,0x00
       000006D0 30 78 25 30 32 78 0A 00 
  2713 000006D8                                 LC88:
  2714 000006D8 66 69 6C 65 20 6E 61 6D 65 20   	DB	"file name should be within 8 letters,",0x0A,0x00
       000006E2 73 68 6F 75 6C 64 20 62 65 20 
       000006EC 77 69 74 68 69 6E 20 38 20 6C 
       000006F6 65 74 74 65 72 73 2C 0A 00 
  2715 000006FF                                 LC89:
  2716 000006FF 61 6E 64 20 65 78 74 65 6E 73   	DB	"and extension should be within 3 letters.",0x0A,0x00
       00000709 69 6F 6E 20 73 68 6F 75 6C 64 
       00000713 20 62 65 20 77 69 74 68 69 6E 
       0000071D 20 33 20 6C 65 74 74 65 72 73 
       00000727 2E 0A 00 
  2717                                          [SECTION .text]
  2718 00001B66                                 	GLOBAL	_cmd_mkfile
  2719 00001B66                                 _cmd_mkfile:
  2720 00001B66 55                              	PUSH	EBP
  2721 00001B67 31 C9                           	XOR	ECX,ECX
  2722 00001B69 89 E5                           	MOV	EBP,ESP
  2723 00001B6B 57                              	PUSH	EDI
  2724 00001B6C 56                              	PUSH	ESI
  2725 00001B6D 53                              	PUSH	EBX
  2726 00001B6E 81 EC 00000460                  	SUB	ESP,1120
  2727 00001B74 8B 45 08                        	MOV	EAX,DWORD [8+EBP]
  2728 00001B77 8B 55 0C                        	MOV	EDX,DWORD [12+EBP]
  2729 00001B7A 83 C2 07                        	ADD	EDX,7
  2730 00001B7D 8B 40 14                        	MOV	EAX,DWORD [20+EAX]
  2731 00001B80 89 95 FFFFFB9C                  	MOV	DWORD [-1124+EBP],EDX
  2732 00001B86 89 85 FFFFFBA0                  	MOV	DWORD [-1120+EBP],EAX
  2733 00001B8C                                 L483:
  2734 00001B8C C6 44 0D A4 20                  	MOV	BYTE [-92+EBP+ECX*1],32
  2735 00001B91 41                              	INC	ECX
  2736 00001B92 83 F9 0A                        	CMP	ECX,10
  2737 00001B95 7E F5                           	JLE	L483
  2738 00001B97 8B 85 FFFFFB9C                  	MOV	EAX,DWORD [-1124+EBP]
  2739 00001B9D 31 C9                           	XOR	ECX,ECX
  2740 00001B9F 31 DB                           	XOR	EBX,EBX
  2741 00001BA1 80 38 00                        	CMP	BYTE [EAX],0
  2742 00001BA4 74 3B                           	JE	L513
  2743 00001BA6                                 L492:
  2744 00001BA6 83 F9 0A                        	CMP	ECX,10
  2745 00001BA9 0F 8F 00000237                  	JG	L519
  2746 00001BAF 8B 85 FFFFFB9C                  	MOV	EAX,DWORD [-1124+EBP]
  2747 00001BB5 8A 14 03                        	MOV	DL,BYTE [EBX+EAX*1]
  2748 00001BB8 80 FA 2E                        	CMP	DL,46
  2749 00001BBB 0F 84 00000212                  	JE	L521
  2750 00001BC1                                 L489:
  2751 00001BC1 8D 42 9F                        	LEA	EAX,DWORD [-97+EDX]
  2752 00001BC4 88 54 0D A4                     	MOV	BYTE [-92+EBP+ECX*1],DL
  2753 00001BC8 3C 19                           	CMP	AL,25
  2754 00001BCA 77 07                           	JA	L491
  2755 00001BCC 8D 42 E0                        	LEA	EAX,DWORD [-32+EDX]
  2756 00001BCF 88 44 0D A4                     	MOV	BYTE [-92+EBP+ECX*1],AL
  2757 00001BD3                                 L491:
  2758 00001BD3 41                              	INC	ECX
  2759 00001BD4                                 L486:
  2760 00001BD4 43                              	INC	EBX
  2761 00001BD5 8B 95 FFFFFB9C                  	MOV	EDX,DWORD [-1124+EBP]
  2762 00001BDB 80 3C 13 00                     	CMP	BYTE [EBX+EDX*1],0
  2763 00001BDF 75 C5                           	JNE	L492
  2764 00001BE1                                 L513:
  2765 00001BE1 6A 32                           	PUSH	50
  2766 00001BE3 8D 45 A4                        	LEA	EAX,DWORD [-92+EBP]
  2767 00001BE6 FF B5 FFFFFBA0                  	PUSH	DWORD [-1120+EBP]
  2768 00001BEC 50                              	PUSH	EAX
  2769 00001BED E8 [00000000]                   	CALL	_myfinfo_search
  2770 00001BF2 83 C4 0C                        	ADD	ESP,12
  2771 00001BF5 89 C6                           	MOV	ESI,EAX
  2772 00001BF7 85 C0                           	TEST	EAX,EAX
  2773 00001BF9 74 50                           	JE	L493
  2774 00001BFB 68 [00000608]                   	PUSH	LC90
  2775 00001C00 8D 5D B4                        	LEA	EBX,DWORD [-76+EBP]
  2776 00001C03 53                              	PUSH	EBX
  2777 00001C04 E8 [00000000]                   	CALL	_sprintf
  2778 00001C09 53                              	PUSH	EBX
  2779 00001C0A FF 75 08                        	PUSH	DWORD [8+EBP]
  2780 00001C0D E8 FFFFEDE8                     	CALL	_cons_putstr
  2781 00001C12 0F B6 46 0B                     	MOVZX	EAX,BYTE [11+ESI]
  2782 00001C16 50                              	PUSH	EAX
  2783 00001C17 8D 46 08                        	LEA	EAX,DWORD [8+ESI]
  2784 00001C1A 50                              	PUSH	EAX
  2785 00001C1B 56                              	PUSH	ESI
  2786 00001C1C 68 [00000543]                   	PUSH	LC81
  2787 00001C21 53                              	PUSH	EBX
  2788 00001C22 E8 [00000000]                   	CALL	_sprintf
  2789 00001C27 83 C4 24                        	ADD	ESP,36
  2790 00001C2A 53                              	PUSH	EBX
  2791 00001C2B FF 75 08                        	PUSH	DWORD [8+EBP]
  2792 00001C2E E8 FFFFEDC7                     	CALL	_cons_putstr
  2793 00001C33 FF 75 08                        	PUSH	DWORD [8+EBP]
  2794 00001C36 E8 FFFFEC9A                     	CALL	_cons_newline
  2795 00001C3B                                 L520:
  2796 00001C3B FF 75 08                        	PUSH	DWORD [8+EBP]
  2797 00001C3E E8 FFFFEC92                     	CALL	_cons_newline
  2798 00001C43 8D 65 F4                        	LEA	ESP,DWORD [-12+EBP]
  2799 00001C46 5B                              	POP	EBX
  2800 00001C47 5E                              	POP	ESI
  2801 00001C48 5F                              	POP	EDI
  2802 00001C49 5D                              	POP	EBP
  2803 00001C4A C3                              	RET
  2804 00001C4B                                 L493:
  2805 00001C4B 31 DB                           	XOR	EBX,EBX
  2806 00001C4D 8B 85 FFFFFBA0                  	MOV	EAX,DWORD [-1120+EBP]
  2807 00001C53                                 L499:
  2808 00001C53 80 38 00                        	CMP	BYTE [EAX],0
  2809 00001C56 74 09                           	JE	L495
  2810 00001C58 43                              	INC	EBX
  2811 00001C59 83 C0 28                        	ADD	EAX,40
  2812 00001C5C 83 FB 31                        	CMP	EBX,49
  2813 00001C5F 7E F2                           	JLE	L499
  2814 00001C61                                 L495:
  2815 00001C61 31 C9                           	XOR	ECX,ECX
  2816 00001C63                                 L504:
  2817 00001C63 6B C3 28                        	IMUL	EAX,EBX,40
  2818 00001C66 03 85 FFFFFBA0                  	ADD	EAX,DWORD [-1120+EBP]
  2819 00001C6C 8A 54 0D A4                     	MOV	DL,BYTE [-92+EBP+ECX*1]
  2820 00001C70 88 14 01                        	MOV	BYTE [ECX+EAX*1],DL
  2821 00001C73 41                              	INC	ECX
  2822 00001C74 83 F9 07                        	CMP	ECX,7
  2823 00001C77 7E EA                           	JLE	L504
  2824 00001C79 31 C9                           	XOR	ECX,ECX
  2825 00001C7B                                 L509:
  2826 00001C7B 6B C3 28                        	IMUL	EAX,EBX,40
  2827 00001C7E 89 85 FFFFFB94                  	MOV	DWORD [-1132+EBP],EAX
  2828 00001C84 03 85 FFFFFBA0                  	ADD	EAX,DWORD [-1120+EBP]
  2829 00001C8A 89 85 FFFFFB98                  	MOV	DWORD [-1128+EBP],EAX
  2830 00001C90 8B 95 FFFFFB98                  	MOV	EDX,DWORD [-1128+EBP]
  2831 00001C96 8A 44 0D AC                     	MOV	AL,BYTE [-84+EBP+ECX*1]
  2832 00001C9A 88 44 11 08                     	MOV	BYTE [8+ECX+EDX*1],AL
  2833 00001C9E 41                              	INC	ECX
  2834 00001C9F 83 F9 02                        	CMP	ECX,2
  2835 00001CA2 7E D7                           	JLE	L509
  2836 00001CA4 89 D0                           	MOV	EAX,EDX
  2837 00001CA6 8B 8D FFFFFB94                  	MOV	ECX,DWORD [-1132+EBP]
  2838 00001CAC 83 C0 10                        	ADD	EAX,16
  2839 00001CAF 8D 5D B4                        	LEA	EBX,DWORD [-76+EBP]
  2840 00001CB2 C7 42 1C 00000000               	MOV	DWORD [28+EDX],0
  2841 00001CB9 66 C7 40 0A 0000                	MOV	WORD [10+EAX],0
  2842 00001CBF 66 C7 40 08 0000                	MOV	WORD [8+EAX],0
  2843 00001CC5 8B 85 FFFFFBA0                  	MOV	EAX,DWORD [-1120+EBP]
  2844 00001CCB C6 44 08 0B 20                  	MOV	BYTE [11+EAX+ECX*1],32
  2845 00001CD0 8B 95 FFFFFBA0                  	MOV	EDX,DWORD [-1120+EBP]
  2846 00001CD6 C6 85 FFFFFBA4 FF               	MOV	BYTE [-1116+EBP],-1
  2847 00001CDD 8B 82 000007DC                  	MOV	EAX,DWORD [2012+EDX]
  2848 00001CE3 89 85 FFFFFBB8                  	MOV	DWORD [-1096+EBP],EAX
  2849 00001CE9 8D 85 FFFFFBA4                  	LEA	EAX,DWORD [-1116+EBP]
  2850 00001CEF 50                              	PUSH	EAX
  2851 00001CF0 E8 [00000000]                   	CALL	_get_newfdata
  2852 00001CF5 FF B5 FFFFFB9C                  	PUSH	DWORD [-1124+EBP]
  2853 00001CFB 8D 70 01                        	LEA	ESI,DWORD [1+EAX]
  2854 00001CFE 89 C7                           	MOV	EDI,EAX
  2855 00001D00 56                              	PUSH	ESI
  2856 00001D01 E8 [00000000]                   	CALL	_strcpy
  2857 00001D06 56                              	PUSH	ESI
  2858 00001D07 68 [00000640]                   	PUSH	LC91
  2859 00001D0C 53                              	PUSH	EBX
  2860 00001D0D E8 [00000000]                   	CALL	_sprintf
  2861 00001D12 53                              	PUSH	EBX
  2862 00001D13 E8 FFFFE2E8                     	CALL	_debug_print
  2863 00001D18 FF B5 FFFFFB98                  	PUSH	DWORD [-1128+EBP]
  2864 00001D1E 68 [0000065D]                   	PUSH	LC92
  2865 00001D23 53                              	PUSH	EBX
  2866 00001D24 E8 [00000000]                   	CALL	_sprintf
  2867 00001D29 83 C4 28                        	ADD	ESP,40
  2868 00001D2C 53                              	PUSH	EBX
  2869 00001D2D E8 FFFFE2CE                     	CALL	_debug_print
  2870 00001D32 6A 32                           	PUSH	50
  2871 00001D34 FF B5 FFFFFBA0                  	PUSH	DWORD [-1120+EBP]
  2872 00001D3A 56                              	PUSH	ESI
  2873 00001D3B E8 [00000000]                   	CALL	_myfinfo_search
  2874 00001D40 50                              	PUSH	EAX
  2875 00001D41 68 [0000067D]                   	PUSH	LC93
  2876 00001D46 53                              	PUSH	EBX
  2877 00001D47 E8 [00000000]                   	CALL	_sprintf
  2878 00001D4C 53                              	PUSH	EBX
  2879 00001D4D E8 FFFFE2AE                     	CALL	_debug_print
  2880 00001D52 83 C4 20                        	ADD	ESP,32
  2881 00001D55 C6 07 01                        	MOV	BYTE [EDI],1
  2882 00001D58 89 7F 10                        	MOV	DWORD [16+EDI],EDI
  2883 00001D5B 8B 8D FFFFFBA0                  	MOV	ECX,DWORD [-1120+EBP]
  2884 00001D61 8B 81 000007DC                  	MOV	EAX,DWORD [2012+ECX]
  2885 00001D67 89 47 14                        	MOV	DWORD [20+EDI],EAX
  2886 00001D6A 8B 85 FFFFFB98                  	MOV	EAX,DWORD [-1128+EBP]
  2887 00001D70 89 78 24                        	MOV	DWORD [36+EAX],EDI
  2888 00001D73 8D 45 A4                        	LEA	EAX,DWORD [-92+EBP]
  2889 00001D76 50                              	PUSH	EAX
  2890 00001D77 68 [00000699]                   	PUSH	LC94
  2891 00001D7C 53                              	PUSH	EBX
  2892 00001D7D E8 [00000000]                   	CALL	_sprintf
  2893 00001D82 53                              	PUSH	EBX
  2894 00001D83 FF 75 08                        	PUSH	DWORD [8+EBP]
  2895 00001D86 E8 FFFFEC6F                     	CALL	_cons_putstr
  2896 00001D8B FF B5 FFFFFB98                  	PUSH	DWORD [-1128+EBP]
  2897 00001D91 68 [000006B6]                   	PUSH	LC95
  2898 00001D96 53                              	PUSH	EBX
  2899 00001D97 E8 [00000000]                   	CALL	_sprintf
  2900 00001D9C 83 C4 20                        	ADD	ESP,32
  2901 00001D9F 53                              	PUSH	EBX
  2902 00001DA0 FF 75 08                        	PUSH	DWORD [8+EBP]
  2903 00001DA3 E8 FFFFEC52                     	CALL	_cons_putstr
  2904 00001DA8 8B 8D FFFFFBA0                  	MOV	ECX,DWORD [-1120+EBP]
  2905 00001DAE 8B 95 FFFFFB94                  	MOV	EDX,DWORD [-1132+EBP]
  2906 00001DB4 0F B6 44 11 0B                  	MOVZX	EAX,BYTE [11+ECX+EDX*1]
  2907 00001DB9 50                              	PUSH	EAX
  2908 00001DBA 68 [000006C6]                   	PUSH	LC96
  2909 00001DBF 53                              	PUSH	EBX
  2910 00001DC0 E8 [00000000]                   	CALL	_sprintf
  2911 00001DC5 53                              	PUSH	EBX
  2912 00001DC6 FF 75 08                        	PUSH	DWORD [8+EBP]
  2913 00001DC9 E8 FFFFEC2C                     	CALL	_cons_putstr
  2914 00001DCE E9 FFFFFE68                     	JMP	L520
  2915 00001DD3                                 L521:
  2916 00001DD3 83 F9 08                        	CMP	ECX,8
  2917 00001DD6 0F 8F FFFFFDE5                  	JG	L489
  2918 00001DDC B9 00000008                     	MOV	ECX,8
  2919 00001DE1 E9 FFFFFDEE                     	JMP	L486
  2920 00001DE6                                 L519:
  2921 00001DE6 68 [000006D8]                   	PUSH	LC88
  2922 00001DEB 8D 5D B4                        	LEA	EBX,DWORD [-76+EBP]
  2923 00001DEE 53                              	PUSH	EBX
  2924 00001DEF E8 [00000000]                   	CALL	_sprintf
  2925 00001DF4 53                              	PUSH	EBX
  2926 00001DF5 FF 75 08                        	PUSH	DWORD [8+EBP]
  2927 00001DF8 E8 FFFFEBFD                     	CALL	_cons_putstr
  2928 00001DFD 68 [000006FF]                   	PUSH	LC89
  2929 00001E02 53                              	PUSH	EBX
  2930 00001E03 E8 [00000000]                   	CALL	_sprintf
  2931 00001E08 53                              	PUSH	EBX
  2932 00001E09 FF 75 08                        	PUSH	DWORD [8+EBP]
  2933 00001E0C E8 FFFFEBE9                     	CALL	_cons_putstr
  2934 00001E11 83 C4 20                        	ADD	ESP,32
  2935 00001E14 E9 FFFFFE22                     	JMP	L520
  2936                                          [SECTION .data]
  2937 0000072A                                 LC97:
  2938 0000072A 20 20 20 20 6C 6F 67 20 63 6F   	DB	"    log cons",0x0A,"mem:%d %d",0x0A,"sht:%d %d",0x0A,0x00
       00000734 6E 73 0A 6D 65 6D 3A 25 64 20 
       0000073E 25 64 0A 73 68 74 3A 25 64 20 
       00000748 25 64 0A 00 
  2939                                          [SECTION .text]
  2940 00001E19                                 	GLOBAL	_cmd_setlog
  2941 00001E19                                 _cmd_setlog:
  2942 00001E19 55                              	PUSH	EBP
  2943 00001E1A 89 E5                           	MOV	EBP,ESP
  2944 00001E1C 53                              	PUSH	EBX
  2945 00001E1D 83 EC 70                        	SUB	ESP,112
  2946 00001E20 8B 45 08                        	MOV	EAX,DWORD [8+EBP]
  2947 00001E23 8D 5D 8C                        	LEA	EBX,DWORD [-116+EBP]
  2948 00001E26 A3 [00000BBC]                   	MOV	DWORD [_log],EAX
  2949 00001E2B FF 30                           	PUSH	DWORD [EAX]
  2950 00001E2D FF 30                           	PUSH	DWORD [EAX]
  2951 00001E2F 8D 45 08                        	LEA	EAX,DWORD [8+EBP]
  2952 00001E32 50                              	PUSH	EAX
  2953 00001E33 68 [00000BBC]                   	PUSH	_log
  2954 00001E38 68 [0000072A]                   	PUSH	LC97
  2955 00001E3D 53                              	PUSH	EBX
  2956 00001E3E E8 [00000000]                   	CALL	_sprintf
  2957 00001E43 53                              	PUSH	EBX
  2958 00001E44 FF 35 [00000BBC]                	PUSH	DWORD [_log]
  2959 00001E4A E8 FFFFEBD9                     	CALL	_cons_putstr0
  2960 00001E4F 83 C4 20                        	ADD	ESP,32
  2961 00001E52 FF 35 [00000BBC]                	PUSH	DWORD [_log]
  2962 00001E58 E8 FFFFEA78                     	CALL	_cons_newline
  2963 00001E5D 8B 5D FC                        	MOV	EBX,DWORD [-4+EBP]
  2964 00001E60 C9                              	LEAVE
  2965 00001E61 C3                              	RET
  2966                                          [SECTION .data]
  2967 0000074C                                 LC98:
  2968 0000074C 66 72 65 65 73 20 20 25 64 0A   	DB	"frees  %d",0x0A,0x00
       00000756 00 
  2969 00000757                                 LC100:
  2970 00000757 74 6F 74 61 6C 20 20 20 25 64   	DB	"total   %dMB",0x0A,"free %dKB",0x0A,0x0A,0x00
       00000761 4D 42 0A 66 72 65 65 20 25 64 
       0000076B 4B 42 0A 0A 00 
  2971 00000770                                 LC99:
  2972 00000770 28 25 64 29 20 73 69 7A 65 3D   	DB	"(%d) size=%dKB addr=0x%x",0x0A,0x00
       0000077A 25 64 4B 42 20 61 64 64 72 3D 
       00000784 30 78 25 78 0A 00 
  2973                                          [SECTION .text]
  2974 00001E62                                 	GLOBAL	_cmd_mem
  2975 00001E62                                 _cmd_mem:
  2976 00001E62 55                              	PUSH	EBP
  2977 00001E63 89 E5                           	MOV	EBP,ESP
  2978 00001E65 57                              	PUSH	EDI
  2979 00001E66 56                              	PUSH	ESI
  2980 00001E67 31 F6                           	XOR	ESI,ESI
  2981 00001E69 53                              	PUSH	EBX
  2982 00001E6A 8D 5D B4                        	LEA	EBX,DWORD [-76+EBP]
  2983 00001E6D 83 EC 40                        	SUB	ESP,64
  2984 00001E70 FF 35 003C0000                  	PUSH	DWORD [3932160]
  2985 00001E76 68 [0000074C]                   	PUSH	LC98
  2986 00001E7B 8B 7D 08                        	MOV	EDI,DWORD [8+EBP]
  2987 00001E7E 53                              	PUSH	EBX
  2988 00001E7F E8 [00000000]                   	CALL	_sprintf
  2989 00001E84 53                              	PUSH	EBX
  2990 00001E85 57                              	PUSH	EDI
  2991 00001E86 E8 FFFFEB9D                     	CALL	_cons_putstr0
  2992 00001E8B 83 C4 14                        	ADD	ESP,20
  2993 00001E8E 3B 35 003C0000                  	CMP	ESI,DWORD [3932160]
  2994 00001E94 72 3B                           	JB	L528
  2995 00001E96                                 L530:
  2996 00001E96 68 003C0000                     	PUSH	3932160
  2997 00001E9B E8 [00000000]                   	CALL	_memman_total
  2998 00001EA0 BA 00100000                     	MOV	EDX,1048576
  2999 00001EA5 C1 E8 0A                        	SHR	EAX,10
  3000 00001EA8 89 D3                           	MOV	EBX,EDX
  3001 00001EAA 89 04 24                        	MOV	DWORD [ESP],EAX
  3002 00001EAD 8B 45 0C                        	MOV	EAX,DWORD [12+EBP]
  3003 00001EB0 99                              	CDQ
  3004 00001EB1 F7 FB                           	IDIV	EBX
  3005 00001EB3 50                              	PUSH	EAX
  3006 00001EB4 8D 5D B4                        	LEA	EBX,DWORD [-76+EBP]
  3007 00001EB7 68 [00000757]                   	PUSH	LC100
  3008 00001EBC 53                              	PUSH	EBX
  3009 00001EBD E8 [00000000]                   	CALL	_sprintf
  3010 00001EC2 53                              	PUSH	EBX
  3011 00001EC3 57                              	PUSH	EDI
  3012 00001EC4 E8 FFFFEB5F                     	CALL	_cons_putstr0
  3013 00001EC9 8D 65 F4                        	LEA	ESP,DWORD [-12+EBP]
  3014 00001ECC 5B                              	POP	EBX
  3015 00001ECD 5E                              	POP	ESI
  3016 00001ECE 5F                              	POP	EDI
  3017 00001ECF 5D                              	POP	EBP
  3018 00001ED0 C3                              	RET
  3019 00001ED1                                 L528:
  3020 00001ED1 FF 34 F5 003C0010               	PUSH	DWORD [3932176+ESI*8]
  3021 00001ED8 8B 04 F5 003C0014               	MOV	EAX,DWORD [3932180+ESI*8]
  3022 00001EDF 8D 5D B4                        	LEA	EBX,DWORD [-76+EBP]
  3023 00001EE2 C1 E8 0A                        	SHR	EAX,10
  3024 00001EE5 50                              	PUSH	EAX
  3025 00001EE6 56                              	PUSH	ESI
  3026 00001EE7 46                              	INC	ESI
  3027 00001EE8 68 [00000770]                   	PUSH	LC99
  3028 00001EED 53                              	PUSH	EBX
  3029 00001EEE E8 [00000000]                   	CALL	_sprintf
  3030 00001EF3 53                              	PUSH	EBX
  3031 00001EF4 57                              	PUSH	EDI
  3032 00001EF5 E8 FFFFEB00                     	CALL	_cons_putstr
  3033 00001EFA 83 C4 1C                        	ADD	ESP,28
  3034 00001EFD 3B 35 003C0000                  	CMP	ESI,DWORD [3932160]
  3035 00001F03 72 CC                           	JB	L528
  3036 00001F05 EB 8F                           	JMP	L530
  3037 00001F07                                 	GLOBAL	_cmd_memmap
  3038 00001F07                                 _cmd_memmap:
  3039 00001F07 55                              	PUSH	EBP
  3040 00001F08 89 E5                           	MOV	EBP,ESP
  3041 00001F0A 53                              	PUSH	EBX
  3042 00001F0B 83 EC 40                        	SUB	ESP,64
  3043 00001F0E 68 003C0000                     	PUSH	3932160
  3044 00001F13 E8 [00000000]                   	CALL	_memman_total
  3045 00001F18 BA 00100000                     	MOV	EDX,1048576
  3046 00001F1D C1 E8 0A                        	SHR	EAX,10
  3047 00001F20 89 D3                           	MOV	EBX,EDX
  3048 00001F22 89 04 24                        	MOV	DWORD [ESP],EAX
  3049 00001F25 8B 45 0C                        	MOV	EAX,DWORD [12+EBP]
  3050 00001F28 99                              	CDQ
  3051 00001F29 F7 FB                           	IDIV	EBX
  3052 00001F2B 50                              	PUSH	EAX
  3053 00001F2C 8D 5D BC                        	LEA	EBX,DWORD [-68+EBP]
  3054 00001F2F 68 [00000757]                   	PUSH	LC100
  3055 00001F34 53                              	PUSH	EBX
  3056 00001F35 E8 [00000000]                   	CALL	_sprintf
  3057 00001F3A 53                              	PUSH	EBX
  3058 00001F3B FF 75 08                        	PUSH	DWORD [8+EBP]
  3059 00001F3E E8 FFFFEAE5                     	CALL	_cons_putstr0
  3060 00001F43 8B 5D FC                        	MOV	EBX,DWORD [-4+EBP]
  3061 00001F46 C9                              	LEAVE
  3062 00001F47 C3                              	RET
  3063                                          [SECTION .data]
  3064 0000078A                                 LC101:
  3065 0000078A 6C 6F 67 20 74 65 73 74 00      	DB	"log test",0x00
  3066                                          [SECTION .text]
  3067 00001F48                                 	GLOBAL	_cmd_log
  3068 00001F48                                 _cmd_log:
  3069 00001F48 55                              	PUSH	EBP
  3070 00001F49 89 E5                           	MOV	EBP,ESP
  3071 00001F4B 53                              	PUSH	EBX
  3072 00001F4C 83 EC 70                        	SUB	ESP,112
  3073 00001F4F 8D 5D 8C                        	LEA	EBX,DWORD [-116+EBP]
  3074 00001F52 68 [0000078A]                   	PUSH	LC101
  3075 00001F57 53                              	PUSH	EBX
  3076 00001F58 E8 [00000000]                   	CALL	_sprintf
  3077 00001F5D 53                              	PUSH	EBX
  3078 00001F5E FF 35 [00000BBC]                	PUSH	DWORD [_log]
  3079 00001F64 E8 FFFFEABF                     	CALL	_cons_putstr0
  3080 00001F69 FF 35 [00000BBC]                	PUSH	DWORD [_log]
  3081 00001F6F E8 FFFFE961                     	CALL	_cons_newline
  3082 00001F74 8B 5D FC                        	MOV	EBX,DWORD [-4+EBP]
  3083 00001F77 C9                              	LEAVE
  3084 00001F78 C3                              	RET
  3085                                          [SECTION .data]
  3086 00000793                                 LC102:
  3087 00000793 66 69 6C 65 6E 61 6D 65 3D 25   	DB	"filename=%s",0x0A,0x00
       0000079D 73 0A 00 
  3088 000007A0                                 LC103:
  3089 000007A0 46 69 6C 65 20 6E 6F 74 20 66   	DB	"File not found.",0x0A,0x00
       000007AA 6F 75 6E 64 2E 0A 00 
  3090                                          [SECTION .text]
  3091 00001F79                                 	GLOBAL	_cmd_cat
  3092 00001F79                                 _cmd_cat:
  3093 00001F79 55                              	PUSH	EBP
  3094 00001F7A 89 E5                           	MOV	EBP,ESP
  3095 00001F7C 57                              	PUSH	EDI
  3096 00001F7D 56                              	PUSH	ESI
  3097 00001F7E 53                              	PUSH	EBX
  3098 00001F7F 8D 5D D4                        	LEA	EBX,DWORD [-44+EBP]
  3099 00001F82 83 EC 20                        	SUB	ESP,32
  3100 00001F85 8B 7D 08                        	MOV	EDI,DWORD [8+EBP]
  3101 00001F88 8B 45 10                        	MOV	EAX,DWORD [16+EBP]
  3102 00001F8B 6A 32                           	PUSH	50
  3103 00001F8D 83 C0 04                        	ADD	EAX,4
  3104 00001F90 FF 77 14                        	PUSH	DWORD [20+EDI]
  3105 00001F93 50                              	PUSH	EAX
  3106 00001F94 E8 [00000000]                   	CALL	_myfinfo_search
  3107 00001F99 89 C6                           	MOV	ESI,EAX
  3108 00001F9B 50                              	PUSH	EAX
  3109 00001F9C 68 [00000793]                   	PUSH	LC102
  3110 00001FA1 53                              	PUSH	EBX
  3111 00001FA2 E8 [00000000]                   	CALL	_sprintf
  3112 00001FA7 53                              	PUSH	EBX
  3113 00001FA8 57                              	PUSH	EDI
  3114 00001FA9 E8 FFFFEA4C                     	CALL	_cons_putstr
  3115 00001FAE 83 C4 20                        	ADD	ESP,32
  3116 00001FB1 85 F6                           	TEST	ESI,ESI
  3117 00001FB3 74 51                           	JE	L534
  3118 00001FB5 FF 76 1C                        	PUSH	DWORD [28+ESI]
  3119 00001FB8 68 003C0000                     	PUSH	3932160
  3120 00001FBD E8 [00000000]                   	CALL	_memman_alloc_4k
  3121 00001FC2 68 00103E00                     	PUSH	1064448
  3122 00001FC7 FF 75 0C                        	PUSH	DWORD [12+EBP]
  3123 00001FCA 50                              	PUSH	EAX
  3124 00001FCB 89 C3                           	MOV	EBX,EAX
  3125 00001FCD FF 76 1C                        	PUSH	DWORD [28+ESI]
  3126 00001FD0 0F B7 46 1A                     	MOVZX	EAX,WORD [26+ESI]
  3127 00001FD4 50                              	PUSH	EAX
  3128 00001FD5 E8 [00000000]                   	CALL	_file_loadfile
  3129 00001FDA FF 76 1C                        	PUSH	DWORD [28+ESI]
  3130 00001FDD 53                              	PUSH	EBX
  3131 00001FDE 57                              	PUSH	EDI
  3132 00001FDF E8 FFFFEA72                     	CALL	_cons_putstr1
  3133 00001FE4 83 C4 28                        	ADD	ESP,40
  3134 00001FE7 FF 76 1C                        	PUSH	DWORD [28+ESI]
  3135 00001FEA 53                              	PUSH	EBX
  3136 00001FEB 68 003C0000                     	PUSH	3932160
  3137 00001FF0 E8 [00000000]                   	CALL	_memman_free_4k
  3138 00001FF5 83 C4 0C                        	ADD	ESP,12
  3139 00001FF8                                 L535:
  3140 00001FF8 57                              	PUSH	EDI
  3141 00001FF9 E8 FFFFE8D7                     	CALL	_cons_newline
  3142 00001FFE 8D 65 F4                        	LEA	ESP,DWORD [-12+EBP]
  3143 00002001 5B                              	POP	EBX
  3144 00002002 5E                              	POP	ESI
  3145 00002003 5F                              	POP	EDI
  3146 00002004 5D                              	POP	EBP
  3147 00002005 C3                              	RET
  3148 00002006                                 L534:
  3149 00002006 68 [000007A0]                   	PUSH	LC103
  3150 0000200B 57                              	PUSH	EDI
  3151 0000200C E8 FFFFEA17                     	CALL	_cons_putstr0
  3152 00002011 58                              	POP	EAX
  3153 00002012 5A                              	POP	EDX
  3154 00002013 EB E3                           	JMP	L535
  3155 00002015                                 	GLOBAL	_cmd_cls
  3156 00002015                                 _cmd_cls:
  3157 00002015 55                              	PUSH	EBP
  3158 00002016 89 E5                           	MOV	EBP,ESP
  3159 00002018 57                              	PUSH	EDI
  3160 00002019 56                              	PUSH	ESI
  3161 0000201A BE 0000001C                     	MOV	ESI,28
  3162 0000201F 53                              	PUSH	EBX
  3163 00002020 51                              	PUSH	ECX
  3164 00002021 51                              	PUSH	ECX
  3165 00002022 8B 45 08                        	MOV	EAX,DWORD [8+EBP]
  3166 00002025 8B 18                           	MOV	EBX,DWORD [EAX]
  3167 00002027 8B 43 08                        	MOV	EAX,DWORD [8+EBX]
  3168 0000202A 8B 53 04                        	MOV	EDX,DWORD [4+EBX]
  3169 0000202D 83 EA 10                        	SUB	EDX,16
  3170 00002030 89 55 F0                        	MOV	DWORD [-16+EBP],EDX
  3171 00002033 8D 50 DB                        	LEA	EDX,DWORD [-37+EAX]
  3172 00002036 83 E8 09                        	SUB	EAX,9
  3173 00002039 89 55 EC                        	MOV	DWORD [-20+EBP],EDX
  3174 0000203C 39 C6                           	CMP	ESI,EAX
  3175 0000203E 7D 2E                           	JGE	L548
  3176 00002040                                 L546:
  3177 00002040 8B 7D F0                        	MOV	EDI,DWORD [-16+EBP]
  3178 00002043 B9 00000008                     	MOV	ECX,8
  3179 00002048 83 C7 08                        	ADD	EDI,8
  3180 0000204B 39 F9                           	CMP	ECX,EDI
  3181 0000204D 7D 14                           	JGE	L550
  3182 0000204F                                 L545:
  3183 0000204F 89 F0                           	MOV	EAX,ESI
  3184 00002051 8B 13                           	MOV	EDX,DWORD [EBX]
  3185 00002053 0F AF 43 04                     	IMUL	EAX,DWORD [4+EBX]
  3186 00002057 8D 04 08                        	LEA	EAX,DWORD [EAX+ECX*1]
  3187 0000205A 41                              	INC	ECX
  3188 0000205B 39 F9                           	CMP	ECX,EDI
  3189 0000205D C6 04 10 00                     	MOV	BYTE [EAX+EDX*1],0
  3190 00002061 7C EC                           	JL	L545
  3191 00002063                                 L550:
  3192 00002063 8B 45 EC                        	MOV	EAX,DWORD [-20+EBP]
  3193 00002066 46                              	INC	ESI
  3194 00002067 83 C0 1C                        	ADD	EAX,28
  3195 0000206A 39 C6                           	CMP	ESI,EAX
  3196 0000206C 7C D2                           	JL	L546
  3197 0000206E                                 L548:
  3198 0000206E 8B 45 EC                        	MOV	EAX,DWORD [-20+EBP]
  3199 00002071 83 C0 1C                        	ADD	EAX,28
  3200 00002074 50                              	PUSH	EAX
  3201 00002075 8B 45 F0                        	MOV	EAX,DWORD [-16+EBP]
  3202 00002078 83 C0 08                        	ADD	EAX,8
  3203 0000207B 50                              	PUSH	EAX
  3204 0000207C 6A 1C                           	PUSH	28
  3205 0000207E 6A 08                           	PUSH	8
  3206 00002080 53                              	PUSH	EBX
  3207 00002081 E8 [00000000]                   	CALL	_sheet_refresh
  3208 00002086 8B 45 08                        	MOV	EAX,DWORD [8+EBP]
  3209 00002089 C7 40 08 0000001C               	MOV	DWORD [8+EAX],28
  3210 00002090 8D 65 F4                        	LEA	ESP,DWORD [-12+EBP]
  3211 00002093 5B                              	POP	EBX
  3212 00002094 5E                              	POP	ESI
  3213 00002095 5F                              	POP	EDI
  3214 00002096 5D                              	POP	EBP
  3215 00002097 C3                              	RET
  3216 00002098                                 	GLOBAL	_cmd_logcls
  3217 00002098                                 _cmd_logcls:
  3218 00002098 55                              	PUSH	EBP
  3219 00002099 89 E5                           	MOV	EBP,ESP
  3220 0000209B 57                              	PUSH	EDI
  3221 0000209C 56                              	PUSH	ESI
  3222 0000209D BE 0000001C                     	MOV	ESI,28
  3223 000020A2 53                              	PUSH	EBX
  3224 000020A3 53                              	PUSH	EBX
  3225 000020A4 53                              	PUSH	EBX
  3226 000020A5 A1 [00000BBC]                   	MOV	EAX,DWORD [_log]
  3227 000020AA 8B 18                           	MOV	EBX,DWORD [EAX]
  3228 000020AC 8B 43 04                        	MOV	EAX,DWORD [4+EBX]
  3229 000020AF 83 E8 10                        	SUB	EAX,16
  3230 000020B2 89 45 F0                        	MOV	DWORD [-16+EBP],EAX
  3231 000020B5 8B 43 08                        	MOV	EAX,DWORD [8+EBX]
  3232 000020B8 8D 50 DB                        	LEA	EDX,DWORD [-37+EAX]
  3233 000020BB 83 E8 09                        	SUB	EAX,9
  3234 000020BE 89 55 EC                        	MOV	DWORD [-20+EBP],EDX
  3235 000020C1 39 C6                           	CMP	ESI,EAX
  3236 000020C3 7D 2E                           	JGE	L563
  3237 000020C5                                 L561:
  3238 000020C5 8B 7D F0                        	MOV	EDI,DWORD [-16+EBP]
  3239 000020C8 B9 00000008                     	MOV	ECX,8
  3240 000020CD 83 C7 08                        	ADD	EDI,8
  3241 000020D0 39 F9                           	CMP	ECX,EDI
  3242 000020D2 7D 14                           	JGE	L565
  3243 000020D4                                 L560:
  3244 000020D4 89 F0                           	MOV	EAX,ESI
  3245 000020D6 8B 13                           	MOV	EDX,DWORD [EBX]
  3246 000020D8 0F AF 43 04                     	IMUL	EAX,DWORD [4+EBX]
  3247 000020DC 8D 04 08                        	LEA	EAX,DWORD [EAX+ECX*1]
  3248 000020DF 41                              	INC	ECX
  3249 000020E0 39 F9                           	CMP	ECX,EDI
  3250 000020E2 C6 04 10 00                     	MOV	BYTE [EAX+EDX*1],0
  3251 000020E6 7C EC                           	JL	L560
  3252 000020E8                                 L565:
  3253 000020E8 8B 45 EC                        	MOV	EAX,DWORD [-20+EBP]
  3254 000020EB 46                              	INC	ESI
  3255 000020EC 83 C0 1C                        	ADD	EAX,28
  3256 000020EF 39 C6                           	CMP	ESI,EAX
  3257 000020F1 7C D2                           	JL	L561
  3258 000020F3                                 L563:
  3259 000020F3 8B 45 EC                        	MOV	EAX,DWORD [-20+EBP]
  3260 000020F6 83 C0 1C                        	ADD	EAX,28
  3261 000020F9 50                              	PUSH	EAX
  3262 000020FA 8B 45 F0                        	MOV	EAX,DWORD [-16+EBP]
  3263 000020FD 83 C0 08                        	ADD	EAX,8
  3264 00002100 50                              	PUSH	EAX
  3265 00002101 6A 1C                           	PUSH	28
  3266 00002103 6A 08                           	PUSH	8
  3267 00002105 53                              	PUSH	EBX
  3268 00002106 E8 [00000000]                   	CALL	_sheet_refresh
  3269 0000210B A1 [00000BBC]                   	MOV	EAX,DWORD [_log]
  3270 00002110 C7 40 08 0000001C               	MOV	DWORD [8+EAX],28
  3271 00002117 8D 65 F4                        	LEA	ESP,DWORD [-12+EBP]
  3272 0000211A 5B                              	POP	EBX
  3273 0000211B 5E                              	POP	ESI
  3274 0000211C 5F                              	POP	EDI
  3275 0000211D 5D                              	POP	EBP
  3276 0000211E C3                              	RET
  3277                                          [SECTION .data]
  3278 000007B1                                 LC104:
  3279 000007B1 42 4C 4F 43 4B 5F 53 49 5A 45   	DB	"BLOCK_SIZE = %d",0x0A,0x00
       000007BB 20 3D 20 25 64 0A 00 
  3280 000007C2                                 LC105:
  3281 000007C2 73 69 7A 65 6F 66 28 73 74 72   	DB	"sizeof(struct HEAD) = %d",0x0A,0x00
       000007CC 75 63 74 20 48 45 41 44 29 20 
       000007D6 3D 20 25 64 0A 00 
  3282 000007DC                                 LC106:
  3283 000007DC 42 4F 44 59 5F 53 49 5A 45 20   	DB	"BODY_SIZE = BLOCK_SIZE - sizeof(struct HEAD) = %d",0x0A,0x00
       000007E6 3D 20 42 4C 4F 43 4B 5F 53 49 
       000007F0 5A 45 20 2D 20 73 69 7A 65 6F 
       000007FA 66 28 73 74 72 75 63 74 20 48 
       00000804 45 41 44 29 20 3D 20 25 64 0A 
       0000080E 00 
  3284                                          [SECTION .text]
  3285 0000211F                                 	GLOBAL	_cmd_test
  3286 0000211F                                 _cmd_test:
  3287 0000211F 55                              	PUSH	EBP
  3288 00002120 89 E5                           	MOV	EBP,ESP
  3289 00002122 53                              	PUSH	EBX
  3290 00002123 83 EC 70                        	SUB	ESP,112
  3291 00002126 8D 5D 8C                        	LEA	EBX,DWORD [-116+EBP]
  3292 00002129 68 00000400                     	PUSH	1024
  3293 0000212E 68 [000007B1]                   	PUSH	LC104
  3294 00002133 53                              	PUSH	EBX
  3295 00002134 E8 [00000000]                   	CALL	_sprintf
  3296 00002139 53                              	PUSH	EBX
  3297 0000213A E8 FFFFDEC1                     	CALL	_debug_print
  3298 0000213F 6A 1C                           	PUSH	28
  3299 00002141 68 [000007C2]                   	PUSH	LC105
  3300 00002146 53                              	PUSH	EBX
  3301 00002147 E8 [00000000]                   	CALL	_sprintf
  3302 0000214C 53                              	PUSH	EBX
  3303 0000214D E8 FFFFDEAE                     	CALL	_debug_print
  3304 00002152 83 C4 20                        	ADD	ESP,32
  3305 00002155 68 000003E4                     	PUSH	996
  3306 0000215A 68 [000007DC]                   	PUSH	LC106
  3307 0000215F 53                              	PUSH	EBX
  3308 00002160 E8 [00000000]                   	CALL	_sprintf
  3309 00002165 53                              	PUSH	EBX
  3310 00002166 E8 FFFFDE95                     	CALL	_debug_print
  3311 0000216B FF 75 08                        	PUSH	DWORD [8+EBP]
  3312 0000216E E8 FFFFE762                     	CALL	_cons_newline
  3313 00002173 8B 5D FC                        	MOV	EBX,DWORD [-4+EBP]
  3314 00002176 C9                              	LEAVE
  3315 00002177 C3                              	RET
  3316                                          [SECTION .data]
  3317 0000080F                                 LC107:
  3318 0000080F 09 66 69 6E 66 6F 20 61 64 64   	DB	0x09,"finfo addr = 0x%08x",0x0A,0x00
       00000819 72 20 3D 20 30 78 25 30 38 78 
       00000823 0A 00 
  3319 00000825                                 LC110:
  3320 00000825 09 6E 61 6D 65 3D 25 73 5B 45   	DB	0x09,"name=%s[EOF]",0x0A,0x09,"ext=%s[EOF]",0x0A,0x09,"clustno=%d",0x0A,0x09,"date=%d",0x0A,0x09,"size=%d[byte]",0x0A,0x09,"time=%d",0x0A,0x09,"type=0x%02x",0x0A,0x00
       0000082F 4F 46 5D 0A 09 65 78 74 3D 25 
       00000839 73 5B 45 4F 46 5D 0A 09 63 6C 
       00000843 75 73 74 6E 6F 3D 25 64 0A 09 
       0000084D 64 61 74 65 3D 25 64 0A 09 73 
       00000857 69 7A 65 3D 25 64 5B 62 79 74 
       00000861 65 5D 0A 09 74 69 6D 65 3D 25 
       0000086B 64 0A 09 74 79 70 65 3D 30 78 
       00000875 25 30 32 78 0A 00 
  3321 0000087B                                 LC111:
  3322 0000087B 09 64 65 74 61 69 6C 20 66 69   	DB	0x09,"detail file type: ",0x00
       00000885 6C 65 20 74 79 70 65 3A 20 00 
  3323 0000088F                                 LC116:
  3324 0000088F 25 73 0A 00                     	DB	"%s",0x0A,0x00
  3325 00000893                                 LC115:
  3326 00000893 25 73 20 6F 74 68 65 72 20 00   	DB	"%s other ",0x00
  3327 0000089D                                 LC114:
  3328 0000089D 25 73 20 73 79 73 74 65 6D 20   	DB	"%s system ",0x00
       000008A7 00 
  3329 000008A8                                 LC113:
  3330 000008A8 25 73 20 66 69 6C 65 20 00      	DB	"%s file ",0x00
  3331 000008B1                                 LC112:
  3332 000008B1 25 73 20 64 69 72 65 63 74 6F   	DB	"%s directory/readonly ",0x00
       000008BB 72 79 2F 72 65 61 64 6F 6E 6C 
       000008C5 79 20 00 
  3333 000008C8                                 LC108:
  3334 000008C8 09 25 73 20 77 61 73 20 6E 6F   	DB	0x09,"%s was not found.",0x0A,0x00
       000008D2 74 20 66 6F 75 6E 64 2E 0A 00 
  3335 000008DC                                 LC109:
  3336 000008DC 09 66 69 6E 66 6F 20 6E 75 6D   	DB	0x09,"finfo number was %d.",0x0A,0x00
       000008E6 62 65 72 20 77 61 73 20 25 64 
       000008F0 2E 0A 00 
  3337                                          [SECTION .text]
  3338 00002178                                 	GLOBAL	_cmd_show
  3339 00002178                                 _cmd_show:
  3340 00002178 55                              	PUSH	EBP
  3341 00002179 89 E5                           	MOV	EBP,ESP
  3342 0000217B 57                              	PUSH	EDI
  3343 0000217C 56                              	PUSH	ESI
  3344 0000217D 53                              	PUSH	EBX
  3345 0000217E 8D B5 FFFFFF54                  	LEA	ESI,DWORD [-172+EBP]
  3346 00002184 81 EC 000000A0                  	SUB	ESP,160
  3347 0000218A 8B 45 08                        	MOV	EAX,DWORD [8+EBP]
  3348 0000218D 8B 7D 0C                        	MOV	EDI,DWORD [12+EBP]
  3349 00002190 6A 32                           	PUSH	50
  3350 00002192 83 C7 05                        	ADD	EDI,5
  3351 00002195 FF 70 14                        	PUSH	DWORD [20+EAX]
  3352 00002198 57                              	PUSH	EDI
  3353 00002199 E8 [00000000]                   	CALL	_myfinfo_search
  3354 0000219E 89 C3                           	MOV	EBX,EAX
  3355 000021A0 50                              	PUSH	EAX
  3356 000021A1 68 [0000080F]                   	PUSH	LC107
  3357 000021A6 56                              	PUSH	ESI
  3358 000021A7 E8 [00000000]                   	CALL	_sprintf
  3359 000021AC 56                              	PUSH	ESI
  3360 000021AD FF 75 08                        	PUSH	DWORD [8+EBP]
  3361 000021B0 E8 FFFFE845                     	CALL	_cons_putstr
  3362 000021B5 83 C4 20                        	ADD	ESP,32
  3363 000021B8 85 DB                           	TEST	EBX,EBX
  3364 000021BA 0F 84 000000D0                  	JE	L575
  3365 000021C0 0F B6 43 0B                     	MOVZX	EAX,BYTE [11+EBX]
  3366 000021C4 50                              	PUSH	EAX
  3367 000021C5 0F B7 43 16                     	MOVZX	EAX,WORD [22+EBX]
  3368 000021C9 50                              	PUSH	EAX
  3369 000021CA FF 73 1C                        	PUSH	DWORD [28+EBX]
  3370 000021CD 0F B7 43 18                     	MOVZX	EAX,WORD [24+EBX]
  3371 000021D1 50                              	PUSH	EAX
  3372 000021D2 0F B7 43 1A                     	MOVZX	EAX,WORD [26+EBX]
  3373 000021D6 50                              	PUSH	EAX
  3374 000021D7 8D 43 08                        	LEA	EAX,DWORD [8+EBX]
  3375 000021DA 50                              	PUSH	EAX
  3376 000021DB 53                              	PUSH	EBX
  3377 000021DC 68 [00000825]                   	PUSH	LC110
  3378 000021E1 56                              	PUSH	ESI
  3379 000021E2 E8 [00000000]                   	CALL	_sprintf
  3380 000021E7 83 C4 24                        	ADD	ESP,36
  3381 000021EA 56                              	PUSH	ESI
  3382 000021EB FF 75 08                        	PUSH	DWORD [8+EBP]
  3383 000021EE E8 FFFFE807                     	CALL	_cons_putstr
  3384 000021F3 8A 5B 0B                        	MOV	BL,BYTE [11+EBX]
  3385 000021F6 59                              	POP	ECX
  3386 000021F7 5F                              	POP	EDI
  3387 000021F8 68 [0000087B]                   	PUSH	LC111
  3388 000021FD 56                              	PUSH	ESI
  3389 000021FE E8 [00000000]                   	CALL	_sprintf
  3390 00002203 5F                              	POP	EDI
  3391 00002204 88 D8                           	MOV	AL,BL
  3392 00002206 5A                              	POP	EDX
  3393 00002207 83 E0 10                        	AND	EAX,16
  3394 0000220A 84 C0                           	TEST	AL,AL
  3395 0000220C 75 6E                           	JNE	L576
  3396 0000220E                                 L570:
  3397 0000220E 88 D8                           	MOV	AL,BL
  3398 00002210 83 E0 20                        	AND	EAX,32
  3399 00002213 84 C0                           	TEST	AL,AL
  3400 00002215 75 54                           	JNE	L577
  3401 00002217                                 L571:
  3402 00002217 88 D8                           	MOV	AL,BL
  3403 00002219 83 E0 40                        	AND	EAX,64
  3404 0000221C 84 C0                           	TEST	AL,AL
  3405 0000221E 75 3A                           	JNE	L578
  3406 00002220                                 L572:
  3407 00002220 84 DB                           	TEST	BL,BL
  3408 00002222 78 25                           	JS	L579
  3409 00002224                                 L573:
  3410 00002224 56                              	PUSH	ESI
  3411 00002225 68 [0000088F]                   	PUSH	LC116
  3412 0000222A 56                              	PUSH	ESI
  3413 0000222B E8 [00000000]                   	CALL	_sprintf
  3414 00002230 56                              	PUSH	ESI
  3415 00002231 FF 75 08                        	PUSH	DWORD [8+EBP]
  3416 00002234 E8 FFFFE7EF                     	CALL	_cons_putstr0
  3417 00002239                                 L574:
  3418 00002239 FF 75 08                        	PUSH	DWORD [8+EBP]
  3419 0000223C E8 FFFFE694                     	CALL	_cons_newline
  3420 00002241 8D 65 F4                        	LEA	ESP,DWORD [-12+EBP]
  3421 00002244 5B                              	POP	EBX
  3422 00002245 5E                              	POP	ESI
  3423 00002246 5F                              	POP	EDI
  3424 00002247 5D                              	POP	EBP
  3425 00002248 C3                              	RET
  3426 00002249                                 L579:
  3427 00002249 56                              	PUSH	ESI
  3428 0000224A 68 [00000893]                   	PUSH	LC115
  3429 0000224F 56                              	PUSH	ESI
  3430 00002250 E8 [00000000]                   	CALL	_sprintf
  3431 00002255 83 C4 0C                        	ADD	ESP,12
  3432 00002258 EB CA                           	JMP	L573
  3433 0000225A                                 L578:
  3434 0000225A 56                              	PUSH	ESI
  3435 0000225B 68 [0000089D]                   	PUSH	LC114
  3436 00002260 56                              	PUSH	ESI
  3437 00002261 E8 [00000000]                   	CALL	_sprintf
  3438 00002266 83 C4 0C                        	ADD	ESP,12
  3439 00002269 EB B5                           	JMP	L572
  3440 0000226B                                 L577:
  3441 0000226B 56                              	PUSH	ESI
  3442 0000226C 68 [000008A8]                   	PUSH	LC113
  3443 00002271 56                              	PUSH	ESI
  3444 00002272 E8 [00000000]                   	CALL	_sprintf
  3445 00002277 83 C4 0C                        	ADD	ESP,12
  3446 0000227A EB 9B                           	JMP	L571
  3447 0000227C                                 L576:
  3448 0000227C 56                              	PUSH	ESI
  3449 0000227D 68 [000008B1]                   	PUSH	LC112
  3450 00002282 56                              	PUSH	ESI
  3451 00002283 E8 [00000000]                   	CALL	_sprintf
  3452 00002288 83 C4 0C                        	ADD	ESP,12
  3453 0000228B E9 FFFFFF7E                     	JMP	L570
  3454 00002290                                 L575:
  3455 00002290 57                              	PUSH	EDI
  3456 00002291 68 [000008C8]                   	PUSH	LC108
  3457 00002296 56                              	PUSH	ESI
  3458 00002297 E8 [00000000]                   	CALL	_sprintf
  3459 0000229C 56                              	PUSH	ESI
  3460 0000229D FF 75 08                        	PUSH	DWORD [8+EBP]
  3461 000022A0 E8 FFFFE755                     	CALL	_cons_putstr
  3462 000022A5 6A 00                           	PUSH	0
  3463 000022A7 68 [000008DC]                   	PUSH	LC109
  3464 000022AC 56                              	PUSH	ESI
  3465 000022AD E8 [00000000]                   	CALL	_sprintf
  3466 000022B2 83 C4 20                        	ADD	ESP,32
  3467 000022B5 56                              	PUSH	ESI
  3468 000022B6 FF 75 08                        	PUSH	DWORD [8+EBP]
  3469 000022B9 E8 FFFFE73C                     	CALL	_cons_putstr
  3470 000022BE E9 FFFFFF76                     	JMP	L574
  3471                                          [SECTION .data]
  3472 000008F3                                 LC117:
  3473 000008F3 66 69 6E 66 6F 20 61 64 64 72   	DB	"finfo addr = 0x%08x",0x0A,0x00
       000008FD 20 3D 20 30 78 25 30 38 78 0A 
       00000907 00 
  3474 00000908                                 LC118:
  3475 00000908 66 64 61 74 61 20 61 64 64 72   	DB	"fdata addr = 0x%08x",0x0A,0x00
       00000912 20 3D 20 30 78 25 30 38 78 0A 
       0000091C 00 
  3476 0000091D                                 LC119:
  3477 0000091D 68 65 61 64 2E 64 61 74 61 5F   	DB	"head.data_addr=0x%08x",0x0A,0x00
       00000927 61 64 64 72 3D 30 78 25 30 38 
       00000931 78 0A 00 
  3478 00000934                                 LC120:
  3479 00000934 68 65 61 64 2E 64 69 72 5F 61   	DB	"head.dir_addr=0x%08x",0x0A,0x00
       0000093E 64 64 72 3D 30 78 25 30 38 78 
       00000948 0A 00 
  3480 0000094A                                 LC121:
  3481 0000094A 68 65 61 64 2E 73 74 61 74 3D   	DB	"head.stat=0x%02x",0x0A,0x00
       00000954 30 78 25 30 32 78 0A 00 
  3482 0000095C                                 LC122:
  3483 0000095C 5B 45 4F 46 5D 0A 00            	DB	"[EOF]",0x0A,0x00
  3484 00000963                                 LC123:
  3485 00000963 73 69 7A 65 3A 20 25 64 0A 00   	DB	"size: %d",0x0A,0x00
  3486 0000096D                                 LC124:
  3487 0000096D 09 74 68 69 73 20 69 73 20 6E   	DB	0x09,"this is not file.",0x0A,0x00
       00000977 6F 74 20 66 69 6C 65 2E 0A 00 
  3488                                          [SECTION .text]
  3489 000022C3                                 	GLOBAL	_cmd_fview
  3490 000022C3                                 _cmd_fview:
  3491 000022C3 55                              	PUSH	EBP
  3492 000022C4 89 E5                           	MOV	EBP,ESP
  3493 000022C6 57                              	PUSH	EDI
  3494 000022C7 56                              	PUSH	ESI
  3495 000022C8 53                              	PUSH	EBX
  3496 000022C9 8D 9D FFFFFF64                  	LEA	EBX,DWORD [-156+EBP]
  3497 000022CF 81 EC 00000090                  	SUB	ESP,144
  3498 000022D5 8B 45 08                        	MOV	EAX,DWORD [8+EBP]
  3499 000022D8 8B 7D 0C                        	MOV	EDI,DWORD [12+EBP]
  3500 000022DB 6A 32                           	PUSH	50
  3501 000022DD 83 C7 06                        	ADD	EDI,6
  3502 000022E0 FF 70 14                        	PUSH	DWORD [20+EAX]
  3503 000022E3 57                              	PUSH	EDI
  3504 000022E4 E8 [00000000]                   	CALL	_myfinfo_search
  3505 000022E9 89 C6                           	MOV	ESI,EAX
  3506 000022EB 50                              	PUSH	EAX
  3507 000022EC 68 [000008F3]                   	PUSH	LC117
  3508 000022F1 53                              	PUSH	EBX
  3509 000022F2 E8 [00000000]                   	CALL	_sprintf
  3510 000022F7 53                              	PUSH	EBX
  3511 000022F8 E8 FFFFDD03                     	CALL	_debug_print
  3512 000022FD 83 C4 1C                        	ADD	ESP,28
  3513 00002300 85 F6                           	TEST	ESI,ESI
  3514 00002302 0F 84 000000DE                  	JE	L585
  3515 00002308 8B 46 24                        	MOV	EAX,DWORD [36+ESI]
  3516 0000230B 85 C0                           	TEST	EAX,EAX
  3517 0000230D 0F 84 000000B2                  	JE	L583
  3518 00002313 50                              	PUSH	EAX
  3519 00002314 68 [00000908]                   	PUSH	LC118
  3520 00002319 53                              	PUSH	EBX
  3521 0000231A E8 [00000000]                   	CALL	_sprintf
  3522 0000231F 53                              	PUSH	EBX
  3523 00002320 E8 FFFFDCDB                     	CALL	_debug_print
  3524 00002325 8B 46 24                        	MOV	EAX,DWORD [36+ESI]
  3525 00002328 FF 70 10                        	PUSH	DWORD [16+EAX]
  3526 0000232B 68 [0000091D]                   	PUSH	LC119
  3527 00002330 53                              	PUSH	EBX
  3528 00002331 E8 [00000000]                   	CALL	_sprintf
  3529 00002336 53                              	PUSH	EBX
  3530 00002337 E8 FFFFDCC4                     	CALL	_debug_print
  3531 0000233C 8B 46 24                        	MOV	EAX,DWORD [36+ESI]
  3532 0000233F 83 C4 20                        	ADD	ESP,32
  3533 00002342 FF 70 14                        	PUSH	DWORD [20+EAX]
  3534 00002345 68 [00000934]                   	PUSH	LC120
  3535 0000234A 53                              	PUSH	EBX
  3536 0000234B E8 [00000000]                   	CALL	_sprintf
  3537 00002350 53                              	PUSH	EBX
  3538 00002351 E8 FFFFDCAA                     	CALL	_debug_print
  3539 00002356 8B 46 24                        	MOV	EAX,DWORD [36+ESI]
  3540 00002359 0F B6 00                        	MOVZX	EAX,BYTE [EAX]
  3541 0000235C 50                              	PUSH	EAX
  3542 0000235D 68 [0000094A]                   	PUSH	LC121
  3543 00002362 53                              	PUSH	EBX
  3544 00002363 E8 [00000000]                   	CALL	_sprintf
  3545 00002368 53                              	PUSH	EBX
  3546 00002369 E8 FFFFDC92                     	CALL	_debug_print
  3547 0000236E 83 C4 20                        	ADD	ESP,32
  3548 00002371 FF 76 24                        	PUSH	DWORD [36+ESI]
  3549 00002374 53                              	PUSH	EBX
  3550 00002375 E8 [00000000]                   	CALL	_myfread
  3551 0000237A 53                              	PUSH	EBX
  3552 0000237B FF 75 08                        	PUSH	DWORD [8+EBP]
  3553 0000237E E8 FFFFE677                     	CALL	_cons_putstr
  3554 00002383 68 [0000095C]                   	PUSH	LC122
  3555 00002388 FF 75 08                        	PUSH	DWORD [8+EBP]
  3556 0000238B E8 FFFFE66A                     	CALL	_cons_putstr
  3557 00002390 FF 76 24                        	PUSH	DWORD [36+ESI]
  3558 00002393 E8 [00000000]                   	CALL	_get_size_myfdata
  3559 00002398 89 04 24                        	MOV	DWORD [ESP],EAX
  3560 0000239B 68 [00000963]                   	PUSH	LC123
  3561 000023A0 53                              	PUSH	EBX
  3562 000023A1 E8 [00000000]                   	CALL	_sprintf
  3563 000023A6 83 C4 24                        	ADD	ESP,36
  3564 000023A9 53                              	PUSH	EBX
  3565 000023AA FF 75 08                        	PUSH	DWORD [8+EBP]
  3566 000023AD E8 FFFFE648                     	CALL	_cons_putstr
  3567 000023B2 FF 75 08                        	PUSH	DWORD [8+EBP]
  3568 000023B5 E8 FFFFE51B                     	CALL	_cons_newline
  3569 000023BA 83 C4 0C                        	ADD	ESP,12
  3570 000023BD                                 L580:
  3571 000023BD 8D 65 F4                        	LEA	ESP,DWORD [-12+EBP]
  3572 000023C0 5B                              	POP	EBX
  3573 000023C1 5E                              	POP	ESI
  3574 000023C2 5F                              	POP	EDI
  3575 000023C3 5D                              	POP	EBP
  3576 000023C4 C3                              	RET
  3577 000023C5                                 L583:
  3578 000023C5 68 [0000096D]                   	PUSH	LC124
  3579 000023CA 53                              	PUSH	EBX
  3580 000023CB E8 [00000000]                   	CALL	_sprintf
  3581 000023D0 53                              	PUSH	EBX
  3582 000023D1 FF 75 08                        	PUSH	DWORD [8+EBP]
  3583 000023D4 E8 FFFFE621                     	CALL	_cons_putstr
  3584 000023D9 FF 75 08                        	PUSH	DWORD [8+EBP]
  3585 000023DC E8 FFFFE4F4                     	CALL	_cons_newline
  3586 000023E1 83 C4 14                        	ADD	ESP,20
  3587 000023E4 EB D7                           	JMP	L580
  3588 000023E6                                 L585:
  3589 000023E6 57                              	PUSH	EDI
  3590 000023E7 68 [000008C8]                   	PUSH	LC108
  3591 000023EC 53                              	PUSH	EBX
  3592 000023ED E8 [00000000]                   	CALL	_sprintf
  3593 000023F2 53                              	PUSH	EBX
  3594 000023F3 FF 75 08                        	PUSH	DWORD [8+EBP]
  3595 000023F6 E8 FFFFE5FF                     	CALL	_cons_putstr
  3596 000023FB 6A 00                           	PUSH	0
  3597 000023FD 68 [000008DC]                   	PUSH	LC109
  3598 00002402 53                              	PUSH	EBX
  3599 00002403 E8 [00000000]                   	CALL	_sprintf
  3600 00002408 83 C4 20                        	ADD	ESP,32
  3601 0000240B 53                              	PUSH	EBX
  3602 0000240C FF 75 08                        	PUSH	DWORD [8+EBP]
  3603 0000240F E8 FFFFE5E6                     	CALL	_cons_putstr
  3604 00002414 FF 75 08                        	PUSH	DWORD [8+EBP]
  3605 00002417 E8 FFFFE4B9                     	CALL	_cons_newline
  3606 0000241C EB 9F                           	JMP	L580
  3607                                          [SECTION .data]
  3608 00000981                                 LC125:
  3609 00000981 52 4F 4F 54 20 20 20 20 00      	DB	"ROOT    ",0x00
  3610 0000098A                                 LC127:
  3611 0000098A 6D 61 6B 65 20 66 69 6C 65 73   	DB	"make filesystem!",0x0A,0x00
       00000994 79 73 74 65 6D 21 0A 00 
  3612 0000099C                                 LC126:
  3613 0000099C 66 69 6C 65 6E 61 6D 65 2E 65   	DB	"filename.ext   %7d",0x0A,0x00
       000009A6 78 74 20 20 20 25 37 64 0A 00 
  3614                                          [SECTION .text]
  3615 0000241E                                 	GLOBAL	_cmd_mkfs
  3616 0000241E                                 _cmd_mkfs:
  3617 0000241E 55                              	PUSH	EBP
  3618 0000241F 89 E5                           	MOV	EBP,ESP
  3619 00002421 57                              	PUSH	EDI
  3620 00002422 56                              	PUSH	ESI
  3621 00002423 31 FF                           	XOR	EDI,EDI
  3622 00002425 53                              	PUSH	EBX
  3623 00002426 8D 45 E4                        	LEA	EAX,DWORD [-28+EBP]
  3624 00002429 81 EC 00000800                  	SUB	ESP,2048
  3625 0000242F 8D 75 F4                        	LEA	ESI,DWORD [-12+EBP]
  3626 00002432 68 [00000981]                   	PUSH	LC125
  3627 00002437 50                              	PUSH	EAX
  3628 00002438 E8 [00000000]                   	CALL	_sprintf
  3629 0000243D 8B 45 08                        	MOV	EAX,DWORD [8+EBP]
  3630 00002440 C7 45 EC 00000000               	MOV	DWORD [-20+EBP],0
  3631 00002447 C7 45 F0 00400000               	MOV	DWORD [-16+EBP],4194304
  3632 0000244E C7 40 14 00400000               	MOV	DWORD [20+EAX],4194304
  3633 00002455 59                              	POP	ECX
  3634 00002456 5B                              	POP	EBX
  3635 00002457 31 DB                           	XOR	EBX,EBX
  3636 00002459                                 L614:
  3637 00002459 8A 83 00102600                  	MOV	AL,BYTE [1058304+EBX]
  3638 0000245F 84 C0                           	TEST	AL,AL
  3639 00002461 74 19                           	JE	L588
  3640 00002463 3C E5                           	CMP	AL,-27
  3641 00002465 74 09                           	JE	L589
  3642 00002467 F6 83 0010260B 18               	TEST	BYTE [1058315+EBX],24
  3643 0000246E 74 49                           	JE	L624
  3644 00002470                                 L589:
  3645 00002470 47                              	INC	EDI
  3646 00002471 83 C3 20                        	ADD	EBX,32
  3647 00002474 83 C6 28                        	ADD	ESI,40
  3648 00002477 83 FF 09                        	CMP	EDI,9
  3649 0000247A 7E DD                           	JLE	L614
  3650 0000247C                                 L588:
  3651 0000247C FC                              	CLD
  3652 0000247D 8D B5 FFFFF814                  	LEA	ESI,DWORD [-2028+EBP]
  3653 00002483 BF 00400000                     	MOV	EDI,4194304
  3654 00002488 B9 000001F8                     	MOV	ECX,504
  3655 0000248D 8D 9D FFFFF7F4                  	LEA	EBX,DWORD [-2060+EBP]
  3656 00002493 F3                              	REP
  3657 00002494 A5                              	MOVSD
  3658 00002495 68 [0000098A]                   	PUSH	LC127
  3659 0000249A 53                              	PUSH	EBX
  3660 0000249B E8 [00000000]                   	CALL	_sprintf
  3661 000024A0 53                              	PUSH	EBX
  3662 000024A1 FF 75 08                        	PUSH	DWORD [8+EBP]
  3663 000024A4 E8 FFFFE57F                     	CALL	_cons_putstr0
  3664 000024A9 FF 75 08                        	PUSH	DWORD [8+EBP]
  3665 000024AC E8 FFFFE424                     	CALL	_cons_newline
  3666 000024B1 8D 65 F4                        	LEA	ESP,DWORD [-12+EBP]
  3667 000024B4 5B                              	POP	EBX
  3668 000024B5 5E                              	POP	ESI
  3669 000024B6 5F                              	POP	EDI
  3670 000024B7 5D                              	POP	EBP
  3671 000024B8 C3                              	RET
  3672 000024B9                                 L624:
  3673 000024B9 FF B3 0010261C                  	PUSH	DWORD [1058332+EBX]
  3674 000024BF 68 [0000099C]                   	PUSH	LC126
  3675 000024C4 8D 85 FFFFF7F4                  	LEA	EAX,DWORD [-2060+EBP]
  3676 000024CA 50                              	PUSH	EAX
  3677 000024CB E8 [00000000]                   	CALL	_sprintf
  3678 000024D0 8D 8B 00102600                  	LEA	ECX,DWORD [1058304+EBX]
  3679 000024D6 31 D2                           	XOR	EDX,EDX
  3680 000024D8 83 C4 0C                        	ADD	ESP,12
  3681 000024DB                                 L598:
  3682 000024DB 8A 01                           	MOV	AL,BYTE [ECX]
  3683 000024DD 41                              	INC	ECX
  3684 000024DE 88 84 15 FFFFF7F4               	MOV	BYTE [-2060+EBP+EDX*1],AL
  3685 000024E5 42                              	INC	EDX
  3686 000024E6 83 FA 07                        	CMP	EDX,7
  3687 000024E9 7E F0                           	JLE	L598
  3688 000024EB 8A 83 00102608                  	MOV	AL,BYTE [1058312+EBX]
  3689 000024F1 31 D2                           	XOR	EDX,EDX
  3690 000024F3 88 85 FFFFF7FD                  	MOV	BYTE [-2051+EBP],AL
  3691 000024F9 8D 8E FFFFF828                  	LEA	ECX,DWORD [-2008+ESI]
  3692 000024FF 8A 83 00102609                  	MOV	AL,BYTE [1058313+EBX]
  3693 00002505 88 85 FFFFF7FE                  	MOV	BYTE [-2050+EBP],AL
  3694 0000250B 8A 83 0010260A                  	MOV	AL,BYTE [1058314+EBX]
  3695 00002511 88 85 FFFFF7FF                  	MOV	BYTE [-2049+EBP],AL
  3696 00002517 66 8B 83 0010261A               	MOV	AX,WORD [1058330+EBX]
  3697 0000251E 66 89 86 FFFFF83A               	MOV	WORD [-1990+ESI],AX
  3698 00002525 66 8B 83 00102618               	MOV	AX,WORD [1058328+EBX]
  3699 0000252C 66 89 86 FFFFF838               	MOV	WORD [-1992+ESI],AX
  3700 00002533                                 L603:
  3701 00002533 8A 84 13 00102608               	MOV	AL,BYTE [1058312+EBX+EDX*1]
  3702 0000253A 42                              	INC	EDX
  3703 0000253B 88 01                           	MOV	BYTE [ECX],AL
  3704 0000253D 41                              	INC	ECX
  3705 0000253E 83 FA 02                        	CMP	EDX,2
  3706 00002541 7E F0                           	JLE	L603
  3707 00002543 31 D2                           	XOR	EDX,EDX
  3708 00002545 8D 8B 00102600                  	LEA	ECX,DWORD [1058304+EBX]
  3709 0000254B                                 L608:
  3710 0000254B 8A 01                           	MOV	AL,BYTE [ECX]
  3711 0000254D 41                              	INC	ECX
  3712 0000254E 88 84 32 FFFFF820               	MOV	BYTE [-2016+EDX+ESI*1],AL
  3713 00002555 42                              	INC	EDX
  3714 00002556 83 FA 07                        	CMP	EDX,7
  3715 00002559 7E F0                           	JLE	L608
  3716 0000255B 31 D2                           	XOR	EDX,EDX
  3717 0000255D 8D 8E FFFFF82C                  	LEA	ECX,DWORD [-2004+ESI]
  3718 00002563                                 L613:
  3719 00002563 8A 84 13 0010260C               	MOV	AL,BYTE [1058316+EBX+EDX*1]
  3720 0000256A 42                              	INC	EDX
  3721 0000256B 88 01                           	MOV	BYTE [ECX],AL
  3722 0000256D 41                              	INC	ECX
  3723 0000256E 83 FA 09                        	CMP	EDX,9
  3724 00002571 7E F0                           	JLE	L613
  3725 00002573 8B 83 0010261C                  	MOV	EAX,DWORD [1058332+EBX]
  3726 00002579 89 86 FFFFF83C                  	MOV	DWORD [-1988+ESI],EAX
  3727 0000257F 66 8B 83 00102616               	MOV	AX,WORD [1058326+EBX]
  3728 00002586 66 89 86 FFFFF836               	MOV	WORD [-1994+ESI],AX
  3729 0000258D 8A 83 0010260B                  	MOV	AL,BYTE [1058315+EBX]
  3730 00002593 88 86 FFFFF82B                  	MOV	BYTE [-2005+ESI],AL
  3731 00002599 8D 85 FFFFF7F4                  	LEA	EAX,DWORD [-2060+EBP]
  3732 0000259F 50                              	PUSH	EAX
  3733 000025A0 FF 75 08                        	PUSH	DWORD [8+EBP]
  3734 000025A3 E8 FFFFE480                     	CALL	_cons_putstr0
  3735 000025A8 58                              	POP	EAX
  3736 000025A9 5A                              	POP	EDX
  3737 000025AA E9 FFFFFEC1                     	JMP	L589
  3738                                          [SECTION .data]
  3739 000009B0                                 LC128:
  3740 000009B0 64 69 72 65 63 74 6F 72 79 20   	DB	"directory name",0x09,"%s",0x0A,0x00
       000009BA 6E 61 6D 65 09 25 73 0A 00 
  3741 000009C3                                 LC129:
  3742 000009C3 63 75 72 72 65 6E 74 20 64 69   	DB	"current dir addr",0x09
       000009CD 72 20 61 64 64 72 09 
  3743 000009D4 30 78 25 30 38 78 0A 00         	DB	"0x%08x",0x0A,0x00
  3744 000009DC                                 LC130:
  3745 000009DC 70 61 72 65 6E 74 20 64 69 72   	DB	"parent dir addr",0x09
       000009E6 20 61 64 64 72 09 
  3746 000009EC 30 78 25 30 38 78 0A 00         	DB	"0x%08x",0x0A,0x00
  3747 000009F4                                 LC133:
  3748 000009F4 74 68 69 73 20 64 69 72 65 63   	DB	"this directory has no file...",0x0A,0x00
       000009FE 74 6F 72 79 20 68 61 73 20 6E 
       00000A08 6F 20 66 69 6C 65 2E 2E 2E 0A 
       00000A12 00 
  3749 00000A13                                 LC132:
  3750 00000A13 66 69 6C 65 6E 61 6D 65 20 20   	DB	"filename    ",0x09,"%7d [DIR]",0x0A,0x00
       00000A1D 20 20 09 25 37 64 20 5B 44 49 
       00000A27 52 5D 0A 00 
  3751 00000A2B                                 LC131:
  3752 00000A2B 66 69 6C 65 6E 61 6D 65 2E 65   	DB	"filename.ext",0x09,"%7d [FILE]",0x0A,0x00
       00000A35 78 74 09 25 37 64 20 5B 46 49 
       00000A3F 4C 45 5D 0A 00 
  3753                                          [SECTION .text]
  3754 000025AF                                 	GLOBAL	_cmd_dir
  3755 000025AF                                 _cmd_dir:
  3756 000025AF 55                              	PUSH	EBP
  3757 000025B0 89 E5                           	MOV	EBP,ESP
  3758 000025B2 57                              	PUSH	EDI
  3759 000025B3 56                              	PUSH	ESI
  3760 000025B4 53                              	PUSH	EBX
  3761 000025B5 8D 75 B4                        	LEA	ESI,DWORD [-76+EBP]
  3762 000025B8 83 EC 40                        	SUB	ESP,64
  3763 000025BB 8B 7D 08                        	MOV	EDI,DWORD [8+EBP]
  3764 000025BE 8B 5F 14                        	MOV	EBX,DWORD [20+EDI]
  3765 000025C1 8D 83 000007D0                  	LEA	EAX,DWORD [2000+EBX]
  3766 000025C7 50                              	PUSH	EAX
  3767 000025C8 68 [000009B0]                   	PUSH	LC128
  3768 000025CD 56                              	PUSH	ESI
  3769 000025CE E8 [00000000]                   	CALL	_sprintf
  3770 000025D3 56                              	PUSH	ESI
  3771 000025D4 57                              	PUSH	EDI
  3772 000025D5 E8 FFFFE420                     	CALL	_cons_putstr
  3773 000025DA FF B3 000007DC                  	PUSH	DWORD [2012+EBX]
  3774 000025E0 68 [000009C3]                   	PUSH	LC129
  3775 000025E5 56                              	PUSH	ESI
  3776 000025E6 E8 [00000000]                   	CALL	_sprintf
  3777 000025EB 83 C4 20                        	ADD	ESP,32
  3778 000025EE 56                              	PUSH	ESI
  3779 000025EF E8 FFFFDA0C                     	CALL	_debug_print
  3780 000025F4 FF B3 000007D8                  	PUSH	DWORD [2008+EBX]
  3781 000025FA 68 [000009DC]                   	PUSH	LC130
  3782 000025FF 56                              	PUSH	ESI
  3783 00002600 E8 [00000000]                   	CALL	_sprintf
  3784 00002605 56                              	PUSH	ESI
  3785 00002606 31 F6                           	XOR	ESI,ESI
  3786 00002608 E8 FFFFD9F3                     	CALL	_debug_print
  3787 0000260D 83 C4 14                        	ADD	ESP,20
  3788 00002610                                 L645:
  3789 00002610 8A 03                           	MOV	AL,BYTE [EBX]
  3790 00002612 84 C0                           	TEST	AL,AL
  3791 00002614 74 1E                           	JE	L627
  3792 00002616 3C E5                           	CMP	AL,-27
  3793 00002618 74 11                           	JE	L628
  3794 0000261A 8A 43 0B                        	MOV	AL,BYTE [11+EBX]
  3795 0000261D A9 00000018                     	TEST	EAX,24
  3796 00002622 74 6D                           	JE	L653
  3797 00002624 83 E0 10                        	AND	EAX,16
  3798 00002627 84 C0                           	TEST	AL,AL
  3799 00002629 75 35                           	JNE	L654
  3800 0000262B                                 L628:
  3801 0000262B 46                              	INC	ESI
  3802 0000262C 83 C3 28                        	ADD	EBX,40
  3803 0000262F 83 FE 31                        	CMP	ESI,49
  3804 00002632 7E DC                           	JLE	L645
  3805 00002634                                 L627:
  3806 00002634 85 F6                           	TEST	ESI,ESI
  3807 00002636 74 0E                           	JE	L655
  3808 00002638                                 L646:
  3809 00002638 57                              	PUSH	EDI
  3810 00002639 E8 FFFFE297                     	CALL	_cons_newline
  3811 0000263E 8D 65 F4                        	LEA	ESP,DWORD [-12+EBP]
  3812 00002641 5B                              	POP	EBX
  3813 00002642 5E                              	POP	ESI
  3814 00002643 5F                              	POP	EDI
  3815 00002644 5D                              	POP	EBP
  3816 00002645 C3                              	RET
  3817 00002646                                 L655:
  3818 00002646 68 [000009F4]                   	PUSH	LC133
  3819 0000264B 8D 5D B4                        	LEA	EBX,DWORD [-76+EBP]
  3820 0000264E 53                              	PUSH	EBX
  3821 0000264F E8 [00000000]                   	CALL	_sprintf
  3822 00002654 53                              	PUSH	EBX
  3823 00002655 57                              	PUSH	EDI
  3824 00002656 E8 FFFFE39F                     	CALL	_cons_putstr
  3825 0000265B 83 C4 10                        	ADD	ESP,16
  3826 0000265E EB D8                           	JMP	L646
  3827 00002660                                 L654:
  3828 00002660 FF 73 1C                        	PUSH	DWORD [28+EBX]
  3829 00002663 68 [00000A13]                   	PUSH	LC132
  3830 00002668 8D 45 B4                        	LEA	EAX,DWORD [-76+EBP]
  3831 0000266B 50                              	PUSH	EAX
  3832 0000266C E8 [00000000]                   	CALL	_sprintf
  3833 00002671 83 C4 0C                        	ADD	ESP,12
  3834 00002674 31 D2                           	XOR	EDX,EDX
  3835 00002676                                 L644:
  3836 00002676 8A 04 1A                        	MOV	AL,BYTE [EDX+EBX*1]
  3837 00002679 88 44 15 B4                     	MOV	BYTE [-76+EBP+EDX*1],AL
  3838 0000267D 42                              	INC	EDX
  3839 0000267E 83 FA 07                        	CMP	EDX,7
  3840 00002681 7E F3                           	JLE	L644
  3841 00002683                                 L652:
  3842 00002683 8D 45 B4                        	LEA	EAX,DWORD [-76+EBP]
  3843 00002686 50                              	PUSH	EAX
  3844 00002687 57                              	PUSH	EDI
  3845 00002688 E8 FFFFE36D                     	CALL	_cons_putstr
  3846 0000268D 58                              	POP	EAX
  3847 0000268E 5A                              	POP	EDX
  3848 0000268F EB 9A                           	JMP	L628
  3849 00002691                                 L653:
  3850 00002691 FF 73 1C                        	PUSH	DWORD [28+EBX]
  3851 00002694 68 [00000A2B]                   	PUSH	LC131
  3852 00002699 8D 45 B4                        	LEA	EAX,DWORD [-76+EBP]
  3853 0000269C 50                              	PUSH	EAX
  3854 0000269D E8 [00000000]                   	CALL	_sprintf
  3855 000026A2 83 C4 0C                        	ADD	ESP,12
  3856 000026A5 31 D2                           	XOR	EDX,EDX
  3857 000026A7                                 L637:
  3858 000026A7 8A 04 1A                        	MOV	AL,BYTE [EDX+EBX*1]
  3859 000026AA 88 44 15 B4                     	MOV	BYTE [-76+EBP+EDX*1],AL
  3860 000026AE 42                              	INC	EDX
  3861 000026AF 83 FA 07                        	CMP	EDX,7
  3862 000026B2 7E F3                           	JLE	L637
  3863 000026B4 8A 43 08                        	MOV	AL,BYTE [8+EBX]
  3864 000026B7 88 45 BD                        	MOV	BYTE [-67+EBP],AL
  3865 000026BA 8A 43 09                        	MOV	AL,BYTE [9+EBX]
  3866 000026BD 88 45 BE                        	MOV	BYTE [-66+EBP],AL
  3867 000026C0 8A 43 0A                        	MOV	AL,BYTE [10+EBX]
  3868 000026C3 88 45 BF                        	MOV	BYTE [-65+EBP],AL
  3869 000026C6 EB BB                           	JMP	L652
  3870                                          [SECTION .data]
  3871 00000A44                                 LC134:
  3872 00000A44 66 69 6C 65 74 79 70 65 3D 30   	DB	"filetype=0x%02x",0x0A,0x00
       00000A4E 78 25 30 32 78 0A 00 
  3873                                          [SECTION .text]
  3874 000026C8                                 	GLOBAL	_cmd_fddir
  3875 000026C8                                 _cmd_fddir:
  3876 000026C8 55                              	PUSH	EBP
  3877 000026C9 89 E5                           	MOV	EBP,ESP
  3878 000026CB 57                              	PUSH	EDI
  3879 000026CC 56                              	PUSH	ESI
  3880 000026CD 31 FF                           	XOR	EDI,EDI
  3881 000026CF 53                              	PUSH	EBX
  3882 000026D0 31 F6                           	XOR	ESI,ESI
  3883 000026D2 83 EC 20                        	SUB	ESP,32
  3884 000026D5                                 L669:
  3885 000026D5 8A 86 00102600                  	MOV	AL,BYTE [1058304+ESI]
  3886 000026DB 84 C0                           	TEST	AL,AL
  3887 000026DD 74 16                           	JE	L658
  3888 000026DF 3C E5                           	CMP	AL,-27
  3889 000026E1 74 09                           	JE	L659
  3890 000026E3 F6 86 0010260B 18               	TEST	BYTE [1058315+ESI],24
  3891 000026EA 74 19                           	JE	L673
  3892 000026EC                                 L659:
  3893 000026EC 47                              	INC	EDI
  3894 000026ED 83 C6 20                        	ADD	ESI,32
  3895 000026F0 83 FF 31                        	CMP	EDI,49
  3896 000026F3 7E E0                           	JLE	L669
  3897 000026F5                                 L658:
  3898 000026F5 FF 75 08                        	PUSH	DWORD [8+EBP]
  3899 000026F8 E8 FFFFE1D8                     	CALL	_cons_newline
  3900 000026FD 8D 65 F4                        	LEA	ESP,DWORD [-12+EBP]
  3901 00002700 5B                              	POP	EBX
  3902 00002701 5E                              	POP	ESI
  3903 00002702 5F                              	POP	EDI
  3904 00002703 5D                              	POP	EBP
  3905 00002704 C3                              	RET
  3906 00002705                                 L673:
  3907 00002705 FF B6 0010261C                  	PUSH	DWORD [1058332+ESI]
  3908 0000270B 68 [0000099C]                   	PUSH	LC126
  3909 00002710 8D 45 D4                        	LEA	EAX,DWORD [-44+EBP]
  3910 00002713 50                              	PUSH	EAX
  3911 00002714 E8 [00000000]                   	CALL	_sprintf
  3912 00002719 8D 96 00102600                  	LEA	EDX,DWORD [1058304+ESI]
  3913 0000271F 31 C9                           	XOR	ECX,ECX
  3914 00002721 83 C4 0C                        	ADD	ESP,12
  3915 00002724                                 L668:
  3916 00002724 8A 02                           	MOV	AL,BYTE [EDX]
  3917 00002726 42                              	INC	EDX
  3918 00002727 88 44 0D D4                     	MOV	BYTE [-44+EBP+ECX*1],AL
  3919 0000272B 41                              	INC	ECX
  3920 0000272C 83 F9 07                        	CMP	ECX,7
  3921 0000272F 7E F3                           	JLE	L668
  3922 00002731 8A 86 00102608                  	MOV	AL,BYTE [1058312+ESI]
  3923 00002737 8D 5D D4                        	LEA	EBX,DWORD [-44+EBP]
  3924 0000273A 88 45 DD                        	MOV	BYTE [-35+EBP],AL
  3925 0000273D 8A 86 00102609                  	MOV	AL,BYTE [1058313+ESI]
  3926 00002743 88 45 DE                        	MOV	BYTE [-34+EBP],AL
  3927 00002746 8A 86 0010260A                  	MOV	AL,BYTE [1058314+ESI]
  3928 0000274C 53                              	PUSH	EBX
  3929 0000274D FF 75 08                        	PUSH	DWORD [8+EBP]
  3930 00002750 88 45 DF                        	MOV	BYTE [-33+EBP],AL
  3931 00002753 E8 FFFFE2D0                     	CALL	_cons_putstr0
  3932 00002758 0F B6 86 0010260B               	MOVZX	EAX,BYTE [1058315+ESI]
  3933 0000275F 50                              	PUSH	EAX
  3934 00002760 68 [00000A44]                   	PUSH	LC134
  3935 00002765 53                              	PUSH	EBX
  3936 00002766 E8 [00000000]                   	CALL	_sprintf
  3937 0000276B 53                              	PUSH	EBX
  3938 0000276C FF 75 08                        	PUSH	DWORD [8+EBP]
  3939 0000276F E8 FFFFE2B4                     	CALL	_cons_putstr0
  3940 00002774 83 C4 1C                        	ADD	ESP,28
  3941 00002777 E9 FFFFFF70                     	JMP	L659
  3942 0000277C                                 	GLOBAL	_cmd_exit
  3943 0000277C                                 _cmd_exit:
  3944 0000277C 55                              	PUSH	EBP
  3945 0000277D 89 E5                           	MOV	EBP,ESP
  3946 0000277F 57                              	PUSH	EDI
  3947 00002780 56                              	PUSH	ESI
  3948 00002781 53                              	PUSH	EBX
  3949 00002782 50                              	PUSH	EAX
  3950 00002783 8B 5D 08                        	MOV	EBX,DWORD [8+EBP]
  3951 00002786 E8 [00000000]                   	CALL	_task_now
  3952 0000278B 8B 35 00000FE4                  	MOV	ESI,DWORD [4068]
  3953 00002791 8B 3D 00000FEC                  	MOV	EDI,DWORD [4076]
  3954 00002797 89 45 F0                        	MOV	DWORD [-16+EBP],EAX
  3955 0000279A 83 3B 00                        	CMP	DWORD [EBX],0
  3956 0000279D 74 09                           	JE	L675
  3957 0000279F FF 73 10                        	PUSH	DWORD [16+EBX]
  3958 000027A2 E8 [00000000]                   	CALL	_timer_cancel
  3959 000027A7 58                              	POP	EAX
  3960 000027A8                                 L675:
  3961 000027A8 68 00002D00                     	PUSH	11520
  3962 000027AD FF 75 0C                        	PUSH	DWORD [12+EBP]
  3963 000027B0 68 003C0000                     	PUSH	3932160
  3964 000027B5 E8 [00000000]                   	CALL	_memman_free_4k
  3965 000027BA E8 [00000000]                   	CALL	_io_cli
  3966 000027BF 8B 03                           	MOV	EAX,DWORD [EBX]
  3967 000027C1 83 C4 0C                        	ADD	ESP,12
  3968 000027C4 85 C0                           	TEST	EAX,EAX
  3969 000027C6 74 2E                           	JE	L676
  3970 000027C8 29 F0                           	SUB	EAX,ESI
  3971 000027CA 2D 00000414                     	SUB	EAX,1044
  3972 000027CF C1 F8 03                        	SAR	EAX,3
  3973 000027D2 69 C0 CCCCCCCD                  	IMUL	EAX,EAX,-858993459
  3974 000027D8 05 00000300                     	ADD	EAX,768
  3975 000027DD                                 L681:
  3976 000027DD 50                              	PUSH	EAX
  3977 000027DE 57                              	PUSH	EDI
  3978 000027DF E8 [00000000]                   	CALL	_fifo32_put
  3979 000027E4 5B                              	POP	EBX
  3980 000027E5 5E                              	POP	ESI
  3981 000027E6 E8 [00000000]                   	CALL	_io_sti
  3982 000027EB                                 L678:
  3983 000027EB FF 75 F0                        	PUSH	DWORD [-16+EBP]
  3984 000027EE E8 [00000000]                   	CALL	_task_sleep
  3985 000027F3 59                              	POP	ECX
  3986 000027F4 EB F5                           	JMP	L678
  3987 000027F6                                 L676:
  3988 000027F6 8B 45 F0                        	MOV	EAX,DWORD [-16+EBP]
  3989 000027F9 2B 05 [00000000]                	SUB	EAX,DWORD [_taskctl]
  3990 000027FF 2D 00001004                     	SUB	EAX,4100
  3991 00002804 C1 F8 02                        	SAR	EAX,2
  3992 00002807 69 C0 1A1F58D1                  	IMUL	EAX,EAX,438261969
  3993 0000280D 05 00000400                     	ADD	EAX,1024
  3994 00002812 EB C9                           	JMP	L681
  3995 00002814                                 	GLOBAL	_cmd_start
  3996 00002814                                 _cmd_start:
  3997 00002814 55                              	PUSH	EBP
  3998 00002815 89 E5                           	MOV	EBP,ESP
  3999 00002817 57                              	PUSH	EDI
  4000 00002818 56                              	PUSH	ESI
  4001 00002819 53                              	PUSH	EBX
  4002 0000281A 57                              	PUSH	EDI
  4003 0000281B 57                              	PUSH	EDI
  4004 0000281C 8B 45 08                        	MOV	EAX,DWORD [8+EBP]
  4005 0000281F 8B 7D 0C                        	MOV	EDI,DWORD [12+EBP]
  4006 00002822 8B 35 00000FE4                  	MOV	ESI,DWORD [4068]
  4007 00002828 89 45 F0                        	MOV	DWORD [-16+EBP],EAX
  4008 0000282B FF 75 10                        	PUSH	DWORD [16+EBP]
  4009 0000282E 56                              	PUSH	ESI
  4010 0000282F E8 [00000000]                   	CALL	_open_console
  4011 00002834 89 C3                           	MOV	EBX,EAX
  4012 00002836 8B 40 24                        	MOV	EAX,DWORD [36+EAX]
  4013 00002839 83 C0 10                        	ADD	EAX,16
  4014 0000283C 89 45 EC                        	MOV	DWORD [-20+EBP],EAX
  4015 0000283F 6A 04                           	PUSH	4
  4016 00002841 6A 20                           	PUSH	32
  4017 00002843 53                              	PUSH	EBX
  4018 00002844 E8 [00000000]                   	CALL	_sheet_slide
  4019 00002849 FF 76 10                        	PUSH	DWORD [16+ESI]
  4020 0000284C 53                              	PUSH	EBX
  4021 0000284D BB 00000006                     	MOV	EBX,6
  4022 00002852 E8 [00000000]                   	CALL	_sheet_updown
  4023 00002857 83 C4 1C                        	ADD	ESP,28
  4024 0000285A 80 7F 06 00                     	CMP	BYTE [6+EDI],0
  4025 0000285E 75 21                           	JNE	L687
  4026 00002860                                 L689:
  4027 00002860 68 0000010A                     	PUSH	266
  4028 00002865 FF 75 EC                        	PUSH	DWORD [-20+EBP]
  4029 00002868 E8 [00000000]                   	CALL	_fifo32_put
  4030 0000286D 58                              	POP	EAX
  4031 0000286E 8B 45 F0                        	MOV	EAX,DWORD [-16+EBP]
  4032 00002871 5A                              	POP	EDX
  4033 00002872 89 45 08                        	MOV	DWORD [8+EBP],EAX
  4034 00002875 8D 65 F4                        	LEA	ESP,DWORD [-12+EBP]
  4035 00002878 5B                              	POP	EBX
  4036 00002879 5E                              	POP	ESI
  4037 0000287A 5F                              	POP	EDI
  4038 0000287B 5D                              	POP	EBP
  4039 0000287C E9 FFFFE054                     	JMP	_cons_newline
  4040 00002881                                 L687:
  4041 00002881 0F BE 04 3B                     	MOVSX	EAX,BYTE [EBX+EDI*1]
  4042 00002885 05 00000100                     	ADD	EAX,256
  4043 0000288A 43                              	INC	EBX
  4044 0000288B 50                              	PUSH	EAX
  4045 0000288C FF 75 EC                        	PUSH	DWORD [-20+EBP]
  4046 0000288F E8 [00000000]                   	CALL	_fifo32_put
  4047 00002894 80 3C 3B 00                     	CMP	BYTE [EBX+EDI*1],0
  4048 00002898 59                              	POP	ECX
  4049 00002899 5E                              	POP	ESI
  4050 0000289A 75 E5                           	JNE	L687
  4051 0000289C EB C2                           	JMP	L689
  4052 0000289E                                 	GLOBAL	_cmd_ncst
  4053 0000289E                                 _cmd_ncst:
  4054 0000289E 55                              	PUSH	EBP
  4055 0000289F 89 E5                           	MOV	EBP,ESP
  4056 000028A1 57                              	PUSH	EDI
  4057 000028A2 56                              	PUSH	ESI
  4058 000028A3 BE 00000005                     	MOV	ESI,5
  4059 000028A8 53                              	PUSH	EBX
  4060 000028A9 51                              	PUSH	ECX
  4061 000028AA 8B 45 08                        	MOV	EAX,DWORD [8+EBP]
  4062 000028AD 8B 5D 0C                        	MOV	EBX,DWORD [12+EBP]
  4063 000028B0 89 45 F0                        	MOV	DWORD [-16+EBP],EAX
  4064 000028B3 FF 75 10                        	PUSH	DWORD [16+EBP]
  4065 000028B6 6A 00                           	PUSH	0
  4066 000028B8 E8 [00000000]                   	CALL	_open_constask
  4067 000028BD 80 7B 05 00                     	CMP	BYTE [5+EBX],0
  4068 000028C1 8D 78 10                        	LEA	EDI,DWORD [16+EAX]
  4069 000028C4 58                              	POP	EAX
  4070 000028C5 5A                              	POP	EDX
  4071 000028C6 75 1F                           	JNE	L695
  4072 000028C8                                 L697:
  4073 000028C8 68 0000010A                     	PUSH	266
  4074 000028CD 57                              	PUSH	EDI
  4075 000028CE E8 [00000000]                   	CALL	_fifo32_put
  4076 000028D3 58                              	POP	EAX
  4077 000028D4 8B 45 F0                        	MOV	EAX,DWORD [-16+EBP]
  4078 000028D7 5A                              	POP	EDX
  4079 000028D8 89 45 08                        	MOV	DWORD [8+EBP],EAX
  4080 000028DB 8D 65 F4                        	LEA	ESP,DWORD [-12+EBP]
  4081 000028DE 5B                              	POP	EBX
  4082 000028DF 5E                              	POP	ESI
  4083 000028E0 5F                              	POP	EDI
  4084 000028E1 5D                              	POP	EBP
  4085 000028E2 E9 FFFFDFEE                     	JMP	_cons_newline
  4086 000028E7                                 L695:
  4087 000028E7 0F BE 04 1E                     	MOVSX	EAX,BYTE [ESI+EBX*1]
  4088 000028EB 05 00000100                     	ADD	EAX,256
  4089 000028F0 46                              	INC	ESI
  4090 000028F1 50                              	PUSH	EAX
  4091 000028F2 57                              	PUSH	EDI
  4092 000028F3 E8 [00000000]                   	CALL	_fifo32_put
  4093 000028F8 80 3C 1E 00                     	CMP	BYTE [ESI+EBX*1],0
  4094 000028FC 59                              	POP	ECX
  4095 000028FD 58                              	POP	EAX
  4096 000028FE 75 E7                           	JNE	L695
  4097 00002900 EB C6                           	JMP	L697
  4098                                          [SECTION .data]
  4099 00000A55                                 LC135:
  4100 00000A55 54 61 73 6B 20 4E 61 6D 65 3A   	DB	"Task Name:%s",0x0A,"ID:%d",0x0A,"Priority:%d",0x0A,"State: Running",0x0A,0x00
       00000A5F 25 73 0A 49 44 3A 25 64 0A 50 
       00000A69 72 69 6F 72 69 74 79 3A 25 64 
       00000A73 0A 53 74 61 74 65 3A 20 52 75 
       00000A7D 6E 6E 69 6E 67 0A 00 
  4101                                          [SECTION .text]
  4102 00002902                                 	GLOBAL	_cmd_top
  4103 00002902                                 _cmd_top:
  4104 00002902 55                              	PUSH	EBP
  4105 00002903 89 E5                           	MOV	EBP,ESP
  4106 00002905 57                              	PUSH	EDI
  4107 00002906 56                              	PUSH	ESI
  4108 00002907 BE 00000001                     	MOV	ESI,1
  4109 0000290C 53                              	PUSH	EBX
  4110 0000290D 83 EC 40                        	SUB	ESP,64
  4111 00002910 8B 15 [00000000]                	MOV	EDX,DWORD [_taskctl]
  4112 00002916 8B 7D 08                        	MOV	EDI,DWORD [8+EBP]
  4113 00002919 3B 32                           	CMP	ESI,DWORD [EDX]
  4114 0000291B 7C 0E                           	JL	L703
  4115 0000291D                                 L705:
  4116 0000291D 57                              	PUSH	EDI
  4117 0000291E E8 FFFFDFB2                     	CALL	_cons_newline
  4118 00002923 8D 65 F4                        	LEA	ESP,DWORD [-12+EBP]
  4119 00002926 5B                              	POP	EBX
  4120 00002927 5E                              	POP	ESI
  4121 00002928 5F                              	POP	EDI
  4122 00002929 5D                              	POP	EBP
  4123 0000292A C3                              	RET
  4124 0000292B                                 L703:
  4125 0000292B 8B 84 B2 00030DA4               	MOV	EAX,DWORD [200100+EDX+ESI*4]
  4126 00002932 8D 5D B4                        	LEA	EBX,DWORD [-76+EBP]
  4127 00002935 FF 70 0C                        	PUSH	DWORD [12+EAX]
  4128 00002938 8B 84 B2 00030DA4               	MOV	EAX,DWORD [200100+EDX+ESI*4]
  4129 0000293F FF 30                           	PUSH	DWORD [EAX]
  4130 00002941 8B 84 B2 00030DA4               	MOV	EAX,DWORD [200100+EDX+ESI*4]
  4131 00002948 46                              	INC	ESI
  4132 00002949 FF B0 000000BC                  	PUSH	DWORD [188+EAX]
  4133 0000294F 68 [00000A55]                   	PUSH	LC135
  4134 00002954 53                              	PUSH	EBX
  4135 00002955 E8 [00000000]                   	CALL	_sprintf
  4136 0000295A 53                              	PUSH	EBX
  4137 0000295B 57                              	PUSH	EDI
  4138 0000295C E8 FFFFE0C7                     	CALL	_cons_putstr0
  4139 00002961 68 [00000355]                   	PUSH	LC72
  4140 00002966 57                              	PUSH	EDI
  4141 00002967 E8 FFFFE0BC                     	CALL	_cons_putstr0
  4142 0000296C 8B 15 [00000000]                	MOV	EDX,DWORD [_taskctl]
  4143 00002972 83 C4 24                        	ADD	ESP,36
  4144 00002975 3B 32                           	CMP	ESI,DWORD [EDX]
  4145 00002977 7C B2                           	JL	L703
  4146 00002979 EB A2                           	JMP	L705
  4147                                          [SECTION .data]
  4148 00000A84                                 LC136:
  4149 00000A84 6D 6F 64 65 20 6E 75 6D 62 65   	DB	"mode number error.",0x0A,0x00
       00000A8E 72 20 65 72 72 6F 72 2E 0A 00 
  4150                                          [SECTION .text]
  4151 0000297B                                 	GLOBAL	_cmd_langmode
  4152 0000297B                                 _cmd_langmode:
  4153 0000297B 55                              	PUSH	EBP
  4154 0000297C 89 E5                           	MOV	EBP,ESP
  4155 0000297E 56                              	PUSH	ESI
  4156 0000297F 53                              	PUSH	EBX
  4157 00002980 8B 5D 0C                        	MOV	EBX,DWORD [12+EBP]
  4158 00002983 8B 75 08                        	MOV	ESI,DWORD [8+EBP]
  4159 00002986 E8 [00000000]                   	CALL	_task_now
  4160 0000298B 8A 53 09                        	MOV	DL,BYTE [9+EBX]
  4161 0000298E 83 EA 30                        	SUB	EDX,48
  4162 00002991 80 FA 02                        	CMP	DL,2
  4163 00002994 77 14                           	JA	L707
  4164 00002996 88 90 000000C0                  	MOV	BYTE [192+EAX],DL
  4165 0000299C                                 L708:
  4166 0000299C 89 75 08                        	MOV	DWORD [8+EBP],ESI
  4167 0000299F 8D 65 F8                        	LEA	ESP,DWORD [-8+EBP]
  4168 000029A2 5B                              	POP	EBX
  4169 000029A3 5E                              	POP	ESI
  4170 000029A4 5D                              	POP	EBP
  4171 000029A5 E9 FFFFDF2B                     	JMP	_cons_newline
  4172 000029AA                                 L707:
  4173 000029AA 68 [00000A84]                   	PUSH	LC136
  4174 000029AF 56                              	PUSH	ESI
  4175 000029B0 E8 FFFFE073                     	CALL	_cons_putstr0
  4176 000029B5 5B                              	POP	EBX
  4177 000029B6 58                              	POP	EAX
  4178 000029B7 EB E3                           	JMP	L708
  4179                                          [SECTION .data]
  4180 00000A98                                 LC137:
  4181 00000A98 48 61 72 69 00                  	DB	"Hari",0x00
  4182 00000A9D                                 LC138:
  4183 00000A9D 2E 68 72 62 20 66 69 6C 65 20   	DB	".hrb file format error.",0x0A,0x00
       00000AA7 66 6F 72 6D 61 74 20 65 72 72 
       00000AB1 6F 72 2E 0A 00 
  4184                                          [SECTION .text]
  4185 000029B9                                 	GLOBAL	_cmd_app
  4186 000029B9                                 _cmd_app:
  4187 000029B9 55                              	PUSH	EBP
  4188 000029BA 89 E5                           	MOV	EBP,ESP
  4189 000029BC 57                              	PUSH	EDI
  4190 000029BD 56                              	PUSH	ESI
  4191 000029BE 31 F6                           	XOR	ESI,ESI
  4192 000029C0 53                              	PUSH	EBX
  4193 000029C1 83 EC 34                        	SUB	ESP,52
  4194 000029C4 8B 5D 10                        	MOV	EBX,DWORD [16+EBP]
  4195 000029C7 E8 [00000000]                   	CALL	_task_now
  4196 000029CC 89 45 C8                        	MOV	DWORD [-56+EBP],EAX
  4197 000029CF                                 L715:
  4198 000029CF 8A 04 1E                        	MOV	AL,BYTE [ESI+EBX*1]
  4199 000029D2 3C 20                           	CMP	AL,32
  4200 000029D4 7E 0A                           	JLE	L711
  4201 000029D6 88 44 35 D4                     	MOV	BYTE [-44+EBP+ESI*1],AL
  4202 000029DA 46                              	INC	ESI
  4203 000029DB 83 FE 0C                        	CMP	ESI,12
  4204 000029DE 7E EF                           	JLE	L715
  4205 000029E0                                 L711:
  4206 000029E0 68 000000E0                     	PUSH	224
  4207 000029E5 8D 5D D4                        	LEA	EBX,DWORD [-44+EBP]
  4208 000029E8 68 00102600                     	PUSH	1058304
  4209 000029ED 53                              	PUSH	EBX
  4210 000029EE C6 44 35 D4 00                  	MOV	BYTE [-44+EBP+ESI*1],0
  4211 000029F3 E8 [00000000]                   	CALL	_file_search
  4212 000029F8 83 C4 0C                        	ADD	ESP,12
  4213 000029FB 89 C2                           	MOV	EDX,EAX
  4214 000029FD 85 C0                           	TEST	EAX,EAX
  4215 000029FF 0F 84 000001B6                  	JE	L745
  4216 00002A05                                 L744:
  4217 00002A05 8B 42 1C                        	MOV	EAX,DWORD [28+EDX]
  4218 00002A08 89 45 D0                        	MOV	DWORD [-48+EBP],EAX
  4219 00002A0B 8D 45 D0                        	LEA	EAX,DWORD [-48+EBP]
  4220 00002A0E FF 75 0C                        	PUSH	DWORD [12+EBP]
  4221 00002A11 50                              	PUSH	EAX
  4222 00002A12 0F B7 42 1A                     	MOVZX	EAX,WORD [26+EDX]
  4223 00002A16 50                              	PUSH	EAX
  4224 00002A17 E8 [00000000]                   	CALL	_file_loadfile2
  4225 00002A1C 83 C4 0C                        	ADD	ESP,12
  4226 00002A1F 83 7D D0 23                     	CMP	DWORD [-48+EBP],35
  4227 00002A23 89 45 CC                        	MOV	DWORD [-52+EBP],EAX
  4228 00002A26 7E 1C                           	JLE	L718
  4229 00002A28 89 C6                           	MOV	ESI,EAX
  4230 00002A2A BF [00000A98]                   	MOV	EDI,LC137
  4231 00002A2F FC                              	CLD
  4232 00002A30 83 C6 04                        	ADD	ESI,4
  4233 00002A33 B9 00000004                     	MOV	ECX,4
  4234 00002A38 F3                              	REPE
  4235 00002A39 A6                              	CMPSB
  4236 00002A3A 75 08                           	JNE	L718
  4237 00002A3C 8B 45 CC                        	MOV	EAX,DWORD [-52+EBP]
  4238 00002A3F 80 38 00                        	CMP	BYTE [EAX],0
  4239 00002A42 74 34                           	JE	L746
  4240 00002A44                                 L718:
  4241 00002A44 68 [00000A9D]                   	PUSH	LC138
  4242 00002A49 FF 75 08                        	PUSH	DWORD [8+EBP]
  4243 00002A4C E8 FFFFDFD7                     	CALL	_cons_putstr0
  4244 00002A51 58                              	POP	EAX
  4245 00002A52 5A                              	POP	EDX
  4246 00002A53                                 L736:
  4247 00002A53 FF 75 D0                        	PUSH	DWORD [-48+EBP]
  4248 00002A56 FF 75 CC                        	PUSH	DWORD [-52+EBP]
  4249 00002A59 68 003C0000                     	PUSH	3932160
  4250 00002A5E E8 [00000000]                   	CALL	_memman_free_4k
  4251 00002A63 FF 75 08                        	PUSH	DWORD [8+EBP]
  4252 00002A66 E8 FFFFDE6A                     	CALL	_cons_newline
  4253 00002A6B B8 00000001                     	MOV	EAX,1
  4254 00002A70                                 L709:
  4255 00002A70 8D 65 F4                        	LEA	ESP,DWORD [-12+EBP]
  4256 00002A73 5B                              	POP	EBX
  4257 00002A74 5E                              	POP	ESI
  4258 00002A75 5F                              	POP	EDI
  4259 00002A76 5D                              	POP	EBP
  4260 00002A77 C3                              	RET
  4261 00002A78                                 L746:
  4262 00002A78 8B 10                           	MOV	EDX,DWORD [EAX]
  4263 00002A7A 8B 40 0C                        	MOV	EAX,DWORD [12+EAX]
  4264 00002A7D 89 55 C4                        	MOV	DWORD [-60+EBP],EDX
  4265 00002A80 89 45 C0                        	MOV	DWORD [-64+EBP],EAX
  4266 00002A83 8B 55 CC                        	MOV	EDX,DWORD [-52+EBP]
  4267 00002A86 8B 5A 10                        	MOV	EBX,DWORD [16+EDX]
  4268 00002A89 8B 72 14                        	MOV	ESI,DWORD [20+EDX]
  4269 00002A8C FF 75 C4                        	PUSH	DWORD [-60+EBP]
  4270 00002A8F 68 003C0000                     	PUSH	3932160
  4271 00002A94 E8 [00000000]                   	CALL	_memman_alloc_4k
  4272 00002A99 89 C7                           	MOV	EDI,EAX
  4273 00002A9B 8B 45 C8                        	MOV	EAX,DWORD [-56+EBP]
  4274 00002A9E 89 B8 000000A8                  	MOV	DWORD [168+EAX],EDI
  4275 00002AA4 8B 45 D0                        	MOV	EAX,DWORD [-48+EBP]
  4276 00002AA7 68 000040FA                     	PUSH	16634
  4277 00002AAC 48                              	DEC	EAX
  4278 00002AAD FF 75 CC                        	PUSH	DWORD [-52+EBP]
  4279 00002AB0 50                              	PUSH	EAX
  4280 00002AB1 8B 45 C8                        	MOV	EAX,DWORD [-56+EBP]
  4281 00002AB4 05 00000094                     	ADD	EAX,148
  4282 00002AB9 50                              	PUSH	EAX
  4283 00002ABA E8 [00000000]                   	CALL	_set_segmdesc
  4284 00002ABF 8B 45 C4                        	MOV	EAX,DWORD [-60+EBP]
  4285 00002AC2 68 000040F2                     	PUSH	16626
  4286 00002AC7 48                              	DEC	EAX
  4287 00002AC8 57                              	PUSH	EDI
  4288 00002AC9 50                              	PUSH	EAX
  4289 00002ACA 8B 45 C8                        	MOV	EAX,DWORD [-56+EBP]
  4290 00002ACD 05 0000009C                     	ADD	EAX,156
  4291 00002AD2 50                              	PUSH	EAX
  4292 00002AD3 E8 [00000000]                   	CALL	_set_segmdesc
  4293 00002AD8 83 C4 28                        	ADD	ESP,40
  4294 00002ADB 85 DB                           	TEST	EBX,EBX
  4295 00002ADD 7E 16                           	JLE	L739
  4296 00002ADF 8B 45 CC                        	MOV	EAX,DWORD [-52+EBP]
  4297 00002AE2 8B 4D C0                        	MOV	ECX,DWORD [-64+EBP]
  4298 00002AE5 01 F9                           	ADD	ECX,EDI
  4299 00002AE7 8D 14 30                        	LEA	EDX,DWORD [EAX+ESI*1]
  4300 00002AEA 89 DE                           	MOV	ESI,EBX
  4301 00002AEC                                 L723:
  4302 00002AEC 8A 02                           	MOV	AL,BYTE [EDX]
  4303 00002AEE 42                              	INC	EDX
  4304 00002AEF 88 01                           	MOV	BYTE [ECX],AL
  4305 00002AF1 41                              	INC	ECX
  4306 00002AF2 4E                              	DEC	ESI
  4307 00002AF3 75 F7                           	JNE	L723
  4308 00002AF5                                 L739:
  4309 00002AF5 8B 45 C8                        	MOV	EAX,DWORD [-56+EBP]
  4310 00002AF8 BE 000000FF                     	MOV	ESI,255
  4311 00002AFD 83 C0 30                        	ADD	EAX,48
  4312 00002B00 50                              	PUSH	EAX
  4313 00002B01 6A 0C                           	PUSH	12
  4314 00002B03 FF 75 C0                        	PUSH	DWORD [-64+EBP]
  4315 00002B06 6A 04                           	PUSH	4
  4316 00002B08 6A 1B                           	PUSH	27
  4317 00002B0A E8 [00000000]                   	CALL	_start_app
  4318 00002B0F 8B 1D 00000FE4                  	MOV	EBX,DWORD [4068]
  4319 00002B15 83 C4 14                        	ADD	ESP,20
  4320 00002B18 81 C3 00000414                  	ADD	EBX,1044
  4321 00002B1E                                 L729:
  4322 00002B1E 8B 43 1C                        	MOV	EAX,DWORD [28+EBX]
  4323 00002B21 83 E0 11                        	AND	EAX,17
  4324 00002B24 83 F8 11                        	CMP	EAX,17
  4325 00002B27 74 7A                           	JE	L747
  4326 00002B29                                 L726:
  4327 00002B29 83 C3 28                        	ADD	EBX,40
  4328 00002B2C 4E                              	DEC	ESI
  4329 00002B2D 79 EF                           	JNS	L729
  4330 00002B2F 31 DB                           	XOR	EBX,EBX
  4331 00002B31 BE 00000007                     	MOV	ESI,7
  4332 00002B36                                 L735:
  4333 00002B36 8B 55 C8                        	MOV	EDX,DWORD [-56+EBP]
  4334 00002B39 8B 82 000000B0                  	MOV	EAX,DWORD [176+EDX]
  4335 00002B3F 83 3C 18 00                     	CMP	DWORD [EAX+EBX*1],0
  4336 00002B43 75 32                           	JNE	L748
  4337 00002B45                                 L732:
  4338 00002B45 83 C3 0C                        	ADD	EBX,12
  4339 00002B48 4E                              	DEC	ESI
  4340 00002B49 79 EB                           	JNS	L735
  4341 00002B4B 8B 45 C8                        	MOV	EAX,DWORD [-56+EBP]
  4342 00002B4E 83 C0 10                        	ADD	EAX,16
  4343 00002B51 50                              	PUSH	EAX
  4344 00002B52 E8 [00000000]                   	CALL	_timer_cancelall
  4345 00002B57 FF 75 C4                        	PUSH	DWORD [-60+EBP]
  4346 00002B5A 57                              	PUSH	EDI
  4347 00002B5B 68 003C0000                     	PUSH	3932160
  4348 00002B60 E8 [00000000]                   	CALL	_memman_free_4k
  4349 00002B65 83 C4 10                        	ADD	ESP,16
  4350 00002B68 8B 45 C8                        	MOV	EAX,DWORD [-56+EBP]
  4351 00002B6B C6 80 000000C1 00               	MOV	BYTE [193+EAX],0
  4352 00002B72 E9 FFFFFEDC                     	JMP	L736
  4353 00002B77                                 L748:
  4354 00002B77 FF 74 18 04                     	PUSH	DWORD [4+EAX+EBX*1]
  4355 00002B7B 8B 82 000000B0                  	MOV	EAX,DWORD [176+EDX]
  4356 00002B81 FF 34 18                        	PUSH	DWORD [EAX+EBX*1]
  4357 00002B84 68 003C0000                     	PUSH	3932160
  4358 00002B89 E8 [00000000]                   	CALL	_memman_free_4k
  4359 00002B8E 83 C4 0C                        	ADD	ESP,12
  4360 00002B91 8B 55 C8                        	MOV	EDX,DWORD [-56+EBP]
  4361 00002B94 8B 82 000000B0                  	MOV	EAX,DWORD [176+EDX]
  4362 00002B9A C7 04 18 00000000               	MOV	DWORD [EAX+EBX*1],0
  4363 00002BA1 EB A2                           	JMP	L732
  4364 00002BA3                                 L747:
  4365 00002BA3 8B 55 C8                        	MOV	EDX,DWORD [-56+EBP]
  4366 00002BA6 39 53 24                        	CMP	DWORD [36+EBX],EDX
  4367 00002BA9 0F 85 FFFFFF7A                  	JNE	L726
  4368 00002BAF 53                              	PUSH	EBX
  4369 00002BB0 E8 [00000000]                   	CALL	_sheet_free
  4370 00002BB5 59                              	POP	ECX
  4371 00002BB6 E9 FFFFFF6E                     	JMP	L726
  4372 00002BBB                                 L745:
  4373 00002BBB 80 7C 35 D3 2E                  	CMP	BYTE [-45+EBP+ESI*1],46
  4374 00002BC0 74 2E                           	JE	L716
  4375 00002BC2 68 000000E0                     	PUSH	224
  4376 00002BC7 68 00102600                     	PUSH	1058304
  4377 00002BCC 53                              	PUSH	EBX
  4378 00002BCD C6 44 35 D4 2E                  	MOV	BYTE [-44+EBP+ESI*1],46
  4379 00002BD2 C6 44 35 D5 48                  	MOV	BYTE [-43+EBP+ESI*1],72
  4380 00002BD7 C6 44 35 D6 52                  	MOV	BYTE [-42+EBP+ESI*1],82
  4381 00002BDC C6 44 35 D7 42                  	MOV	BYTE [-41+EBP+ESI*1],66
  4382 00002BE1 C6 44 35 D8 00                  	MOV	BYTE [-40+EBP+ESI*1],0
  4383 00002BE6 E8 [00000000]                   	CALL	_file_search
  4384 00002BEB 83 C4 0C                        	ADD	ESP,12
  4385 00002BEE 89 C2                           	MOV	EDX,EAX
  4386 00002BF0                                 L716:
  4387 00002BF0 85 D2                           	TEST	EDX,EDX
  4388 00002BF2 0F 85 FFFFFE0D                  	JNE	L744
  4389 00002BF8 31 C0                           	XOR	EAX,EAX
  4390 00002BFA E9 FFFFFE71                     	JMP	L709
  4391 00002BFF                                 	GLOBAL	_hrb_api
  4392 00002BFF                                 _hrb_api:
  4393 00002BFF 55                              	PUSH	EBP
  4394 00002C00 89 E5                           	MOV	EBP,ESP
  4395 00002C02 57                              	PUSH	EDI
  4396 00002C03 56                              	PUSH	ESI
  4397 00002C04 53                              	PUSH	EBX
  4398 00002C05 83 EC 18                        	SUB	ESP,24
  4399 00002C08 8B 75 10                        	MOV	ESI,DWORD [16+EBP]
  4400 00002C0B 8B 7D 20                        	MOV	EDI,DWORD [32+EBP]
  4401 00002C0E E8 [00000000]                   	CALL	_task_now
  4402 00002C13 8B 0D 00000FE4                  	MOV	ECX,DWORD [4068]
  4403 00002C19 89 4D E8                        	MOV	DWORD [-24+EBP],ECX
  4404 00002C1C 89 45 F0                        	MOV	DWORD [-16+EBP],EAX
  4405 00002C1F 8B 80 000000A8                  	MOV	EAX,DWORD [168+EAX]
  4406 00002C25 89 45 EC                        	MOV	DWORD [-20+EBP],EAX
  4407 00002C28 8B 55 F0                        	MOV	EDX,DWORD [-16+EBP]
  4408 00002C2B A1 00000FEC                     	MOV	EAX,DWORD [4076]
  4409 00002C30 89 45 E0                        	MOV	DWORD [-32+EBP],EAX
  4410 00002C33 8B 9A 000000A4                  	MOV	EBX,DWORD [164+EDX]
  4411 00002C39 8B 45 1C                        	MOV	EAX,DWORD [28+EBP]
  4412 00002C3C 48                              	DEC	EAX
  4413 00002C3D 83 F8 1D                        	CMP	EAX,29
  4414 00002C40 77 17                           	JA	L750
  4415 00002C42 FF 24 85 [00000AB8]             	JMP	DWORD [L832+EAX*4]
  4416                                          [SECTION .data]
  4417 00000AB6 00 00                           	ALIGNB	4
  4418 00000AB8                                 L832:
  4419 00000AB8 [00002C49]                      	DD	L751
  4420 00000ABC [00002C63]                      	DD	L752
  4421 00000AC0 [00002C74]                      	DD	L753
  4422 00000AC4 [00002C84]                      	DD	L754
  4423 00000AC8 [00002C8C]                      	DD	L755
  4424 00000ACC [00002D12]                      	DD	L756
  4425 00000AD0 [00002D66]                      	DD	L758
  4426 00000AD4 [00002DAC]                      	DD	L760
  4427 00000AD8 [00002DCD]                      	DD	L761
  4428 00000ADC [00002DE8]                      	DD	L762
  4429 00000AE0 [00002E03]                      	DD	L763
  4430 00000AE4 [00002E41]                      	DD	L765
  4431 00000AE8 [00002E53]                      	DD	L766
  4432 00000AEC [00002EA4]                      	DD	L770
  4433 00000AF0 [00002EB2]                      	DD	L772
  4434 00000AF4 [00002F9C]                      	DD	L783
  4435 00000AF8 [00002FAD]                      	DD	L784
  4436 00000AFC [00002FCA]                      	DD	L785
  4437 00000B00 [00002FDA]                      	DD	L786
  4438 00000B04 [00002FE7]                      	DD	L787
  4439 00000B08 [0000305A]                      	DD	L790
  4440 00000B0C [000030DD]                      	DD	L799
  4441 00000B10 [000030FA]                      	DD	L800
  4442 00000B14 [00003144]                      	DD	L808
  4443 00000B18 [00003174]                      	DD	L814
  4444 00000B1C [000031A3]                      	DD	L821
  4445 00000B20 [000031CD]                      	DD	L827
  4446 00000B24 [00002C59]                      	DD	L750
  4447 00000B28 [00002C59]                      	DD	L750
  4448 00000B2C [00002C59]                      	DD	L750
  4449                                          [SECTION .text]
  4450 00002C49                                 L751:
  4451 00002C49 6A 01                           	PUSH	1
  4452 00002C4B 0F B6 45 24                     	MOVZX	EAX,BYTE [36+EBP]
  4453 00002C4F 50                              	PUSH	EAX
  4454 00002C50 53                              	PUSH	EBX
  4455 00002C51 E8 FFFFDBC4                     	CALL	_cons_putchar
  4456 00002C56                                 L837:
  4457 00002C56 83 C4 0C                        	ADD	ESP,12
  4458 00002C59                                 L750:
  4459 00002C59 31 C0                           	XOR	EAX,EAX
  4460 00002C5B                                 L749:
  4461 00002C5B 8D 65 F4                        	LEA	ESP,DWORD [-12+EBP]
  4462 00002C5E 5B                              	POP	EBX
  4463 00002C5F 5E                              	POP	ESI
  4464 00002C60 5F                              	POP	EDI
  4465 00002C61 5D                              	POP	EBP
  4466 00002C62 C3                              	RET
  4467 00002C63                                 L752:
  4468 00002C63 8B 45 18                        	MOV	EAX,DWORD [24+EBP]
  4469 00002C66 03 45 EC                        	ADD	EAX,DWORD [-20+EBP]
  4470 00002C69 50                              	PUSH	EAX
  4471 00002C6A 53                              	PUSH	EBX
  4472 00002C6B E8 FFFFDDB8                     	CALL	_cons_putstr0
  4473 00002C70                                 L840:
  4474 00002C70 5E                              	POP	ESI
  4475 00002C71 5F                              	POP	EDI
  4476 00002C72 EB E5                           	JMP	L750
  4477 00002C74                                 L753:
  4478 00002C74 8B 45 18                        	MOV	EAX,DWORD [24+EBP]
  4479 00002C77 57                              	PUSH	EDI
  4480 00002C78 03 45 EC                        	ADD	EAX,DWORD [-20+EBP]
  4481 00002C7B 50                              	PUSH	EAX
  4482 00002C7C 53                              	PUSH	EBX
  4483 00002C7D E8 FFFFDDD4                     	CALL	_cons_putstr1
  4484 00002C82 EB D2                           	JMP	L837
  4485 00002C84                                 L754:
  4486 00002C84 8B 45 F0                        	MOV	EAX,DWORD [-16+EBP]
  4487 00002C87 83 C0 30                        	ADD	EAX,48
  4488 00002C8A EB CF                           	JMP	L749
  4489 00002C8C                                 L755:
  4490 00002C8C FF 75 E8                        	PUSH	DWORD [-24+EBP]
  4491 00002C8F E8 [00000000]                   	CALL	_sheet_alloc
  4492 00002C94 8B 5D 18                        	MOV	EBX,DWORD [24+EBP]
  4493 00002C97 8B 55 F0                        	MOV	EDX,DWORD [-16+EBP]
  4494 00002C9A 03 5D EC                        	ADD	EBX,DWORD [-20+EBP]
  4495 00002C9D 89 50 24                        	MOV	DWORD [36+EAX],EDX
  4496 00002CA0 83 48 1C 10                     	OR	DWORD [28+EAX],16
  4497 00002CA4 FF 75 24                        	PUSH	DWORD [36+EBP]
  4498 00002CA7 FF 75 08                        	PUSH	DWORD [8+EBP]
  4499 00002CAA FF 75 0C                        	PUSH	DWORD [12+EBP]
  4500 00002CAD 53                              	PUSH	EBX
  4501 00002CAE 89 45 E4                        	MOV	DWORD [-28+EBP],EAX
  4502 00002CB1 50                              	PUSH	EAX
  4503 00002CB2 E8 [00000000]                   	CALL	_sheet_setbuf
  4504 00002CB7 8B 55 EC                        	MOV	EDX,DWORD [-20+EBP]
  4505 00002CBA 6A 00                           	PUSH	0
  4506 00002CBC 8D 04 3A                        	LEA	EAX,DWORD [EDX+EDI*1]
  4507 00002CBF 50                              	PUSH	EAX
  4508 00002CC0 FF 75 08                        	PUSH	DWORD [8+EBP]
  4509 00002CC3 FF 75 0C                        	PUSH	DWORD [12+EBP]
  4510 00002CC6 53                              	PUSH	EBX
  4511 00002CC7 BB 00000002                     	MOV	EBX,2
  4512 00002CCC E8 [00000000]                   	CALL	_make_window8
  4513 00002CD1 8B 4D E8                        	MOV	ECX,DWORD [-24+EBP]
  4514 00002CD4 83 C4 2C                        	ADD	ESP,44
  4515 00002CD7 8B 41 0C                        	MOV	EAX,DWORD [12+ECX]
  4516 00002CDA 2B 45 08                        	SUB	EAX,DWORD [8+EBP]
  4517 00002CDD 99                              	CDQ
  4518 00002CDE F7 FB                           	IDIV	EBX
  4519 00002CE0 50                              	PUSH	EAX
  4520 00002CE1 8B 41 08                        	MOV	EAX,DWORD [8+ECX]
  4521 00002CE4 2B 45 0C                        	SUB	EAX,DWORD [12+EBP]
  4522 00002CE7 99                              	CDQ
  4523 00002CE8 F7 FB                           	IDIV	EBX
  4524 00002CEA 83 E0 FC                        	AND	EAX,-4
  4525 00002CED 50                              	PUSH	EAX
  4526 00002CEE FF 75 E4                        	PUSH	DWORD [-28+EBP]
  4527 00002CF1 E8 [00000000]                   	CALL	_sheet_slide
  4528 00002CF6 8B 4D E8                        	MOV	ECX,DWORD [-24+EBP]
  4529 00002CF9 FF 71 10                        	PUSH	DWORD [16+ECX]
  4530 00002CFC FF 75 E4                        	PUSH	DWORD [-28+EBP]
  4531 00002CFF E8 [00000000]                   	CALL	_sheet_updown
  4532 00002D04 8B 5D E4                        	MOV	EBX,DWORD [-28+EBP]
  4533 00002D07 89 5D 44                        	MOV	DWORD [68+EBP],EBX
  4534 00002D0A                                 L841:
  4535 00002D0A 83 C4 14                        	ADD	ESP,20
  4536 00002D0D E9 FFFFFF47                     	JMP	L750
  4537 00002D12                                 L756:
  4538 00002D12 8B 45 18                        	MOV	EAX,DWORD [24+EBP]
  4539 00002D15 8B 55 EC                        	MOV	EDX,DWORD [-20+EBP]
  4540 00002D18 83 E0 FE                        	AND	EAX,-2
  4541 00002D1B 89 45 E4                        	MOV	DWORD [-28+EBP],EAX
  4542 00002D1E 8D 04 32                        	LEA	EAX,DWORD [EDX+ESI*1]
  4543 00002D21 50                              	PUSH	EAX
  4544 00002D22 8B 4D E4                        	MOV	ECX,DWORD [-28+EBP]
  4545 00002D25 0F BE 45 24                     	MOVSX	EAX,BYTE [36+EBP]
  4546 00002D29 50                              	PUSH	EAX
  4547 00002D2A FF 75 08                        	PUSH	DWORD [8+EBP]
  4548 00002D2D FF 75 0C                        	PUSH	DWORD [12+EBP]
  4549 00002D30 FF 71 04                        	PUSH	DWORD [4+ECX]
  4550 00002D33 FF 31                           	PUSH	DWORD [ECX]
  4551 00002D35 E8 [00000000]                   	CALL	_putfonts8_asc
  4552 00002D3A 83 C4 18                        	ADD	ESP,24
  4553 00002D3D F7 45 18 00000001               	TEST	DWORD [24+EBP],1
  4554 00002D44 0F 85 FFFFFF0F                  	JNE	L750
  4555 00002D4A 8B 5D 0C                        	MOV	EBX,DWORD [12+EBP]
  4556 00002D4D 8B 45 08                        	MOV	EAX,DWORD [8+EBP]
  4557 00002D50 83 C0 10                        	ADD	EAX,16
  4558 00002D53 50                              	PUSH	EAX
  4559 00002D54 8D 04 FB                        	LEA	EAX,DWORD [EBX+EDI*8]
  4560 00002D57 50                              	PUSH	EAX
  4561 00002D58 FF 75 08                        	PUSH	DWORD [8+EBP]
  4562 00002D5B 53                              	PUSH	EBX
  4563 00002D5C                                 L842:
  4564 00002D5C FF 75 E4                        	PUSH	DWORD [-28+EBP]
  4565 00002D5F                                 L839:
  4566 00002D5F E8 [00000000]                   	CALL	_sheet_refresh
  4567 00002D64 EB A4                           	JMP	L841
  4568 00002D66                                 L758:
  4569 00002D66 FF 75 08                        	PUSH	DWORD [8+EBP]
  4570 00002D69 8B 45 18                        	MOV	EAX,DWORD [24+EBP]
  4571 00002D6C 89 F2                           	MOV	EDX,ESI
  4572 00002D6E FF 75 0C                        	PUSH	DWORD [12+EBP]
  4573 00002D71 83 E0 FE                        	AND	EAX,-2
  4574 00002D74 57                              	PUSH	EDI
  4575 00002D75 89 45 E4                        	MOV	DWORD [-28+EBP],EAX
  4576 00002D78 FF 75 24                        	PUSH	DWORD [36+EBP]
  4577 00002D7B 8B 4D E4                        	MOV	ECX,DWORD [-28+EBP]
  4578 00002D7E 0F B6 C2                        	MOVZX	EAX,DL
  4579 00002D81 50                              	PUSH	EAX
  4580 00002D82 FF 71 04                        	PUSH	DWORD [4+ECX]
  4581 00002D85 FF 31                           	PUSH	DWORD [ECX]
  4582 00002D87 E8 [00000000]                   	CALL	_boxfill8
  4583 00002D8C 83 C4 1C                        	ADD	ESP,28
  4584 00002D8F F7 45 18 00000001               	TEST	DWORD [24+EBP],1
  4585 00002D96 0F 85 FFFFFEBD                  	JNE	L750
  4586 00002D9C                                 L769:
  4587 00002D9C 8B 45 08                        	MOV	EAX,DWORD [8+EBP]
  4588 00002D9F 40                              	INC	EAX
  4589 00002DA0 50                              	PUSH	EAX
  4590 00002DA1 8B 45 0C                        	MOV	EAX,DWORD [12+EBP]
  4591 00002DA4 40                              	INC	EAX
  4592 00002DA5 50                              	PUSH	EAX
  4593 00002DA6 57                              	PUSH	EDI
  4594 00002DA7 FF 75 24                        	PUSH	DWORD [36+EBP]
  4595 00002DAA EB B0                           	JMP	L842
  4596 00002DAC                                 L760:
  4597 00002DAC 8B 5D 18                        	MOV	EBX,DWORD [24+EBP]
  4598 00002DAF 83 E7 F0                        	AND	EDI,-16
  4599 00002DB2 03 5D EC                        	ADD	EBX,DWORD [-20+EBP]
  4600 00002DB5 53                              	PUSH	EBX
  4601 00002DB6 E8 [00000000]                   	CALL	_memman_init
  4602 00002DBB 57                              	PUSH	EDI
  4603 00002DBC FF 75 24                        	PUSH	DWORD [36+EBP]
  4604 00002DBF 53                              	PUSH	EBX
  4605 00002DC0 E8 [00000000]                   	CALL	_memman_free
  4606 00002DC5 83 C4 10                        	ADD	ESP,16
  4607 00002DC8 E9 FFFFFE8C                     	JMP	L750
  4608 00002DCD                                 L761:
  4609 00002DCD 8D 47 0F                        	LEA	EAX,DWORD [15+EDI]
  4610 00002DD0 83 E0 F0                        	AND	EAX,-16
  4611 00002DD3 50                              	PUSH	EAX
  4612 00002DD4 8B 45 18                        	MOV	EAX,DWORD [24+EBP]
  4613 00002DD7 03 45 EC                        	ADD	EAX,DWORD [-20+EBP]
  4614 00002DDA 50                              	PUSH	EAX
  4615 00002DDB E8 [00000000]                   	CALL	_memman_alloc
  4616 00002DE0 89 45 44                        	MOV	DWORD [68+EBP],EAX
  4617 00002DE3 E9 FFFFFE88                     	JMP	L840
  4618 00002DE8                                 L762:
  4619 00002DE8 8D 47 0F                        	LEA	EAX,DWORD [15+EDI]
  4620 00002DEB 83 E0 F0                        	AND	EAX,-16
  4621 00002DEE 50                              	PUSH	EAX
  4622 00002DEF 8B 45 18                        	MOV	EAX,DWORD [24+EBP]
  4623 00002DF2 03 45 EC                        	ADD	EAX,DWORD [-20+EBP]
  4624 00002DF5 FF 75 24                        	PUSH	DWORD [36+EBP]
  4625 00002DF8 50                              	PUSH	EAX
  4626 00002DF9 E8 [00000000]                   	CALL	_memman_free
  4627 00002DFE E9 FFFFFE53                     	JMP	L837
  4628 00002E03                                 L763:
  4629 00002E03 8B 5D 18                        	MOV	EBX,DWORD [24+EBP]
  4630 00002E06 8B 45 08                        	MOV	EAX,DWORD [8+EBP]
  4631 00002E09 83 E3 FE                        	AND	EBX,-2
  4632 00002E0C 8A 55 24                        	MOV	DL,BYTE [36+EBP]
  4633 00002E0F 89 5D E4                        	MOV	DWORD [-28+EBP],EBX
  4634 00002E12 0F AF 43 04                     	IMUL	EAX,DWORD [4+EBX]
  4635 00002E16 03 45 0C                        	ADD	EAX,DWORD [12+EBP]
  4636 00002E19 8B 0B                           	MOV	ECX,DWORD [EBX]
  4637 00002E1B 88 14 08                        	MOV	BYTE [EAX+ECX*1],DL
  4638 00002E1E F7 45 18 00000001               	TEST	DWORD [24+EBP],1
  4639 00002E25 0F 85 FFFFFE2E                  	JNE	L750
  4640 00002E2B 8B 45 08                        	MOV	EAX,DWORD [8+EBP]
  4641 00002E2E 40                              	INC	EAX
  4642 00002E2F 50                              	PUSH	EAX
  4643 00002E30 8B 45 0C                        	MOV	EAX,DWORD [12+EBP]
  4644 00002E33 40                              	INC	EAX
  4645 00002E34 50                              	PUSH	EAX
  4646 00002E35 FF 75 08                        	PUSH	DWORD [8+EBP]
  4647 00002E38 FF 75 0C                        	PUSH	DWORD [12+EBP]
  4648 00002E3B 53                              	PUSH	EBX
  4649 00002E3C E9 FFFFFF1E                     	JMP	L839
  4650 00002E41                                 L765:
  4651 00002E41 FF 75 08                        	PUSH	DWORD [8+EBP]
  4652 00002E44 FF 75 0C                        	PUSH	DWORD [12+EBP]
  4653 00002E47 57                              	PUSH	EDI
  4654 00002E48 FF 75 24                        	PUSH	DWORD [36+EBP]
  4655 00002E4B FF 75 18                        	PUSH	DWORD [24+EBP]
  4656 00002E4E E9 FFFFFF0C                     	JMP	L839
  4657 00002E53                                 L766:
  4658 00002E53 56                              	PUSH	ESI
  4659 00002E54 8B 45 18                        	MOV	EAX,DWORD [24+EBP]
  4660 00002E57 FF 75 08                        	PUSH	DWORD [8+EBP]
  4661 00002E5A FF 75 0C                        	PUSH	DWORD [12+EBP]
  4662 00002E5D 57                              	PUSH	EDI
  4663 00002E5E 83 E0 FE                        	AND	EAX,-2
  4664 00002E61 FF 75 24                        	PUSH	DWORD [36+EBP]
  4665 00002E64 50                              	PUSH	EAX
  4666 00002E65 89 45 E4                        	MOV	DWORD [-28+EBP],EAX
  4667 00002E68 E8 00000401                     	CALL	_hrb_api_linewin
  4668 00002E6D 83 C4 18                        	ADD	ESP,24
  4669 00002E70 F7 45 18 00000001               	TEST	DWORD [24+EBP],1
  4670 00002E77 0F 85 FFFFFDDC                  	JNE	L750
  4671 00002E7D 8B 45 24                        	MOV	EAX,DWORD [36+EBP]
  4672 00002E80 3B 45 0C                        	CMP	EAX,DWORD [12+EBP]
  4673 00002E83 7E 09                           	JLE	L768
  4674 00002E85 8B 55 0C                        	MOV	EDX,DWORD [12+EBP]
  4675 00002E88 89 45 0C                        	MOV	DWORD [12+EBP],EAX
  4676 00002E8B 89 55 24                        	MOV	DWORD [36+EBP],EDX
  4677 00002E8E                                 L768:
  4678 00002E8E 3B 7D 08                        	CMP	EDI,DWORD [8+EBP]
  4679 00002E91 0F 8E FFFFFF05                  	JLE	L769
  4680 00002E97 89 FE                           	MOV	ESI,EDI
  4681 00002E99 8B 7D 08                        	MOV	EDI,DWORD [8+EBP]
  4682 00002E9C 89 75 08                        	MOV	DWORD [8+EBP],ESI
  4683 00002E9F E9 FFFFFEF8                     	JMP	L769
  4684 00002EA4                                 L770:
  4685 00002EA4 FF 75 18                        	PUSH	DWORD [24+EBP]
  4686 00002EA7 E8 [00000000]                   	CALL	_sheet_free
  4687 00002EAC                                 L838:
  4688 00002EAC 5B                              	POP	EBX
  4689 00002EAD E9 FFFFFDA7                     	JMP	L750
  4690 00002EB2                                 L772:
  4691 00002EB2 E8 [00000000]                   	CALL	_io_cli
  4692 00002EB7 8B 45 F0                        	MOV	EAX,DWORD [-16+EBP]
  4693 00002EBA 83 C0 10                        	ADD	EAX,16
  4694 00002EBD 50                              	PUSH	EAX
  4695 00002EBE E8 [00000000]                   	CALL	_fifo32_status
  4696 00002EC3 5A                              	POP	EDX
  4697 00002EC4 85 C0                           	TEST	EAX,EAX
  4698 00002EC6 75 13                           	JNE	L775
  4699 00002EC8 83 7D 24 00                     	CMP	DWORD [36+EBP],0
  4700 00002ECC 0F 84 000000B9                  	JE	L776
  4701 00002ED2 FF 75 F0                        	PUSH	DWORD [-16+EBP]
  4702 00002ED5 E8 [00000000]                   	CALL	_task_sleep
  4703 00002EDA 58                              	POP	EAX
  4704 00002EDB                                 L775:
  4705 00002EDB 8B 7D F0                        	MOV	EDI,DWORD [-16+EBP]
  4706 00002EDE 83 C7 10                        	ADD	EDI,16
  4707 00002EE1 57                              	PUSH	EDI
  4708 00002EE2 E8 [00000000]                   	CALL	_fifo32_get
  4709 00002EE7 89 C6                           	MOV	ESI,EAX
  4710 00002EE9 E8 [00000000]                   	CALL	_io_sti
  4711 00002EEE 58                              	POP	EAX
  4712 00002EEF 83 FE 01                        	CMP	ESI,1
  4713 00002EF2 7E 75                           	JLE	L843
  4714 00002EF4                                 L778:
  4715 00002EF4 83 FE 02                        	CMP	ESI,2
  4716 00002EF7 74 67                           	JE	L844
  4717 00002EF9                                 L779:
  4718 00002EF9 83 FE 03                        	CMP	ESI,3
  4719 00002EFC 74 59                           	JE	L845
  4720 00002EFE                                 L780:
  4721 00002EFE 83 FE 04                        	CMP	ESI,4
  4722 00002F01 74 16                           	JE	L846
  4723 00002F03                                 L781:
  4724 00002F03 8D 86 FFFFFF00                  	LEA	EAX,DWORD [-256+ESI]
  4725 00002F09 81 FE 000000FF                  	CMP	ESI,255
  4726 00002F0F 7E A1                           	JLE	L772
  4727 00002F11                                 L836:
  4728 00002F11 89 45 44                        	MOV	DWORD [68+EBP],EAX
  4729 00002F14 E9 FFFFFD40                     	JMP	L750
  4730 00002F19                                 L846:
  4731 00002F19 FF 73 10                        	PUSH	DWORD [16+EBX]
  4732 00002F1C E8 [00000000]                   	CALL	_timer_cancel
  4733 00002F21 E8 [00000000]                   	CALL	_io_cli
  4734 00002F26 8B 03                           	MOV	EAX,DWORD [EBX]
  4735 00002F28 2B 45 E8                        	SUB	EAX,DWORD [-24+EBP]
  4736 00002F2B 2D 00000414                     	SUB	EAX,1044
  4737 00002F30 C1 F8 03                        	SAR	EAX,3
  4738 00002F33 69 C0 CCCCCCCD                  	IMUL	EAX,EAX,-858993459
  4739 00002F39 05 000007E8                     	ADD	EAX,2024
  4740 00002F3E 50                              	PUSH	EAX
  4741 00002F3F FF 75 E0                        	PUSH	DWORD [-32+EBP]
  4742 00002F42 E8 [00000000]                   	CALL	_fifo32_put
  4743 00002F47 C7 03 00000000                  	MOV	DWORD [EBX],0
  4744 00002F4D E8 [00000000]                   	CALL	_io_sti
  4745 00002F52 83 C4 0C                        	ADD	ESP,12
  4746 00002F55 EB AC                           	JMP	L781
  4747 00002F57                                 L845:
  4748 00002F57 C7 43 0C FFFFFFFF               	MOV	DWORD [12+EBX],-1
  4749 00002F5E EB 9E                           	JMP	L780
  4750 00002F60                                 L844:
  4751 00002F60 C7 43 0C 00000007               	MOV	DWORD [12+EBX],7
  4752 00002F67 EB 90                           	JMP	L779
  4753 00002F69                                 L843:
  4754 00002F69 83 3B 00                        	CMP	DWORD [EBX],0
  4755 00002F6C 74 86                           	JE	L778
  4756 00002F6E 6A 01                           	PUSH	1
  4757 00002F70 57                              	PUSH	EDI
  4758 00002F71 FF 73 10                        	PUSH	DWORD [16+EBX]
  4759 00002F74 E8 [00000000]                   	CALL	_timer_init
  4760 00002F79 6A 32                           	PUSH	50
  4761 00002F7B FF 73 10                        	PUSH	DWORD [16+EBX]
  4762 00002F7E E8 [00000000]                   	CALL	_timer_settime
  4763 00002F83 83 C4 14                        	ADD	ESP,20
  4764 00002F86 E9 FFFFFF69                     	JMP	L778
  4765 00002F8B                                 L776:
  4766 00002F8B E8 [00000000]                   	CALL	_io_sti
  4767 00002F90 C7 45 44 FFFFFFFF               	MOV	DWORD [68+EBP],-1
  4768 00002F97 E9 FFFFFCBD                     	JMP	L750
  4769 00002F9C                                 L783:
  4770 00002F9C E8 [00000000]                   	CALL	_timer_alloc
  4771 00002FA1 89 45 44                        	MOV	DWORD [68+EBP],EAX
  4772 00002FA4 C6 40 09 01                     	MOV	BYTE [9+EAX],1
  4773 00002FA8 E9 FFFFFCAC                     	JMP	L750
  4774 00002FAD                                 L784:
  4775 00002FAD 8B 45 24                        	MOV	EAX,DWORD [36+EBP]
  4776 00002FB0 05 00000100                     	ADD	EAX,256
  4777 00002FB5 50                              	PUSH	EAX
  4778 00002FB6 8B 45 F0                        	MOV	EAX,DWORD [-16+EBP]
  4779 00002FB9 83 C0 10                        	ADD	EAX,16
  4780 00002FBC 50                              	PUSH	EAX
  4781 00002FBD FF 75 18                        	PUSH	DWORD [24+EBP]
  4782 00002FC0 E8 [00000000]                   	CALL	_timer_init
  4783 00002FC5 E9 FFFFFC8C                     	JMP	L837
  4784 00002FCA                                 L785:
  4785 00002FCA FF 75 24                        	PUSH	DWORD [36+EBP]
  4786 00002FCD FF 75 18                        	PUSH	DWORD [24+EBP]
  4787 00002FD0 E8 [00000000]                   	CALL	_timer_settime
  4788 00002FD5 E9 FFFFFC96                     	JMP	L840
  4789 00002FDA                                 L786:
  4790 00002FDA FF 75 18                        	PUSH	DWORD [24+EBP]
  4791 00002FDD E8 [00000000]                   	CALL	_timer_free
  4792 00002FE2 E9 FFFFFEC5                     	JMP	L838
  4793 00002FE7                                 L787:
  4794 00002FE7 8B 55 24                        	MOV	EDX,DWORD [36+EBP]
  4795 00002FEA 85 D2                           	TEST	EDX,EDX
  4796 00002FEC 75 19                           	JNE	L788
  4797 00002FEE 6A 61                           	PUSH	97
  4798 00002FF0 E8 [00000000]                   	CALL	_io_in8
  4799 00002FF5 89 C6                           	MOV	ESI,EAX
  4800 00002FF7 83 E6 0D                        	AND	ESI,13
  4801 00002FFA 56                              	PUSH	ESI
  4802 00002FFB 6A 61                           	PUSH	97
  4803 00002FFD E8 [00000000]                   	CALL	_io_out8
  4804 00003002 E9 FFFFFC4F                     	JMP	L837
  4805 00003007                                 L788:
  4806 00003007 B9 471E7B60                     	MOV	ECX,1193180000
  4807 0000300C 89 D3                           	MOV	EBX,EDX
  4808 0000300E 89 C8                           	MOV	EAX,ECX
  4809 00003010 68 000000B6                     	PUSH	182
  4810 00003015 99                              	CDQ
  4811 00003016 F7 FB                           	IDIV	EBX
  4812 00003018 6A 43                           	PUSH	67
  4813 0000301A 89 C6                           	MOV	ESI,EAX
  4814 0000301C E8 [00000000]                   	CALL	_io_out8
  4815 00003021 89 F0                           	MOV	EAX,ESI
  4816 00003023 C1 FE 08                        	SAR	ESI,8
  4817 00003026 25 000000FF                     	AND	EAX,255
  4818 0000302B 50                              	PUSH	EAX
  4819 0000302C 6A 42                           	PUSH	66
  4820 0000302E E8 [00000000]                   	CALL	_io_out8
  4821 00003033 56                              	PUSH	ESI
  4822 00003034 6A 42                           	PUSH	66
  4823 00003036 E8 [00000000]                   	CALL	_io_out8
  4824 0000303B 6A 61                           	PUSH	97
  4825 0000303D E8 [00000000]                   	CALL	_io_in8
  4826 00003042 89 C6                           	MOV	ESI,EAX
  4827 00003044 83 CE 03                        	OR	ESI,3
  4828 00003047 83 E6 0F                        	AND	ESI,15
  4829 0000304A 56                              	PUSH	ESI
  4830 0000304B 6A 61                           	PUSH	97
  4831 0000304D E8 [00000000]                   	CALL	_io_out8
  4832 00003052 83 C4 24                        	ADD	ESP,36
  4833 00003055 E9 FFFFFBFF                     	JMP	L750
  4834 0000305A                                 L790:
  4835 0000305A 31 F6                           	XOR	ESI,ESI
  4836 0000305C 31 C0                           	XOR	EAX,EAX
  4837 0000305E                                 L796:
  4838 0000305E 8B 4D F0                        	MOV	ECX,DWORD [-16+EBP]
  4839 00003061 8B 91 000000B0                  	MOV	EDX,DWORD [176+ECX]
  4840 00003067 83 3C 02 00                     	CMP	DWORD [EDX+EAX*1],0
  4841 0000306B 74 09                           	JE	L792
  4842 0000306D 46                              	INC	ESI
  4843 0000306E 83 C0 0C                        	ADD	EAX,12
  4844 00003071 83 FE 07                        	CMP	ESI,7
  4845 00003074 7E E8                           	JLE	L796
  4846 00003076                                 L792:
  4847 00003076 6B C6 0C                        	IMUL	EAX,ESI,12
  4848 00003079 C7 45 44 00000000               	MOV	DWORD [68+EBP],0
  4849 00003080 8D 1C 10                        	LEA	EBX,DWORD [EAX+EDX*1]
  4850 00003083 83 FE 07                        	CMP	ESI,7
  4851 00003086 0F 8F FFFFFBCD                  	JG	L750
  4852 0000308C 8B 45 18                        	MOV	EAX,DWORD [24+EBP]
  4853 0000308F 68 000000E0                     	PUSH	224
  4854 00003094 03 45 EC                        	ADD	EAX,DWORD [-20+EBP]
  4855 00003097 68 00102600                     	PUSH	1058304
  4856 0000309C 50                              	PUSH	EAX
  4857 0000309D E8 [00000000]                   	CALL	_file_search
  4858 000030A2 83 C4 0C                        	ADD	ESP,12
  4859 000030A5 89 C2                           	MOV	EDX,EAX
  4860 000030A7 85 C0                           	TEST	EAX,EAX
  4861 000030A9 0F 84 FFFFFBAA                  	JE	L750
  4862 000030AF 89 5D 44                        	MOV	DWORD [68+EBP],EBX
  4863 000030B2 8B 40 1C                        	MOV	EAX,DWORD [28+EAX]
  4864 000030B5 89 43 04                        	MOV	DWORD [4+EBX],EAX
  4865 000030B8 8B 45 F0                        	MOV	EAX,DWORD [-16+EBP]
  4866 000030BB C7 43 08 00000000               	MOV	DWORD [8+EBX],0
  4867 000030C2 FF B0 000000B4                  	PUSH	DWORD [180+EAX]
  4868 000030C8 8D 43 04                        	LEA	EAX,DWORD [4+EBX]
  4869 000030CB 50                              	PUSH	EAX
  4870 000030CC 0F B7 42 1A                     	MOVZX	EAX,WORD [26+EDX]
  4871 000030D0 50                              	PUSH	EAX
  4872 000030D1 E8 [00000000]                   	CALL	_file_loadfile2
  4873 000030D6 89 03                           	MOV	DWORD [EBX],EAX
  4874 000030D8 E9 FFFFFB79                     	JMP	L837
  4875 000030DD                                 L799:
  4876 000030DD 8B 5D 24                        	MOV	EBX,DWORD [36+EBP]
  4877 000030E0 FF 73 04                        	PUSH	DWORD [4+EBX]
  4878 000030E3 FF 33                           	PUSH	DWORD [EBX]
  4879 000030E5 68 003C0000                     	PUSH	3932160
  4880 000030EA E8 [00000000]                   	CALL	_memman_free_4k
  4881 000030EF C7 03 00000000                  	MOV	DWORD [EBX],0
  4882 000030F5 E9 FFFFFB5C                     	JMP	L837
  4883 000030FA                                 L800:
  4884 000030FA 8B 5D 24                        	MOV	EBX,DWORD [36+EBP]
  4885 000030FD 85 FF                           	TEST	EDI,EDI
  4886 000030FF 74 33                           	JE	L835
  4887 00003101 83 FF 01                        	CMP	EDI,1
  4888 00003104 74 36                           	JE	L847
  4889 00003106 83 FF 02                        	CMP	EDI,2
  4890 00003109 74 23                           	JE	L848
  4891 0000310B                                 L802:
  4892 0000310B 83 7B 08 00                     	CMP	DWORD [8+EBX],0
  4893 0000310F 78 14                           	JS	L849
  4894 00003111                                 L806:
  4895 00003111 8B 43 04                        	MOV	EAX,DWORD [4+EBX]
  4896 00003114 39 43 08                        	CMP	DWORD [8+EBX],EAX
  4897 00003117 0F 8E FFFFFB3C                  	JLE	L750
  4898 0000311D 89 43 08                        	MOV	DWORD [8+EBX],EAX
  4899 00003120 E9 FFFFFB34                     	JMP	L750
  4900 00003125                                 L849:
  4901 00003125 C7 43 08 00000000               	MOV	DWORD [8+EBX],0
  4902 0000312C EB E3                           	JMP	L806
  4903 0000312E                                 L848:
  4904 0000312E 8B 43 04                        	MOV	EAX,DWORD [4+EBX]
  4905 00003131 01 45 18                        	ADD	DWORD [24+EBP],EAX
  4906 00003134                                 L835:
  4907 00003134 8B 55 18                        	MOV	EDX,DWORD [24+EBP]
  4908 00003137 89 53 08                        	MOV	DWORD [8+EBX],EDX
  4909 0000313A EB CF                           	JMP	L802
  4910 0000313C                                 L847:
  4911 0000313C 8B 4D 18                        	MOV	ECX,DWORD [24+EBP]
  4912 0000313F 01 4B 08                        	ADD	DWORD [8+EBX],ECX
  4913 00003142 EB C7                           	JMP	L802
  4914 00003144                                 L808:
  4915 00003144 8B 5D 24                        	MOV	EBX,DWORD [36+EBP]
  4916 00003147 85 FF                           	TEST	EDI,EDI
  4917 00003149 75 08                           	JNE	L809
  4918 0000314B 8B 43 04                        	MOV	EAX,DWORD [4+EBX]
  4919 0000314E E9 FFFFFDBE                     	JMP	L836
  4920 00003153                                 L809:
  4921 00003153 83 FF 01                        	CMP	EDI,1
  4922 00003156 74 14                           	JE	L850
  4923 00003158 83 FF 02                        	CMP	EDI,2
  4924 0000315B 0F 85 FFFFFAF8                  	JNE	L750
  4925 00003161 8B 43 08                        	MOV	EAX,DWORD [8+EBX]
  4926 00003164 2B 43 04                        	SUB	EAX,DWORD [4+EBX]
  4927 00003167 E9 FFFFFDA5                     	JMP	L836
  4928 0000316C                                 L850:
  4929 0000316C 8B 43 08                        	MOV	EAX,DWORD [8+EBX]
  4930 0000316F E9 FFFFFD9D                     	JMP	L836
  4931 00003174                                 L814:
  4932 00003174 31 F6                           	XOR	ESI,ESI
  4933 00003176 8B 5D 24                        	MOV	EBX,DWORD [36+EBP]
  4934 00003179 39 FE                           	CMP	ESI,EDI
  4935 0000317B 7D 1E                           	JGE	L823
  4936 0000317D                                 L820:
  4937 0000317D 8B 4B 08                        	MOV	ECX,DWORD [8+EBX]
  4938 00003180 3B 4B 04                        	CMP	ECX,DWORD [4+EBX]
  4939 00003183 74 16                           	JE	L823
  4940 00003185 8B 45 18                        	MOV	EAX,DWORD [24+EBP]
  4941 00003188 8B 13                           	MOV	EDX,DWORD [EBX]
  4942 0000318A 03 45 EC                        	ADD	EAX,DWORD [-20+EBP]
  4943 0000318D 8A 14 11                        	MOV	DL,BYTE [ECX+EDX*1]
  4944 00003190 88 14 06                        	MOV	BYTE [ESI+EAX*1],DL
  4945 00003193 46                              	INC	ESI
  4946 00003194 FF 43 08                        	INC	DWORD [8+EBX]
  4947 00003197 39 FE                           	CMP	ESI,EDI
  4948 00003199 7C E2                           	JL	L820
  4949 0000319B                                 L823:
  4950 0000319B 89 75 44                        	MOV	DWORD [68+EBP],ESI
  4951 0000319E E9 FFFFFAB6                     	JMP	L750
  4952 000031A3                                 L821:
  4953 000031A3 31 F6                           	XOR	ESI,ESI
  4954 000031A5                                 L822:
  4955 000031A5 8B 4D F0                        	MOV	ECX,DWORD [-16+EBP]
  4956 000031A8 8B 55 18                        	MOV	EDX,DWORD [24+EBP]
  4957 000031AB 03 55 EC                        	ADD	EDX,DWORD [-20+EBP]
  4958 000031AE 8B 81 000000B8                  	MOV	EAX,DWORD [184+ECX]
  4959 000031B4 8A 04 06                        	MOV	AL,BYTE [ESI+EAX*1]
  4960 000031B7 88 04 16                        	MOV	BYTE [ESI+EDX*1],AL
  4961 000031BA 8B 81 000000B8                  	MOV	EAX,DWORD [184+ECX]
  4962 000031C0 80 3C 06 00                     	CMP	BYTE [ESI+EAX*1],0
  4963 000031C4 74 D5                           	JE	L823
  4964 000031C6 39 FE                           	CMP	ESI,EDI
  4965 000031C8 7D D1                           	JGE	L823
  4966 000031CA 46                              	INC	ESI
  4967 000031CB EB D8                           	JMP	L822
  4968 000031CD                                 L827:
  4969 000031CD 8B 5D F0                        	MOV	EBX,DWORD [-16+EBP]
  4970 000031D0 0F B6 83 000000C0               	MOVZX	EAX,BYTE [192+EBX]
  4971 000031D7 E9 FFFFFD35                     	JMP	L836
  4972                                          [SECTION .data]
  4973 00000B30                                 LC139:
  4974 00000B30 0A 49 4E 54 20 30 43 20 3A 0A   	DB	0x0A,"INT 0C :",0x0A," Stack Exception.",0x0A,0x00
       00000B3A 20 53 74 61 63 6B 20 45 78 63 
       00000B44 65 70 74 69 6F 6E 2E 0A 00 
  4975 00000B4D                                 LC140:
  4976 00000B4D 45 49 50 20 3D 20 25 30 38 58   	DB	"EIP = %08X",0x0A,0x00
       00000B57 0A 00 
  4977                                          [SECTION .text]
  4978 000031DC                                 	GLOBAL	_inthandler0c
  4979 000031DC                                 _inthandler0c:
  4980 000031DC 55                              	PUSH	EBP
  4981 000031DD 89 E5                           	MOV	EBP,ESP
  4982 000031DF 57                              	PUSH	EDI
  4983 000031E0 56                              	PUSH	ESI
  4984 000031E1 53                              	PUSH	EBX
  4985 000031E2 8D 5D D4                        	LEA	EBX,DWORD [-44+EBP]
  4986 000031E5 83 EC 20                        	SUB	ESP,32
  4987 000031E8 E8 [00000000]                   	CALL	_task_now
  4988 000031ED 89 C6                           	MOV	ESI,EAX
  4989 000031EF 8B B8 000000A4                  	MOV	EDI,DWORD [164+EAX]
  4990 000031F5 83 C6 30                        	ADD	ESI,48
  4991 000031F8 68 [00000B30]                   	PUSH	LC139
  4992 000031FD 57                              	PUSH	EDI
  4993 000031FE E8 FFFFD825                     	CALL	_cons_putstr0
  4994 00003203 8B 45 08                        	MOV	EAX,DWORD [8+EBP]
  4995 00003206 FF 70 2C                        	PUSH	DWORD [44+EAX]
  4996 00003209 68 [00000B4D]                   	PUSH	LC140
  4997 0000320E 53                              	PUSH	EBX
  4998 0000320F E8 [00000000]                   	CALL	_sprintf
  4999 00003214 53                              	PUSH	EBX
  5000 00003215 57                              	PUSH	EDI
  5001 00003216 E8 FFFFD80D                     	CALL	_cons_putstr0
  5002 0000321B 8D 65 F4                        	LEA	ESP,DWORD [-12+EBP]
  5003 0000321E 5B                              	POP	EBX
  5004 0000321F 89 F0                           	MOV	EAX,ESI
  5005 00003221 5E                              	POP	ESI
  5006 00003222 5F                              	POP	EDI
  5007 00003223 5D                              	POP	EBP
  5008 00003224 C3                              	RET
  5009                                          [SECTION .data]
  5010 00000B59                                 LC141:
  5011 00000B59 0A 49 4E 54 20 30 44 20 3A 0A   	DB	0x0A,"INT 0D :",0x0A," General Protected Exception.",0x0A,0x00
       00000B63 20 47 65 6E 65 72 61 6C 20 50 
       00000B6D 72 6F 74 65 63 74 65 64 20 45 
       00000B77 78 63 65 70 74 69 6F 6E 2E 0A 
       00000B81 00 
  5012                                          [SECTION .text]
  5013 00003225                                 	GLOBAL	_inthandler0d
  5014 00003225                                 _inthandler0d:
  5015 00003225 55                              	PUSH	EBP
  5016 00003226 89 E5                           	MOV	EBP,ESP
  5017 00003228 57                              	PUSH	EDI
  5018 00003229 56                              	PUSH	ESI
  5019 0000322A 53                              	PUSH	EBX
  5020 0000322B 8D 5D D4                        	LEA	EBX,DWORD [-44+EBP]
  5021 0000322E 83 EC 20                        	SUB	ESP,32
  5022 00003231 E8 [00000000]                   	CALL	_task_now
  5023 00003236 89 C6                           	MOV	ESI,EAX
  5024 00003238 8B B8 000000A4                  	MOV	EDI,DWORD [164+EAX]
  5025 0000323E 83 C6 30                        	ADD	ESI,48
  5026 00003241 68 [00000B59]                   	PUSH	LC141
  5027 00003246 57                              	PUSH	EDI
  5028 00003247 E8 FFFFD7DC                     	CALL	_cons_putstr0
  5029 0000324C 8B 45 08                        	MOV	EAX,DWORD [8+EBP]
  5030 0000324F FF 70 2C                        	PUSH	DWORD [44+EAX]
  5031 00003252 68 [00000B4D]                   	PUSH	LC140
  5032 00003257 53                              	PUSH	EBX
  5033 00003258 E8 [00000000]                   	CALL	_sprintf
  5034 0000325D 53                              	PUSH	EBX
  5035 0000325E 57                              	PUSH	EDI
  5036 0000325F E8 FFFFD7C4                     	CALL	_cons_putstr0
  5037 00003264 8D 65 F4                        	LEA	ESP,DWORD [-12+EBP]
  5038 00003267 5B                              	POP	EBX
  5039 00003268 89 F0                           	MOV	EAX,ESI
  5040 0000326A 5E                              	POP	ESI
  5041 0000326B 5F                              	POP	EDI
  5042 0000326C 5D                              	POP	EBP
  5043 0000326D C3                              	RET
  5044 0000326E                                 	GLOBAL	_hrb_api_linewin
  5045 0000326E                                 _hrb_api_linewin:
  5046 0000326E 55                              	PUSH	EBP
  5047 0000326F 89 E5                           	MOV	EBP,ESP
  5048 00003271 57                              	PUSH	EDI
  5049 00003272 56                              	PUSH	ESI
  5050 00003273 53                              	PUSH	EBX
  5051 00003274 83 EC 0C                        	SUB	ESP,12
  5052 00003277 8B 5D 0C                        	MOV	EBX,DWORD [12+EBP]
  5053 0000327A 8B 45 14                        	MOV	EAX,DWORD [20+EBP]
  5054 0000327D 89 D9                           	MOV	ECX,EBX
  5055 0000327F 8B 55 18                        	MOV	EDX,DWORD [24+EBP]
  5056 00003282 C1 E1 0A                        	SAL	ECX,10
  5057 00003285 89 D7                           	MOV	EDI,EDX
  5058 00003287 89 4D F0                        	MOV	DWORD [-16+EBP],ECX
  5059 0000328A 89 C6                           	MOV	ESI,EAX
  5060 0000328C 8B 4D 10                        	MOV	ECX,DWORD [16+EBP]
  5061 0000328F 2B 7D 10                        	SUB	EDI,DWORD [16+EBP]
  5062 00003292 C1 E1 0A                        	SAL	ECX,10
  5063 00003295 29 DE                           	SUB	ESI,EBX
  5064 00003297 89 4D EC                        	MOV	DWORD [-20+EBP],ECX
  5065 0000329A 0F 88 000000A3                  	JS	L875
  5066 000032A0                                 L854:
  5067 000032A0 85 FF                           	TEST	EDI,EDI
  5068 000032A2 0F 88 00000094                  	JS	L876
  5069 000032A8                                 L855:
  5070 000032A8 39 FE                           	CMP	ESI,EDI
  5071 000032AA 7C 62                           	JL	L856
  5072 000032AC 8D 4E 01                        	LEA	ECX,DWORD [1+ESI]
  5073 000032AF 39 C3                           	CMP	EBX,EAX
  5074 000032B1 BE FFFFFC00                     	MOV	ESI,-1024
  5075 000032B6 7F 05                           	JG	L858
  5076 000032B8 BE 00000400                     	MOV	ESI,1024
  5077 000032BD                                 L858:
  5078 000032BD 39 55 10                        	CMP	DWORD [16+EBP],EDX
  5079 000032C0 7F 46                           	JG	L859
  5080 000032C2 2B 55 10                        	SUB	EDX,DWORD [16+EBP]
  5081 000032C5 42                              	INC	EDX
  5082 000032C6                                 L874:
  5083 000032C6 C1 E2 0A                        	SAL	EDX,10
  5084 000032C9 89 D0                           	MOV	EAX,EDX
  5085 000032CB 99                              	CDQ
  5086 000032CC F7 F9                           	IDIV	ECX
  5087 000032CE 89 C7                           	MOV	EDI,EAX
  5088 000032D0                                 L861:
  5089 000032D0 85 C9                           	TEST	ECX,ECX
  5090 000032D2 7E 2C                           	JLE	L872
  5091 000032D4 89 CB                           	MOV	EBX,ECX
  5092 000032D6                                 L870:
  5093 000032D6 8B 55 08                        	MOV	EDX,DWORD [8+EBP]
  5094 000032D9 8B 45 EC                        	MOV	EAX,DWORD [-20+EBP]
  5095 000032DC C1 F8 0A                        	SAR	EAX,10
  5096 000032DF 8B 4D F0                        	MOV	ECX,DWORD [-16+EBP]
  5097 000032E2 0F AF 42 04                     	IMUL	EAX,DWORD [4+EDX]
  5098 000032E6 C1 F9 0A                        	SAR	ECX,10
  5099 000032E9 89 4D E8                        	MOV	DWORD [-24+EBP],ECX
  5100 000032EC 8B 0A                           	MOV	ECX,DWORD [EDX]
  5101 000032EE 03 45 E8                        	ADD	EAX,DWORD [-24+EBP]
  5102 000032F1 8A 55 1C                        	MOV	DL,BYTE [28+EBP]
  5103 000032F4 88 14 08                        	MOV	BYTE [EAX+ECX*1],DL
  5104 000032F7 01 75 F0                        	ADD	DWORD [-16+EBP],ESI
  5105 000032FA 01 7D EC                        	ADD	DWORD [-20+EBP],EDI
  5106 000032FD 4B                              	DEC	EBX
  5107 000032FE 75 D6                           	JNE	L870
  5108 00003300                                 L872:
  5109 00003300 83 C4 0C                        	ADD	ESP,12
  5110 00003303 5B                              	POP	EBX
  5111 00003304 5E                              	POP	ESI
  5112 00003305 5F                              	POP	EDI
  5113 00003306 5D                              	POP	EBP
  5114 00003307 C3                              	RET
  5115 00003308                                 L859:
  5116 00003308 2B 55 10                        	SUB	EDX,DWORD [16+EBP]
  5117 0000330B 4A                              	DEC	EDX
  5118 0000330C EB B8                           	JMP	L874
  5119 0000330E                                 L856:
  5120 0000330E 8D 4F 01                        	LEA	ECX,DWORD [1+EDI]
  5121 00003311 39 55 10                        	CMP	DWORD [16+EBP],EDX
  5122 00003314 BF FFFFFC00                     	MOV	EDI,-1024
  5123 00003319 7F 05                           	JG	L863
  5124 0000331B BF 00000400                     	MOV	EDI,1024
  5125 00003320                                 L863:
  5126 00003320 39 C3                           	CMP	EBX,EAX
  5127 00003322 7F 11                           	JG	L864
  5128 00003324 29 D8                           	SUB	EAX,EBX
  5129 00003326 8D 50 01                        	LEA	EDX,DWORD [1+EAX]
  5130 00003329                                 L873:
  5131 00003329 C1 E2 0A                        	SAL	EDX,10
  5132 0000332C 89 D0                           	MOV	EAX,EDX
  5133 0000332E 99                              	CDQ
  5134 0000332F F7 F9                           	IDIV	ECX
  5135 00003331 89 C6                           	MOV	ESI,EAX
  5136 00003333 EB 9B                           	JMP	L861
  5137 00003335                                 L864:
  5138 00003335 29 D8                           	SUB	EAX,EBX
  5139 00003337 8D 50 FF                        	LEA	EDX,DWORD [-1+EAX]
  5140 0000333A EB ED                           	JMP	L873
  5141 0000333C                                 L876:
  5142 0000333C F7 DF                           	NEG	EDI
  5143 0000333E E9 FFFFFF65                     	JMP	L855
  5144 00003343                                 L875:
  5145 00003343 F7 DE                           	NEG	ESI
  5146 00003345 E9 FFFFFF56                     	JMP	L854
  5147 0000334A                                 	GLOBAL	_cmd_clearline
  5148 0000334A                                 _cmd_clearline:
  5149 0000334A 55                              	PUSH	EBP
  5150 0000334B 89 E5                           	MOV	EBP,ESP
  5151 0000334D 8B 45 0C                        	MOV	EAX,DWORD [12+EBP]
  5152 00003350 80 38 00                        	CMP	BYTE [EAX],0
  5153 00003353 74 09                           	JE	L877
  5154 00003355                                 L884:
  5155 00003355 C6 00 00                        	MOV	BYTE [EAX],0
  5156 00003358 40                              	INC	EAX
  5157 00003359 80 38 00                        	CMP	BYTE [EAX],0
  5158 0000335C 75 F7                           	JNE	L884
  5159 0000335E                                 L877:
  5160 0000335E 5D                              	POP	EBP
  5161 0000335F C3                              	RET
  5162                                          [SECTION .data]
  5163 00000B82                                 LC142:
  5164 00000B82 69 6E 70 75 74 20 34 20 73 74   	DB	"input 4 stamp values:",0x00
       00000B8C 61 6D 70 20 76 61 6C 75 65 73 
       00000B96 3A 00 
  5165                                          [SECTION .text]
  5166 00003360                                 	GLOBAL	_cmd_stamp
  5167 00003360                                 _cmd_stamp:
  5168 00003360 55                              	PUSH	EBP
  5169 00003361 89 E5                           	MOV	EBP,ESP
  5170 00003363 57                              	PUSH	EDI
  5171 00003364 56                              	PUSH	ESI
  5172 00003365 53                              	PUSH	EBX
  5173 00003366 8D 7D D4                        	LEA	EDI,DWORD [-44+EBP]
  5174 00003369 83 EC 28                        	SUB	ESP,40
  5175 0000336C E8 [00000000]                   	CALL	_task_now
  5176 00003371 68 [00000B82]                   	PUSH	LC142
  5177 00003376 89 C3                           	MOV	EBX,EAX
  5178 00003378 FF 75 08                        	PUSH	DWORD [8+EBP]
  5179 0000337B E8 FFFFD6A8                     	CALL	_cons_putstr0
  5180 00003380 FF 75 08                        	PUSH	DWORD [8+EBP]
  5181 00003383 E8 FFFFD54D                     	CALL	_cons_newline
  5182 00003388 FF 75 0C                        	PUSH	DWORD [12+EBP]
  5183 0000338B FF 75 08                        	PUSH	DWORD [8+EBP]
  5184 0000338E E8 FFFFFFB7                     	CALL	_cmd_clearline
  5185 00003393 FF B3 000000B8                  	PUSH	DWORD [184+EBX]
  5186 00003399 FF 75 08                        	PUSH	DWORD [8+EBP]
  5187 0000339C BB 00000007                     	MOV	EBX,7
  5188 000033A1 E8 FFFFFFA4                     	CALL	_cmd_clearline
  5189 000033A6 FC                              	CLD
  5190 000033A7 8B 75 08                        	MOV	ESI,DWORD [8+EBP]
  5191 000033AA 89 D9                           	MOV	ECX,EBX
  5192 000033AC F3                              	REP
  5193 000033AD A5                              	MOVSD
  5194 000033AE 6A 01                           	PUSH	1
  5195 000033B0 6A 3E                           	PUSH	62
  5196 000033B2 FF 75 08                        	PUSH	DWORD [8+EBP]
  5197 000033B5 E8 FFFFD460                     	CALL	_cons_putchar
  5198 000033BA 89 D9                           	MOV	ECX,EBX
  5199 000033BC 83 C4 28                        	ADD	ESP,40
  5200 000033BF 8D 45 D4                        	LEA	EAX,DWORD [-44+EBP]
  5201 000033C2 FF 75 0C                        	PUSH	DWORD [12+EBP]
  5202 000033C5 83 EC 1C                        	SUB	ESP,28
  5203 000033C8 89 C6                           	MOV	ESI,EAX
  5204 000033CA FC                              	CLD
  5205 000033CB 89 E7                           	MOV	EDI,ESP
  5206 000033CD 89 45 CC                        	MOV	DWORD [-52+EBP],EAX
  5207 000033D0 F3                              	REP
  5208 000033D1 A5                              	MOVSD
  5209 000033D2 E8 0000001B                     	CALL	_get_1_line
  5210 000033D7 83 C4 20                        	ADD	ESP,32
  5211 000033DA 50                              	PUSH	EAX
  5212 000033DB FF 75 08                        	PUSH	DWORD [8+EBP]
  5213 000033DE E8 FFFFD645                     	CALL	_cons_putstr0
  5214 000033E3 8B 45 08                        	MOV	EAX,DWORD [8+EBP]
  5215 000033E6 83 40 08 10                     	ADD	DWORD [8+EAX],16
  5216 000033EA 8D 65 F4                        	LEA	ESP,DWORD [-12+EBP]
  5217 000033ED 5B                              	POP	EBX
  5218 000033EE 5E                              	POP	ESI
  5219 000033EF 5F                              	POP	EDI
  5220 000033F0 5D                              	POP	EBP
  5221 000033F1 C3                              	RET
  5222 000033F2                                 	GLOBAL	_get_1_line
  5223 000033F2                                 _get_1_line:
  5224 000033F2 55                              	PUSH	EBP
  5225 000033F3 89 E5                           	MOV	EBP,ESP
  5226 000033F5 57                              	PUSH	EDI
  5227 000033F6 56                              	PUSH	ESI
  5228 000033F7 53                              	PUSH	EBX
  5229 000033F8 53                              	PUSH	EBX
  5230 000033F9 53                              	PUSH	EBX
  5231 000033FA E8 [00000000]                   	CALL	_task_now
  5232 000033FF 89 C7                           	MOV	EDI,EAX
  5233 00003401 8D 45 08                        	LEA	EAX,DWORD [8+EBP]
  5234 00003404 50                              	PUSH	EAX
  5235 00003405 E8 FFFFD67F                     	CALL	_cons_putdir
  5236 0000340A 89 45 F0                        	MOV	DWORD [-16+EBP],EAX
  5237 0000340D                                 L912:
  5238 0000340D 59                              	POP	ECX
  5239 0000340E                                 L888:
  5240 0000340E 8D 5F 10                        	LEA	EBX,DWORD [16+EDI]
  5241 00003411 E8 [00000000]                   	CALL	_io_cli
  5242 00003416 53                              	PUSH	EBX
  5243 00003417 E8 [00000000]                   	CALL	_fifo32_status
  5244 0000341C 5A                              	POP	EDX
  5245 0000341D 85 C0                           	TEST	EAX,EAX
  5246 0000341F 0F 84 00000213                  	JE	L914
  5247 00003425 53                              	PUSH	EBX
  5248 00003426 E8 [00000000]                   	CALL	_fifo32_get
  5249 0000342B 89 C6                           	MOV	ESI,EAX
  5250 0000342D E8 [00000000]                   	CALL	_io_sti
  5251 00003432 58                              	POP	EAX
  5252 00003433 83 FE 01                        	CMP	ESI,1
  5253 00003436 0F 8E 000001A5                  	JLE	L915
  5254 0000343C                                 L893:
  5255 0000343C 83 FE 02                        	CMP	ESI,2
  5256 0000343F 0F 84 00000190                  	JE	L916
  5257 00003445                                 L898:
  5258 00003445 83 FE 03                        	CMP	ESI,3
  5259 00003448 0F 84 00000153                  	JE	L917
  5260 0000344E                                 L899:
  5261 0000344E 83 FE 04                        	CMP	ESI,4
  5262 00003451 0F 84 00000134                  	JE	L918
  5263 00003457                                 L901:
  5264 00003457 8D 86 FFFFFF00                  	LEA	EAX,DWORD [-256+ESI]
  5265 0000345D 89 45 EC                        	MOV	DWORD [-20+EBP],EAX
  5266 00003460 3D 000000FF                     	CMP	EAX,255
  5267 00003465 77 23                           	JA	L902
  5268 00003467 81 FE 00000108                  	CMP	ESI,264
  5269 0000346D 0F 84 000000EF                  	JE	L919
  5270 00003473 81 FE 0000010A                  	CMP	ESI,266
  5271 00003479 0F 84 0000008E                  	JE	L920
  5272 0000347F 8B 4D 0C                        	MOV	ECX,DWORD [12+EBP]
  5273 00003482 81 F9 0000010F                  	CMP	ECX,271
  5274 00003488 7E 53                           	JLE	L921
  5275 0000348A                                 L902:
  5276 0000348A 8B 5D 08                        	MOV	EBX,DWORD [8+EBP]
  5277 0000348D 85 DB                           	TEST	EBX,EBX
  5278 0000348F 0F 84 FFFFFF79                  	JE	L888
  5279 00003495 83 7D 14 00                     	CMP	DWORD [20+EBP],0
  5280 00003499 78 22                           	JS	L911
  5281 0000349B 8B 4D 10                        	MOV	ECX,DWORD [16+EBP]
  5282 0000349E 8B 55 0C                        	MOV	EDX,DWORD [12+EBP]
  5283 000034A1 8D 41 0F                        	LEA	EAX,DWORD [15+ECX]
  5284 000034A4 50                              	PUSH	EAX
  5285 000034A5 8D 42 07                        	LEA	EAX,DWORD [7+EDX]
  5286 000034A8 50                              	PUSH	EAX
  5287 000034A9 51                              	PUSH	ECX
  5288 000034AA 52                              	PUSH	EDX
  5289 000034AB 0F B6 45 14                     	MOVZX	EAX,BYTE [20+EBP]
  5290 000034AF 50                              	PUSH	EAX
  5291 000034B0 FF 73 04                        	PUSH	DWORD [4+EBX]
  5292 000034B3 FF 33                           	PUSH	DWORD [EBX]
  5293 000034B5 E8 [00000000]                   	CALL	_boxfill8
  5294 000034BA 83 C4 1C                        	ADD	ESP,28
  5295 000034BD                                 L911:
  5296 000034BD 8B 4D 10                        	MOV	ECX,DWORD [16+EBP]
  5297 000034C0 8B 55 0C                        	MOV	EDX,DWORD [12+EBP]
  5298 000034C3 8D 41 10                        	LEA	EAX,DWORD [16+ECX]
  5299 000034C6 50                              	PUSH	EAX
  5300 000034C7 8D 42 08                        	LEA	EAX,DWORD [8+EDX]
  5301 000034CA 50                              	PUSH	EAX
  5302 000034CB 51                              	PUSH	ECX
  5303 000034CC 52                              	PUSH	EDX
  5304 000034CD FF 75 08                        	PUSH	DWORD [8+EBP]
  5305 000034D0 E8 [00000000]                   	CALL	_sheet_refresh
  5306 000034D5 83 C4 14                        	ADD	ESP,20
  5307 000034D8 E9 FFFFFF31                     	JMP	L888
  5308 000034DD                                 L921:
  5309 000034DD 89 C8                           	MOV	EAX,ECX
  5310 000034DF BA 00000008                     	MOV	EDX,8
  5311 000034E4 89 D3                           	MOV	EBX,EDX
  5312 000034E6 99                              	CDQ
  5313 000034E7 F7 FB                           	IDIV	EBX
  5314 000034E9 89 C1                           	MOV	ECX,EAX
  5315 000034EB 8B 55 24                        	MOV	EDX,DWORD [36+EBP]
  5316 000034EE 2B 4D F0                        	SUB	ECX,DWORD [-16+EBP]
  5317 000034F1 89 F0                           	MOV	EAX,ESI
  5318 000034F3 88 44 11 FE                     	MOV	BYTE [-2+ECX+EDX*1],AL
  5319 000034F7 8D 45 08                        	LEA	EAX,DWORD [8+EBP]
  5320 000034FA 6A 01                           	PUSH	1
  5321 000034FC FF 75 EC                        	PUSH	DWORD [-20+EBP]
  5322 000034FF 50                              	PUSH	EAX
  5323 00003500 E8 FFFFD315                     	CALL	_cons_putchar
  5324 00003505                                 L913:
  5325 00003505 83 C4 0C                        	ADD	ESP,12
  5326 00003508 E9 FFFFFF7D                     	JMP	L902
  5327 0000350D                                 L920:
  5328 0000350D 6A 00                           	PUSH	0
  5329 0000350F 8D 45 08                        	LEA	EAX,DWORD [8+EBP]
  5330 00003512 6A 20                           	PUSH	32
  5331 00003514 50                              	PUSH	EAX
  5332 00003515 E8 FFFFD300                     	CALL	_cons_putchar
  5333 0000351A 8B 5D 24                        	MOV	EBX,DWORD [36+EBP]
  5334 0000351D 8B 45 0C                        	MOV	EAX,DWORD [12+EBP]
  5335 00003520 BA 00000008                     	MOV	EDX,8
  5336 00003525 89 D1                           	MOV	ECX,EDX
  5337 00003527 99                              	CDQ
  5338 00003528 F7 F9                           	IDIV	ECX
  5339 0000352A 2B 45 F0                        	SUB	EAX,DWORD [-16+EBP]
  5340 0000352D C6 44 18 FE 00                  	MOV	BYTE [-2+EAX+EBX*1],0
  5341 00003532 8D 45 08                        	LEA	EAX,DWORD [8+EBP]
  5342 00003535 50                              	PUSH	EAX
  5343 00003536 E8 FFFFD39A                     	CALL	_cons_newline
  5344 0000353B 83 C4 10                        	ADD	ESP,16
  5345 0000353E 83 7D 08 00                     	CMP	DWORD [8+EBP],0
  5346 00003542 74 0B                           	JE	L922
  5347 00003544                                 L907:
  5348 00003544 8B 45 24                        	MOV	EAX,DWORD [36+EBP]
  5349 00003547 8D 65 F4                        	LEA	ESP,DWORD [-12+EBP]
  5350 0000354A 5B                              	POP	EBX
  5351 0000354B 5E                              	POP	ESI
  5352 0000354C 5F                              	POP	EDI
  5353 0000354D 5D                              	POP	EBP
  5354 0000354E C3                              	RET
  5355 0000354F                                 L922:
  5356 0000354F FF B7 000000B4                  	PUSH	DWORD [180+EDI]
  5357 00003555 8D 45 08                        	LEA	EAX,DWORD [8+EBP]
  5358 00003558 50                              	PUSH	EAX
  5359 00003559 E8 FFFFF21E                     	CALL	_cmd_exit
  5360 0000355E 59                              	POP	ECX
  5361 0000355F 5B                              	POP	EBX
  5362 00003560 EB E2                           	JMP	L907
  5363 00003562                                 L919:
  5364 00003562 8B 55 F0                        	MOV	EDX,DWORD [-16+EBP]
  5365 00003565 8D 04 D5 00000010               	LEA	EAX,DWORD [16+EDX*8]
  5366 0000356C 39 45 0C                        	CMP	DWORD [12+EBP],EAX
  5367 0000356F 0F 8E FFFFFF15                  	JLE	L902
  5368 00003575 6A 00                           	PUSH	0
  5369 00003577 8D 45 08                        	LEA	EAX,DWORD [8+EBP]
  5370 0000357A 6A 20                           	PUSH	32
  5371 0000357C 50                              	PUSH	EAX
  5372 0000357D E8 FFFFD298                     	CALL	_cons_putchar
  5373 00003582 83 6D 0C 08                     	SUB	DWORD [12+EBP],8
  5374 00003586 E9 FFFFFF7A                     	JMP	L913
  5375 0000358B                                 L918:
  5376 0000358B FF B7 000000B4                  	PUSH	DWORD [180+EDI]
  5377 00003591 8D 45 08                        	LEA	EAX,DWORD [8+EBP]
  5378 00003594 50                              	PUSH	EAX
  5379 00003595 E8 FFFFF1E2                     	CALL	_cmd_exit
  5380 0000359A 58                              	POP	EAX
  5381 0000359B 5A                              	POP	EDX
  5382 0000359C E9 FFFFFEB6                     	JMP	L901
  5383 000035A1                                 L917:
  5384 000035A1 8B 5D 08                        	MOV	EBX,DWORD [8+EBP]
  5385 000035A4 85 DB                           	TEST	EBX,EBX
  5386 000035A6 75 0C                           	JNE	L923
  5387 000035A8                                 L900:
  5388 000035A8 C7 45 14 FFFFFFFF               	MOV	DWORD [20+EBP],-1
  5389 000035AF E9 FFFFFE9A                     	JMP	L899
  5390 000035B4                                 L923:
  5391 000035B4 8B 4D 10                        	MOV	ECX,DWORD [16+EBP]
  5392 000035B7 8B 55 0C                        	MOV	EDX,DWORD [12+EBP]
  5393 000035BA 8D 41 0F                        	LEA	EAX,DWORD [15+ECX]
  5394 000035BD 50                              	PUSH	EAX
  5395 000035BE 8D 42 07                        	LEA	EAX,DWORD [7+EDX]
  5396 000035C1 50                              	PUSH	EAX
  5397 000035C2 51                              	PUSH	ECX
  5398 000035C3 52                              	PUSH	EDX
  5399 000035C4 6A 00                           	PUSH	0
  5400 000035C6 FF 73 04                        	PUSH	DWORD [4+EBX]
  5401 000035C9 FF 33                           	PUSH	DWORD [EBX]
  5402 000035CB E8 [00000000]                   	CALL	_boxfill8
  5403 000035D0 83 C4 1C                        	ADD	ESP,28
  5404 000035D3 EB D3                           	JMP	L900
  5405 000035D5                                 L916:
  5406 000035D5 C7 45 14 00000007               	MOV	DWORD [20+EBP],7
  5407 000035DC E9 FFFFFE64                     	JMP	L898
  5408 000035E1                                 L915:
  5409 000035E1 83 7D 08 00                     	CMP	DWORD [8+EBP],0
  5410 000035E5 0F 84 FFFFFE51                  	JE	L893
  5411 000035EB 85 F6                           	TEST	ESI,ESI
  5412 000035ED 74 2C                           	JE	L894
  5413 000035EF 6A 00                           	PUSH	0
  5414 000035F1 53                              	PUSH	EBX
  5415 000035F2 FF 75 18                        	PUSH	DWORD [24+EBP]
  5416 000035F5 E8 [00000000]                   	CALL	_timer_init
  5417 000035FA 83 C4 0C                        	ADD	ESP,12
  5418 000035FD 83 7D 14 00                     	CMP	DWORD [20+EBP],0
  5419 00003601 78 07                           	JS	L896
  5420 00003603 C7 45 14 00000007               	MOV	DWORD [20+EBP],7
  5421 0000360A                                 L896:
  5422 0000360A 6A 32                           	PUSH	50
  5423 0000360C FF 75 18                        	PUSH	DWORD [24+EBP]
  5424 0000360F E8 [00000000]                   	CALL	_timer_settime
  5425 00003614 59                              	POP	ECX
  5426 00003615 5B                              	POP	EBX
  5427 00003616 E9 FFFFFE21                     	JMP	L893
  5428 0000361B                                 L894:
  5429 0000361B 6A 01                           	PUSH	1
  5430 0000361D 53                              	PUSH	EBX
  5431 0000361E FF 75 18                        	PUSH	DWORD [24+EBP]
  5432 00003621 E8 [00000000]                   	CALL	_timer_init
  5433 00003626 83 C4 0C                        	ADD	ESP,12
  5434 00003629 83 7D 14 00                     	CMP	DWORD [20+EBP],0
  5435 0000362D 78 DB                           	JS	L896
  5436 0000362F C7 45 14 00000000               	MOV	DWORD [20+EBP],0
  5437 00003636 EB D2                           	JMP	L896
  5438 00003638                                 L914:
  5439 00003638 57                              	PUSH	EDI
  5440 00003639 E8 [00000000]                   	CALL	_task_sleep
  5441 0000363E E8 [00000000]                   	CALL	_io_sti
  5442 00003643 E9 FFFFFDC5                     	JMP	L912
  5443 00003648                                 	GLOBAL	_s
  5444                                          [SECTION .data]
  5445 00000B98 00 00 00 00 00 00 00 00         	ALIGNB	16
  5446 00000BA0                                 _s:
  5447 00000BA0 00 00 00 00 00 00 00 00 00 00   	RESB	28
       00000BAA 00 00 00 00 00 00 00 00 00 00 
       00000BB4 00 00 00 00 00 00 00 00 
  5448 00000BBC                                 	GLOBAL	_log
  5449                                          [SECTION .data]
  5450 00000BBC                                 	ALIGNB	4
  5451 00000BBC                                 _log:
  5452 00000BBC 00 00 00 00                     	RESB	4
  5453 00000BC0                                 	GLOBAL	_cmdhis
  5454                                          [SECTION .data]
  5455 00000BC0                                 	ALIGNB	16
  5456 00000BC0                                 _cmdhis:
  5457 00000BC0 00 00 00 00 00 00 00 00 00 00   	RESB	28
       00000BCA 00 00 00 00 00 00 00 00 00 00 
       00000BD4 00 00 00 00 00 00 00 00 
  5458 00000BDC                                 	GLOBAL	_cmd_buf
  5459                                          [SECTION .data]
  5460 00000BDC 00 00 00 00                     	ALIGNB	16
  5461 00000BE0                                 _cmd_buf:
  5462 00000BE0 00 00 00 00 00 00 00 00 00 00   	RESB	1024
       00000BEA 00 00 00 00 00 00 00 00 00 00 
       00000BF4 00 00 00 00 00 00 00 00 00 00 
       00000BFE 00 00 00 00 00 00 00 00 00 00 
       00000C08 00 00 00 00 00 00 00 00 00 00 
       00000C12 00 00 00 00 00 00 00 00 00 00 
       00000C1C 00 00 00 00 00 00 00 00 00 00 
       00000C26 00 00 00 00 00 00 00 00 00 00 
       00000C30 00 00 00 00 00 00 00 00 00 00 
       00000C3A 00 00 00 00 00 00 00 00 00 00 
       00000C44 00 00 00 00 00 00 00 00 00 00 
       00000C4E 00 00 00 00 00 00 00 00 00 00 
       00000C58 00 00 00 00 00 00 00 00 00 00 
       00000C62 00 00 00 00 00 00 00 00 00 00 
       00000C6C 00 00 00 00 00 00 00 00 00 00 
       00000C76 00 00 00 00 00 00 00 00 00 00 
       00000C80 00 00 00 00 00 00 00 00 00 00 
       00000C8A 00 00 00 00 00 00 00 00 00 00 
       00000C94 00 00 00 00 00 00 00 00 00 00 
       00000C9E 00 00 00 00 00 00 00 00 00 00 
       00000CA8 00 00 00 00 00 00 00 00 00 00 
       00000CB2 00 00 00 00 00 00 00 00 00 00 
       00000CBC 00 00 00 00 00 00 00 00 00 00 
       00000CC6 00 00 00 00 00 00 00 00 00 00 
       00000CD0 00 00 00 00 00 00 00 00 00 00 
       00000CDA 00 00 00 00 00 00 00 00 00 00 
       00000CE4 00 00 00 00 00 00 00 00 00 00 
       00000CEE 00 00 00 00 00 00 00 00 00 00 
       00000CF8 00 00 00 00 00 00 00 00 00 00 
       00000D02 00 00 00 00 00 00 00 00 00 00 
       00000D0C 00 00 00 00 00 00 00 00 00 00 
       00000D16 00 00 00 00 00 00 00 00 00 00 
       00000D20 00 00 00 00 00 00 00 00 00 00 
       00000D2A 00 00 00 00 00 00 00 00 00 00 
       00000D34 00 00 00 00 00 00 00 00 00 00 
       00000D3E 00 00 00 00 00 00 00 00 00 00 
       00000D48 00 00 00 00 00 00 00 00 00 00 
       00000D52 00 00 00 00 00 00 00 00 00 00 
       00000D5C 00 00 00 00 00 00 00 00 00 00 
       00000D66 00 00 00 00 00 00 00 00 00 00 
       00000D70 00 00 00 00 00 00 00 00 00 00 
       00000D7A 00 00 00 00 00 00 00 00 00 00 
       00000D84 00 00 00 00 00 00 00 00 00 00 
       00000D8E 00 00 00 00 00 00 00 00 00 00 
       00000D98 00 00 00 00 00 00 00 00 00 00 
       00000DA2 00 00 00 00 00 00 00 00 00 00 
       00000DAC 00 00 00 00 00 00 00 00 00 00 
       00000DB6 00 00 00 00 00 00 00 00 00 00 
       00000DC0 00 00 00 00 00 00 00 00 00 00 
       00000DCA 00 00 00 00 00 00 00 00 00 00 
       00000DD4 00 00 00 00 00 00 00 00 00 00 
       00000DDE 00 00 00 00 00 00 00 00 00 00 
       00000DE8 00 00 00 00 00 00 00 00 00 00 
       00000DF2 00 00 00 00 00 00 00 00 00 00 
       00000DFC 00 00 00 00 00 00 00 00 00 00 
       00000E06 00 00 00 00 00 00 00 00 00 00 
       00000E10 00 00 00 00 00 00 00 00 00 00 
       00000E1A 00 00 00 00 00 00 00 00 00 00 
       00000E24 00 00 00 00 00 00 00 00 00 00 
       00000E2E 00 00 00 00 00 00 00 00 00 00 
       00000E38 00 00 00 00 00 00 00 00 00 00 
       00000E42 00 00 00 00 00 00 00 00 00 00 
       00000E4C 00 00 00 00 00 00 00 00 00 00 
       00000E56 00 00 00 00 00 00 00 00 00 00 
       00000E60 00 00 00 00 00 00 00 00 00 00 
       00000E6A 00 00 00 00 00 00 00 00 00 00 
       00000E74 00 00 00 00 00 00 00 00 00 00 
       00000E7E 00 00 00 00 00 00 00 00 00 00 
       00000E88 00 00 00 00 00 00 00 00 00 00 
       00000E92 00 00 00 00 00 00 00 00 00 00 
       00000E9C 00 00 00 00 00 00 00 00 00 00 
       00000EA6 00 00 00 00 00 00 00 00 00 00 
       00000EB0 00 00 00 00 00 00 00 00 00 00 
       00000EBA 00 00 00 00 00 00 00 00 00 00 
       00000EC4 00 00 00 00 00 00 00 00 00 00 
       00000ECE 00 00 00 00 00 00 00 00 00 00 
       00000ED8 00 00 00 00 00 00 00 00 00 00 
       00000EE2 00 00 00 00 00 00 00 00 00 00 
       00000EEC 00 00 00 00 00 00 00 00 00 00 
       00000EF6 00 00 00 00 00 00 00 00 00 00 
       00000F00 00 00 00 00 00 00 00 00 00 00 
       00000F0A 00 00 00 00 00 00 00 00 00 00 
       00000F14 00 00 00 00 00 00 00 00 00 00 
       00000F1E 00 00 00 00 00 00 00 00 00 00 
       00000F28 00 00 00 00 00 00 00 00 00 00 
       00000F32 00 00 00 00 00 00 00 00 00 00 
       00000F3C 00 00 00 00 00 00 00 00 00 00 
       00000F46 00 00 00 00 00 00 00 00 00 00 
       00000F50 00 00 00 00 00 00 00 00 00 00 
       00000F5A 00 00 00 00 00 00 00 00 00 00 
       00000F64 00 00 00 00 00 00 00 00 00 00 
       00000F6E 00 00 00 00 00 00 00 00 00 00 
       00000F78 00 00 00 00 00 00 00 00 00 00 
       00000F82 00 00 00 00 00 00 00 00 00 00 
       00000F8C 00 00 00 00 00 00 00 00 00 00 
       00000F96 00 00 00 00 00 00 00 00 00 00 
       00000FA0 00 00 00 00 00 00 00 00 00 00 
       00000FAA 00 00 00 00 00 00 00 00 00 00 
       00000FB4 00 00 00 00 00 00 00 00 00 00 
       00000FBE 00 00 00 00 00 00 00 00 00 00 
       00000FC8 00 00 00 00 00 00 00 00 00 00 
       00000FD2 00 00 00 00 00 00 00 00 00 00 
       00000FDC 00 00 00 00 
  5463 00000FE0                                 	GLOBAL	_cp
  5464                                          [SECTION .data]
  5465 00000FE0                                 	ALIGNB	4
  5466 00000FE0                                 _cp:
  5467 00000FE0 00 00 00 00                     	RESB	4
