     1 00000000                                 [FORMAT "WCOFF"]
     2 00000000                                 [INSTRSET "i486p"]
     3 00000000                                 [OPTIMIZE 1]
     4 00000000                                 [OPTION 1]
     5 00000000                                 [BITS 32]
     6 00000000                                 	EXTERN	_task_now
     7 00000000                                 	EXTERN	_memman_alloc_4k
     8 00000000                                 	EXTERN	_timer_alloc
     9 00000000                                 	EXTERN	_timer_init
    10 00000000                                 	EXTERN	_timer_settime
    11 00000000                                 	EXTERN	_file_readfat
    12 00000000                                 	EXTERN	_io_cli
    13 00000000                                 	EXTERN	_fifo32_status
    14 00000000                                 	EXTERN	_fifo32_get
    15 00000000                                 	EXTERN	_io_sti
    16 00000000                                 	EXTERN	_boxfill8
    17 00000000                                 	EXTERN	_sheet_refresh
    18 00000000                                 	EXTERN	_strcpy
    19 00000000                                 	EXTERN	_newBackGround
    20 00000000                                 	EXTERN	_task_sleep
    21 00000000                                 	EXTERN	_putfonts8_asc_sht
    22 00000000                                 	EXTERN	_sprintf
    23 00000000                                 	EXTERN	_myfinfo_search
    24 00000000                                 	EXTERN	_myfread
    25 00000000                                 	EXTERN	_get_size_myfdata
    26 00000000                                 	EXTERN	_myfopen
    27 00000000                                 	EXTERN	_myfwrite
    28 00000000                                 	EXTERN	_strcat
    29 00000000                                 	EXTERN	_myfsave
    30 00000000                                 	EXTERN	_myfclose
    31 00000000                                 	EXTERN	_get_newdinfo
    32 00000000                                 	EXTERN	_get_newfdata
    33 00000000                                 	EXTERN	_memman_total
    34 00000000                                 	EXTERN	_file_loadfile
    35 00000000                                 	EXTERN	_memman_free_4k
    36 00000000                                 	EXTERN	_timer_cancel
    37 00000000                                 	EXTERN	_fifo32_put
    38 00000000                                 	EXTERN	_taskctl
    39 00000000                                 	EXTERN	_open_console
    40 00000000                                 	EXTERN	_sheet_slide
    41 00000000                                 	EXTERN	_sheet_updown
    42 00000000                                 	EXTERN	_open_constask
    43 00000000                                 	EXTERN	_file_search
    44 00000000                                 	EXTERN	_file_loadfile2
    45 00000000                                 	EXTERN	_set_segmdesc
    46 00000000                                 	EXTERN	_start_app
    47 00000000                                 	EXTERN	_timer_cancelall
    48 00000000                                 	EXTERN	_sheet_free
    49 00000000                                 	EXTERN	_sheet_alloc
    50 00000000                                 	EXTERN	_sheet_setbuf
    51 00000000                                 	EXTERN	_make_window8
    52 00000000                                 	EXTERN	_putfonts8_asc
    53 00000000                                 	EXTERN	_memman_init
    54 00000000                                 	EXTERN	_memman_free
    55 00000000                                 	EXTERN	_memman_alloc
    56 00000000                                 	EXTERN	_timer_free
    57 00000000                                 	EXTERN	_io_in8
    58 00000000                                 	EXTERN	_io_out8
    59 00000000                                 	EXTERN	_var_create
    60 00000000                                 	EXTERN	_var_read
    61 00000000                                 	EXTERN	_var_wrt
    62 00000000                                 	EXTERN	_var_free
    63 00000000                                 	EXTERN	_avoid_sleep
    64 00000000                                 	EXTERN	_Tlock
    65 00000000                                 	EXTERN	_unTlock
    66 00000000                                 	EXTERN	_io_load_eflags
    67 00000000                                 	EXTERN	_io_store_eflags
    68 00000000                                 	EXTERN	_task_run
    69 00000000                                 	EXTERN	_rand
    70 00000000                                 [FILE "console.c"]
    71 00000000                                 	GLOBAL	_console_id
    72                                          [SECTION .data]
    73 00000000                                 	ALIGNB	4
    74 00000000                                 _console_id:
    75 00000000 00000000                        	DD	0
    76 00000004                                 	GLOBAL	_setfdata
    77 00000004                                 	ALIGNB	4
    78 00000004                                 _setfdata:
    79 00000004 00000000                        	DD	0
    80 00000008                                 	GLOBAL	_cmdhisbuf
    81 00000008                                 	ALIGNB	4
    82 00000008                                 _cmdhisbuf:
    83 00000008 [00001E20]                      	DD	_cmd_buf
    84 0000000C                                 	GLOBAL	_num
    85 0000000C                                 	ALIGNB	4
    86 0000000C                                 _num:
    87 0000000C 00000000                        	DD	0
    88                                          [SECTION .text]
    89 00000000                                 	GLOBAL	_debug_print
    90 00000000                                 _debug_print:
    91 00000000 55                              	PUSH	EBP
    92 00000001 89 E5                           	MOV	EBP,ESP
    93 00000003 5D                              	POP	EBP
    94 00000004 C3                              	RET
    95                                          [SECTION .data]
    96 00000010                                 LC5:
    97 00000010 74 69 6D 65 00                  	DB	"time",0x00
    98 00000015                                 LC4:
    99 00000015 6E 65 77 62 67 20 33 2E 6A 70   	DB	"newbg 3.jpg",0x00
       0000001F 67 00 
   100 00000021                                 LC3:
   101 00000021 6E 65 77 62 67 20 32 2E 6A 70   	DB	"newbg 2.jpg",0x00
       0000002B 67 00 
   102 0000002D                                 LC2:
   103 0000002D 75 73 65 72 00                  	DB	"user",0x00
   104 00000032                                 LC1:
   105 00000032 69 6E 76 61 64 65 72 00         	DB	"invader",0x00
   106 0000003A                                 LC0:
   107 0000003A 6E 6F 6F 64 6C 65 00            	DB	"noodle",0x00
   108                                          [SECTION .text]
   109 00000005                                 	GLOBAL	_console_task
   110 00000005                                 _console_task:
   111 00000005 55                              	PUSH	EBP
   112 00000006 89 E5                           	MOV	EBP,ESP
   113 00000008 57                              	PUSH	EDI
   114 00000009 56                              	PUSH	ESI
   115 0000000A 53                              	PUSH	EBX
   116 0000000B 81 EC 00000108                  	SUB	ESP,264
   117 00000011 8B 5D 08                        	MOV	EBX,DWORD [8+EBP]
   118 00000014 E8 [00000000]                   	CALL	_task_now
   119 00000019 68 00002D00                     	PUSH	11520
   120 0000001E 68 003C0000                     	PUSH	3932160
   121 00000023 89 85 FFFFFF00                  	MOV	DWORD [-256+EBP],EAX
   122 00000029 E8 [00000000]                   	CALL	_memman_alloc_4k
   123 0000002E 8B 95 FFFFFF00                  	MOV	EDX,DWORD [-256+EBP]
   124 00000034 8B 35 00000FE8                  	MOV	ESI,DWORD [4072]
   125 0000003A 89 5D D4                        	MOV	DWORD [-44+EBP],EBX
   126 0000003D 89 85 FFFFFEFC                  	MOV	DWORD [-260+EBP],EAX
   127 00000043 A1 [00000000]                   	MOV	EAX,DWORD [_console_id]
   128 00000048 89 45 EC                        	MOV	DWORD [-20+EBP],EAX
   129 0000004B 40                              	INC	EAX
   130 0000004C A3 [00000000]                   	MOV	DWORD [_console_id],EAX
   131 00000051 85 DB                           	TEST	EBX,EBX
   132 00000053 8D 45 D4                        	LEA	EAX,DWORD [-44+EBP]
   133 00000056 89 82 000000A4                  	MOV	DWORD [164+EDX],EAX
   134 0000005C 8D 85 FFFFFF04                  	LEA	EAX,DWORD [-252+EBP]
   135 00000062 89 82 000000B8                  	MOV	DWORD [184+EDX],EAX
   136 00000068 58                              	POP	EAX
   137 00000069 C7 45 D8 00000008               	MOV	DWORD [-40+EBP],8
   138 00000070 C7 45 DC 0000001C               	MOV	DWORD [-36+EBP],28
   139 00000077 C7 45 E0 FFFFFFFF               	MOV	DWORD [-32+EBP],-1
   140 0000007E C7 45 E8 00400000               	MOV	DWORD [-24+EBP],4194304
   141 00000085 5A                              	POP	EDX
   142 00000086 74 27                           	JE	L3
   143 00000088 E8 [00000000]                   	CALL	_timer_alloc
   144 0000008D 8B 95 FFFFFF00                  	MOV	EDX,DWORD [-256+EBP]
   145 00000093 6A 01                           	PUSH	1
   146 00000095 83 C2 10                        	ADD	EDX,16
   147 00000098 52                              	PUSH	EDX
   148 00000099 89 45 E4                        	MOV	DWORD [-28+EBP],EAX
   149 0000009C 50                              	PUSH	EAX
   150 0000009D E8 [00000000]                   	CALL	_timer_init
   151 000000A2 6A 32                           	PUSH	50
   152 000000A4 FF 75 E4                        	PUSH	DWORD [-28+EBP]
   153 000000A7 E8 [00000000]                   	CALL	_timer_settime
   154 000000AC 83 C4 14                        	ADD	ESP,20
   155 000000AF                                 L3:
   156 000000AF 68 00100200                     	PUSH	1049088
   157 000000B4 FF B5 FFFFFEFC                  	PUSH	DWORD [-260+EBP]
   158 000000BA E8 [00000000]                   	CALL	_file_readfat
   159 000000BF 31 C0                           	XOR	EAX,EAX
   160 000000C1 5B                              	POP	EBX
   161 000000C2 5F                              	POP	EDI
   162 000000C3 BF 00000007                     	MOV	EDI,7
   163 000000C8                                 L8:
   164 000000C8 C7 84 05 FFFFFF74 00000000      	MOV	DWORD [-140+EBP+EAX*1],0
   165 000000D3 83 C0 0C                        	ADD	EAX,12
   166 000000D6 4F                              	DEC	EDI
   167 000000D7 79 EF                           	JNS	L8
   168 000000D9 8B 8D FFFFFF00                  	MOV	ECX,DWORD [-256+EBP]
   169 000000DF 8B 9D FFFFFEFC                  	MOV	EBX,DWORD [-260+EBP]
   170 000000E5 8D 85 FFFFFF74                  	LEA	EAX,DWORD [-140+EBP]
   171 000000EB 89 81 000000B0                  	MOV	DWORD [176+ECX],EAX
   172 000000F1 89 99 000000B4                  	MOV	DWORD [180+ECX],EBX
   173 000000F7 80 BE 00001000 FF               	CMP	BYTE [4096+ESI],-1
   174 000000FE C6 81 000000C1 00               	MOV	BYTE [193+ECX],0
   175 00000105 0F 95 81 000000C0               	SETNE	BYTE [192+ECX]
   176 0000010C 8B 45 EC                        	MOV	EAX,DWORD [-20+EBP]
   177 0000010F 83 F8 01                        	CMP	EAX,1
   178 00000112 0F 84 000006F4                  	JE	L92
   179 00000118 85 C0                           	TEST	EAX,EAX
   180 0000011A 75 0A                           	JNE	L12
   181 0000011C 8D 45 D4                        	LEA	EAX,DWORD [-44+EBP]
   182 0000011F 50                              	PUSH	EAX
   183 00000120 E8 00001E40                     	CALL	_cmd_setlog
   184 00000125                                 L89:
   185 00000125 59                              	POP	ECX
   186 00000126                                 L12:
   187 00000126 8D 5D D4                        	LEA	EBX,DWORD [-44+EBP]
   188 00000129 53                              	PUSH	EBX
   189 0000012A E8 0000095A                     	CALL	_cons_putdir
   190 0000012F 6A 01                           	PUSH	1
   191 00000131 6A 3E                           	PUSH	62
   192 00000133 89 C6                           	MOV	ESI,EAX
   193 00000135 53                              	PUSH	EBX
   194 00000136 E8 000006DF                     	CALL	_cons_putchar
   195 0000013B 83 C4 10                        	ADD	ESP,16
   196 0000013E                                 L14:
   197 0000013E E8 [00000000]                   	CALL	_io_cli
   198 00000143 8B 9D FFFFFF00                  	MOV	EBX,DWORD [-256+EBP]
   199 00000149 83 C3 10                        	ADD	EBX,16
   200 0000014C 53                              	PUSH	EBX
   201 0000014D E8 [00000000]                   	CALL	_fifo32_status
   202 00000152 5A                              	POP	EDX
   203 00000153 85 C0                           	TEST	EAX,EAX
   204 00000155 0F 84 0000069B                  	JE	L93
   205 0000015B 53                              	PUSH	EBX
   206 0000015C E8 [00000000]                   	CALL	_fifo32_get
   207 00000161 89 C7                           	MOV	EDI,EAX
   208 00000163 E8 [00000000]                   	CALL	_io_sti
   209 00000168 58                              	POP	EAX
   210 00000169 83 FF 01                        	CMP	EDI,1
   211 0000016C 0F 8E 0000062D                  	JLE	L94
   212 00000172                                 L19:
   213 00000172 83 FF 02                        	CMP	EDI,2
   214 00000175 0F 84 00000618                  	JE	L95
   215 0000017B                                 L24:
   216 0000017B 83 FF 03                        	CMP	EDI,3
   217 0000017E 0F 84 000005DD                  	JE	L96
   218 00000184                                 L25:
   219 00000184 83 FF 04                        	CMP	EDI,4
   220 00000187 0F 84 000005BE                  	JE	L97
   221 0000018D                                 L27:
   222 0000018D 83 FF 06                        	CMP	EDI,6
   223 00000190 0F 84 00000599                  	JE	L98
   224 00000196                                 L29:
   225 00000196 83 FF 0C                        	CMP	EDI,12
   226 00000199 0F 84 0000051B                  	JE	L99
   227 0000019F                                 L35:
   228 0000019F 83 FF 0D                        	CMP	EDI,13
   229 000001A2 0F 84 000004F6                  	JE	L100
   230 000001A8                                 L36:
   231 000001A8 83 FF 12                        	CMP	EDI,18
   232 000001AB 0F 84 000004D1                  	JE	L101
   233 000001B1                                 L37:
   234 000001B1 83 FF 15                        	CMP	EDI,21
   235 000001B4 0F 84 000004AC                  	JE	L102
   236 000001BA                                 L38:
   237 000001BA 83 FF 16                        	CMP	EDI,22
   238 000001BD 0F 84 00000487                  	JE	L103
   239 000001C3                                 L39:
   240 000001C3 83 FF 17                        	CMP	EDI,23
   241 000001C6 0F 84 00000462                  	JE	L104
   242 000001CC                                 L40:
   243 000001CC 8D 87 FFFFFF00                  	LEA	EAX,DWORD [-256+EDI]
   244 000001D2 3D 000000FF                     	CMP	EAX,255
   245 000001D7 77 69                           	JA	L41
   246 000001D9 81 FF 00000108                  	CMP	EDI,264
   247 000001DF 0F 84 00000423                  	JE	L105
   248 000001E5 81 FF 0000010A                  	CMP	EDI,266
   249 000001EB 0F 84 00000209                  	JE	L106
   250 000001F1 81 FF 00000112                  	CMP	EDI,274
   251 000001F7 0F 84 00000154                  	JE	L107
   252 000001FD                                 L60:
   253 000001FD 81 FF 00000114                  	CMP	EDI,276
   254 00000203 0F 84 0000008C                  	JE	L108
   255 00000209                                 L68:
   256 00000209 8B 4D D8                        	MOV	ECX,DWORD [-40+EBP]
   257 0000020C 81 F9 000000EF                  	CMP	ECX,239
   258 00000212 7F 2E                           	JG	L41
   259 00000214 89 C8                           	MOV	EAX,ECX
   260 00000216 BA 00000008                     	MOV	EDX,8
   261 0000021B 89 D3                           	MOV	EBX,EDX
   262 0000021D 6A 01                           	PUSH	1
   263 0000021F 99                              	CDQ
   264 00000220 F7 FB                           	IDIV	EBX
   265 00000222 89 C1                           	MOV	ECX,EAX
   266 00000224 89 F8                           	MOV	EAX,EDI
   267 00000226 29 F1                           	SUB	ECX,ESI
   268 00000228 88 84 0D FFFFFF02               	MOV	BYTE [-254+EBP+ECX*1],AL
   269 0000022F 8D 87 FFFFFF00                  	LEA	EAX,DWORD [-256+EDI]
   270 00000235 50                              	PUSH	EAX
   271 00000236 8D 45 D4                        	LEA	EAX,DWORD [-44+EBP]
   272 00000239 50                              	PUSH	EAX
   273 0000023A E8 000005DB                     	CALL	_cons_putchar
   274 0000023F                                 L91:
   275 0000023F 83 C4 0C                        	ADD	ESP,12
   276 00000242                                 L41:
   277 00000242 8B 5D D4                        	MOV	EBX,DWORD [-44+EBP]
   278 00000245 85 DB                           	TEST	EBX,EBX
   279 00000247 0F 84 FFFFFEF1                  	JE	L14
   280 0000024D 83 7D E0 00                     	CMP	DWORD [-32+EBP],0
   281 00000251 78 22                           	JS	L80
   282 00000253 8B 4D DC                        	MOV	ECX,DWORD [-36+EBP]
   283 00000256 8B 55 D8                        	MOV	EDX,DWORD [-40+EBP]
   284 00000259 8D 41 0F                        	LEA	EAX,DWORD [15+ECX]
   285 0000025C 50                              	PUSH	EAX
   286 0000025D 8D 42 07                        	LEA	EAX,DWORD [7+EDX]
   287 00000260 50                              	PUSH	EAX
   288 00000261 51                              	PUSH	ECX
   289 00000262 52                              	PUSH	EDX
   290 00000263 0F B6 45 E0                     	MOVZX	EAX,BYTE [-32+EBP]
   291 00000267 50                              	PUSH	EAX
   292 00000268 FF 73 04                        	PUSH	DWORD [4+EBX]
   293 0000026B FF 33                           	PUSH	DWORD [EBX]
   294 0000026D E8 [00000000]                   	CALL	_boxfill8
   295 00000272 83 C4 1C                        	ADD	ESP,28
   296 00000275                                 L80:
   297 00000275 8B 4D DC                        	MOV	ECX,DWORD [-36+EBP]
   298 00000278 8B 55 D8                        	MOV	EDX,DWORD [-40+EBP]
   299 0000027B 8D 41 10                        	LEA	EAX,DWORD [16+ECX]
   300 0000027E 50                              	PUSH	EAX
   301 0000027F 8D 42 08                        	LEA	EAX,DWORD [8+EDX]
   302 00000282 50                              	PUSH	EAX
   303 00000283 51                              	PUSH	ECX
   304 00000284 52                              	PUSH	EDX
   305 00000285 FF 75 D4                        	PUSH	DWORD [-44+EBP]
   306 00000288 E8 [00000000]                   	CALL	_sheet_refresh
   307 0000028D 83 C4 14                        	ADD	ESP,20
   308 00000290 E9 FFFFFEA9                     	JMP	L14
   309 00000295                                 L108:
   310 00000295 8B 15 [00001E14]                	MOV	EDX,DWORD [_cmdhis+20]
   311 0000029B A1 [00001E10]                   	MOV	EAX,DWORD [_cmdhis+16]
   312 000002A0 83 3C 82 00                     	CMP	DWORD [EDX+EAX*4],0
   313 000002A4 0F 84 FFFFFF5F                  	JE	L68
   314 000002AA 83 7D D8 18                     	CMP	DWORD [-40+EBP],24
   315 000002AE 7E 1E                           	JLE	L87
   316 000002B0                                 L72:
   317 000002B0 6A 00                           	PUSH	0
   318 000002B2 8D 45 D4                        	LEA	EAX,DWORD [-44+EBP]
   319 000002B5 6A 20                           	PUSH	32
   320 000002B7 50                              	PUSH	EAX
   321 000002B8 E8 0000055D                     	CALL	_cons_putchar
   322 000002BD 83 C4 0C                        	ADD	ESP,12
   323 000002C0 8B 45 D8                        	MOV	EAX,DWORD [-40+EBP]
   324 000002C3 83 E8 08                        	SUB	EAX,8
   325 000002C6 89 45 D8                        	MOV	DWORD [-40+EBP],EAX
   326 000002C9 83 F8 18                        	CMP	EAX,24
   327 000002CC 7F E2                           	JG	L72
   328 000002CE                                 L87:
   329 000002CE 8B 15 [00001E10]                	MOV	EDX,DWORD [_cmdhis+16]
   330 000002D4 A1 [00001E14]                   	MOV	EAX,DWORD [_cmdhis+20]
   331 000002D9 FF 34 90                        	PUSH	DWORD [EAX+EDX*4]
   332 000002DC 8D 45 D4                        	LEA	EAX,DWORD [-44+EBP]
   333 000002DF 50                              	PUSH	EAX
   334 000002E0 E8 00000743                     	CALL	_cons_putstr0
   335 000002E5 A1 [00001E14]                   	MOV	EAX,DWORD [_cmdhis+20]
   336 000002EA 8B 15 [00001E10]                	MOV	EDX,DWORD [_cmdhis+16]
   337 000002F0 FF 34 90                        	PUSH	DWORD [EAX+EDX*4]
   338 000002F3 8D 85 FFFFFF04                  	LEA	EAX,DWORD [-252+EBP]
   339 000002F9 50                              	PUSH	EAX
   340 000002FA E8 [00000000]                   	CALL	_strcpy
   341 000002FF 83 C4 10                        	ADD	ESP,16
   342 00000302 8B 15 [00001E10]                	MOV	EDX,DWORD [_cmdhis+16]
   343 00000308 8B 0D [00001E00]                	MOV	ECX,DWORD [_cmdhis]
   344 0000030E 8D 42 01                        	LEA	EAX,DWORD [1+EDX]
   345 00000311 A3 [00001E10]                   	MOV	DWORD [_cmdhis+16],EAX
   346 00000316 39 C8                           	CMP	EAX,ECX
   347 00000318 74 2F                           	JE	L109
   348 0000031A                                 L73:
   349 0000031A 83 3D [00001E10] 20             	CMP	DWORD [_cmdhis+16],32
   350 00000321 0F 85 FFFFFF1B                  	JNE	L41
   351 00000327 85 C9                           	TEST	ECX,ECX
   352 00000329 75 0F                           	JNE	L75
   353 0000032B                                 L90:
   354 0000032B C7 05 [00001E10] 0000001F       	MOV	DWORD [_cmdhis+16],31
   355 00000335 E9 FFFFFF08                     	JMP	L41
   356 0000033A                                 L75:
   357 0000033A C7 05 [00001E10] 00000000       	MOV	DWORD [_cmdhis+16],0
   358 00000344 E9 FFFFFEF9                     	JMP	L41
   359 00000349                                 L109:
   360 00000349 89 15 [00001E10]                	MOV	DWORD [_cmdhis+16],EDX
   361 0000034F EB C9                           	JMP	L73
   362 00000351                                 L107:
   363 00000351 8B 15 [00001E14]                	MOV	EDX,DWORD [_cmdhis+20]
   364 00000357 A1 [00001E10]                   	MOV	EAX,DWORD [_cmdhis+16]
   365 0000035C 83 3C 82 00                     	CMP	DWORD [EDX+EAX*4],0
   366 00000360 0F 84 FFFFFE97                  	JE	L60
   367 00000366 83 7D D8 18                     	CMP	DWORD [-40+EBP],24
   368 0000036A 7E 1E                           	JLE	L85
   369 0000036C                                 L64:
   370 0000036C 6A 00                           	PUSH	0
   371 0000036E 8D 45 D4                        	LEA	EAX,DWORD [-44+EBP]
   372 00000371 6A 20                           	PUSH	32
   373 00000373 50                              	PUSH	EAX
   374 00000374 E8 000004A1                     	CALL	_cons_putchar
   375 00000379 83 C4 0C                        	ADD	ESP,12
   376 0000037C 8B 45 D8                        	MOV	EAX,DWORD [-40+EBP]
   377 0000037F 83 E8 08                        	SUB	EAX,8
   378 00000382 89 45 D8                        	MOV	DWORD [-40+EBP],EAX
   379 00000385 83 F8 18                        	CMP	EAX,24
   380 00000388 7F E2                           	JG	L64
   381 0000038A                                 L85:
   382 0000038A 8B 15 [00001E10]                	MOV	EDX,DWORD [_cmdhis+16]
   383 00000390 A1 [00001E14]                   	MOV	EAX,DWORD [_cmdhis+20]
   384 00000395 FF 34 90                        	PUSH	DWORD [EAX+EDX*4]
   385 00000398 8D 45 D4                        	LEA	EAX,DWORD [-44+EBP]
   386 0000039B 50                              	PUSH	EAX
   387 0000039C E8 00000687                     	CALL	_cons_putstr0
   388 000003A1 A1 [00001E14]                   	MOV	EAX,DWORD [_cmdhis+20]
   389 000003A6 8B 15 [00001E10]                	MOV	EDX,DWORD [_cmdhis+16]
   390 000003AC FF 34 90                        	PUSH	DWORD [EAX+EDX*4]
   391 000003AF 8D 85 FFFFFF04                  	LEA	EAX,DWORD [-252+EBP]
   392 000003B5 50                              	PUSH	EAX
   393 000003B6 E8 [00000000]                   	CALL	_strcpy
   394 000003BB 83 C4 10                        	ADD	ESP,16
   395 000003BE 8B 15 [00001E04]                	MOV	EDX,DWORD [_cmdhis+4]
   396 000003C4 39 15 [00001E10]                	CMP	DWORD [_cmdhis+16],EDX
   397 000003CA 74 24                           	JE	L110
   398 000003CC                                 L65:
   399 000003CC A1 [00001E10]                   	MOV	EAX,DWORD [_cmdhis+16]
   400 000003D1 48                              	DEC	EAX
   401 000003D2 39 15 [00001E00]                	CMP	DWORD [_cmdhis],EDX
   402 000003D8 A3 [00001E10]                   	MOV	DWORD [_cmdhis+16],EAX
   403 000003DD 0F 8D FFFFFE5F                  	JGE	L41
   404 000003E3 85 C0                           	TEST	EAX,EAX
   405 000003E5 0F 89 FFFFFE57                  	JNS	L41
   406 000003EB E9 FFFFFF3B                     	JMP	L90
   407 000003F0                                 L110:
   408 000003F0 8D 42 01                        	LEA	EAX,DWORD [1+EDX]
   409 000003F3 A3 [00001E10]                   	MOV	DWORD [_cmdhis+16],EAX
   410 000003F8 EB D2                           	JMP	L65
   411 000003FA                                 L106:
   412 000003FA 6A 00                           	PUSH	0
   413 000003FC 8D 5D D4                        	LEA	EBX,DWORD [-44+EBP]
   414 000003FF 6A 20                           	PUSH	32
   415 00000401 53                              	PUSH	EBX
   416 00000402 E8 00000413                     	CALL	_cons_putchar
   417 00000407 53                              	PUSH	EBX
   418 00000408 8B 45 D8                        	MOV	EAX,DWORD [-40+EBP]
   419 0000040B BA 00000008                     	MOV	EDX,8
   420 00000410 89 D1                           	MOV	ECX,EDX
   421 00000412 99                              	CDQ
   422 00000413 F7 F9                           	IDIV	ECX
   423 00000415 29 F0                           	SUB	EAX,ESI
   424 00000417 C6 84 05 FFFFFF02 00            	MOV	BYTE [-254+EBP+EAX*1],0
   425 0000041F E8 000004B1                     	CALL	_cons_newline
   426 00000424 83 C4 10                        	ADD	ESP,16
   427 00000427 8B 35 [00001E18]                	MOV	ESI,DWORD [_cmdhis+24]
   428 0000042D C7 05 [00001E14] [00001E20]     	MOV	DWORD [_cmdhis+20],_cmd_buf
   429 00000437 89 35 [00001E20]                	MOV	DWORD [_cmd_buf],ESI
   430 0000043D C7 05 [00001E00] 00000000       	MOV	DWORD [_cmdhis],0
   431 00000447 C7 05 [00001E04] 00000000       	MOV	DWORD [_cmdhis+4],0
   432 00000451 C7 05 [00001E08] 00000080       	MOV	DWORD [_cmdhis+8],128
   433 0000045B C7 05 [00001E0C] 00000000       	MOV	DWORD [_cmdhis+12],0
   434 00000465 C7 05 [00001E10] 00000000       	MOV	DWORD [_cmdhis+16],0
   435 0000046F 80 BD FFFFFF04 00               	CMP	BYTE [-252+EBP],0
   436 00000476 0F 84 00000113                  	JE	L46
   437 0000047C 8B 15 [00001E08]                	MOV	EDX,DWORD [_cmdhis+8]
   438 00000482 8B 0D [00001E04]                	MOV	ECX,DWORD [_cmdhis+4]
   439 00000488 A1 [00001E14]                   	MOV	EAX,DWORD [_cmdhis+20]
   440 0000048D 89 95 FFFFFEF8                  	MOV	DWORD [-264+EBP],EDX
   441 00000493 8D 1C 32                        	LEA	EBX,DWORD [EDX+ESI*1]
   442 00000496 89 8D FFFFFEEC                  	MOV	DWORD [-276+EBP],ECX
   443 0000049C 8B 14 88                        	MOV	EDX,DWORD [EAX+ECX*4]
   444 0000049F 89 85 FFFFFEF4                  	MOV	DWORD [-268+EBP],EAX
   445 000004A5 39 D3                           	CMP	EBX,EDX
   446 000004A7 77 77                           	JA	L48
   447 000004A9 8B 0D [00001E00]                	MOV	ECX,DWORD [_cmdhis]
   448 000004AF 8B 85 FFFFFEEC                  	MOV	EAX,DWORD [-276+EBP]
   449 000004B5 89 8D FFFFFEF0                  	MOV	DWORD [-272+EBP],ECX
   450 000004BB 39 C1                           	CMP	ECX,EAX
   451 000004BD 74 61                           	JE	L48
   452 000004BF FC                              	CLD
   453 000004C0 83 C9 FF                        	OR	ECX,-1
   454 000004C3 31 C0                           	XOR	EAX,EAX
   455 000004C5 8D BD FFFFFF04                  	LEA	EDI,DWORD [-252+EBP]
   456 000004CB F2                              	REPNE
   457 000004CC AE                              	SCASB
   458 000004CD F7 D1                           	NOT	ECX
   459 000004CF 8D 0C 19                        	LEA	ECX,DWORD [ECX+EBX*1]
   460 000004D2 39 D1                           	CMP	ECX,EDX
   461 000004D4 76 4A                           	JBE	L48
   462 000004D6                                 L54:
   463 000004D6 8B 9D FFFFFEEC                  	MOV	EBX,DWORD [-276+EBP]
   464 000004DC 43                              	INC	EBX
   465 000004DD 83 FB 20                        	CMP	EBX,32
   466 000004E0 0F 84 0000011B                  	JE	L111
   467 000004E6                                 L52:
   468 000004E6 3B 9D FFFFFEF0                  	CMP	EBX,DWORD [-272+EBP]
   469 000004EC 74 2C                           	JE	L88
   470 000004EE 8B 8D FFFFFEF8                  	MOV	ECX,DWORD [-264+EBP]
   471 000004F4 31 C0                           	XOR	EAX,EAX
   472 000004F6 FC                              	CLD
   473 000004F7 8D 14 31                        	LEA	EDX,DWORD [ECX+ESI*1]
   474 000004FA 8D BD FFFFFF04                  	LEA	EDI,DWORD [-252+EBP]
   475 00000500 83 C9 FF                        	OR	ECX,-1
   476 00000503 F2                              	REPNE
   477 00000504 AE                              	SCASB
   478 00000505 8B 85 FFFFFEF4                  	MOV	EAX,DWORD [-268+EBP]
   479 0000050B 89 9D FFFFFEEC                  	MOV	DWORD [-276+EBP],EBX
   480 00000511 F7 D1                           	NOT	ECX
   481 00000513 01 CA                           	ADD	EDX,ECX
   482 00000515 3B 14 98                        	CMP	EDX,DWORD [EAX+EBX*4]
   483 00000518 77 BC                           	JA	L54
   484 0000051A                                 L88:
   485 0000051A 89 1D [00001E04]                	MOV	DWORD [_cmdhis+4],EBX
   486 00000520                                 L48:
   487 00000520 A1 [00001E08]                   	MOV	EAX,DWORD [_cmdhis+8]
   488 00000525 8D BD FFFFFF04                  	LEA	EDI,DWORD [-252+EBP]
   489 0000052B 03 05 [00001E18]                	ADD	EAX,DWORD [_cmdhis+24]
   490 00000531 57                              	PUSH	EDI
   491 00000532 50                              	PUSH	EAX
   492 00000533 E8 [00000000]                   	CALL	_strcpy
   493 00000538 83 C9 FF                        	OR	ECX,-1
   494 0000053B 8B 1D [00001E00]                	MOV	EBX,DWORD [_cmdhis]
   495 00000541 8B 15 [00001E08]                	MOV	EDX,DWORD [_cmdhis+8]
   496 00000547 A1 [00001E18]                   	MOV	EAX,DWORD [_cmdhis+24]
   497 0000054C 8B 35 [00001E14]                	MOV	ESI,DWORD [_cmdhis+20]
   498 00000552 01 D0                           	ADD	EAX,EDX
   499 00000554 FC                              	CLD
   500 00000555 89 04 9E                        	MOV	DWORD [ESI+EBX*4],EAX
   501 00000558 31 C0                           	XOR	EAX,EAX
   502 0000055A F2                              	REPNE
   503 0000055B AE                              	SCASB
   504 0000055C F7 D1                           	NOT	ECX
   505 0000055E 01 CA                           	ADD	EDX,ECX
   506 00000560 89 1D [00001E10]                	MOV	DWORD [_cmdhis+16],EBX
   507 00000566 59                              	POP	ECX
   508 00000567 43                              	INC	EBX
   509 00000568 89 15 [00001E08]                	MOV	DWORD [_cmdhis+8],EDX
   510 0000056E 89 1D [00001E00]                	MOV	DWORD [_cmdhis],EBX
   511 00000574 5F                              	POP	EDI
   512 00000575 83 FB 20                        	CMP	EBX,32
   513 00000578 74 78                           	JE	L112
   514 0000057A                                 L55:
   515 0000057A 8B 15 [00001E00]                	MOV	EDX,DWORD [_cmdhis]
   516 00000580 39 15 [00001E04]                	CMP	DWORD [_cmdhis+4],EDX
   517 00000586 74 51                           	JE	L113
   518 00000588                                 L56:
   519 00000588 C7 04 96 00000000               	MOV	DWORD [ESI+EDX*4],0
   520 0000058F                                 L46:
   521 0000058F FF 75 0C                        	PUSH	DWORD [12+EBP]
   522 00000592 FF B5 FFFFFEFC                  	PUSH	DWORD [-260+EBP]
   523 00000598 8D 5D D4                        	LEA	EBX,DWORD [-44+EBP]
   524 0000059B 8D 85 FFFFFF04                  	LEA	EAX,DWORD [-252+EBP]
   525 000005A1 53                              	PUSH	EBX
   526 000005A2 50                              	PUSH	EAX
   527 000005A3 E8 000005C8                     	CALL	_cons_runcmd
   528 000005A8 83 C4 10                        	ADD	ESP,16
   529 000005AB 83 7D D4 00                     	CMP	DWORD [-44+EBP],0
   530 000005AF 75 0E                           	JNE	L58
   531 000005B1 FF B5 FFFFFEFC                  	PUSH	DWORD [-260+EBP]
   532 000005B7 53                              	PUSH	EBX
   533 000005B8 E8 0000230B                     	CALL	_cmd_exit
   534 000005BD 58                              	POP	EAX
   535 000005BE 5A                              	POP	EDX
   536 000005BF                                 L58:
   537 000005BF 53                              	PUSH	EBX
   538 000005C0 E8 000004C4                     	CALL	_cons_putdir
   539 000005C5 6A 01                           	PUSH	1
   540 000005C7 6A 3E                           	PUSH	62
   541 000005C9 89 C6                           	MOV	ESI,EAX
   542 000005CB 53                              	PUSH	EBX
   543 000005CC E8 00000249                     	CALL	_cons_putchar
   544 000005D1 83 C4 10                        	ADD	ESP,16
   545 000005D4 E9 FFFFFC69                     	JMP	L41
   546 000005D9                                 L113:
   547 000005D9 8D 42 01                        	LEA	EAX,DWORD [1+EDX]
   548 000005DC A3 [00001E04]                   	MOV	DWORD [_cmdhis+4],EAX
   549 000005E1 83 F8 20                        	CMP	EAX,32
   550 000005E4 75 A2                           	JNE	L56
   551 000005E6 C7 05 [00001E04] 00000000       	MOV	DWORD [_cmdhis+4],0
   552 000005F0 EB 96                           	JMP	L56
   553 000005F2                                 L112:
   554 000005F2 C7 05 [00001E00] 00000000       	MOV	DWORD [_cmdhis],0
   555 000005FC E9 FFFFFF79                     	JMP	L55
   556 00000601                                 L111:
   557 00000601 31 DB                           	XOR	EBX,EBX
   558 00000603 E9 FFFFFEDE                     	JMP	L52
   559 00000608                                 L105:
   560 00000608 8D 04 F5 00000010               	LEA	EAX,DWORD [16+ESI*8]
   561 0000060F 39 45 D8                        	CMP	DWORD [-40+EBP],EAX
   562 00000612 0F 8E FFFFFC2A                  	JLE	L41
   563 00000618 6A 00                           	PUSH	0
   564 0000061A 8D 45 D4                        	LEA	EAX,DWORD [-44+EBP]
   565 0000061D 6A 20                           	PUSH	32
   566 0000061F 50                              	PUSH	EAX
   567 00000620 E8 000001F5                     	CALL	_cons_putchar
   568 00000625 83 6D D8 08                     	SUB	DWORD [-40+EBP],8
   569 00000629 E9 FFFFFC11                     	JMP	L91
   570 0000062E                                 L104:
   571 0000062E 68 [00000010]                   	PUSH	LC5
   572 00000633 8D 45 D4                        	LEA	EAX,DWORD [-44+EBP]
   573 00000636 FF B5 FFFFFEFC                  	PUSH	DWORD [-260+EBP]
   574 0000063C 50                              	PUSH	EAX
   575 0000063D E8 000024C3                     	CALL	_cmd_app
   576 00000642 83 C4 0C                        	ADD	ESP,12
   577 00000645 E9 FFFFFB82                     	JMP	L40
   578 0000064A                                 L103:
   579 0000064A 8D 45 D4                        	LEA	EAX,DWORD [-44+EBP]
   580 0000064D 50                              	PUSH	EAX
   581 0000064E FF B5 FFFFFEFC                  	PUSH	DWORD [-260+EBP]
   582 00000654 68 [00000015]                   	PUSH	LC4
   583 00000659 E8 [00000000]                   	CALL	_newBackGround
   584 0000065E 83 C4 0C                        	ADD	ESP,12
   585 00000661 E9 FFFFFB5D                     	JMP	L39
   586 00000666                                 L102:
   587 00000666 8D 45 D4                        	LEA	EAX,DWORD [-44+EBP]
   588 00000669 50                              	PUSH	EAX
   589 0000066A FF B5 FFFFFEFC                  	PUSH	DWORD [-260+EBP]
   590 00000670 68 [00000021]                   	PUSH	LC3
   591 00000675 E8 [00000000]                   	CALL	_newBackGround
   592 0000067A 83 C4 0C                        	ADD	ESP,12
   593 0000067D E9 FFFFFB38                     	JMP	L38
   594 00000682                                 L101:
   595 00000682 68 [0000002D]                   	PUSH	LC2
   596 00000687 8D 45 D4                        	LEA	EAX,DWORD [-44+EBP]
   597 0000068A FF B5 FFFFFEFC                  	PUSH	DWORD [-260+EBP]
   598 00000690 50                              	PUSH	EAX
   599 00000691 E8 0000246F                     	CALL	_cmd_app
   600 00000696 83 C4 0C                        	ADD	ESP,12
   601 00000699 E9 FFFFFB13                     	JMP	L37
   602 0000069E                                 L100:
   603 0000069E 68 [00000032]                   	PUSH	LC1
   604 000006A3 8D 45 D4                        	LEA	EAX,DWORD [-44+EBP]
   605 000006A6 FF B5 FFFFFEFC                  	PUSH	DWORD [-260+EBP]
   606 000006AC 50                              	PUSH	EAX
   607 000006AD E8 00002453                     	CALL	_cmd_app
   608 000006B2 83 C4 0C                        	ADD	ESP,12
   609 000006B5 E9 FFFFFAEE                     	JMP	L36
   610 000006BA                                 L99:
   611 000006BA FF 75 0C                        	PUSH	DWORD [12+EBP]
   612 000006BD FF B5 FFFFFEFC                  	PUSH	DWORD [-260+EBP]
   613 000006C3 8D 45 D4                        	LEA	EAX,DWORD [-44+EBP]
   614 000006C6 50                              	PUSH	EAX
   615 000006C7 8D 85 FFFFFF04                  	LEA	EAX,DWORD [-252+EBP]
   616 000006CD 50                              	PUSH	EAX
   617 000006CE C6 85 FFFFFF04 47               	MOV	BYTE [-252+EBP],71
   618 000006D5 C6 85 FFFFFF05 56               	MOV	BYTE [-251+EBP],86
   619 000006DC C6 85 FFFFFF06 49               	MOV	BYTE [-250+EBP],73
   620 000006E3 C6 85 FFFFFF07 45               	MOV	BYTE [-249+EBP],69
   621 000006EA C6 85 FFFFFF08 57               	MOV	BYTE [-248+EBP],87
   622 000006F1 C6 85 FFFFFF09 20               	MOV	BYTE [-247+EBP],32
   623 000006F8 C6 85 FFFFFF0A 35               	MOV	BYTE [-246+EBP],53
   624 000006FF C6 85 FFFFFF0B 2E               	MOV	BYTE [-245+EBP],46
   625 00000706 C6 85 FFFFFF0C 4A               	MOV	BYTE [-244+EBP],74
   626 0000070D C6 85 FFFFFF0D 50               	MOV	BYTE [-243+EBP],80
   627 00000714 C6 85 FFFFFF0E 47               	MOV	BYTE [-242+EBP],71
   628 0000071B C6 85 FFFFFF0F 00               	MOV	BYTE [-241+EBP],0
   629 00000722 E8 00000449                     	CALL	_cons_runcmd
   630 00000727 83 C4 10                        	ADD	ESP,16
   631 0000072A E9 FFFFFA70                     	JMP	L35
   632 0000072F                                 L98:
   633 0000072F 68 [0000003A]                   	PUSH	LC0
   634 00000734 8D 45 D4                        	LEA	EAX,DWORD [-44+EBP]
   635 00000737 FF B5 FFFFFEFC                  	PUSH	DWORD [-260+EBP]
   636 0000073D 50                              	PUSH	EAX
   637 0000073E E8 000023C2                     	CALL	_cmd_app
   638 00000743 83 C4 0C                        	ADD	ESP,12
   639 00000746 E9 FFFFFA4B                     	JMP	L29
   640 0000074B                                 L97:
   641 0000074B FF B5 FFFFFEFC                  	PUSH	DWORD [-260+EBP]
   642 00000751 8D 45 D4                        	LEA	EAX,DWORD [-44+EBP]
   643 00000754 50                              	PUSH	EAX
   644 00000755 E8 0000216E                     	CALL	_cmd_exit
   645 0000075A 58                              	POP	EAX
   646 0000075B 5A                              	POP	EDX
   647 0000075C E9 FFFFFA2C                     	JMP	L27
   648 00000761                                 L96:
   649 00000761 8B 5D D4                        	MOV	EBX,DWORD [-44+EBP]
   650 00000764 85 DB                           	TEST	EBX,EBX
   651 00000766 74 1F                           	JE	L26
   652 00000768 8B 4D DC                        	MOV	ECX,DWORD [-36+EBP]
   653 0000076B 8B 55 D8                        	MOV	EDX,DWORD [-40+EBP]
   654 0000076E 8D 41 0F                        	LEA	EAX,DWORD [15+ECX]
   655 00000771 50                              	PUSH	EAX
   656 00000772 8D 42 07                        	LEA	EAX,DWORD [7+EDX]
   657 00000775 50                              	PUSH	EAX
   658 00000776 51                              	PUSH	ECX
   659 00000777 52                              	PUSH	EDX
   660 00000778 6A 00                           	PUSH	0
   661 0000077A FF 73 04                        	PUSH	DWORD [4+EBX]
   662 0000077D FF 33                           	PUSH	DWORD [EBX]
   663 0000077F E8 [00000000]                   	CALL	_boxfill8
   664 00000784 83 C4 1C                        	ADD	ESP,28
   665 00000787                                 L26:
   666 00000787 C7 45 E0 FFFFFFFF               	MOV	DWORD [-32+EBP],-1
   667 0000078E E9 FFFFF9F1                     	JMP	L25
   668 00000793                                 L95:
   669 00000793 C7 45 E0 00000007               	MOV	DWORD [-32+EBP],7
   670 0000079A E9 FFFFF9DC                     	JMP	L24
   671 0000079F                                 L94:
   672 0000079F 83 7D D4 00                     	CMP	DWORD [-44+EBP],0
   673 000007A3 0F 84 FFFFF9C9                  	JE	L19
   674 000007A9 85 FF                           	TEST	EDI,EDI
   675 000007AB 74 2C                           	JE	L20
   676 000007AD 6A 00                           	PUSH	0
   677 000007AF 53                              	PUSH	EBX
   678 000007B0 FF 75 E4                        	PUSH	DWORD [-28+EBP]
   679 000007B3 E8 [00000000]                   	CALL	_timer_init
   680 000007B8 83 C4 0C                        	ADD	ESP,12
   681 000007BB 83 7D E0 00                     	CMP	DWORD [-32+EBP],0
   682 000007BF 78 07                           	JS	L22
   683 000007C1 C7 45 E0 00000007               	MOV	DWORD [-32+EBP],7
   684 000007C8                                 L22:
   685 000007C8 6A 32                           	PUSH	50
   686 000007CA FF 75 E4                        	PUSH	DWORD [-28+EBP]
   687 000007CD E8 [00000000]                   	CALL	_timer_settime
   688 000007D2 59                              	POP	ECX
   689 000007D3 5B                              	POP	EBX
   690 000007D4 E9 FFFFF999                     	JMP	L19
   691 000007D9                                 L20:
   692 000007D9 6A 01                           	PUSH	1
   693 000007DB 53                              	PUSH	EBX
   694 000007DC FF 75 E4                        	PUSH	DWORD [-28+EBP]
   695 000007DF E8 [00000000]                   	CALL	_timer_init
   696 000007E4 83 C4 0C                        	ADD	ESP,12
   697 000007E7 83 7D E0 00                     	CMP	DWORD [-32+EBP],0
   698 000007EB 78 DB                           	JS	L22
   699 000007ED C7 45 E0 00000000               	MOV	DWORD [-32+EBP],0
   700 000007F4 EB D2                           	JMP	L22
   701 000007F6                                 L93:
   702 000007F6 FF B5 FFFFFF00                  	PUSH	DWORD [-256+EBP]
   703 000007FC E8 [00000000]                   	CALL	_task_sleep
   704 00000801 E8 [00000000]                   	CALL	_io_sti
   705 00000806 58                              	POP	EAX
   706 00000807 E9 FFFFF932                     	JMP	L14
   707 0000080C                                 L92:
   708 0000080C 8D 45 D4                        	LEA	EAX,DWORD [-44+EBP]
   709 0000080F 50                              	PUSH	EAX
   710 00000810 E8 00001D55                     	CALL	_cmd_mkfs
   711 00000815 E9 FFFFF90B                     	JMP	L89
   712                                          [SECTION .data]
   713 00000041                                 LC6:
   714 00000041 20 00                           	DB	" ",0x00
   715                                          [SECTION .text]
   716 0000081A                                 	GLOBAL	_cons_putchar
   717 0000081A                                 _cons_putchar:
   718 0000081A 55                              	PUSH	EBP
   719 0000081B 89 E5                           	MOV	EBP,ESP
   720 0000081D 53                              	PUSH	EBX
   721 0000081E 50                              	PUSH	EAX
   722 0000081F 8B 45 0C                        	MOV	EAX,DWORD [12+EBP]
   723 00000822 8A 55 10                        	MOV	DL,BYTE [16+EBP]
   724 00000825 8B 5D 08                        	MOV	EBX,DWORD [8+EBP]
   725 00000828 88 55 F9                        	MOV	BYTE [-7+EBP],DL
   726 0000082B 88 45 FA                        	MOV	BYTE [-6+EBP],AL
   727 0000082E 3C 09                           	CMP	AL,9
   728 00000830 C6 45 FB 00                     	MOV	BYTE [-5+EBP],0
   729 00000834 74 52                           	JE	L116
   730 00000836 3C 0A                           	CMP	AL,10
   731 00000838 74 2A                           	JE	L130
   732 0000083A 3C 0D                           	CMP	AL,13
   733 0000083C 74 21                           	JE	L114
   734 0000083E 8B 13                           	MOV	EDX,DWORD [EBX]
   735 00000840 85 D2                           	TEST	EDX,EDX
   736 00000842 75 29                           	JNE	L131
   737 00000844                                 L127:
   738 00000844 80 7D F9 00                     	CMP	BYTE [-7+EBP],0
   739 00000848 74 15                           	JE	L114
   740 0000084A 8B 43 04                        	MOV	EAX,DWORD [4+EBX]
   741 0000084D 8B 13                           	MOV	EDX,DWORD [EBX]
   742 0000084F 83 C0 08                        	ADD	EAX,8
   743 00000852 89 43 04                        	MOV	DWORD [4+EBX],EAX
   744 00000855 8B 52 04                        	MOV	EDX,DWORD [4+EDX]
   745 00000858 83 EA 08                        	SUB	EDX,8
   746 0000085B 39 D0                           	CMP	EAX,EDX
   747 0000085D 74 05                           	JE	L130
   748 0000085F                                 L114:
   749 0000085F 8B 5D FC                        	MOV	EBX,DWORD [-4+EBP]
   750 00000862 C9                              	LEAVE
   751 00000863 C3                              	RET
   752 00000864                                 L130:
   753 00000864 53                              	PUSH	EBX
   754 00000865 E8 0000006B                     	CALL	_cons_newline
   755 0000086A 59                              	POP	ECX
   756 0000086B EB F2                           	JMP	L114
   757 0000086D                                 L131:
   758 0000086D 6A 01                           	PUSH	1
   759 0000086F 8D 45 FA                        	LEA	EAX,DWORD [-6+EBP]
   760 00000872 50                              	PUSH	EAX
   761 00000873 6A 00                           	PUSH	0
   762 00000875 6A 07                           	PUSH	7
   763 00000877 FF 73 08                        	PUSH	DWORD [8+EBX]
   764 0000087A FF 73 04                        	PUSH	DWORD [4+EBX]
   765 0000087D 52                              	PUSH	EDX
   766 0000087E E8 [00000000]                   	CALL	_putfonts8_asc_sht
   767 00000883 83 C4 1C                        	ADD	ESP,28
   768 00000886 EB BC                           	JMP	L127
   769 00000888                                 L116:
   770 00000888 8B 03                           	MOV	EAX,DWORD [EBX]
   771 0000088A 85 C0                           	TEST	EAX,EAX
   772 0000088C 75 2B                           	JNE	L132
   773 0000088E                                 L119:
   774 0000088E 8B 43 04                        	MOV	EAX,DWORD [4+EBX]
   775 00000891 8B 13                           	MOV	EDX,DWORD [EBX]
   776 00000893 83 C0 08                        	ADD	EAX,8
   777 00000896 89 43 04                        	MOV	DWORD [4+EBX],EAX
   778 00000899 8B 52 04                        	MOV	EDX,DWORD [4+EDX]
   779 0000089C 83 EA 08                        	SUB	EDX,8
   780 0000089F 39 D0                           	CMP	EAX,EDX
   781 000008A1 74 0D                           	JE	L133
   782 000008A3                                 L120:
   783 000008A3 8B 43 04                        	MOV	EAX,DWORD [4+EBX]
   784 000008A6 83 E8 08                        	SUB	EAX,8
   785 000008A9 83 E0 1F                        	AND	EAX,31
   786 000008AC 75 DA                           	JNE	L116
   787 000008AE EB AF                           	JMP	L114
   788 000008B0                                 L133:
   789 000008B0 53                              	PUSH	EBX
   790 000008B1 E8 0000001F                     	CALL	_cons_newline
   791 000008B6 58                              	POP	EAX
   792 000008B7 EB EA                           	JMP	L120
   793 000008B9                                 L132:
   794 000008B9 6A 01                           	PUSH	1
   795 000008BB 68 [00000041]                   	PUSH	LC6
   796 000008C0 6A 00                           	PUSH	0
   797 000008C2 6A 07                           	PUSH	7
   798 000008C4 FF 73 08                        	PUSH	DWORD [8+EBX]
   799 000008C7 FF 73 04                        	PUSH	DWORD [4+EBX]
   800 000008CA 50                              	PUSH	EAX
   801 000008CB E8 [00000000]                   	CALL	_putfonts8_asc_sht
   802 000008D0 83 C4 1C                        	ADD	ESP,28
   803 000008D3 EB B9                           	JMP	L119
   804 000008D5                                 	GLOBAL	_cons_newline
   805 000008D5                                 _cons_newline:
   806 000008D5 55                              	PUSH	EBP
   807 000008D6 89 E5                           	MOV	EBP,ESP
   808 000008D8 57                              	PUSH	EDI
   809 000008D9 56                              	PUSH	ESI
   810 000008DA 53                              	PUSH	EBX
   811 000008DB 83 EC 14                        	SUB	ESP,20
   812 000008DE 8B 45 08                        	MOV	EAX,DWORD [8+EBP]
   813 000008E1 8B 00                           	MOV	EAX,DWORD [EAX]
   814 000008E3 89 45 E8                        	MOV	DWORD [-24+EBP],EAX
   815 000008E6 8B 58 08                        	MOV	EBX,DWORD [8+EAX]
   816 000008E9 8B 50 04                        	MOV	EDX,DWORD [4+EAX]
   817 000008EC 83 EA 10                        	SUB	EDX,16
   818 000008EF 8D 4B DB                        	LEA	ECX,DWORD [-37+EBX]
   819 000008F2 89 55 F0                        	MOV	DWORD [-16+EBP],EDX
   820 000008F5 89 4D EC                        	MOV	DWORD [-20+EBP],ECX
   821 000008F8 E8 [00000000]                   	CALL	_task_now
   822 000008FD 8D 53 E7                        	LEA	EDX,DWORD [-25+EBX]
   823 00000900 8B 5D 08                        	MOV	EBX,DWORD [8+EBP]
   824 00000903 89 45 E4                        	MOV	DWORD [-28+EBP],EAX
   825 00000906 8B 43 08                        	MOV	EAX,DWORD [8+EBX]
   826 00000909 39 D0                           	CMP	EAX,EDX
   827 0000090B 7D 36                           	JGE	L135
   828 0000090D 83 C0 10                        	ADD	EAX,16
   829 00000910 89 43 08                        	MOV	DWORD [8+EBX],EAX
   830 00000913                                 L136:
   831 00000913 8B 45 08                        	MOV	EAX,DWORD [8+EBP]
   832 00000916 8B 55 E4                        	MOV	EDX,DWORD [-28+EBP]
   833 00000919 C7 40 04 00000008               	MOV	DWORD [4+EAX],8
   834 00000920 80 BA 000000C0 01               	CMP	BYTE [192+EDX],1
   835 00000927 74 08                           	JE	L167
   836 00000929                                 L134:
   837 00000929 8D 65 F4                        	LEA	ESP,DWORD [-12+EBP]
   838 0000092C 5B                              	POP	EBX
   839 0000092D 5E                              	POP	ESI
   840 0000092E 5F                              	POP	EDI
   841 0000092F 5D                              	POP	EBP
   842 00000930 C3                              	RET
   843 00000931                                 L167:
   844 00000931 80 BA 000000C1 00               	CMP	BYTE [193+EDX],0
   845 00000938 74 EF                           	JE	L134
   846 0000093A C7 40 04 00000010               	MOV	DWORD [4+EAX],16
   847 00000941 EB E6                           	JMP	L134
   848 00000943                                 L135:
   849 00000943 83 7D E8 00                     	CMP	DWORD [-24+EBP],0
   850 00000947 74 CA                           	JE	L136
   851 00000949 BF 0000001C                     	MOV	EDI,28
   852 0000094E 39 D7                           	CMP	EDI,EDX
   853 00000950 7D 45                           	JGE	L160
   854 00000952                                 L147:
   855 00000952 8B 45 F0                        	MOV	EAX,DWORD [-16+EBP]
   856 00000955 BE 00000008                     	MOV	ESI,8
   857 0000095A 83 C0 08                        	ADD	EAX,8
   858 0000095D 89 45 E0                        	MOV	DWORD [-32+EBP],EAX
   859 00000960 39 C6                           	CMP	ESI,EAX
   860 00000962 7D 28                           	JGE	L162
   861 00000964                                 L146:
   862 00000964 8B 55 E8                        	MOV	EDX,DWORD [-24+EBP]
   863 00000967 8B 45 E8                        	MOV	EAX,DWORD [-24+EBP]
   864 0000096A 8B 4A 04                        	MOV	ECX,DWORD [4+EDX]
   865 0000096D 8B 18                           	MOV	EBX,DWORD [EAX]
   866 0000096F 8D 47 10                        	LEA	EAX,DWORD [16+EDI]
   867 00000972 89 FA                           	MOV	EDX,EDI
   868 00000974 0F AF C1                        	IMUL	EAX,ECX
   869 00000977 0F AF D1                        	IMUL	EDX,ECX
   870 0000097A 8D 04 30                        	LEA	EAX,DWORD [EAX+ESI*1]
   871 0000097D 8D 14 32                        	LEA	EDX,DWORD [EDX+ESI*1]
   872 00000980 46                              	INC	ESI
   873 00000981 8A 04 18                        	MOV	AL,BYTE [EAX+EBX*1]
   874 00000984 88 04 1A                        	MOV	BYTE [EDX+EBX*1],AL
   875 00000987 3B 75 E0                        	CMP	ESI,DWORD [-32+EBP]
   876 0000098A 7C D8                           	JL	L146
   877 0000098C                                 L162:
   878 0000098C 8B 45 EC                        	MOV	EAX,DWORD [-20+EBP]
   879 0000098F 47                              	INC	EDI
   880 00000990 83 C0 0C                        	ADD	EAX,12
   881 00000993 39 C7                           	CMP	EDI,EAX
   882 00000995 7C BB                           	JL	L147
   883 00000997                                 L160:
   884 00000997 8B 7D EC                        	MOV	EDI,DWORD [-20+EBP]
   885 0000099A 8B 45 EC                        	MOV	EAX,DWORD [-20+EBP]
   886 0000099D 83 C7 0C                        	ADD	EDI,12
   887 000009A0 83 C0 1C                        	ADD	EAX,28
   888 000009A3 39 C7                           	CMP	EDI,EAX
   889 000009A5 7D 31                           	JGE	L164
   890 000009A7                                 L157:
   891 000009A7 8B 4D F0                        	MOV	ECX,DWORD [-16+EBP]
   892 000009AA BE 00000008                     	MOV	ESI,8
   893 000009AF 83 C1 08                        	ADD	ECX,8
   894 000009B2 39 CE                           	CMP	ESI,ECX
   895 000009B4 7D 17                           	JGE	L166
   896 000009B6                                 L156:
   897 000009B6 8B 55 E8                        	MOV	EDX,DWORD [-24+EBP]
   898 000009B9 89 F8                           	MOV	EAX,EDI
   899 000009BB 0F AF 42 04                     	IMUL	EAX,DWORD [4+EDX]
   900 000009BF 8B 12                           	MOV	EDX,DWORD [EDX]
   901 000009C1 8D 04 30                        	LEA	EAX,DWORD [EAX+ESI*1]
   902 000009C4 46                              	INC	ESI
   903 000009C5 39 CE                           	CMP	ESI,ECX
   904 000009C7 C6 04 10 00                     	MOV	BYTE [EAX+EDX*1],0
   905 000009CB 7C E9                           	JL	L156
   906 000009CD                                 L166:
   907 000009CD 8B 45 EC                        	MOV	EAX,DWORD [-20+EBP]
   908 000009D0 47                              	INC	EDI
   909 000009D1 83 C0 1C                        	ADD	EAX,28
   910 000009D4 39 C7                           	CMP	EDI,EAX
   911 000009D6 7C CF                           	JL	L157
   912 000009D8                                 L164:
   913 000009D8 8B 45 EC                        	MOV	EAX,DWORD [-20+EBP]
   914 000009DB 83 C0 1C                        	ADD	EAX,28
   915 000009DE 50                              	PUSH	EAX
   916 000009DF 8B 45 F0                        	MOV	EAX,DWORD [-16+EBP]
   917 000009E2 83 C0 08                        	ADD	EAX,8
   918 000009E5 50                              	PUSH	EAX
   919 000009E6 6A 1C                           	PUSH	28
   920 000009E8 6A 08                           	PUSH	8
   921 000009EA FF 75 E8                        	PUSH	DWORD [-24+EBP]
   922 000009ED E8 [00000000]                   	CALL	_sheet_refresh
   923 000009F2 83 C4 14                        	ADD	ESP,20
   924 000009F5 E9 FFFFFF19                     	JMP	L136
   925 000009FA                                 	GLOBAL	_cons_putstr
   926 000009FA                                 _cons_putstr:
   927 000009FA 55                              	PUSH	EBP
   928 000009FB 89 E5                           	MOV	EBP,ESP
   929 000009FD 56                              	PUSH	ESI
   930 000009FE 53                              	PUSH	EBX
   931 000009FF 8B 5D 0C                        	MOV	EBX,DWORD [12+EBP]
   932 00000A02 8B 75 08                        	MOV	ESI,DWORD [8+EBP]
   933 00000A05 80 3B 00                        	CMP	BYTE [EBX],0
   934 00000A08 75 07                           	JNE	L173
   935 00000A0A                                 L175:
   936 00000A0A 8D 65 F8                        	LEA	ESP,DWORD [-8+EBP]
   937 00000A0D 5B                              	POP	EBX
   938 00000A0E 5E                              	POP	ESI
   939 00000A0F 5D                              	POP	EBP
   940 00000A10 C3                              	RET
   941 00000A11                                 L173:
   942 00000A11 6A 01                           	PUSH	1
   943 00000A13 0F BE 03                        	MOVSX	EAX,BYTE [EBX]
   944 00000A16 50                              	PUSH	EAX
   945 00000A17 43                              	INC	EBX
   946 00000A18 56                              	PUSH	ESI
   947 00000A19 E8 FFFFFDFC                     	CALL	_cons_putchar
   948 00000A1E 83 C4 0C                        	ADD	ESP,12
   949 00000A21 80 3B 00                        	CMP	BYTE [EBX],0
   950 00000A24 75 EB                           	JNE	L173
   951 00000A26 EB E2                           	JMP	L175
   952 00000A28                                 	GLOBAL	_cons_putstr0
   953 00000A28                                 _cons_putstr0:
   954 00000A28 55                              	PUSH	EBP
   955 00000A29 89 E5                           	MOV	EBP,ESP
   956 00000A2B 56                              	PUSH	ESI
   957 00000A2C 53                              	PUSH	EBX
   958 00000A2D 8B 5D 0C                        	MOV	EBX,DWORD [12+EBP]
   959 00000A30 8B 75 08                        	MOV	ESI,DWORD [8+EBP]
   960 00000A33 80 3B 00                        	CMP	BYTE [EBX],0
   961 00000A36 75 07                           	JNE	L181
   962 00000A38                                 L183:
   963 00000A38 8D 65 F8                        	LEA	ESP,DWORD [-8+EBP]
   964 00000A3B 5B                              	POP	EBX
   965 00000A3C 5E                              	POP	ESI
   966 00000A3D 5D                              	POP	EBP
   967 00000A3E C3                              	RET
   968 00000A3F                                 L181:
   969 00000A3F 6A 01                           	PUSH	1
   970 00000A41 0F BE 03                        	MOVSX	EAX,BYTE [EBX]
   971 00000A44 50                              	PUSH	EAX
   972 00000A45 43                              	INC	EBX
   973 00000A46 56                              	PUSH	ESI
   974 00000A47 E8 FFFFFDCE                     	CALL	_cons_putchar
   975 00000A4C 83 C4 0C                        	ADD	ESP,12
   976 00000A4F 80 3B 00                        	CMP	BYTE [EBX],0
   977 00000A52 75 EB                           	JNE	L181
   978 00000A54 EB E2                           	JMP	L183
   979 00000A56                                 	GLOBAL	_cons_putstr1
   980 00000A56                                 _cons_putstr1:
   981 00000A56 55                              	PUSH	EBP
   982 00000A57 89 E5                           	MOV	EBP,ESP
   983 00000A59 57                              	PUSH	EDI
   984 00000A5A 56                              	PUSH	ESI
   985 00000A5B 53                              	PUSH	EBX
   986 00000A5C 8B 75 10                        	MOV	ESI,DWORD [16+EBP]
   987 00000A5F 31 DB                           	XOR	EBX,EBX
   988 00000A61 8B 7D 0C                        	MOV	EDI,DWORD [12+EBP]
   989 00000A64 39 F3                           	CMP	EBX,ESI
   990 00000A66 7C 08                           	JL	L189
   991 00000A68                                 L191:
   992 00000A68 8D 65 F4                        	LEA	ESP,DWORD [-12+EBP]
   993 00000A6B 5B                              	POP	EBX
   994 00000A6C 5E                              	POP	ESI
   995 00000A6D 5F                              	POP	EDI
   996 00000A6E 5D                              	POP	EBP
   997 00000A6F C3                              	RET
   998 00000A70                                 L189:
   999 00000A70 6A 01                           	PUSH	1
  1000 00000A72 0F BE 04 3B                     	MOVSX	EAX,BYTE [EBX+EDI*1]
  1001 00000A76 50                              	PUSH	EAX
  1002 00000A77 43                              	INC	EBX
  1003 00000A78 FF 75 08                        	PUSH	DWORD [8+EBP]
  1004 00000A7B E8 FFFFFD9A                     	CALL	_cons_putchar
  1005 00000A80 83 C4 0C                        	ADD	ESP,12
  1006 00000A83 39 F3                           	CMP	EBX,ESI
  1007 00000A85 7C E9                           	JL	L189
  1008 00000A87 EB DF                           	JMP	L191
  1009 00000A89                                 	GLOBAL	_cons_putdir
  1010 00000A89                                 _cons_putdir:
  1011 00000A89 55                              	PUSH	EBP
  1012 00000A8A 89 E5                           	MOV	EBP,ESP
  1013 00000A8C 56                              	PUSH	ESI
  1014 00000A8D 53                              	PUSH	EBX
  1015 00000A8E 31 DB                           	XOR	EBX,EBX
  1016 00000A90 83 EC 40                        	SUB	ESP,64
  1017 00000A93 8D 45 B8                        	LEA	EAX,DWORD [-72+EBP]
  1018 00000A96 8B 75 08                        	MOV	ESI,DWORD [8+EBP]
  1019 00000A99 FF 76 14                        	PUSH	DWORD [20+ESI]
  1020 00000A9C 50                              	PUSH	EAX
  1021 00000A9D E8 00000026                     	CALL	_get_pathname
  1022 00000AA2 5A                              	POP	EDX
  1023 00000AA3 31 C0                           	XOR	EAX,EAX
  1024 00000AA5 59                              	POP	ECX
  1025 00000AA6 80 7D B8 00                     	CMP	BYTE [-72+EBP],0
  1026 00000AAA 74 09                           	JE	L199
  1027 00000AAC                                 L197:
  1028 00000AAC 40                              	INC	EAX
  1029 00000AAD 43                              	INC	EBX
  1030 00000AAE 80 7C 05 B8 00                  	CMP	BYTE [-72+EBP+EAX*1],0
  1031 00000AB3 75 F7                           	JNE	L197
  1032 00000AB5                                 L199:
  1033 00000AB5 8D 45 B8                        	LEA	EAX,DWORD [-72+EBP]
  1034 00000AB8 50                              	PUSH	EAX
  1035 00000AB9 56                              	PUSH	ESI
  1036 00000ABA E8 FFFFFF3B                     	CALL	_cons_putstr
  1037 00000ABF 8D 65 F8                        	LEA	ESP,DWORD [-8+EBP]
  1038 00000AC2 89 D8                           	MOV	EAX,EBX
  1039 00000AC4 5B                              	POP	EBX
  1040 00000AC5 5E                              	POP	ESI
  1041 00000AC6 5D                              	POP	EBP
  1042 00000AC7 C3                              	RET
  1043                                          [SECTION .data]
  1044 00000043                                 LC7:
  1045 00000043 00                              	DB	0x00
  1046 00000044                                 LC10:
  1047 00000044 2F 25 73 00                     	DB	"/%s",0x00
  1048 00000048                                 LC9:
  1049 00000048 25 73 00                        	DB	"%s",0x00
  1050 0000004B                                 LC8:
  1051 0000004B 25 73 2F 25 73 00               	DB	"%s/%s",0x00
  1052                                          [SECTION .text]
  1053 00000AC8                                 	GLOBAL	_get_pathname
  1054 00000AC8                                 _get_pathname:
  1055 00000AC8 55                              	PUSH	EBP
  1056 00000AC9 89 E5                           	MOV	EBP,ESP
  1057 00000ACB 57                              	PUSH	EDI
  1058 00000ACC 56                              	PUSH	ESI
  1059 00000ACD 53                              	PUSH	EBX
  1060 00000ACE 81 EC 000000B8                  	SUB	ESP,184
  1061 00000AD4 8B 7D 0C                        	MOV	EDI,DWORD [12+EBP]
  1062 00000AD7 68 [00000043]                   	PUSH	LC7
  1063 00000ADC FF 75 08                        	PUSH	DWORD [8+EBP]
  1064 00000ADF E8 [00000000]                   	CALL	_sprintf
  1065 00000AE4 58                              	POP	EAX
  1066 00000AE5 5A                              	POP	EDX
  1067 00000AE6 83 BF 000007D8 00               	CMP	DWORD [2008+EDI],0
  1068 00000AED 75 27                           	JNE	L204
  1069 00000AEF                                 L206:
  1070 00000AEF FF 75 08                        	PUSH	DWORD [8+EBP]
  1071 00000AF2 68 [00000044]                   	PUSH	LC10
  1072 00000AF7 8D 5D 84                        	LEA	EBX,DWORD [-124+EBP]
  1073 00000AFA 53                              	PUSH	EBX
  1074 00000AFB E8 [00000000]                   	CALL	_sprintf
  1075 00000B00 53                              	PUSH	EBX
  1076 00000B01 68 [00000048]                   	PUSH	LC9
  1077 00000B06 FF 75 08                        	PUSH	DWORD [8+EBP]
  1078 00000B09 E8 [00000000]                   	CALL	_sprintf
  1079 00000B0E 8D 65 F4                        	LEA	ESP,DWORD [-12+EBP]
  1080 00000B11 5B                              	POP	EBX
  1081 00000B12 5E                              	POP	ESI
  1082 00000B13 5F                              	POP	EDI
  1083 00000B14 5D                              	POP	EBP
  1084 00000B15 C3                              	RET
  1085 00000B16                                 L204:
  1086 00000B16 8D 87 000007D0                  	LEA	EAX,DWORD [2000+EDI]
  1087 00000B1C 8D B5 FFFFFF3C                  	LEA	ESI,DWORD [-196+EBP]
  1088 00000B22 50                              	PUSH	EAX
  1089 00000B23 8D 9D FFFFFF44                  	LEA	EBX,DWORD [-188+EBP]
  1090 00000B29 56                              	PUSH	ESI
  1091 00000B2A E8 [00000000]                   	CALL	_sprintf
  1092 00000B2F FF 75 08                        	PUSH	DWORD [8+EBP]
  1093 00000B32 56                              	PUSH	ESI
  1094 00000B33 68 [0000004B]                   	PUSH	LC8
  1095 00000B38 53                              	PUSH	EBX
  1096 00000B39 E8 [00000000]                   	CALL	_sprintf
  1097 00000B3E 8B BF 000007D8                  	MOV	EDI,DWORD [2008+EDI]
  1098 00000B44 53                              	PUSH	EBX
  1099 00000B45 68 [00000048]                   	PUSH	LC9
  1100 00000B4A FF 75 08                        	PUSH	DWORD [8+EBP]
  1101 00000B4D E8 [00000000]                   	CALL	_sprintf
  1102 00000B52 83 C4 24                        	ADD	ESP,36
  1103 00000B55 68 [00000043]                   	PUSH	LC7
  1104 00000B5A 56                              	PUSH	ESI
  1105 00000B5B E8 [00000000]                   	CALL	_sprintf
  1106 00000B60 5B                              	POP	EBX
  1107 00000B61 5E                              	POP	ESI
  1108 00000B62 83 BF 000007D8 00               	CMP	DWORD [2008+EDI],0
  1109 00000B69 75 AB                           	JNE	L204
  1110 00000B6B E9 FFFFFF7F                     	JMP	L206
  1111                                          [SECTION .data]
  1112 00000051                                 LC11:
  1113 00000051 63 61 74 20 00                  	DB	"cat ",0x00
  1114 00000056                                 LC12:
  1115 00000056 63 64 20 00                     	DB	"cd ",0x00
  1116 0000005A                                 LC13:
  1117 0000005A 63 6C 73 00                     	DB	"cls",0x00
  1118 0000005E                                 LC14:
  1119 0000005E 64 69 72 00                     	DB	"dir",0x00
  1120 00000062                                 LC15:
  1121 00000062 65 78 69 74 00                  	DB	"exit",0x00
  1122 00000067                                 LC16:
  1123 00000067 65 64 69 74 20 00               	DB	"edit ",0x00
  1124 0000006D                                 LC17:
  1125 0000006D 66 64 64 69 72 00               	DB	"fddir",0x00
  1126 00000073                                 LC18:
  1127 00000073 66 76 69 65 77 20 00            	DB	"fview ",0x00
  1128 0000007A                                 LC19:
  1129 0000007A 6C 61 6E 67 6D 6F 64 65 20 00   	DB	"langmode ",0x00
  1130 00000084                                 LC20:
  1131 00000084 6C 6F 67 00                     	DB	"log",0x00
  1132 00000088                                 LC21:
  1133 00000088 6C 6F 67 63 6C 73 00            	DB	"logcls",0x00
  1134 0000008F                                 LC22:
  1135 0000008F 6D 65 6D 00                     	DB	"mem",0x00
  1136 00000093                                 LC23:
  1137 00000093 6D 6B 66 73 00                  	DB	"mkfs",0x00
  1138 00000098                                 LC24:
  1139 00000098 6D 6B 64 69 72 20 00            	DB	"mkdir ",0x00
  1140 0000009F                                 LC25:
  1141 0000009F 6D 6B 66 69 6C 65 20 00         	DB	"mkfile ",0x00
  1142 000000A7                                 LC26:
  1143 000000A7 6D 65 6D 6D 61 70 00            	DB	"memmap",0x00
  1144 000000AE                                 LC27:
  1145 000000AE 6E 63 73 74 20 00               	DB	"ncst ",0x00
  1146 000000B4                                 LC28:
  1147 000000B4 73 74 61 72 74 20 00            	DB	"start ",0x00
  1148 000000BB                                 LC29:
  1149 000000BB 73 65 74 6C 6F 67 00            	DB	"setlog",0x00
  1150 000000C2                                 LC30:
  1151 000000C2 73 68 6F 77 20 00               	DB	"show ",0x00
  1152 000000C8                                 LC31:
  1153 000000C8 74 65 73 74 00                  	DB	"test",0x00
  1154 000000CD                                 LC32:
  1155 000000CD 74 6F 70 00                     	DB	"top",0x00
  1156 000000D1                                 LC33:
  1157 000000D1 73 74 61 6D 70 00               	DB	"stamp",0x00
  1158 000000D7                                 LC34:
  1159 000000D7 72 65 61 64 65 72 00            	DB	"reader",0x00
  1160 000000DE                                 LC35:
  1161 000000DE 77 72 69 74 65 72 00            	DB	"writer",0x00
  1162 000000E5                                 LC36:
  1163 000000E5 61 6C 6C 6F 63 00               	DB	"alloc",0x00
  1164 000000EB                                 LC37:
  1165 000000EB 66 72 65 65 00                  	DB	"free",0x00
  1166 000000F0                                 LC38:
  1167 000000F0 31 00                           	DB	"1",0x00
  1168 000000F2                                 LC39:
  1169 000000F2 32 00                           	DB	"2",0x00
  1170 000000F4                                 LC40:
  1171 000000F4 61 64 64 00                     	DB	"add",0x00
  1172 000000F8                                 LC41:
  1173 000000F8 72 70 73 00                     	DB	"rps",0x00
  1174 000000FC                                 LC42:
  1175 000000FC 42 61 64 20 63 6F 6D 6D 61 6E   	DB	"Bad command.",0x0A,0x0A,0x00
       00000106 64 2E 0A 0A 00 
  1176                                          [SECTION .text]
  1177 00000B70                                 	GLOBAL	_cons_runcmd
  1178 00000B70                                 _cons_runcmd:
  1179 00000B70 55                              	PUSH	EBP
  1180 00000B71 89 E5                           	MOV	EBP,ESP
  1181 00000B73 57                              	PUSH	EDI
  1182 00000B74 56                              	PUSH	ESI
  1183 00000B75 BF [00000051]                   	MOV	EDI,LC11
  1184 00000B7A 53                              	PUSH	EBX
  1185 00000B7B 83 EC 0C                        	SUB	ESP,12
  1186 00000B7E 8B 45 08                        	MOV	EAX,DWORD [8+EBP]
  1187 00000B81 8B 4D 10                        	MOV	ECX,DWORD [16+EBP]
  1188 00000B84 89 45 E8                        	MOV	DWORD [-24+EBP],EAX
  1189 00000B87 89 4D F0                        	MOV	DWORD [-16+EBP],ECX
  1190 00000B8A 8B 45 14                        	MOV	EAX,DWORD [20+EBP]
  1191 00000B8D 8B 75 E8                        	MOV	ESI,DWORD [-24+EBP]
  1192 00000B90 89 45 EC                        	MOV	DWORD [-20+EBP],EAX
  1193 00000B93 8B 5D 0C                        	MOV	EBX,DWORD [12+EBP]
  1194 00000B96 B8 00000004                     	MOV	EAX,4
  1195 00000B9B FC                              	CLD
  1196 00000B9C 89 C1                           	MOV	ECX,EAX
  1197 00000B9E F3                              	REPE
  1198 00000B9F A6                              	CMPSB
  1199 00000BA0 75 09                           	JNE	L208
  1200 00000BA2 83 3B 00                        	CMP	DWORD [EBX],0
  1201 00000BA5 0F 85 00000577                  	JNE	L272
  1202 00000BAB                                 L208:
  1203 00000BAB B8 00000003                     	MOV	EAX,3
  1204 00000BB0 8B 75 E8                        	MOV	ESI,DWORD [-24+EBP]
  1205 00000BB3 FC                              	CLD
  1206 00000BB4 BF [00000056]                   	MOV	EDI,LC12
  1207 00000BB9 89 C1                           	MOV	ECX,EAX
  1208 00000BBB F3                              	REPE
  1209 00000BBC A6                              	CMPSB
  1210 00000BBD 0F 84 0000054D                  	JE	L273
  1211 00000BC3 B8 00000004                     	MOV	EAX,4
  1212 00000BC8 8B 75 E8                        	MOV	ESI,DWORD [-24+EBP]
  1213 00000BCB FC                              	CLD
  1214 00000BCC BF [0000005A]                   	MOV	EDI,LC13
  1215 00000BD1 89 C1                           	MOV	ECX,EAX
  1216 00000BD3 F3                              	REPE
  1217 00000BD4 A6                              	CMPSB
  1218 00000BD5 75 09                           	JNE	L212
  1219 00000BD7 83 3B 00                        	CMP	DWORD [EBX],0
  1220 00000BDA 0F 85 00000521                  	JNE	L274
  1221 00000BE0                                 L212:
  1222 00000BE0 B8 00000004                     	MOV	EAX,4
  1223 00000BE5 8B 75 E8                        	MOV	ESI,DWORD [-24+EBP]
  1224 00000BE8 FC                              	CLD
  1225 00000BE9 BF [0000005E]                   	MOV	EDI,LC14
  1226 00000BEE 89 C1                           	MOV	ECX,EAX
  1227 00000BF0 F3                              	REPE
  1228 00000BF1 A6                              	CMPSB
  1229 00000BF2 75 09                           	JNE	L214
  1230 00000BF4 83 3B 00                        	CMP	DWORD [EBX],0
  1231 00000BF7 0F 85 000004F5                  	JNE	L275
  1232 00000BFD                                 L214:
  1233 00000BFD B8 00000005                     	MOV	EAX,5
  1234 00000C02 8B 75 E8                        	MOV	ESI,DWORD [-24+EBP]
  1235 00000C05 FC                              	CLD
  1236 00000C06 BF [00000062]                   	MOV	EDI,LC15
  1237 00000C0B 89 C1                           	MOV	ECX,EAX
  1238 00000C0D F3                              	REPE
  1239 00000C0E A6                              	CMPSB
  1240 00000C0F 0F 84 000004C8                  	JE	L276
  1241 00000C15 B8 00000005                     	MOV	EAX,5
  1242 00000C1A 8B 75 E8                        	MOV	ESI,DWORD [-24+EBP]
  1243 00000C1D FC                              	CLD
  1244 00000C1E BF [00000067]                   	MOV	EDI,LC16
  1245 00000C23 89 C1                           	MOV	ECX,EAX
  1246 00000C25 F3                              	REPE
  1247 00000C26 A6                              	CMPSB
  1248 00000C27 75 09                           	JNE	L218
  1249 00000C29 83 3B 00                        	CMP	DWORD [EBX],0
  1250 00000C2C 0F 85 00000496                  	JNE	L277
  1251 00000C32                                 L218:
  1252 00000C32 B8 00000006                     	MOV	EAX,6
  1253 00000C37 8B 75 E8                        	MOV	ESI,DWORD [-24+EBP]
  1254 00000C3A FC                              	CLD
  1255 00000C3B BF [0000006D]                   	MOV	EDI,LC17
  1256 00000C40 89 C1                           	MOV	ECX,EAX
  1257 00000C42 F3                              	REPE
  1258 00000C43 A6                              	CMPSB
  1259 00000C44 75 09                           	JNE	L220
  1260 00000C46 83 3B 00                        	CMP	DWORD [EBX],0
  1261 00000C49 0F 85 0000046A                  	JNE	L278
  1262 00000C4F                                 L220:
  1263 00000C4F B8 00000006                     	MOV	EAX,6
  1264 00000C54 8B 75 E8                        	MOV	ESI,DWORD [-24+EBP]
  1265 00000C57 FC                              	CLD
  1266 00000C58 BF [00000073]                   	MOV	EDI,LC18
  1267 00000C5D 89 C1                           	MOV	ECX,EAX
  1268 00000C5F F3                              	REPE
  1269 00000C60 A6                              	CMPSB
  1270 00000C61 75 09                           	JNE	L222
  1271 00000C63 83 3B 00                        	CMP	DWORD [EBX],0
  1272 00000C66 0F 85 00000438                  	JNE	L279
  1273 00000C6C                                 L222:
  1274 00000C6C B8 00000009                     	MOV	EAX,9
  1275 00000C71 8B 75 E8                        	MOV	ESI,DWORD [-24+EBP]
  1276 00000C74 FC                              	CLD
  1277 00000C75 BF [0000007A]                   	MOV	EDI,LC19
  1278 00000C7A 89 C1                           	MOV	ECX,EAX
  1279 00000C7C F3                              	REPE
  1280 00000C7D A6                              	CMPSB
  1281 00000C7E 0F 84 0000040B                  	JE	L280
  1282 00000C84 B8 00000004                     	MOV	EAX,4
  1283 00000C89 8B 75 E8                        	MOV	ESI,DWORD [-24+EBP]
  1284 00000C8C FC                              	CLD
  1285 00000C8D BF [00000084]                   	MOV	EDI,LC20
  1286 00000C92 89 C1                           	MOV	ECX,EAX
  1287 00000C94 F3                              	REPE
  1288 00000C95 A6                              	CMPSB
  1289 00000C96 75 09                           	JNE	L226
  1290 00000C98 83 3B 00                        	CMP	DWORD [EBX],0
  1291 00000C9B 0F 85 000003DF                  	JNE	L281
  1292 00000CA1                                 L226:
  1293 00000CA1 B8 00000007                     	MOV	EAX,7
  1294 00000CA6 8B 75 E8                        	MOV	ESI,DWORD [-24+EBP]
  1295 00000CA9 FC                              	CLD
  1296 00000CAA BF [00000088]                   	MOV	EDI,LC21
  1297 00000CAF 89 C1                           	MOV	ECX,EAX
  1298 00000CB1 F3                              	REPE
  1299 00000CB2 A6                              	CMPSB
  1300 00000CB3 75 09                           	JNE	L228
  1301 00000CB5 83 3B 00                        	CMP	DWORD [EBX],0
  1302 00000CB8 0F 85 000003B3                  	JNE	L282
  1303 00000CBE                                 L228:
  1304 00000CBE B8 00000004                     	MOV	EAX,4
  1305 00000CC3 8B 75 E8                        	MOV	ESI,DWORD [-24+EBP]
  1306 00000CC6 FC                              	CLD
  1307 00000CC7 BF [0000008F]                   	MOV	EDI,LC22
  1308 00000CCC 89 C1                           	MOV	ECX,EAX
  1309 00000CCE F3                              	REPE
  1310 00000CCF A6                              	CMPSB
  1311 00000CD0 75 09                           	JNE	L230
  1312 00000CD2 83 3B 00                        	CMP	DWORD [EBX],0
  1313 00000CD5 0F 85 00000381                  	JNE	L283
  1314 00000CDB                                 L230:
  1315 00000CDB B8 00000005                     	MOV	EAX,5
  1316 00000CE0 8B 75 E8                        	MOV	ESI,DWORD [-24+EBP]
  1317 00000CE3 FC                              	CLD
  1318 00000CE4 BF [00000093]                   	MOV	EDI,LC23
  1319 00000CE9 89 C1                           	MOV	ECX,EAX
  1320 00000CEB F3                              	REPE
  1321 00000CEC A6                              	CMPSB
  1322 00000CED 75 09                           	JNE	L232
  1323 00000CEF 83 3B 00                        	CMP	DWORD [EBX],0
  1324 00000CF2 0F 85 00000355                  	JNE	L284
  1325 00000CF8                                 L232:
  1326 00000CF8 B8 00000006                     	MOV	EAX,6
  1327 00000CFD 8B 75 E8                        	MOV	ESI,DWORD [-24+EBP]
  1328 00000D00 FC                              	CLD
  1329 00000D01 BF [00000098]                   	MOV	EDI,LC24
  1330 00000D06 89 C1                           	MOV	ECX,EAX
  1331 00000D08 F3                              	REPE
  1332 00000D09 A6                              	CMPSB
  1333 00000D0A 0F 84 00000328                  	JE	L285
  1334 00000D10 B8 00000007                     	MOV	EAX,7
  1335 00000D15 8B 75 E8                        	MOV	ESI,DWORD [-24+EBP]
  1336 00000D18 FC                              	CLD
  1337 00000D19 BF [0000009F]                   	MOV	EDI,LC25
  1338 00000D1E 89 C1                           	MOV	ECX,EAX
  1339 00000D20 F3                              	REPE
  1340 00000D21 A6                              	CMPSB
  1341 00000D22 0F 84 000002FB                  	JE	L286
  1342 00000D28 B8 00000007                     	MOV	EAX,7
  1343 00000D2D 8B 75 E8                        	MOV	ESI,DWORD [-24+EBP]
  1344 00000D30 FC                              	CLD
  1345 00000D31 BF [000000A7]                   	MOV	EDI,LC26
  1346 00000D36 89 C1                           	MOV	ECX,EAX
  1347 00000D38 F3                              	REPE
  1348 00000D39 A6                              	CMPSB
  1349 00000D3A 75 09                           	JNE	L238
  1350 00000D3C 83 3B 00                        	CMP	DWORD [EBX],0
  1351 00000D3F 0F 85 000002C9                  	JNE	L287
  1352 00000D45                                 L238:
  1353 00000D45 B8 00000005                     	MOV	EAX,5
  1354 00000D4A 8B 75 E8                        	MOV	ESI,DWORD [-24+EBP]
  1355 00000D4D FC                              	CLD
  1356 00000D4E BF [000000AE]                   	MOV	EDI,LC27
  1357 00000D53 89 C1                           	MOV	ECX,EAX
  1358 00000D55 F3                              	REPE
  1359 00000D56 A6                              	CMPSB
  1360 00000D57 0F 84 00000296                  	JE	L288
  1361 00000D5D B8 00000006                     	MOV	EAX,6
  1362 00000D62 8B 75 E8                        	MOV	ESI,DWORD [-24+EBP]
  1363 00000D65 FC                              	CLD
  1364 00000D66 BF [000000B4]                   	MOV	EDI,LC28
  1365 00000D6B 89 C1                           	MOV	ECX,EAX
  1366 00000D6D F3                              	REPE
  1367 00000D6E A6                              	CMPSB
  1368 00000D6F 0F 84 00000263                  	JE	L289
  1369 00000D75 B8 00000007                     	MOV	EAX,7
  1370 00000D7A 8B 75 E8                        	MOV	ESI,DWORD [-24+EBP]
  1371 00000D7D FC                              	CLD
  1372 00000D7E BF [000000BB]                   	MOV	EDI,LC29
  1373 00000D83 89 C1                           	MOV	ECX,EAX
  1374 00000D85 F3                              	REPE
  1375 00000D86 A6                              	CMPSB
  1376 00000D87 75 09                           	JNE	L244
  1377 00000D89 83 3B 00                        	CMP	DWORD [EBX],0
  1378 00000D8C 0F 85 00000237                  	JNE	L290
  1379 00000D92                                 L244:
  1380 00000D92 B8 00000005                     	MOV	EAX,5
  1381 00000D97 8B 75 E8                        	MOV	ESI,DWORD [-24+EBP]
  1382 00000D9A FC                              	CLD
  1383 00000D9B BF [000000C2]                   	MOV	EDI,LC30
  1384 00000DA0 89 C1                           	MOV	ECX,EAX
  1385 00000DA2 F3                              	REPE
  1386 00000DA3 A6                              	CMPSB
  1387 00000DA4 75 09                           	JNE	L246
  1388 00000DA6 83 3B 00                        	CMP	DWORD [EBX],0
  1389 00000DA9 0F 85 00000205                  	JNE	L291
  1390 00000DAF                                 L246:
  1391 00000DAF B8 00000005                     	MOV	EAX,5
  1392 00000DB4 8B 75 E8                        	MOV	ESI,DWORD [-24+EBP]
  1393 00000DB7 FC                              	CLD
  1394 00000DB8 BF [000000C8]                   	MOV	EDI,LC31
  1395 00000DBD 89 C1                           	MOV	ECX,EAX
  1396 00000DBF F3                              	REPE
  1397 00000DC0 A6                              	CMPSB
  1398 00000DC1 75 09                           	JNE	L248
  1399 00000DC3 83 3B 00                        	CMP	DWORD [EBX],0
  1400 00000DC6 0F 85 000001D9                  	JNE	L292
  1401 00000DCC                                 L248:
  1402 00000DCC B8 00000004                     	MOV	EAX,4
  1403 00000DD1 8B 75 E8                        	MOV	ESI,DWORD [-24+EBP]
  1404 00000DD4 FC                              	CLD
  1405 00000DD5 BF [000000CD]                   	MOV	EDI,LC32
  1406 00000DDA 89 C1                           	MOV	ECX,EAX
  1407 00000DDC F3                              	REPE
  1408 00000DDD A6                              	CMPSB
  1409 00000DDE 75 09                           	JNE	L250
  1410 00000DE0 83 3B 00                        	CMP	DWORD [EBX],0
  1411 00000DE3 0F 85 000001AD                  	JNE	L293
  1412 00000DE9                                 L250:
  1413 00000DE9 B8 00000006                     	MOV	EAX,6
  1414 00000DEE 8B 75 E8                        	MOV	ESI,DWORD [-24+EBP]
  1415 00000DF1 FC                              	CLD
  1416 00000DF2 BF [000000D1]                   	MOV	EDI,LC33
  1417 00000DF7 89 C1                           	MOV	ECX,EAX
  1418 00000DF9 F3                              	REPE
  1419 00000DFA A6                              	CMPSB
  1420 00000DFB 75 09                           	JNE	L252
  1421 00000DFD 83 3B 00                        	CMP	DWORD [EBX],0
  1422 00000E00 0F 85 0000017B                  	JNE	L294
  1423 00000E06                                 L252:
  1424 00000E06 B8 00000007                     	MOV	EAX,7
  1425 00000E0B 8B 75 E8                        	MOV	ESI,DWORD [-24+EBP]
  1426 00000E0E FC                              	CLD
  1427 00000E0F BF [000000D7]                   	MOV	EDI,LC34
  1428 00000E14 89 C1                           	MOV	ECX,EAX
  1429 00000E16 F3                              	REPE
  1430 00000E17 A6                              	CMPSB
  1431 00000E18 0F 84 00000157                  	JE	L295
  1432 00000E1E B8 00000007                     	MOV	EAX,7
  1433 00000E23 8B 75 E8                        	MOV	ESI,DWORD [-24+EBP]
  1434 00000E26 FC                              	CLD
  1435 00000E27 BF [000000DE]                   	MOV	EDI,LC35
  1436 00000E2C 89 C1                           	MOV	ECX,EAX
  1437 00000E2E F3                              	REPE
  1438 00000E2F A6                              	CMPSB
  1439 00000E30 0F 84 00000133                  	JE	L296
  1440 00000E36 B8 00000005                     	MOV	EAX,5
  1441 00000E3B 8B 75 E8                        	MOV	ESI,DWORD [-24+EBP]
  1442 00000E3E FC                              	CLD
  1443 00000E3F BF [000000E5]                   	MOV	EDI,LC36
  1444 00000E44 89 C1                           	MOV	ECX,EAX
  1445 00000E46 F3                              	REPE
  1446 00000E47 A6                              	CMPSB
  1447 00000E48 0F 84 00000109                  	JE	L297
  1448 00000E4E B8 00000005                     	MOV	EAX,5
  1449 00000E53 8B 75 E8                        	MOV	ESI,DWORD [-24+EBP]
  1450 00000E56 FC                              	CLD
  1451 00000E57 BF [000000EB]                   	MOV	EDI,LC37
  1452 00000E5C 89 C1                           	MOV	ECX,EAX
  1453 00000E5E F3                              	REPE
  1454 00000E5F A6                              	CMPSB
  1455 00000E60 0F 84 000000E5                  	JE	L298
  1456 00000E66 B8 00000002                     	MOV	EAX,2
  1457 00000E6B 8B 75 E8                        	MOV	ESI,DWORD [-24+EBP]
  1458 00000E6E FC                              	CLD
  1459 00000E6F BF [000000F0]                   	MOV	EDI,LC38
  1460 00000E74 89 C1                           	MOV	ECX,EAX
  1461 00000E76 F3                              	REPE
  1462 00000E77 A6                              	CMPSB
  1463 00000E78 75 09                           	JNE	L262
  1464 00000E7A 83 3B 00                        	CMP	DWORD [EBX],0
  1465 00000E7D 0F 85 000000B9                  	JNE	L299
  1466 00000E83                                 L262:
  1467 00000E83 B8 00000002                     	MOV	EAX,2
  1468 00000E88 8B 75 E8                        	MOV	ESI,DWORD [-24+EBP]
  1469 00000E8B FC                              	CLD
  1470 00000E8C BF [000000F2]                   	MOV	EDI,LC39
  1471 00000E91 89 C1                           	MOV	ECX,EAX
  1472 00000E93 F3                              	REPE
  1473 00000E94 A6                              	CMPSB
  1474 00000E95 75 09                           	JNE	L264
  1475 00000E97 83 3B 00                        	CMP	DWORD [EBX],0
  1476 00000E9A 0F 85 0000008D                  	JNE	L300
  1477 00000EA0                                 L264:
  1478 00000EA0 B8 00000004                     	MOV	EAX,4
  1479 00000EA5 8B 75 E8                        	MOV	ESI,DWORD [-24+EBP]
  1480 00000EA8 FC                              	CLD
  1481 00000EA9 BF [000000F4]                   	MOV	EDI,LC40
  1482 00000EAE 89 C1                           	MOV	ECX,EAX
  1483 00000EB0 F3                              	REPE
  1484 00000EB1 A6                              	CMPSB
  1485 00000EB2 75 05                           	JNE	L266
  1486 00000EB4 83 3B 00                        	CMP	DWORD [EBX],0
  1487 00000EB7 75 65                           	JNE	L301
  1488 00000EB9                                 L266:
  1489 00000EB9 B8 00000004                     	MOV	EAX,4
  1490 00000EBE 8B 75 E8                        	MOV	ESI,DWORD [-24+EBP]
  1491 00000EC1 FC                              	CLD
  1492 00000EC2 BF [000000F8]                   	MOV	EDI,LC41
  1493 00000EC7 89 C1                           	MOV	ECX,EAX
  1494 00000EC9 F3                              	REPE
  1495 00000ECA A6                              	CMPSB
  1496 00000ECB 75 05                           	JNE	L268
  1497 00000ECD 83 3B 00                        	CMP	DWORD [EBX],0
  1498 00000ED0 75 37                           	JNE	L302
  1499 00000ED2                                 L268:
  1500 00000ED2 8B 4D E8                        	MOV	ECX,DWORD [-24+EBP]
  1501 00000ED5 80 39 00                        	CMP	BYTE [ECX],0
  1502 00000ED8 75 08                           	JNE	L303
  1503 00000EDA                                 L207:
  1504 00000EDA 8D 65 F4                        	LEA	ESP,DWORD [-12+EBP]
  1505 00000EDD 5B                              	POP	EBX
  1506 00000EDE 5E                              	POP	ESI
  1507 00000EDF 5F                              	POP	EDI
  1508 00000EE0 5D                              	POP	EBP
  1509 00000EE1 C3                              	RET
  1510 00000EE2                                 L303:
  1511 00000EE2 51                              	PUSH	ECX
  1512 00000EE3 FF 75 F0                        	PUSH	DWORD [-16+EBP]
  1513 00000EE6 53                              	PUSH	EBX
  1514 00000EE7 E8 00001C19                     	CALL	_cmd_app
  1515 00000EEC 83 C4 0C                        	ADD	ESP,12
  1516 00000EEF 85 C0                           	TEST	EAX,EAX
  1517 00000EF1 75 E7                           	JNE	L207
  1518 00000EF3 C7 45 0C [000000FC]             	MOV	DWORD [12+EBP],LC42
  1519 00000EFA 89 5D 08                        	MOV	DWORD [8+EBP],EBX
  1520 00000EFD 8D 65 F4                        	LEA	ESP,DWORD [-12+EBP]
  1521 00000F00 5B                              	POP	EBX
  1522 00000F01 5E                              	POP	ESI
  1523 00000F02 5F                              	POP	EDI
  1524 00000F03 5D                              	POP	EBP
  1525 00000F04 E9 FFFFFB1F                     	JMP	_cons_putstr0
  1526 00000F09                                 L302:
  1527 00000F09 8B 45 E8                        	MOV	EAX,DWORD [-24+EBP]
  1528 00000F0C 89 5D 08                        	MOV	DWORD [8+EBP],EBX
  1529 00000F0F 89 45 0C                        	MOV	DWORD [12+EBP],EAX
  1530 00000F12 8D 65 F4                        	LEA	ESP,DWORD [-12+EBP]
  1531 00000F15 5B                              	POP	EBX
  1532 00000F16 5E                              	POP	ESI
  1533 00000F17 5F                              	POP	EDI
  1534 00000F18 5D                              	POP	EBP
  1535 00000F19 E9 00002CCC                     	JMP	_cmd_rps
  1536 00000F1E                                 L301:
  1537 00000F1E 89 5D 08                        	MOV	DWORD [8+EBP],EBX
  1538 00000F21 8D 65 F4                        	LEA	ESP,DWORD [-12+EBP]
  1539 00000F24 5B                              	POP	EBX
  1540 00000F25 5E                              	POP	ESI
  1541 00000F26 5F                              	POP	EDI
  1542 00000F27 5D                              	POP	EBP
  1543 00000F28 E9 00003233                     	JMP	_shareadd
  1544 00000F2D                                 L300:
  1545 00000F2D 89 5D 08                        	MOV	DWORD [8+EBP],EBX
  1546 00000F30 8D 65 F4                        	LEA	ESP,DWORD [-12+EBP]
  1547 00000F33 5B                              	POP	EBX
  1548 00000F34 5E                              	POP	ESI
  1549 00000F35 5F                              	POP	EDI
  1550 00000F36 5D                              	POP	EBP
  1551 00000F37 E9 0000339A                     	JMP	_consume
  1552 00000F3C                                 L299:
  1553 00000F3C 89 5D 08                        	MOV	DWORD [8+EBP],EBX
  1554 00000F3F 8D 65 F4                        	LEA	ESP,DWORD [-12+EBP]
  1555 00000F42 5B                              	POP	EBX
  1556 00000F43 5E                              	POP	ESI
  1557 00000F44 5F                              	POP	EDI
  1558 00000F45 5D                              	POP	EBP
  1559 00000F46 E9 000032A5                     	JMP	_produce
  1560 00000F4B                                 L298:
  1561 00000F4B 8D 65 F4                        	LEA	ESP,DWORD [-12+EBP]
  1562 00000F4E 5B                              	POP	EBX
  1563 00000F4F 5E                              	POP	ESI
  1564 00000F50 5F                              	POP	EDI
  1565 00000F51 5D                              	POP	EBP
  1566 00000F52 E9 000031D0                     	JMP	_cmd_free
  1567 00000F57                                 L297:
  1568 00000F57 8B 45 E8                        	MOV	EAX,DWORD [-24+EBP]
  1569 00000F5A 89 45 08                        	MOV	DWORD [8+EBP],EAX
  1570 00000F5D 8D 65 F4                        	LEA	ESP,DWORD [-12+EBP]
  1571 00000F60 5B                              	POP	EBX
  1572 00000F61 5E                              	POP	ESI
  1573 00000F62 5F                              	POP	EDI
  1574 00000F63 5D                              	POP	EBP
  1575 00000F64 E9 0000306F                     	JMP	_cmd_mymem
  1576 00000F69                                 L296:
  1577 00000F69 8D 65 F4                        	LEA	ESP,DWORD [-12+EBP]
  1578 00000F6C 5B                              	POP	EBX
  1579 00000F6D 5E                              	POP	ESI
  1580 00000F6E 5F                              	POP	EDI
  1581 00000F6F 5D                              	POP	EBP
  1582 00000F70 E9 00002FA0                     	JMP	_cmd_writer
  1583 00000F75                                 L295:
  1584 00000F75 8D 65 F4                        	LEA	ESP,DWORD [-12+EBP]
  1585 00000F78 5B                              	POP	EBX
  1586 00000F79 5E                              	POP	ESI
  1587 00000F7A 5F                              	POP	EDI
  1588 00000F7B 5D                              	POP	EBP
  1589 00000F7C E9 00002E83                     	JMP	_cmd_reader
  1590 00000F81                                 L294:
  1591 00000F81 8B 45 E8                        	MOV	EAX,DWORD [-24+EBP]
  1592 00000F84 89 5D 08                        	MOV	DWORD [8+EBP],EBX
  1593 00000F87 89 45 0C                        	MOV	DWORD [12+EBP],EAX
  1594 00000F8A 8D 65 F4                        	LEA	ESP,DWORD [-12+EBP]
  1595 00000F8D 5B                              	POP	EBX
  1596 00000F8E 5E                              	POP	ESI
  1597 00000F8F 5F                              	POP	EDI
  1598 00000F90 5D                              	POP	EBP
  1599 00000F91 E9 0000277F                     	JMP	_cmd_stamp
  1600 00000F96                                 L293:
  1601 00000F96 89 5D 08                        	MOV	DWORD [8+EBP],EBX
  1602 00000F99 8D 65 F4                        	LEA	ESP,DWORD [-12+EBP]
  1603 00000F9C 5B                              	POP	EBX
  1604 00000F9D 5E                              	POP	ESI
  1605 00000F9E 5F                              	POP	EDI
  1606 00000F9F 5D                              	POP	EBP
  1607 00000FA0 E9 00001AA9                     	JMP	_cmd_top
  1608 00000FA5                                 L292:
  1609 00000FA5 89 5D 08                        	MOV	DWORD [8+EBP],EBX
  1610 00000FA8 8D 65 F4                        	LEA	ESP,DWORD [-12+EBP]
  1611 00000FAB 5B                              	POP	EBX
  1612 00000FAC 5E                              	POP	ESI
  1613 00000FAD 5F                              	POP	EDI
  1614 00000FAE 5D                              	POP	EBP
  1615 00000FAF E9 000012B7                     	JMP	_cmd_test
  1616 00000FB4                                 L291:
  1617 00000FB4 8B 45 E8                        	MOV	EAX,DWORD [-24+EBP]
  1618 00000FB7 89 5D 08                        	MOV	DWORD [8+EBP],EBX
  1619 00000FBA 89 45 0C                        	MOV	DWORD [12+EBP],EAX
  1620 00000FBD 8D 65 F4                        	LEA	ESP,DWORD [-12+EBP]
  1621 00000FC0 5B                              	POP	EBX
  1622 00000FC1 5E                              	POP	ESI
  1623 00000FC2 5F                              	POP	EDI
  1624 00000FC3 5D                              	POP	EBP
  1625 00000FC4 E9 000012FB                     	JMP	_cmd_show
  1626 00000FC9                                 L290:
  1627 00000FC9 89 5D 08                        	MOV	DWORD [8+EBP],EBX
  1628 00000FCC 8D 65 F4                        	LEA	ESP,DWORD [-12+EBP]
  1629 00000FCF 5B                              	POP	EBX
  1630 00000FD0 5E                              	POP	ESI
  1631 00000FD1 5F                              	POP	EDI
  1632 00000FD2 5D                              	POP	EBP
  1633 00000FD3 E9 00000F8D                     	JMP	_cmd_setlog
  1634 00000FD8                                 L289:
  1635 00000FD8 8B 45 EC                        	MOV	EAX,DWORD [-20+EBP]
  1636 00000FDB 8B 4D E8                        	MOV	ECX,DWORD [-24+EBP]
  1637 00000FDE 89 45 10                        	MOV	DWORD [16+EBP],EAX
  1638 00000FE1 89 4D 0C                        	MOV	DWORD [12+EBP],ECX
  1639 00000FE4 89 5D 08                        	MOV	DWORD [8+EBP],EBX
  1640 00000FE7 8D 65 F4                        	LEA	ESP,DWORD [-12+EBP]
  1641 00000FEA 5B                              	POP	EBX
  1642 00000FEB 5E                              	POP	ESI
  1643 00000FEC 5F                              	POP	EDI
  1644 00000FED 5D                              	POP	EBP
  1645 00000FEE E9 0000196D                     	JMP	_cmd_start
  1646 00000FF3                                 L288:
  1647 00000FF3 8B 45 EC                        	MOV	EAX,DWORD [-20+EBP]
  1648 00000FF6 8B 4D E8                        	MOV	ECX,DWORD [-24+EBP]
  1649 00000FF9 89 45 10                        	MOV	DWORD [16+EBP],EAX
  1650 00000FFC 89 4D 0C                        	MOV	DWORD [12+EBP],ECX
  1651 00000FFF 89 5D 08                        	MOV	DWORD [8+EBP],EBX
  1652 00001002 8D 65 F4                        	LEA	ESP,DWORD [-12+EBP]
  1653 00001005 5B                              	POP	EBX
  1654 00001006 5E                              	POP	ESI
  1655 00001007 5F                              	POP	EDI
  1656 00001008 5D                              	POP	EBP
  1657 00001009 E9 000019DC                     	JMP	_cmd_ncst
  1658 0000100E                                 L287:
  1659 0000100E 8B 45 EC                        	MOV	EAX,DWORD [-20+EBP]
  1660 00001011 89 5D 08                        	MOV	DWORD [8+EBP],EBX
  1661 00001014 89 45 0C                        	MOV	DWORD [12+EBP],EAX
  1662 00001017 8D 65 F4                        	LEA	ESP,DWORD [-12+EBP]
  1663 0000101A 5B                              	POP	EBX
  1664 0000101B 5E                              	POP	ESI
  1665 0000101C 5F                              	POP	EDI
  1666 0000101D 5D                              	POP	EBP
  1667 0000101E E9 00001030                     	JMP	_cmd_memmap
  1668 00001023                                 L286:
  1669 00001023 8B 45 E8                        	MOV	EAX,DWORD [-24+EBP]
  1670 00001026 89 5D 08                        	MOV	DWORD [8+EBP],EBX
  1671 00001029 89 45 0C                        	MOV	DWORD [12+EBP],EAX
  1672 0000102C 8D 65 F4                        	LEA	ESP,DWORD [-12+EBP]
  1673 0000102F 5B                              	POP	EBX
  1674 00001030 5E                              	POP	ESI
  1675 00001031 5F                              	POP	EDI
  1676 00001032 5D                              	POP	EBP
  1677 00001033 E9 00000C7A                     	JMP	_cmd_mkfile
  1678 00001038                                 L285:
  1679 00001038 8B 45 E8                        	MOV	EAX,DWORD [-24+EBP]
  1680 0000103B 89 5D 08                        	MOV	DWORD [8+EBP],EBX
  1681 0000103E 89 45 0C                        	MOV	DWORD [12+EBP],EAX
  1682 00001041 8D 65 F4                        	LEA	ESP,DWORD [-12+EBP]
  1683 00001044 5B                              	POP	EBX
  1684 00001045 5E                              	POP	ESI
  1685 00001046 5F                              	POP	EDI
  1686 00001047 5D                              	POP	EBP
  1687 00001048 E9 00000A79                     	JMP	_cmd_mkdir
  1688 0000104D                                 L284:
  1689 0000104D 89 5D 08                        	MOV	DWORD [8+EBP],EBX
  1690 00001050 8D 65 F4                        	LEA	ESP,DWORD [-12+EBP]
  1691 00001053 5B                              	POP	EBX
  1692 00001054 5E                              	POP	ESI
  1693 00001055 5F                              	POP	EDI
  1694 00001056 5D                              	POP	EBP
  1695 00001057 E9 0000150E                     	JMP	_cmd_mkfs
  1696 0000105C                                 L283:
  1697 0000105C 8B 45 EC                        	MOV	EAX,DWORD [-20+EBP]
  1698 0000105F 89 5D 08                        	MOV	DWORD [8+EBP],EBX
  1699 00001062 89 45 0C                        	MOV	DWORD [12+EBP],EAX
  1700 00001065 8D 65 F4                        	LEA	ESP,DWORD [-12+EBP]
  1701 00001068 5B                              	POP	EBX
  1702 00001069 5E                              	POP	ESI
  1703 0000106A 5F                              	POP	EDI
  1704 0000106B 5D                              	POP	EBP
  1705 0000106C E9 00000F3D                     	JMP	_cmd_mem
  1706 00001071                                 L282:
  1707 00001071 89 5D 08                        	MOV	DWORD [8+EBP],EBX
  1708 00001074 8D 65 F4                        	LEA	ESP,DWORD [-12+EBP]
  1709 00001077 5B                              	POP	EBX
  1710 00001078 5E                              	POP	ESI
  1711 00001079 5F                              	POP	EDI
  1712 0000107A 5D                              	POP	EBP
  1713 0000107B E9 00001164                     	JMP	_cmd_logcls
  1714 00001080                                 L281:
  1715 00001080 89 5D 08                        	MOV	DWORD [8+EBP],EBX
  1716 00001083 8D 65 F4                        	LEA	ESP,DWORD [-12+EBP]
  1717 00001086 5B                              	POP	EBX
  1718 00001087 5E                              	POP	ESI
  1719 00001088 5F                              	POP	EDI
  1720 00001089 5D                              	POP	EBP
  1721 0000108A E9 00001005                     	JMP	_cmd_log
  1722 0000108F                                 L280:
  1723 0000108F 8B 45 E8                        	MOV	EAX,DWORD [-24+EBP]
  1724 00001092 89 5D 08                        	MOV	DWORD [8+EBP],EBX
  1725 00001095 89 45 0C                        	MOV	DWORD [12+EBP],EAX
  1726 00001098 8D 65 F4                        	LEA	ESP,DWORD [-12+EBP]
  1727 0000109B 5B                              	POP	EBX
  1728 0000109C 5E                              	POP	ESI
  1729 0000109D 5F                              	POP	EDI
  1730 0000109E 5D                              	POP	EBP
  1731 0000109F E9 00001A23                     	JMP	_cmd_langmode
  1732 000010A4                                 L279:
  1733 000010A4 8B 45 E8                        	MOV	EAX,DWORD [-24+EBP]
  1734 000010A7 89 5D 08                        	MOV	DWORD [8+EBP],EBX
  1735 000010AA 89 45 0C                        	MOV	DWORD [12+EBP],EAX
  1736 000010AD 8D 65 F4                        	LEA	ESP,DWORD [-12+EBP]
  1737 000010B0 5B                              	POP	EBX
  1738 000010B1 5E                              	POP	ESI
  1739 000010B2 5F                              	POP	EDI
  1740 000010B3 5D                              	POP	EBP
  1741 000010B4 E9 00001356                     	JMP	_cmd_fview
  1742 000010B9                                 L278:
  1743 000010B9 89 5D 08                        	MOV	DWORD [8+EBP],EBX
  1744 000010BC 8D 65 F4                        	LEA	ESP,DWORD [-12+EBP]
  1745 000010BF 5B                              	POP	EBX
  1746 000010C0 5E                              	POP	ESI
  1747 000010C1 5F                              	POP	EDI
  1748 000010C2 5D                              	POP	EBP
  1749 000010C3 E9 0000174C                     	JMP	_cmd_fddir
  1750 000010C8                                 L277:
  1751 000010C8 8B 45 E8                        	MOV	EAX,DWORD [-24+EBP]
  1752 000010CB 89 5D 08                        	MOV	DWORD [8+EBP],EBX
  1753 000010CE 89 45 0C                        	MOV	DWORD [12+EBP],EAX
  1754 000010D1 8D 65 F4                        	LEA	ESP,DWORD [-12+EBP]
  1755 000010D4 5B                              	POP	EBX
  1756 000010D5 5E                              	POP	ESI
  1757 000010D6 5F                              	POP	EDI
  1758 000010D7 5D                              	POP	EBP
  1759 000010D8 E9 00000418                     	JMP	_cmd_edit
  1760 000010DD                                 L276:
  1761 000010DD 8B 45 F0                        	MOV	EAX,DWORD [-16+EBP]
  1762 000010E0 89 5D 08                        	MOV	DWORD [8+EBP],EBX
  1763 000010E3 89 45 0C                        	MOV	DWORD [12+EBP],EAX
  1764 000010E6 8D 65 F4                        	LEA	ESP,DWORD [-12+EBP]
  1765 000010E9 5B                              	POP	EBX
  1766 000010EA 5E                              	POP	ESI
  1767 000010EB 5F                              	POP	EDI
  1768 000010EC 5D                              	POP	EBP
  1769 000010ED E9 000017D6                     	JMP	_cmd_exit
  1770 000010F2                                 L275:
  1771 000010F2 89 5D 08                        	MOV	DWORD [8+EBP],EBX
  1772 000010F5 8D 65 F4                        	LEA	ESP,DWORD [-12+EBP]
  1773 000010F8 5B                              	POP	EBX
  1774 000010F9 5E                              	POP	ESI
  1775 000010FA 5F                              	POP	EDI
  1776 000010FB 5D                              	POP	EBP
  1777 000010FC E9 000015FA                     	JMP	_cmd_dir
  1778 00001101                                 L274:
  1779 00001101 89 5D 08                        	MOV	DWORD [8+EBP],EBX
  1780 00001104 8D 65 F4                        	LEA	ESP,DWORD [-12+EBP]
  1781 00001107 5B                              	POP	EBX
  1782 00001108 5E                              	POP	ESI
  1783 00001109 5F                              	POP	EDI
  1784 0000110A 5D                              	POP	EBP
  1785 0000110B E9 00001051                     	JMP	_cmd_cls
  1786 00001110                                 L273:
  1787 00001110 8B 45 E8                        	MOV	EAX,DWORD [-24+EBP]
  1788 00001113 89 5D 08                        	MOV	DWORD [8+EBP],EBX
  1789 00001116 89 45 0C                        	MOV	DWORD [12+EBP],EAX
  1790 00001119 8D 65 F4                        	LEA	ESP,DWORD [-12+EBP]
  1791 0000111C 5B                              	POP	EBX
  1792 0000111D 5E                              	POP	ESI
  1793 0000111E 5F                              	POP	EDI
  1794 0000111F 5D                              	POP	EBP
  1795 00001120 EB 1B                           	JMP	_cmd_cd
  1796 00001122                                 L272:
  1797 00001122 8B 45 E8                        	MOV	EAX,DWORD [-24+EBP]
  1798 00001125 8B 4D F0                        	MOV	ECX,DWORD [-16+EBP]
  1799 00001128 89 45 10                        	MOV	DWORD [16+EBP],EAX
  1800 0000112B 89 4D 0C                        	MOV	DWORD [12+EBP],ECX
  1801 0000112E 89 5D 08                        	MOV	DWORD [8+EBP],EBX
  1802 00001131 8D 65 F4                        	LEA	ESP,DWORD [-12+EBP]
  1803 00001134 5B                              	POP	EBX
  1804 00001135 5E                              	POP	ESI
  1805 00001136 5F                              	POP	EDI
  1806 00001137 5D                              	POP	EBP
  1807 00001138 E9 00000F88                     	JMP	_cmd_cat
  1808 0000113D                                 	GLOBAL	_cmd_cd
  1809 0000113D                                 _cmd_cd:
  1810 0000113D 55                              	PUSH	EBP
  1811 0000113E 89 E5                           	MOV	EBP,ESP
  1812 00001140 53                              	PUSH	EBX
  1813 00001141 8B 45 0C                        	MOV	EAX,DWORD [12+EBP]
  1814 00001144 8B 5D 08                        	MOV	EBX,DWORD [8+EBP]
  1815 00001147 83 C0 03                        	ADD	EAX,3
  1816 0000114A 50                              	PUSH	EAX
  1817 0000114B 53                              	PUSH	EBX
  1818 0000114C E8 00000071                     	CALL	_parse_cdline
  1819 00001151 59                              	POP	ECX
  1820 00001152 5A                              	POP	EDX
  1821 00001153 85 C0                           	TEST	EAX,EAX
  1822 00001155 74 03                           	JE	L304
  1823 00001157 89 43 14                        	MOV	DWORD [20+EBX],EAX
  1824 0000115A                                 L304:
  1825 0000115A 8B 5D FC                        	MOV	EBX,DWORD [-4+EBP]
  1826 0000115D C9                              	LEAVE
  1827 0000115E C3                              	RET
  1828 0000115F                                 	GLOBAL	_get_dirname
  1829 0000115F                                 _get_dirname:
  1830 0000115F 55                              	PUSH	EBP
  1831 00001160 A1 [00002604]                   	MOV	EAX,DWORD [_cp]
  1832 00001165 89 E5                           	MOV	EBP,ESP
  1833 00001167 31 C9                           	XOR	ECX,ECX
  1834 00001169 56                              	PUSH	ESI
  1835 0000116A 53                              	PUSH	EBX
  1836 0000116B 8B 75 08                        	MOV	ESI,DWORD [8+EBP]
  1837 0000116E 8B 5D 0C                        	MOV	EBX,DWORD [12+EBP]
  1838 00001171 8A 14 18                        	MOV	DL,BYTE [EAX+EBX*1]
  1839 00001174 8D 42 BF                        	LEA	EAX,DWORD [-65+EDX]
  1840 00001177 3C 19                           	CMP	AL,25
  1841 00001179 77 37                           	JA	L313
  1842 0000117B                                 L310:
  1843 0000117B A1 [00002604]                   	MOV	EAX,DWORD [_cp]
  1844 00001180 8A 04 18                        	MOV	AL,BYTE [EAX+EBX*1]
  1845 00001183 88 04 31                        	MOV	BYTE [ECX+ESI*1],AL
  1846 00001186 41                              	INC	ECX
  1847 00001187 A1 [00002604]                   	MOV	EAX,DWORD [_cp]
  1848 0000118C 40                              	INC	EAX
  1849 0000118D A3 [00002604]                   	MOV	DWORD [_cp],EAX
  1850 00001192 8A 14 18                        	MOV	DL,BYTE [EAX+EBX*1]
  1851 00001195 8D 42 BF                        	LEA	EAX,DWORD [-65+EDX]
  1852 00001198 3C 19                           	CMP	AL,25
  1853 0000119A 76 DF                           	JBE	L310
  1854 0000119C 8D 42 9F                        	LEA	EAX,DWORD [-97+EDX]
  1855 0000119F 3C 19                           	CMP	AL,25
  1856 000011A1 76 D8                           	JBE	L310
  1857 000011A3 8D 42 D0                        	LEA	EAX,DWORD [-48+EDX]
  1858 000011A6 3C 09                           	CMP	AL,9
  1859 000011A8 76 D1                           	JBE	L310
  1860 000011AA                                 L312:
  1861 000011AA C6 04 31 00                     	MOV	BYTE [ECX+ESI*1],0
  1862 000011AE 5B                              	POP	EBX
  1863 000011AF 5E                              	POP	ESI
  1864 000011B0 5D                              	POP	EBP
  1865 000011B1 C3                              	RET
  1866 000011B2                                 L313:
  1867 000011B2 8D 42 9F                        	LEA	EAX,DWORD [-97+EDX]
  1868 000011B5 3C 19                           	CMP	AL,25
  1869 000011B7 76 C2                           	JBE	L310
  1870 000011B9 8D 42 D0                        	LEA	EAX,DWORD [-48+EDX]
  1871 000011BC 3C 09                           	CMP	AL,9
  1872 000011BE 76 BB                           	JBE	L310
  1873 000011C0 EB E8                           	JMP	L312
  1874                                          [SECTION .data]
  1875 0000010B                                 LC43:
  1876 0000010B 2A 2A 2A 2A 2A 49 4E 20 46 55   	DB	"*****IN FUNC: parse_cdline()*****",0x0A,0x00
       00000115 4E 43 3A 20 70 61 72 73 65 5F 
       0000011F 63 64 6C 69 6E 65 28 29 2A 2A 
       00000129 2A 2A 2A 0A 00 
  1877 0000012E                                 LC44:
  1878 0000012E 4E 2F 41 00                     	DB	"N/A",0x00
  1879 00000132                                 LC54:
  1880 00000132 5B 25 64 5D 63 68 61 6E 67 65   	DB	"[%d]change directory: %s -> %s",0x0A,0x00
       0000013C 20 64 69 72 65 63 74 6F 72 79 
       00000146 3A 20 25 73 20 2D 3E 20 25 73 
       00000150 0A 00 
  1881 00000152                                 LC55:
  1882 00000152 5B 52 45 53 55 4C 54 5D 64 65   	DB	"[RESULT]destination: %s -> %s",0x0A,0x00
       0000015C 73 74 69 6E 61 74 69 6F 6E 3A 
       00000166 20 25 73 20 2D 3E 20 25 73 0A 
       00000170 00 
  1883 00000171                                 LC51:
  1884 00000171 2A 2A 2A 2A 2A 2A 2A 2A 2A 2A   	DB	"*********************************",0x0A,0x00
       0000017B 2A 2A 2A 2A 2A 2A 2A 2A 2A 2A 
       00000185 2A 2A 2A 2A 2A 2A 2A 2A 2A 2A 
       0000018F 2A 2A 2A 0A 00 
  1885 00000194                                 LC53:
  1886 00000194 43 61 6E 27 74 20 66 69 6E 64   	DB	"Can't find this directory.",0x0A,0x00
       0000019E 20 74 68 69 73 20 64 69 72 65 
       000001A8 63 74 6F 72 79 2E 0A 00 
  1887 000001B0                                 LC45:
  1888 000001B0 66 69 6C 65 6E 61 6D 65 20 68   	DB	"filename has found.",0x0A,0x00
       000001BA 61 73 20 66 6F 75 6E 64 2E 0A 
       000001C4 00 
  1889 000001C5                                 LC46:
  1890 000001C5 63 68 61 6E 67 65 20 64 69 72   	DB	"change directory using relative path",0x0A,0x00
       000001CF 65 63 74 6F 72 79 20 75 73 69 
       000001D9 6E 67 20 72 65 6C 61 74 69 76 
       000001E3 65 20 70 61 74 68 0A 00 
  1891 000001EB                                 LC49:
  1892 000001EB 22 2E 2E 22 20 68 61 73 20 66   	DB	0x22,"..",0x22," has found.",0x0A,0x00
       000001F5 6F 75 6E 64 2E 0A 00 
  1893 000001FC                                 LC50:
  1894 000001FC 43 61 6E 27 74 20 6D 6F 76 65   	DB	"Can't move because here is ROOT directory.",0x0A,0x00
       00000206 20 62 65 63 61 75 73 65 20 68 
       00000210 65 72 65 20 69 73 20 52 4F 4F 
       0000021A 54 20 64 69 72 65 63 74 6F 72 
       00000224 79 2E 0A 00 
  1895 00000228                                 LC52:
  1896 00000228 49 6E 63 6F 72 72 65 63 74 20   	DB	"Incorrect initial character.",0x0A,0x00
       00000232 69 6E 69 74 69 61 6C 20 63 68 
       0000023C 61 72 61 63 74 65 72 2E 0A 00 
  1897 00000246                                 LC47:
  1898 00000246 27 2F 27 20 68 61 73 20 66 6F   	DB	"'/' has found.",0x0A,0x00
       00000250 75 6E 64 2E 0A 00 
  1899 00000256                                 LC48:
  1900 00000256 63 68 61 6E 67 65 20 64 69 72   	DB	"change directory using absolute path",0x0A,0x00
       00000260 65 63 74 6F 72 79 20 75 73 69 
       0000026A 6E 67 20 61 62 73 6F 6C 75 74 
       00000274 65 20 70 61 74 68 0A 00 
  1901                                          [SECTION .text]
  1902 000011C2                                 	GLOBAL	_parse_cdline
  1903 000011C2                                 _parse_cdline:
  1904 000011C2 55                              	PUSH	EBP
  1905 000011C3 89 E5                           	MOV	EBP,ESP
  1906 000011C5 57                              	PUSH	EDI
  1907 000011C6 56                              	PUSH	ESI
  1908 000011C7 31 FF                           	XOR	EDI,EDI
  1909 000011C9 53                              	PUSH	EBX
  1910 000011CA 81 EC 0000015C                  	SUB	ESP,348
  1911 000011D0 8B 75 0C                        	MOV	ESI,DWORD [12+EBP]
  1912 000011D3 68 [0000010B]                   	PUSH	LC43
  1913 000011D8 C7 85 FFFFFE98 00000000         	MOV	DWORD [-360+EBP],0
  1914 000011E2 E8 FFFFEE19                     	CALL	_debug_print
  1915 000011E7 8D 85 FFFFFF14                  	LEA	EAX,DWORD [-236+EBP]
  1916 000011ED 68 [0000012E]                   	PUSH	LC44
  1917 000011F2 50                              	PUSH	EAX
  1918 000011F3 C7 05 [00002604] 00000000       	MOV	DWORD [_cp],0
  1919 000011FD E8 [00000000]                   	CALL	_sprintf
  1920 00001202 A1 [00002604]                   	MOV	EAX,DWORD [_cp]
  1921 00001207 83 C4 0C                        	ADD	ESP,12
  1922 0000120A 80 3C 30 00                     	CMP	BYTE [EAX+ESI*1],0
  1923 0000120E 0F 84 00000091                  	JE	L339
  1924 00001214                                 L337:
  1925 00001214 83 3D [00002604] 00             	CMP	DWORD [_cp],0
  1926 0000121B 0F 85 0000021D                  	JNE	L341
  1927 00001221                                 L318:
  1928 00001221 8B 0D [00002604]                	MOV	ECX,DWORD [_cp]
  1929 00001227 8A 14 31                        	MOV	DL,BYTE [ECX+ESI*1]
  1930 0000122A 8D 42 BF                        	LEA	EAX,DWORD [-65+EDX]
  1931 0000122D 3C 19                           	CMP	AL,25
  1932 0000122F 76 12                           	JBE	L320
  1933 00001231 8D 42 9F                        	LEA	EAX,DWORD [-97+EDX]
  1934 00001234 3C 19                           	CMP	AL,25
  1935 00001236 76 0B                           	JBE	L320
  1936 00001238 8D 42 D0                        	LEA	EAX,DWORD [-48+EDX]
  1937 0000123B 3C 09                           	CMP	AL,9
  1938 0000123D 0F 87 0000013F                  	JA	L319
  1939 00001243                                 L320:
  1940 00001243 85 C9                           	TEST	ECX,ECX
  1941 00001245 0F 84 000000FE                  	JE	L342
  1942 0000124B                                 L322:
  1943 0000124B A1 [00002604]                   	MOV	EAX,DWORD [_cp]
  1944 00001250 8A 14 30                        	MOV	DL,BYTE [EAX+ESI*1]
  1945 00001253 80 FA 2E                        	CMP	DL,46
  1946 00001256 0F 84 000000DD                  	JE	L343
  1947 0000125C                                 L333:
  1948 0000125C 84 D2                           	TEST	DL,DL
  1949 0000125E 0F 85 00000095                  	JNE	L344
  1950 00001264                                 L329:
  1951 00001264 57                              	PUSH	EDI
  1952 00001265 8D 9D FFFFFEA4                  	LEA	EBX,DWORD [-348+EBP]
  1953 0000126B 53                              	PUSH	EBX
  1954 0000126C E8 FFFFF857                     	CALL	_get_pathname
  1955 00001271 8D 85 FFFFFF14                  	LEA	EAX,DWORD [-236+EBP]
  1956 00001277 53                              	PUSH	EBX
  1957 00001278 8D 5D 84                        	LEA	EBX,DWORD [-124+EBP]
  1958 0000127B 50                              	PUSH	EAX
  1959 0000127C FF B5 FFFFFE98                  	PUSH	DWORD [-360+EBP]
  1960 00001282 68 [00000132]                   	PUSH	LC54
  1961 00001287 53                              	PUSH	EBX
  1962 00001288 E8 [00000000]                   	CALL	_sprintf
  1963 0000128D 53                              	PUSH	EBX
  1964 0000128E E8 FFFFED6D                     	CALL	_debug_print
  1965 00001293 A1 [00002604]                   	MOV	EAX,DWORD [_cp]
  1966 00001298 83 C4 20                        	ADD	ESP,32
  1967 0000129B 80 3C 30 00                     	CMP	BYTE [EAX+ESI*1],0
  1968 0000129F 0F 85 FFFFFF6F                  	JNE	L337
  1969 000012A5                                 L339:
  1970 000012A5 8B 45 08                        	MOV	EAX,DWORD [8+EBP]
  1971 000012A8 8D 9D FFFFFF14                  	LEA	EBX,DWORD [-236+EBP]
  1972 000012AE 8D B5 FFFFFEA4                  	LEA	ESI,DWORD [-348+EBP]
  1973 000012B4 FF 70 14                        	PUSH	DWORD [20+EAX]
  1974 000012B7 53                              	PUSH	EBX
  1975 000012B8 E8 FFFFF80B                     	CALL	_get_pathname
  1976 000012BD 57                              	PUSH	EDI
  1977 000012BE 56                              	PUSH	ESI
  1978 000012BF E8 FFFFF804                     	CALL	_get_pathname
  1979 000012C4 56                              	PUSH	ESI
  1980 000012C5 53                              	PUSH	EBX
  1981 000012C6 8D 5D 84                        	LEA	EBX,DWORD [-124+EBP]
  1982 000012C9 68 [00000152]                   	PUSH	LC55
  1983 000012CE 53                              	PUSH	EBX
  1984 000012CF E8 [00000000]                   	CALL	_sprintf
  1985 000012D4 83 C4 20                        	ADD	ESP,32
  1986 000012D7 53                              	PUSH	EBX
  1987 000012D8 E8 FFFFED23                     	CALL	_debug_print
  1988 000012DD 68 [00000171]                   	PUSH	LC51
  1989 000012E2 E8 FFFFED19                     	CALL	_debug_print
  1990 000012E7 FF 75 08                        	PUSH	DWORD [8+EBP]
  1991 000012EA E8 FFFFF5E6                     	CALL	_cons_newline
  1992 000012EF 89 F8                           	MOV	EAX,EDI
  1993 000012F1                                 L314:
  1994 000012F1 8D 65 F4                        	LEA	ESP,DWORD [-12+EBP]
  1995 000012F4 5B                              	POP	EBX
  1996 000012F5 5E                              	POP	ESI
  1997 000012F6 5F                              	POP	EDI
  1998 000012F7 5D                              	POP	EBP
  1999 000012F8 C3                              	RET
  2000 000012F9                                 L344:
  2001 000012F9 56                              	PUSH	ESI
  2002 000012FA 8D 9D FFFFFE9C                  	LEA	EBX,DWORD [-356+EBP]
  2003 00001300 53                              	PUSH	EBX
  2004 00001301 E8 FFFFFE59                     	CALL	_get_dirname
  2005 00001306 6A 32                           	PUSH	50
  2006 00001308 57                              	PUSH	EDI
  2007 00001309 53                              	PUSH	EBX
  2008 0000130A E8 [00000000]                   	CALL	_myfinfo_search
  2009 0000130F 83 C4 14                        	ADD	ESP,20
  2010 00001312 85 C0                           	TEST	EAX,EAX
  2011 00001314 74 08                           	JE	L345
  2012 00001316 8B 78 20                        	MOV	EDI,DWORD [32+EAX]
  2013 00001319 E9 FFFFFF46                     	JMP	L329
  2014 0000131E                                 L345:
  2015 0000131E 68 [00000194]                   	PUSH	LC53
  2016 00001323                                 L340:
  2017 00001323 FF 75 08                        	PUSH	DWORD [8+EBP]
  2018 00001326 E8 0000012D                     	CALL	_cd_error
  2019 0000132B 68 [00000171]                   	PUSH	LC51
  2020 00001330 E8 FFFFECCB                     	CALL	_debug_print
  2021 00001335 31 C0                           	XOR	EAX,EAX
  2022 00001337 EB B8                           	JMP	L314
  2023 00001339                                 L343:
  2024 00001339 80 7C 30 01 2E                  	CMP	BYTE [1+EAX+ESI*1],46
  2025 0000133E 0F 85 FFFFFF18                  	JNE	L333
  2026 00001344 E9 FFFFFF1B                     	JMP	L329
  2027 00001349                                 L342:
  2028 00001349 68 [000001B0]                   	PUSH	LC45
  2029 0000134E 8D 5D 84                        	LEA	EBX,DWORD [-124+EBP]
  2030 00001351 E8 FFFFECAA                     	CALL	_debug_print
  2031 00001356 68 [000001C5]                   	PUSH	LC46
  2032 0000135B 53                              	PUSH	EBX
  2033 0000135C E8 [00000000]                   	CALL	_sprintf
  2034 00001361 53                              	PUSH	EBX
  2035 00001362 E8 FFFFEC99                     	CALL	_debug_print
  2036 00001367 8B 45 08                        	MOV	EAX,DWORD [8+EBP]
  2037 0000136A 8B 78 14                        	MOV	EDI,DWORD [20+EAX]
  2038 0000136D 8D 85 FFFFFF14                  	LEA	EAX,DWORD [-236+EBP]
  2039 00001373 57                              	PUSH	EDI
  2040 00001374 50                              	PUSH	EAX
  2041 00001375 E8 FFFFF74E                     	CALL	_get_pathname
  2042 0000137A 83 C4 18                        	ADD	ESP,24
  2043 0000137D E9 FFFFFEC9                     	JMP	L322
  2044 00001382                                 L319:
  2045 00001382 80 FA 2F                        	CMP	DL,47
  2046 00001385 74 79                           	JE	L346
  2047 00001387 80 FA 2E                        	CMP	DL,46
  2048 0000138A 75 6A                           	JNE	L326
  2049 0000138C 80 7C 31 01 2E                  	CMP	BYTE [1+ECX+ESI*1],46
  2050 00001391 75 63                           	JNE	L326
  2051 00001393 68 [000001EB]                   	PUSH	LC49
  2052 00001398 E8 FFFFEC63                     	CALL	_debug_print
  2053 0000139D 59                              	POP	ECX
  2054 0000139E A1 [00002604]                   	MOV	EAX,DWORD [_cp]
  2055 000013A3 83 C0 02                        	ADD	EAX,2
  2056 000013A6 A3 [00002604]                   	MOV	DWORD [_cp],EAX
  2057 000013AB 83 F8 02                        	CMP	EAX,2
  2058 000013AE 74 1A                           	JE	L347
  2059 000013B0                                 L327:
  2060 000013B0 8B 87 000007D8                  	MOV	EAX,DWORD [2008+EDI]
  2061 000013B6 89 C7                           	MOV	EDI,EAX
  2062 000013B8 85 C0                           	TEST	EAX,EAX
  2063 000013BA 0F 85 FFFFFEA4                  	JNE	L329
  2064 000013C0 68 [000001FC]                   	PUSH	LC50
  2065 000013C5 E9 FFFFFF59                     	JMP	L340
  2066 000013CA                                 L347:
  2067 000013CA 68 [000001C5]                   	PUSH	LC46
  2068 000013CF 8D 5D 84                        	LEA	EBX,DWORD [-124+EBP]
  2069 000013D2 53                              	PUSH	EBX
  2070 000013D3 E8 [00000000]                   	CALL	_sprintf
  2071 000013D8 53                              	PUSH	EBX
  2072 000013D9 E8 FFFFEC22                     	CALL	_debug_print
  2073 000013DE 8B 45 08                        	MOV	EAX,DWORD [8+EBP]
  2074 000013E1 8B 78 14                        	MOV	EDI,DWORD [20+EAX]
  2075 000013E4 8D 85 FFFFFF14                  	LEA	EAX,DWORD [-236+EBP]
  2076 000013EA 57                              	PUSH	EDI
  2077 000013EB 50                              	PUSH	EAX
  2078 000013EC E8 FFFFF6D7                     	CALL	_get_pathname
  2079 000013F1 83 C4 14                        	ADD	ESP,20
  2080 000013F4 EB BA                           	JMP	L327
  2081 000013F6                                 L326:
  2082 000013F6 68 [00000228]                   	PUSH	LC52
  2083 000013FB E9 FFFFFF23                     	JMP	L340
  2084 00001400                                 L346:
  2085 00001400 68 [00000246]                   	PUSH	LC47
  2086 00001405 E8 FFFFEBF6                     	CALL	_debug_print
  2087 0000140A 5B                              	POP	EBX
  2088 0000140B A1 [00002604]                   	MOV	EAX,DWORD [_cp]
  2089 00001410 40                              	INC	EAX
  2090 00001411 A3 [00002604]                   	MOV	DWORD [_cp],EAX
  2091 00001416 48                              	DEC	EAX
  2092 00001417 0F 85 FFFFFE2E                  	JNE	L322
  2093 0000141D 68 [00000256]                   	PUSH	LC48
  2094 00001422 8D 5D 84                        	LEA	EBX,DWORD [-124+EBP]
  2095 00001425 53                              	PUSH	EBX
  2096 00001426 BF 00400000                     	MOV	EDI,4194304
  2097 0000142B E8 [00000000]                   	CALL	_sprintf
  2098 00001430 53                              	PUSH	EBX
  2099 00001431 E8 FFFFEBCA                     	CALL	_debug_print
  2100 00001436 83 C4 0C                        	ADD	ESP,12
  2101 00001439 E9 FFFFFE0D                     	JMP	L322
  2102 0000143E                                 L341:
  2103 0000143E 57                              	PUSH	EDI
  2104 0000143F 8D 85 FFFFFF14                  	LEA	EAX,DWORD [-236+EBP]
  2105 00001445 50                              	PUSH	EAX
  2106 00001446 E8 FFFFF67D                     	CALL	_get_pathname
  2107 0000144B 58                              	POP	EAX
  2108 0000144C 5A                              	POP	EDX
  2109 0000144D FF 85 FFFFFE98                  	INC	DWORD [-360+EBP]
  2110 00001453 E9 FFFFFDC9                     	JMP	L318
  2111 00001458                                 	GLOBAL	_cd_error
  2112 00001458                                 _cd_error:
  2113 00001458 55                              	PUSH	EBP
  2114 00001459 89 E5                           	MOV	EBP,ESP
  2115 0000145B 57                              	PUSH	EDI
  2116 0000145C 56                              	PUSH	ESI
  2117 0000145D 53                              	PUSH	EBX
  2118 0000145E 8D 45 B4                        	LEA	EAX,DWORD [-76+EBP]
  2119 00001461 83 EC 40                        	SUB	ESP,64
  2120 00001464 31 DB                           	XOR	EBX,EBX
  2121 00001466 8B 7D 08                        	MOV	EDI,DWORD [8+EBP]
  2122 00001469 FF 77 14                        	PUSH	DWORD [20+EDI]
  2123 0000146C 50                              	PUSH	EAX
  2124 0000146D E8 FFFFF656                     	CALL	_get_pathname
  2125 00001472 59                              	POP	ECX
  2126 00001473 5E                              	POP	ESI
  2127 00001474 80 7D B4 00                     	CMP	BYTE [-76+EBP],0
  2128 00001478 74 0D                           	JE	L368
  2129 0000147A                                 L353:
  2130 0000147A C6 44 1D B4 20                  	MOV	BYTE [-76+EBP+EBX*1],32
  2131 0000147F 43                              	INC	EBX
  2132 00001480 80 7C 1D B4 00                  	CMP	BYTE [-76+EBP+EBX*1],0
  2133 00001485 75 F3                           	JNE	L353
  2134 00001487                                 L368:
  2135 00001487 31 D2                           	XOR	EDX,EDX
  2136 00001489                                 L358:
  2137 00001489 8D 4D F4                        	LEA	ECX,DWORD [-12+EBP]
  2138 0000148C 8D 04 19                        	LEA	EAX,DWORD [ECX+EBX*1]
  2139 0000148F C6 44 02 C0 20                  	MOV	BYTE [-64+EDX+EAX*1],32
  2140 00001494 42                              	INC	EDX
  2141 00001495 83 FA 02                        	CMP	EDX,2
  2142 00001498 7E EF                           	JLE	L358
  2143 0000149A BA 00000003                     	MOV	EDX,3
  2144 0000149F 31 C9                           	XOR	ECX,ECX
  2145 000014A1 8B 35 [00002604]                	MOV	ESI,DWORD [_cp]
  2146 000014A7                                 L365:
  2147 000014A7 39 F1                           	CMP	ECX,ESI
  2148 000014A9 7D 33                           	JGE	L372
  2149 000014AB 8D 45 F4                        	LEA	EAX,DWORD [-12+EBP]
  2150 000014AE 01 D0                           	ADD	EAX,EDX
  2151 000014B0 01 C8                           	ADD	EAX,ECX
  2152 000014B2 41                              	INC	ECX
  2153 000014B3 83 F9 31                        	CMP	ECX,49
  2154 000014B6 C6 44 03 C0 20                  	MOV	BYTE [-64+EBX+EAX*1],32
  2155 000014BB 7E EA                           	JLE	L365
  2156 000014BD                                 L360:
  2157 000014BD 8D 45 B4                        	LEA	EAX,DWORD [-76+EBP]
  2158 000014C0 50                              	PUSH	EAX
  2159 000014C1 57                              	PUSH	EDI
  2160 000014C2 E8 FFFFF533                     	CALL	_cons_putstr
  2161 000014C7 FF 75 0C                        	PUSH	DWORD [12+EBP]
  2162 000014CA 57                              	PUSH	EDI
  2163 000014CB E8 FFFFF52A                     	CALL	_cons_putstr
  2164 000014D0 57                              	PUSH	EDI
  2165 000014D1 E8 FFFFF3FF                     	CALL	_cons_newline
  2166 000014D6 8D 65 F4                        	LEA	ESP,DWORD [-12+EBP]
  2167 000014D9 5B                              	POP	EBX
  2168 000014DA 5E                              	POP	ESI
  2169 000014DB 5F                              	POP	EDI
  2170 000014DC 5D                              	POP	EBP
  2171 000014DD C3                              	RET
  2172 000014DE                                 L372:
  2173 000014DE 8D 45 F4                        	LEA	EAX,DWORD [-12+EBP]
  2174 000014E1 01 D0                           	ADD	EAX,EDX
  2175 000014E3 01 C8                           	ADD	EAX,ECX
  2176 000014E5 01 D8                           	ADD	EAX,EBX
  2177 000014E7 C6 40 C0 5E                     	MOV	BYTE [-64+EAX],94
  2178 000014EB C6 40 C1 0A                     	MOV	BYTE [-63+EAX],10
  2179 000014EF C6 40 C2 00                     	MOV	BYTE [-62+EAX],0
  2180 000014F3 EB C8                           	JMP	L360
  2181                                          [SECTION .data]
  2182 0000027C                                 LC76:
  2183 0000027C 43 61 6E 27 74 20 65 64 69 74   	DB	"Can't edit: There is no file being opened.",0x0A,0x00
       00000286 3A 20 54 68 65 72 65 20 69 73 
       00000290 20 6E 6F 20 66 69 6C 65 20 62 
       0000029A 65 69 6E 67 20 6F 70 65 6E 65 
       000002A4 64 2E 0A 00 
  2184 000002A8                                 LC84:
  2185 000002A8 75 6E 65 78 70 65 63 74 65 64   	DB	"unexpected error at edit mode.",0x0A,0x00
       000002B2 20 65 72 72 6F 72 20 61 74 20 
       000002BC 65 64 69 74 20 6D 6F 64 65 2E 
       000002C6 0A 00 
  2186 000002C8                                 LC85:
  2187 000002C8 65 64 69 74 20 72 65 73 75 6C   	DB	"edit result:",0x0A,"%s[EOF]",0x0A,0x00
       000002D2 74 3A 0A 25 73 5B 45 4F 46 5D 
       000002DC 0A 00 
  2188 000002DE                                 LC68:
  2189 000002DE 73 69 7A 65 3A 20 25 64 5B 62   	DB	"size: %d[byte]",0x0A,0x00
       000002E8 79 74 65 5D 0A 00 
  2190 000002EE                                 LC81:
  2191 000002EE 63 61 6E 27 74 20 6F 70 65 6E   	DB	"can't open: There is a file being opened.",0x0A,0x00
       000002F8 3A 20 54 68 65 72 65 20 69 73 
       00000302 20 61 20 66 69 6C 65 20 62 65 
       0000030C 69 6E 67 20 6F 70 65 6E 65 64 
       00000316 2E 0A 00 
  2192 00000319                                 LC83:
  2193 00000319 6F 70 65 6E 65 64 20 22 25 73   	DB	"opened ",0x22,"%s",0x22," file.",0x0A,0x00
       00000323 22 20 66 69 6C 65 2E 0A 00 
  2194 0000032C                                 LC82:
  2195 0000032C 63 61 6E 27 74 20 6F 70 65 6E   	DB	"can't open ",0x22,"%s",0x22,".",0x0A,0x00
       00000336 20 22 25 73 22 2E 0A 00 
  2196 0000033E                                 LC80:
  2197 0000033E 49 4E 53 20 4D 4F 44 45 20 52   	DB	"INS MODE RESULT: %s",0x0A,0x00
       00000348 45 53 55 4C 54 3A 20 25 73 0A 
       00000352 00 
  2198 00000353                                 LC78:
  2199 00000353 63 68 61 72 20 2A 73 20 6F 75   	DB	"char *s out of myfwrite() is shown below.",0x0A,0x00
       0000035D 74 20 6F 66 20 6D 79 66 77 72 
       00000367 69 74 65 28 29 20 69 73 20 73 
       00000371 68 6F 77 6E 20 62 65 6C 6F 77 
       0000037B 2E 0A 00 
  2200 0000037E                                 LC79:
  2201 0000037E 0A 00                           	DB	0x0A,0x00
  2202 00000380                                 LC77:
  2203 00000380 65 64 69 74 20 6C 69 6E 65 20   	DB	"edit line is too long.",0x00
       0000038A 69 73 20 74 6F 6F 20 6C 6F 6E 
       00000394 67 2E 00 
  2204 00000397                                 LC57:
  2205 00000397 6F 70 65 6E 00                  	DB	"open",0x00
  2206 0000039C                                 LC59:
  2207 0000039C 63 61 6E 27 74 20 65 64 69 74   	DB	"can't edit: There is no file being opened.",0x0A,0x00
       000003A6 3A 20 54 68 65 72 65 20 69 73 
       000003B0 20 6E 6F 20 66 69 6C 65 20 62 
       000003BA 65 69 6E 67 20 6F 70 65 6E 65 
       000003C4 64 2E 0A 00 
  2208 000003C8                                 LC61:
  2209 000003C8 69 6E 73 00                     	DB	"ins",0x00
  2210 000003CC                                 LC64:
  2211 000003CC 73 68 6F 77 00                  	DB	"show",0x00
  2212 000003D1                                 LC69:
  2213 000003D1 63 6C 6F 73 65 00               	DB	"close",0x00
  2214 000003D7                                 LC72:
  2215 000003D7 73 61 76 65 00                  	DB	"save",0x00
  2216 000003DC                                 LC75:
  2217 000003DC 69 6E 76 61 6C 69 64 20 6F 70   	DB	"invalid option.",0x0A,0x00
       000003E6 74 69 6F 6E 2E 0A 00 
  2218 000003ED                                 LC74:
  2219 000003ED 66 69 6E 69 73 68 65 64 20 73   	DB	"finished saving opened file.",0x0A,0x00
       000003F7 61 76 69 6E 67 20 6F 70 65 6E 
       00000401 65 64 20 66 69 6C 65 2E 0A 00 
  2220 0000040B                                 LC73:
  2221 0000040B 43 61 6E 27 74 20 73 61 76 65   	DB	"Can't save because of error in myfinfo_search() in myfsave()",0x0A,0x00
       00000415 20 62 65 63 61 75 73 65 20 6F 
       0000041F 66 20 65 72 72 6F 72 20 69 6E 
       00000429 20 6D 79 66 69 6E 66 6F 5F 73 
       00000433 65 61 72 63 68 28 29 20 69 6E 
       0000043D 20 6D 79 66 73 61 76 65 28 29 
       00000447 0A 00 
  2222 00000449                                 LC70:
  2223 00000449 45 44 49 54 3A 63 6C 6F 73 65   	DB	"EDIT:close mode",0x0A,0x00
       00000453 20 6D 6F 64 65 0A 00 
  2224 0000045A                                 LC71:
  2225 0000045A 6F 70 65 6E 65 64 20 66 69 6C   	DB	"opened file was closed.",0x0A,0x00
       00000464 65 20 77 61 73 20 63 6C 6F 73 
       0000046E 65 64 2E 0A 00 
  2226 00000473                                 LC65:
  2227 00000473 45 44 49 54 3A 73 68 6F 77 20   	DB	"EDIT:show mode",0x0A,0x00
       0000047D 6D 6F 64 65 0A 00 
  2228 00000483                                 LC66:
  2229 00000483 73 65 74 66 64 61 74 61 2D 3E   	DB	"setfdata->head.stat=0x%02x",0x0A,0x00
       0000048D 68 65 61 64 2E 73 74 61 74 3D 
       00000497 30 78 25 30 32 78 0A 00 
  2230 0000049F                                 LC67:
  2231 0000049F 25 73 5B 45 4F 46 5D 0A 00      	DB	"%s[EOF]",0x0A,0x00
  2232 000004A8                                 LC63:
  2233 000004A8 45 44 49 54 3A 61 64 64 20 6D   	DB	"EDIT:add mode",0x0A,0x00
       000004B2 6F 64 65 0A 00 
  2234 000004B7                                 LC62:
  2235 000004B7 45 44 49 54 3A 69 6E 73 65 72   	DB	"EDIT:insert mode",0x0A,0x00
       000004C1 74 20 6D 6F 64 65 0A 00 
  2236 000004C9                                 LC60:
  2237 000004C9 45 44 49 54 3A 63 6C 65 61 72   	DB	"EDIT:clear mode",0x0A,0x00
       000004D3 20 6D 6F 64 65 0A 00 
  2238 000004DA                                 LC58:
  2239 000004DA 45 44 49 54 3A 6F 70 65 6E 20   	DB	"EDIT:open mode",0x0A,0x00
       000004E4 6D 6F 64 65 0A 00 
  2240 000004EA                                 LC56:
  2241 000004EA 6F 70 74 69 6F 6E 20 69 73 20   	DB	"option is too long.",0x0A,0x00
       000004F4 74 6F 6F 20 6C 6F 6E 67 2E 0A 
       000004FE 00 
  2242                                          [SECTION .text]
  2243 000014F5                                 	GLOBAL	_cmd_edit
  2244 000014F5                                 _cmd_edit:
  2245 000014F5 55                              	PUSH	EBP
  2246 000014F6 89 E5                           	MOV	EBP,ESP
  2247 000014F8 57                              	PUSH	EDI
  2248 000014F9 56                              	PUSH	ESI
  2249 000014FA 53                              	PUSH	EBX
  2250 000014FB 81 EC 00000ACC                  	SUB	ESP,2764
  2251 00001501 8B 45 08                        	MOV	EAX,DWORD [8+EBP]
  2252 00001504 C6 85 FFFFF52B 00               	MOV	BYTE [-2773+EBP],0
  2253 0000150B 8B 40 14                        	MOV	EAX,DWORD [20+EAX]
  2254 0000150E 68 [00000043]                   	PUSH	LC7
  2255 00001513 89 85 FFFFF530                  	MOV	DWORD [-2768+EBP],EAX
  2256 00001519 8D 85 FFFFFB74                  	LEA	EAX,DWORD [-1164+EBP]
  2257 0000151F 50                              	PUSH	EAX
  2258 00001520 E8 [00000000]                   	CALL	_sprintf
  2259 00001525 8D 85 FFFFFB34                  	LEA	EAX,DWORD [-1228+EBP]
  2260 0000152B 68 [00000043]                   	PUSH	LC7
  2261 00001530 50                              	PUSH	EAX
  2262 00001531 E8 [00000000]                   	CALL	_sprintf
  2263 00001536 8B 55 0C                        	MOV	EDX,DWORD [12+EBP]
  2264 00001539 C7 85 FFFFF52C 00000005         	MOV	DWORD [-2772+EBP],5
  2265 00001543 83 C4 10                        	ADD	ESP,16
  2266 00001546 80 7A 05 20                     	CMP	BYTE [5+EDX],32
  2267 0000154A 0F 84 0000055C                  	JE	L377
  2268 00001550                                 L433:
  2269 00001550 8B 55 0C                        	MOV	EDX,DWORD [12+EBP]
  2270 00001553 8B 8D FFFFF52C                  	MOV	ECX,DWORD [-2772+EBP]
  2271 00001559 80 3C 11 2D                     	CMP	BYTE [ECX+EDX*1],45
  2272 0000155D 0F 84 000002B7                  	JE	L452
  2273 00001563 83 3D [00000004] 00             	CMP	DWORD [_setfdata],0
  2274 0000156A 75 33                           	JNE	L404
  2275 0000156C 80 BD FFFFF52B 08               	CMP	BYTE [-2773+EBP],8
  2276 00001573 74 2A                           	JE	L404
  2277 00001575 68 [0000027C]                   	PUSH	LC76
  2278 0000157A                                 L451:
  2279 0000157A 8D 9D FFFFFB84                  	LEA	EBX,DWORD [-1148+EBP]
  2280 00001580 53                              	PUSH	EBX
  2281 00001581 E8 [00000000]                   	CALL	_sprintf
  2282 00001586                                 L442:
  2283 00001586 53                              	PUSH	EBX
  2284 00001587 FF 75 08                        	PUSH	DWORD [8+EBP]
  2285 0000158A E8 FFFFF46B                     	CALL	_cons_putstr
  2286 0000158F FF 75 08                        	PUSH	DWORD [8+EBP]
  2287 00001592 E8 FFFFF33E                     	CALL	_cons_newline
  2288 00001597                                 L373:
  2289 00001597 8D 65 F4                        	LEA	ESP,DWORD [-12+EBP]
  2290 0000159A 5B                              	POP	EBX
  2291 0000159B 5E                              	POP	ESI
  2292 0000159C 5F                              	POP	EDI
  2293 0000159D 5D                              	POP	EBP
  2294 0000159E C3                              	RET
  2295 0000159F                                 L404:
  2296 0000159F 8B 4D 0C                        	MOV	ECX,DWORD [12+EBP]
  2297 000015A2 8B 85 FFFFF52C                  	MOV	EAX,DWORD [-2772+EBP]
  2298 000015A8 31 DB                           	XOR	EBX,EBX
  2299 000015AA 80 3C 08 00                     	CMP	BYTE [EAX+ECX*1],0
  2300 000015AE 74 2A                           	JE	L436
  2301 000015B0                                 L410:
  2302 000015B0 83 FB 2F                        	CMP	EBX,47
  2303 000015B3 0F 8F 00000257                  	JG	L440
  2304 000015B9 8B 8D FFFFF52C                  	MOV	ECX,DWORD [-2772+EBP]
  2305 000015BF 8B 55 0C                        	MOV	EDX,DWORD [12+EBP]
  2306 000015C2 8A 04 11                        	MOV	AL,BYTE [ECX+EDX*1]
  2307 000015C5 41                              	INC	ECX
  2308 000015C6 88 84 1D FFFFFB34               	MOV	BYTE [-1228+EBP+EBX*1],AL
  2309 000015CD 89 8D FFFFF52C                  	MOV	DWORD [-2772+EBP],ECX
  2310 000015D3 43                              	INC	EBX
  2311 000015D4 80 3C 11 00                     	CMP	BYTE [ECX+EDX*1],0
  2312 000015D8 75 D6                           	JNE	L410
  2313 000015DA                                 L436:
  2314 000015DA C6 84 1D FFFFFB34 00            	MOV	BYTE [-1228+EBP+EBX*1],0
  2315 000015E2 80 BD FFFFF52B 00               	CMP	BYTE [-2773+EBP],0
  2316 000015E9 0F 84 000001D4                  	JE	L412
  2317 000015EF 80 BD FFFFF52B 04               	CMP	BYTE [-2773+EBP],4
  2318 000015F6 0F 84 000001C7                  	JE	L412
  2319 000015FC 80 BD FFFFF52B 01               	CMP	BYTE [-2773+EBP],1
  2320 00001603 0F 84 0000017C                  	JE	L453
  2321 00001609 80 BD FFFFF52B 02               	CMP	BYTE [-2773+EBP],2
  2322 00001610 0F 84 000000E3                  	JE	L454
  2323 00001616 80 BD FFFFF52B 08               	CMP	BYTE [-2773+EBP],8
  2324 0000161D 74 57                           	JE	L455
  2325 0000161F 68 [000002A8]                   	PUSH	LC84
  2326 00001624 E8 FFFFE9D7                     	CALL	_debug_print
  2327 00001629 5F                              	POP	EDI
  2328 0000162A                                 L413:
  2329 0000162A FF 35 [00000004]                	PUSH	DWORD [_setfdata]
  2330 00001630 8D 9D FFFFF934                  	LEA	EBX,DWORD [-1740+EBP]
  2331 00001636 53                              	PUSH	EBX
  2332 00001637 E8 [00000000]                   	CALL	_myfread
  2333 0000163C 53                              	PUSH	EBX
  2334 0000163D 68 [000002C8]                   	PUSH	LC85
  2335 00001642 8D 9D FFFFFB84                  	LEA	EBX,DWORD [-1148+EBP]
  2336 00001648 53                              	PUSH	EBX
  2337 00001649 E8 [00000000]                   	CALL	_sprintf
  2338 0000164E 53                              	PUSH	EBX
  2339 0000164F FF 75 08                        	PUSH	DWORD [8+EBP]
  2340 00001652 E8 FFFFF3A3                     	CALL	_cons_putstr
  2341 00001657 FF 35 [00000004]                	PUSH	DWORD [_setfdata]
  2342 0000165D E8 [00000000]                   	CALL	_get_size_myfdata
  2343 00001662 83 C4 20                        	ADD	ESP,32
  2344 00001665                                 L445:
  2345 00001665 50                              	PUSH	EAX
  2346 00001666 68 [000002DE]                   	PUSH	LC68
  2347 0000166B 53                              	PUSH	EBX
  2348 0000166C E8 [00000000]                   	CALL	_sprintf
  2349 00001671 E9 FFFFFF10                     	JMP	L442
  2350 00001676                                 L455:
  2351 00001676 83 3D [00000004] 00             	CMP	DWORD [_setfdata],0
  2352 0000167D 74 0A                           	JE	L428
  2353 0000167F 68 [000002EE]                   	PUSH	LC81
  2354 00001684 E9 FFFFFEF1                     	JMP	L451
  2355 00001689                                 L428:
  2356 00001689 FF B5 FFFFF530                  	PUSH	DWORD [-2768+EBP]
  2357 0000168F 8D 9D FFFFFB34                  	LEA	EBX,DWORD [-1228+EBP]
  2358 00001695 53                              	PUSH	EBX
  2359 00001696 E8 [00000000]                   	CALL	_myfopen
  2360 0000169B 89 C6                           	MOV	ESI,EAX
  2361 0000169D 58                              	POP	EAX
  2362 0000169E 5A                              	POP	EDX
  2363 0000169F 85 F6                           	TEST	ESI,ESI
  2364 000016A1 74 31                           	JE	L456
  2365 000016A3 53                              	PUSH	EBX
  2366 000016A4 8D 9D FFFFFB84                  	LEA	EBX,DWORD [-1148+EBP]
  2367 000016AA 68 [00000319]                   	PUSH	LC83
  2368 000016AF 53                              	PUSH	EBX
  2369 000016B0 E8 [00000000]                   	CALL	_sprintf
  2370 000016B5 53                              	PUSH	EBX
  2371 000016B6 FF 75 08                        	PUSH	DWORD [8+EBP]
  2372 000016B9 E8 FFFFF33C                     	CALL	_cons_putstr
  2373 000016BE FF 75 08                        	PUSH	DWORD [8+EBP]
  2374 000016C1 E8 FFFFF20F                     	CALL	_cons_newline
  2375 000016C6 89 35 [00000004]                	MOV	DWORD [_setfdata],ESI
  2376 000016CC                                 L443:
  2377 000016CC 83 C4 18                        	ADD	ESP,24
  2378 000016CF E9 FFFFFEC3                     	JMP	L373
  2379 000016D4                                 L456:
  2380 000016D4 53                              	PUSH	EBX
  2381 000016D5 8D 9D FFFFFB84                  	LEA	EBX,DWORD [-1148+EBP]
  2382 000016DB 68 [0000032C]                   	PUSH	LC82
  2383 000016E0 53                              	PUSH	EBX
  2384 000016E1 E8 [00000000]                   	CALL	_sprintf
  2385 000016E6 53                              	PUSH	EBX
  2386 000016E7 FF 75 08                        	PUSH	DWORD [8+EBP]
  2387 000016EA E8 FFFFF30B                     	CALL	_cons_putstr
  2388 000016EF FF 75 08                        	PUSH	DWORD [8+EBP]
  2389 000016F2 E8 FFFFF1DE                     	CALL	_cons_newline
  2390 000016F7 EB D3                           	JMP	L443
  2391 000016F9                                 L454:
  2392 000016F9 FF 35 [00000004]                	PUSH	DWORD [_setfdata]
  2393 000016FF 8D 85 FFFFF534                  	LEA	EAX,DWORD [-2764+EBP]
  2394 00001705 31 F6                           	XOR	ESI,ESI
  2395 00001707 50                              	PUSH	EAX
  2396 00001708 E8 [00000000]                   	CALL	_myfread
  2397 0000170D 59                              	POP	ECX
  2398 0000170E 31 C0                           	XOR	EAX,EAX
  2399 00001710 5F                              	POP	EDI
  2400 00001711 39 D8                           	CMP	EAX,EBX
  2401 00001713 7D 18                           	JGE	L438
  2402 00001715                                 L424:
  2403 00001715 8A 94 05 FFFFFB34               	MOV	DL,BYTE [-1228+EBP+EAX*1]
  2404 0000171C 80 FA 20                        	CMP	DL,32
  2405 0000171F 74 4B                           	JE	L421
  2406 00001721 88 94 05 FFFFF534               	MOV	BYTE [-2764+EBP+EAX*1],DL
  2407 00001728                                 L419:
  2408 00001728 40                              	INC	EAX
  2409 00001729 39 D8                           	CMP	EAX,EBX
  2410 0000172B 7C E8                           	JL	L424
  2411 0000172D                                 L438:
  2412 0000172D 4E                              	DEC	ESI
  2413 0000172E 74 32                           	JE	L457
  2414 00001730                                 L425:
  2415 00001730 8D B5 FFFFF534                  	LEA	ESI,DWORD [-2764+EBP]
  2416 00001736 8D 9D FFFFFB84                  	LEA	EBX,DWORD [-1148+EBP]
  2417 0000173C 56                              	PUSH	ESI
  2418 0000173D 68 [0000033E]                   	PUSH	LC80
  2419 00001742 53                              	PUSH	EBX
  2420 00001743 E8 [00000000]                   	CALL	_sprintf
  2421 00001748 53                              	PUSH	EBX
  2422 00001749 E8 FFFFE8B2                     	CALL	_debug_print
  2423 0000174E 56                              	PUSH	ESI
  2424 0000174F FF 35 [00000004]                	PUSH	DWORD [_setfdata]
  2425 00001755 E8 [00000000]                   	CALL	_myfwrite
  2426 0000175A 83 C4 18                        	ADD	ESP,24
  2427 0000175D E9 FFFFFEC8                     	JMP	L413
  2428 00001762                                 L457:
  2429 00001762 C6 84 05 FFFFF534 00            	MOV	BYTE [-2764+EBP+EAX*1],0
  2430 0000176A EB C4                           	JMP	L425
  2431 0000176C                                 L421:
  2432 0000176C 80 BC 05 FFFFF534 00            	CMP	BYTE [-2764+EBP+EAX*1],0
  2433 00001774 75 B2                           	JNE	L419
  2434 00001776 C6 84 05 FFFFF534 20            	MOV	BYTE [-2764+EBP+EAX*1],32
  2435 0000177E BE 00000001                     	MOV	ESI,1
  2436 00001783 EB A3                           	JMP	L419
  2437 00001785                                 L453:
  2438 00001785 FF 35 [00000004]                	PUSH	DWORD [_setfdata]
  2439 0000178B 8D 9D FFFFF534                  	LEA	EBX,DWORD [-2764+EBP]
  2440 00001791 53                              	PUSH	EBX
  2441 00001792 E8 [00000000]                   	CALL	_myfread
  2442 00001797 68 [00000043]                   	PUSH	LC7
  2443 0000179C 53                              	PUSH	EBX
  2444 0000179D E8 [00000000]                   	CALL	_sprintf
  2445 000017A2 8D 85 FFFFFB34                  	LEA	EAX,DWORD [-1228+EBP]
  2446 000017A8 50                              	PUSH	EAX
  2447 000017A9 53                              	PUSH	EBX
  2448 000017AA E8 [00000000]                   	CALL	_strcat
  2449 000017AF 53                              	PUSH	EBX
  2450 000017B0 FF 35 [00000004]                	PUSH	DWORD [_setfdata]
  2451 000017B6 E8 [00000000]                   	CALL	_myfwrite
  2452 000017BB 83 C4 20                        	ADD	ESP,32
  2453 000017BE E9 FFFFFE67                     	JMP	L413
  2454 000017C3                                 L412:
  2455 000017C3 FF 35 [00000004]                	PUSH	DWORD [_setfdata]
  2456 000017C9 8D 9D FFFFFB84                  	LEA	EBX,DWORD [-1148+EBP]
  2457 000017CF 53                              	PUSH	EBX
  2458 000017D0 E8 [00000000]                   	CALL	_myfread
  2459 000017D5 8D 85 FFFFFB34                  	LEA	EAX,DWORD [-1228+EBP]
  2460 000017DB 50                              	PUSH	EAX
  2461 000017DC 53                              	PUSH	EBX
  2462 000017DD E8 [00000000]                   	CALL	_strcat
  2463 000017E2 68 [00000353]                   	PUSH	LC78
  2464 000017E7 E8 FFFFE814                     	CALL	_debug_print
  2465 000017EC 53                              	PUSH	EBX
  2466 000017ED E8 FFFFE80E                     	CALL	_debug_print
  2467 000017F2 68 [0000037E]                   	PUSH	LC79
  2468 000017F7 E8 FFFFE804                     	CALL	_debug_print
  2469 000017FC 53                              	PUSH	EBX
  2470 000017FD FF 35 [00000004]                	PUSH	DWORD [_setfdata]
  2471 00001803 E8 [00000000]                   	CALL	_myfwrite
  2472 00001808 83 C4 24                        	ADD	ESP,36
  2473 0000180B E9 FFFFFE1A                     	JMP	L413
  2474 00001810                                 L440:
  2475 00001810 68 [00000380]                   	PUSH	LC77
  2476 00001815 E9 FFFFFD60                     	JMP	L451
  2477 0000181A                                 L452:
  2478 0000181A 41                              	INC	ECX
  2479 0000181B 31 DB                           	XOR	EBX,EBX
  2480 0000181D 89 8D FFFFF52C                  	MOV	DWORD [-2772+EBP],ECX
  2481 00001823 8A 04 11                        	MOV	AL,BYTE [ECX+EDX*1]
  2482 00001826 3C 20                           	CMP	AL,32
  2483 00001828 74 33                           	JE	L380
  2484 0000182A 84 C0                           	TEST	AL,AL
  2485 0000182C 74 2F                           	JE	L380
  2486 0000182E                                 L384:
  2487 0000182E 83 FB 09                        	CMP	EBX,9
  2488 00001831 0F 8F 0000026B                  	JG	L439
  2489 00001837 8B 8D FFFFF52C                  	MOV	ECX,DWORD [-2772+EBP]
  2490 0000183D 8B 55 0C                        	MOV	EDX,DWORD [12+EBP]
  2491 00001840 8A 04 11                        	MOV	AL,BYTE [ECX+EDX*1]
  2492 00001843 41                              	INC	ECX
  2493 00001844 88 84 1D FFFFFB74               	MOV	BYTE [-1164+EBP+EBX*1],AL
  2494 0000184B 89 8D FFFFF52C                  	MOV	DWORD [-2772+EBP],ECX
  2495 00001851 8A 04 11                        	MOV	AL,BYTE [ECX+EDX*1]
  2496 00001854 43                              	INC	EBX
  2497 00001855 3C 20                           	CMP	AL,32
  2498 00001857 74 04                           	JE	L380
  2499 00001859 84 C0                           	TEST	AL,AL
  2500 0000185B 75 D1                           	JNE	L384
  2501 0000185D                                 L380:
  2502 0000185D FC                              	CLD
  2503 0000185E C6 84 1D FFFFFB74 00            	MOV	BYTE [-1164+EBP+EBX*1],0
  2504 00001866 8D B5 FFFFFB74                  	LEA	ESI,DWORD [-1164+EBP]
  2505 0000186C BF [00000397]                   	MOV	EDI,LC57
  2506 00001871 B9 00000005                     	MOV	ECX,5
  2507 00001876 F3                              	REPE
  2508 00001877 A6                              	CMPSB
  2509 00001878 0F 84 0000020D                  	JE	L458
  2510 0000187E                                 L385:
  2511 0000187E 83 3D [00000004] 00             	CMP	DWORD [_setfdata],0
  2512 00001885 75 13                           	JNE	L386
  2513 00001887 80 BD FFFFF52B 08               	CMP	BYTE [-2773+EBP],8
  2514 0000188E 74 0A                           	JE	L386
  2515 00001890 68 [0000039C]                   	PUSH	LC59
  2516 00001895 E9 FFFFFCE0                     	JMP	L451
  2517 0000189A                                 L386:
  2518 0000189A FC                              	CLD
  2519 0000189B 8D B5 FFFFFB74                  	LEA	ESI,DWORD [-1164+EBP]
  2520 000018A1 BF [0000005A]                   	MOV	EDI,LC13
  2521 000018A6 B9 00000004                     	MOV	ECX,4
  2522 000018AB F3                              	REPE
  2523 000018AC A6                              	CMPSB
  2524 000018AD 0F 84 000001AF                  	JE	L459
  2525 000018B3 FC                              	CLD
  2526 000018B4 8D B5 FFFFFB74                  	LEA	ESI,DWORD [-1164+EBP]
  2527 000018BA BF [000003C8]                   	MOV	EDI,LC61
  2528 000018BF B9 00000004                     	MOV	ECX,4
  2529 000018C4 F3                              	REPE
  2530 000018C5 A6                              	CMPSB
  2531 000018C6 0F 84 00000183                  	JE	L460
  2532 000018CC FC                              	CLD
  2533 000018CD 8D B5 FFFFFB74                  	LEA	ESI,DWORD [-1164+EBP]
  2534 000018D3 BF [000000F4]                   	MOV	EDI,LC40
  2535 000018D8 B9 00000004                     	MOV	ECX,4
  2536 000018DD F3                              	REPE
  2537 000018DE A6                              	CMPSB
  2538 000018DF 0F 84 00000153                  	JE	L461
  2539 000018E5 FC                              	CLD
  2540 000018E6 8D B5 FFFFFB74                  	LEA	ESI,DWORD [-1164+EBP]
  2541 000018EC BF [000003CC]                   	MOV	EDI,LC64
  2542 000018F1 B9 00000005                     	MOV	ECX,5
  2543 000018F6 F3                              	REPE
  2544 000018F7 A6                              	CMPSB
  2545 000018F8 0F 84 000000D5                  	JE	L462
  2546 000018FE FC                              	CLD
  2547 000018FF 8D B5 FFFFFB74                  	LEA	ESI,DWORD [-1164+EBP]
  2548 00001905 BF [000003D1]                   	MOV	EDI,LC69
  2549 0000190A B9 00000006                     	MOV	ECX,6
  2550 0000190F F3                              	REPE
  2551 00001910 A6                              	CMPSB
  2552 00001911 0F 84 00000093                  	JE	L463
  2553 00001917 FC                              	CLD
  2554 00001918 8D B5 FFFFFB74                  	LEA	ESI,DWORD [-1164+EBP]
  2555 0000191E BF [000003D7]                   	MOV	EDI,LC72
  2556 00001923 B9 00000005                     	MOV	ECX,5
  2557 00001928 F3                              	REPE
  2558 00001929 A6                              	CMPSB
  2559 0000192A 74 3E                           	JE	L464
  2560 0000192C FC                              	CLD
  2561 0000192D 8D B5 FFFFFB74                  	LEA	ESI,DWORD [-1164+EBP]
  2562 00001933 BF [00000397]                   	MOV	EDI,LC57
  2563 00001938 B9 00000005                     	MOV	ECX,5
  2564 0000193D F3                              	REPE
  2565 0000193E A6                              	CMPSB
  2566 0000193F 75 1F                           	JNE	L465
  2567 00001941                                 L388:
  2568 00001941 8B 45 0C                        	MOV	EAX,DWORD [12+EBP]
  2569 00001944 8B 95 FFFFF52C                  	MOV	EDX,DWORD [-2772+EBP]
  2570 0000194A 80 3C 02 20                     	CMP	BYTE [EDX+EAX*1],32
  2571 0000194E 0F 85 FFFFFC4B                  	JNE	L404
  2572 00001954 42                              	INC	EDX
  2573 00001955 89 95 FFFFF52C                  	MOV	DWORD [-2772+EBP],EDX
  2574 0000195B E9 FFFFFC3F                     	JMP	L404
  2575 00001960                                 L465:
  2576 00001960 68 [000003DC]                   	PUSH	LC75
  2577 00001965 E9 FFFFFC10                     	JMP	L451
  2578 0000196A                                 L464:
  2579 0000196A FF 35 [00000004]                	PUSH	DWORD [_setfdata]
  2580 00001970 E8 [00000000]                   	CALL	_myfsave
  2581 00001975 5A                              	POP	EDX
  2582 00001976 40                              	INC	EAX
  2583 00001977 74 0A                           	JE	L466
  2584 00001979 68 [000003ED]                   	PUSH	LC74
  2585 0000197E E9 FFFFFBF7                     	JMP	L451
  2586 00001983                                 L466:
  2587 00001983 68 [0000040B]                   	PUSH	LC73
  2588 00001988 8D 9D FFFFFB84                  	LEA	EBX,DWORD [-1148+EBP]
  2589 0000198E 53                              	PUSH	EBX
  2590 0000198F E8 [00000000]                   	CALL	_sprintf
  2591 00001994 53                              	PUSH	EBX
  2592 00001995 FF 75 08                        	PUSH	DWORD [8+EBP]
  2593 00001998 E8 FFFFF05D                     	CALL	_cons_putstr
  2594 0000199D FF 75 08                        	PUSH	DWORD [8+EBP]
  2595 000019A0 E8 FFFFEF30                     	CALL	_cons_newline
  2596 000019A5 83 C4 14                        	ADD	ESP,20
  2597 000019A8 EB 97                           	JMP	L388
  2598 000019AA                                 L463:
  2599 000019AA 68 [00000449]                   	PUSH	LC70
  2600 000019AF E8 FFFFE64C                     	CALL	_debug_print
  2601 000019B4 FF 35 [00000004]                	PUSH	DWORD [_setfdata]
  2602 000019BA E8 [00000000]                   	CALL	_myfclose
  2603 000019BF 68 [0000045A]                   	PUSH	LC71
  2604 000019C4 C7 05 [00000004] 00000000       	MOV	DWORD [_setfdata],0
  2605 000019CE E9 FFFFFBA7                     	JMP	L451
  2606 000019D3                                 L462:
  2607 000019D3 68 [00000473]                   	PUSH	LC65
  2608 000019D8 8D B5 FFFFF934                  	LEA	ESI,DWORD [-1740+EBP]
  2609 000019DE 8D 9D FFFFFB84                  	LEA	EBX,DWORD [-1148+EBP]
  2610 000019E4 E8 FFFFE617                     	CALL	_debug_print
  2611 000019E9 FF 35 [00000004]                	PUSH	DWORD [_setfdata]
  2612 000019EF 56                              	PUSH	ESI
  2613 000019F0 E8 [00000000]                   	CALL	_myfread
  2614 000019F5 A1 [00000004]                   	MOV	EAX,DWORD [_setfdata]
  2615 000019FA 0F B6 00                        	MOVZX	EAX,BYTE [EAX]
  2616 000019FD 50                              	PUSH	EAX
  2617 000019FE 68 [00000483]                   	PUSH	LC66
  2618 00001A03 53                              	PUSH	EBX
  2619 00001A04 E8 [00000000]                   	CALL	_sprintf
  2620 00001A09 53                              	PUSH	EBX
  2621 00001A0A E8 FFFFE5F1                     	CALL	_debug_print
  2622 00001A0F 56                              	PUSH	ESI
  2623 00001A10 68 [0000049F]                   	PUSH	LC67
  2624 00001A15 53                              	PUSH	EBX
  2625 00001A16 E8 [00000000]                   	CALL	_sprintf
  2626 00001A1B 83 C4 28                        	ADD	ESP,40
  2627 00001A1E 53                              	PUSH	EBX
  2628 00001A1F FF 75 08                        	PUSH	DWORD [8+EBP]
  2629 00001A22 E8 FFFFEFD3                     	CALL	_cons_putstr
  2630 00001A27 FF 35 [00000004]                	PUSH	DWORD [_setfdata]
  2631 00001A2D E8 [00000000]                   	CALL	_get_size_myfdata
  2632 00001A32 59                              	POP	ECX
  2633 00001A33 E9 FFFFFC2D                     	JMP	L445
  2634 00001A38                                 L461:
  2635 00001A38 68 [000004A8]                   	PUSH	LC63
  2636 00001A3D E8 FFFFE5BE                     	CALL	_debug_print
  2637 00001A42 C6 85 FFFFF52B 04               	MOV	BYTE [-2773+EBP],4
  2638 00001A49                                 L441:
  2639 00001A49 5B                              	POP	EBX
  2640 00001A4A E9 FFFFFEF2                     	JMP	L388
  2641 00001A4F                                 L460:
  2642 00001A4F 68 [000004B7]                   	PUSH	LC62
  2643 00001A54 E8 FFFFE5A7                     	CALL	_debug_print
  2644 00001A59 C6 85 FFFFF52B 02               	MOV	BYTE [-2773+EBP],2
  2645 00001A60 EB E7                           	JMP	L441
  2646 00001A62                                 L459:
  2647 00001A62 68 [000004C9]                   	PUSH	LC60
  2648 00001A67 E8 FFFFE594                     	CALL	_debug_print
  2649 00001A6C 68 [00000043]                   	PUSH	LC7
  2650 00001A71 FF 35 [00000004]                	PUSH	DWORD [_setfdata]
  2651 00001A77 C6 85 FFFFF52B 01               	MOV	BYTE [-2773+EBP],1
  2652 00001A7E E8 [00000000]                   	CALL	_myfwrite
  2653 00001A83 83 C4 0C                        	ADD	ESP,12
  2654 00001A86 E9 FFFFFEB6                     	JMP	L388
  2655 00001A8B                                 L458:
  2656 00001A8B 68 [000004DA]                   	PUSH	LC58
  2657 00001A90 E8 FFFFE56B                     	CALL	_debug_print
  2658 00001A95 5E                              	POP	ESI
  2659 00001A96 C6 85 FFFFF52B 08               	MOV	BYTE [-2773+EBP],8
  2660 00001A9D E9 FFFFFDDC                     	JMP	L385
  2661 00001AA2                                 L439:
  2662 00001AA2 68 [000004EA]                   	PUSH	LC56
  2663 00001AA7 E9 FFFFFACE                     	JMP	L451
  2664 00001AAC                                 L377:
  2665 00001AAC 8B 4D 0C                        	MOV	ECX,DWORD [12+EBP]
  2666 00001AAF FF 85 FFFFF52C                  	INC	DWORD [-2772+EBP]
  2667 00001AB5 8B 85 FFFFF52C                  	MOV	EAX,DWORD [-2772+EBP]
  2668 00001ABB 80 3C 08 20                     	CMP	BYTE [EAX+ECX*1],32
  2669 00001ABF 74 EB                           	JE	L377
  2670 00001AC1 E9 FFFFFA8A                     	JMP	L433
  2671                                          [SECTION .data]
  2672 000004FF                                 LC86:
  2673 000004FF 64 69 72 65 63 74 6F 72 79 20   	DB	"directory name shoule be within 8 letters.",0x0A,0x00
       00000509 6E 61 6D 65 20 73 68 6F 75 6C 
       00000513 65 20 62 65 20 77 69 74 68 69 
       0000051D 6E 20 38 20 6C 65 74 74 65 72 
       00000527 73 2E 0A 00 
  2674 0000052B                                 LC87:
  2675 0000052B 74 68 69 73 20 64 69 72 65 63   	DB	"this directory name is already used, please use other name.",0x0A,0x00
       00000535 74 6F 72 79 20 6E 61 6D 65 20 
       0000053F 69 73 20 61 6C 72 65 61 64 79 
       00000549 20 75 73 65 64 2C 20 70 6C 65 
       00000553 61 73 65 20 75 73 65 20 6F 74 
       0000055D 68 65 72 20 6E 61 6D 65 2E 0A 
       00000567 00 
  2676 00000568                                 LC88:
  2677 00000568 09 6E 61 6D 65 20 3D 20 25 73   	DB	0x09,"name = %s",0x0A,0x09,"ext = %s",0x0A,0x09,"type = 0x%02x",0x0A,0x00
       00000572 0A 09 65 78 74 20 3D 20 25 73 
       0000057C 0A 09 74 79 70 65 20 3D 20 30 
       00000586 78 25 30 32 78 0A 00 
  2678 0000058D                                 LC89:
  2679 0000058D 63 72 65 61 74 65 64 20 64 69   	DB	"created directory: name = %s",0x0A,0x00
       00000597 72 65 63 74 6F 72 79 3A 20 6E 
       000005A1 61 6D 65 20 3D 20 25 73 0A 00 
  2680 000005AB                                 LC90:
  2681 000005AB 09 63 68 69 6C 64 20 64 69 72   	DB	0x09,"child dir address = 0x%08x",0x0A,0x00
       000005B5 20 61 64 64 72 65 73 73 20 3D 
       000005BF 20 30 78 25 30 38 78 0A 00 
  2682 000005C8                                 LC91:
  2683 000005C8 09 74 79 70 65 3D 30 78 25 30   	DB	0x09,"type=0x%02x",0x0A,0x00
       000005D2 32 78 0A 00 
  2684 000005D6                                 LC92:
  2685 000005D6 09 63 68 69 6C 64 20 64 69 6E   	DB	0x09,"child dinfo addr = 0x%08x",0x0A,0x00
       000005E0 66 6F 20 61 64 64 72 20 3D 20 
       000005EA 30 78 25 30 38 78 0A 00 
  2686 000005F2                                 LC93:
  2687 000005F2 09 63 68 69 6C 64 20 64 69 6E   	DB	0x09,"child dinfo name = %s",0x0A,0x00
       000005FC 66 6F 20 6E 61 6D 65 20 3D 20 
       00000606 25 73 0A 00 
  2688 0000060A                                 LC94:
  2689 0000060A 09 63 68 69 6C 64 20 64 69 6E   	DB	0x09,"child dinfo parent addr = 0x%08x",0x0A,0x00
       00000614 66 6F 20 70 61 72 65 6E 74 20 
       0000061E 61 64 64 72 20 3D 20 30 78 25 
       00000628 30 38 78 0A 00 
  2690                                          [SECTION .text]
  2691 00001AC6                                 	GLOBAL	_cmd_mkdir
  2692 00001AC6                                 _cmd_mkdir:
  2693 00001AC6 55                              	PUSH	EBP
  2694 00001AC7 89 E5                           	MOV	EBP,ESP
  2695 00001AC9 57                              	PUSH	EDI
  2696 00001ACA 56                              	PUSH	ESI
  2697 00001ACB 53                              	PUSH	EBX
  2698 00001ACC 31 DB                           	XOR	EBX,EBX
  2699 00001ACE 83 EC 48                        	SUB	ESP,72
  2700 00001AD1 8B 45 0C                        	MOV	EAX,DWORD [12+EBP]
  2701 00001AD4 8B 55 08                        	MOV	EDX,DWORD [8+EBP]
  2702 00001AD7 8D 70 06                        	LEA	ESI,DWORD [6+EAX]
  2703 00001ADA 8B 52 14                        	MOV	EDX,DWORD [20+EDX]
  2704 00001ADD 89 55 AC                        	MOV	DWORD [-84+EBP],EDX
  2705 00001AE0 89 75 B0                        	MOV	DWORD [-80+EBP],ESI
  2706 00001AE3 80 78 06 00                     	CMP	BYTE [6+EAX],0
  2707 00001AE7 74 0A                           	JE	L494
  2708 00001AE9                                 L472:
  2709 00001AE9 43                              	INC	EBX
  2710 00001AEA 8B 45 B0                        	MOV	EAX,DWORD [-80+EBP]
  2711 00001AED 80 3C 03 00                     	CMP	BYTE [EBX+EAX*1],0
  2712 00001AF1 75 F6                           	JNE	L472
  2713 00001AF3                                 L494:
  2714 00001AF3 83 FB 08                        	CMP	EBX,8
  2715 00001AF6 7E 27                           	JLE	L473
  2716 00001AF8 68 [000004FF]                   	PUSH	LC86
  2717 00001AFD 8D 5D B4                        	LEA	EBX,DWORD [-76+EBP]
  2718 00001B00 53                              	PUSH	EBX
  2719 00001B01 E8 [00000000]                   	CALL	_sprintf
  2720 00001B06 53                              	PUSH	EBX
  2721 00001B07 FF 75 08                        	PUSH	DWORD [8+EBP]
  2722 00001B0A E8 FFFFEEEB                     	CALL	_cons_putstr
  2723 00001B0F                                 L501:
  2724 00001B0F FF 75 08                        	PUSH	DWORD [8+EBP]
  2725 00001B12 E8 FFFFEDBE                     	CALL	_cons_newline
  2726 00001B17 8D 65 F4                        	LEA	ESP,DWORD [-12+EBP]
  2727 00001B1A 5B                              	POP	EBX
  2728 00001B1B 5E                              	POP	ESI
  2729 00001B1C 5F                              	POP	EDI
  2730 00001B1D 5D                              	POP	EBP
  2731 00001B1E C3                              	RET
  2732 00001B1F                                 L473:
  2733 00001B1F 6A 32                           	PUSH	50
  2734 00001B21 FF 75 AC                        	PUSH	DWORD [-84+EBP]
  2735 00001B24 FF 75 B0                        	PUSH	DWORD [-80+EBP]
  2736 00001B27 E8 [00000000]                   	CALL	_myfinfo_search
  2737 00001B2C 83 C4 0C                        	ADD	ESP,12
  2738 00001B2F 89 C6                           	MOV	ESI,EAX
  2739 00001B31 85 C0                           	TEST	EAX,EAX
  2740 00001B33 74 37                           	JE	L474
  2741 00001B35 68 [0000052B]                   	PUSH	LC87
  2742 00001B3A 8D 5D B4                        	LEA	EBX,DWORD [-76+EBP]
  2743 00001B3D 53                              	PUSH	EBX
  2744 00001B3E E8 [00000000]                   	CALL	_sprintf
  2745 00001B43 53                              	PUSH	EBX
  2746 00001B44 FF 75 08                        	PUSH	DWORD [8+EBP]
  2747 00001B47 E8 FFFFEEAE                     	CALL	_cons_putstr
  2748 00001B4C 0F B6 46 0B                     	MOVZX	EAX,BYTE [11+ESI]
  2749 00001B50 50                              	PUSH	EAX
  2750 00001B51 8D 46 08                        	LEA	EAX,DWORD [8+ESI]
  2751 00001B54 50                              	PUSH	EAX
  2752 00001B55 56                              	PUSH	ESI
  2753 00001B56 68 [00000568]                   	PUSH	LC88
  2754 00001B5B 53                              	PUSH	EBX
  2755 00001B5C E8 [00000000]                   	CALL	_sprintf
  2756 00001B61 83 C4 24                        	ADD	ESP,36
  2757 00001B64                                 L500:
  2758 00001B64 53                              	PUSH	EBX
  2759 00001B65 E8 FFFFE496                     	CALL	_debug_print
  2760 00001B6A EB A3                           	JMP	L501
  2761 00001B6C                                 L474:
  2762 00001B6C 31 DB                           	XOR	EBX,EBX
  2763 00001B6E 8B 45 AC                        	MOV	EAX,DWORD [-84+EBP]
  2764 00001B71                                 L481:
  2765 00001B71 80 38 00                        	CMP	BYTE [EAX],0
  2766 00001B74 74 09                           	JE	L477
  2767 00001B76 43                              	INC	EBX
  2768 00001B77 83 C0 28                        	ADD	EAX,40
  2769 00001B7A 83 FB 31                        	CMP	EBX,49
  2770 00001B7D 7E F2                           	JLE	L481
  2771 00001B7F                                 L477:
  2772 00001B7F 8B 55 B0                        	MOV	EDX,DWORD [-80+EBP]
  2773 00001B82 31 C9                           	XOR	ECX,ECX
  2774 00001B84 80 3A 00                        	CMP	BYTE [EDX],0
  2775 00001B87 74 29                           	JE	L497
  2776 00001B89                                 L487:
  2777 00001B89 8B 75 B0                        	MOV	ESI,DWORD [-80+EBP]
  2778 00001B8C 8A 14 31                        	MOV	DL,BYTE [ECX+ESI*1]
  2779 00001B8F 8D 42 9F                        	LEA	EAX,DWORD [-97+EDX]
  2780 00001B92 3C 19                           	CMP	AL,25
  2781 00001B94 77 06                           	JA	L486
  2782 00001B96 8D 42 E0                        	LEA	EAX,DWORD [-32+EDX]
  2783 00001B99 88 04 31                        	MOV	BYTE [ECX+ESI*1],AL
  2784 00001B9C                                 L486:
  2785 00001B9C 6B C3 28                        	IMUL	EAX,EBX,40
  2786 00001B9F 8B 75 B0                        	MOV	ESI,DWORD [-80+EBP]
  2787 00001BA2 03 45 AC                        	ADD	EAX,DWORD [-84+EBP]
  2788 00001BA5 8A 14 31                        	MOV	DL,BYTE [ECX+ESI*1]
  2789 00001BA8 88 14 01                        	MOV	BYTE [ECX+EAX*1],DL
  2790 00001BAB 41                              	INC	ECX
  2791 00001BAC 80 3C 31 00                     	CMP	BYTE [ECX+ESI*1],0
  2792 00001BB0 75 D7                           	JNE	L487
  2793 00001BB2                                 L497:
  2794 00001BB2 83 F9 07                        	CMP	ECX,7
  2795 00001BB5 7F 10                           	JG	L499
  2796 00001BB7                                 L492:
  2797 00001BB7 6B C3 28                        	IMUL	EAX,EBX,40
  2798 00001BBA 03 45 AC                        	ADD	EAX,DWORD [-84+EBP]
  2799 00001BBD C6 04 01 20                     	MOV	BYTE [ECX+EAX*1],32
  2800 00001BC1 41                              	INC	ECX
  2801 00001BC2 83 F9 07                        	CMP	ECX,7
  2802 00001BC5 7E F0                           	JLE	L492
  2803 00001BC7                                 L499:
  2804 00001BC7 6B FB 28                        	IMUL	EDI,EBX,40
  2805 00001BCA 8B 45 AC                        	MOV	EAX,DWORD [-84+EBP]
  2806 00001BCD 8D 5D B4                        	LEA	EBX,DWORD [-76+EBP]
  2807 00001BD0 8D 34 38                        	LEA	ESI,DWORD [EAX+EDI*1]
  2808 00001BD3 E8 [00000000]                   	CALL	_get_newdinfo
  2809 00001BD8 8B 55 AC                        	MOV	EDX,DWORD [-84+EBP]
  2810 00001BDB 89 46 20                        	MOV	DWORD [32+ESI],EAX
  2811 00001BDE 8D 46 10                        	LEA	EAX,DWORD [16+ESI]
  2812 00001BE1 C6 44 3A 0B 10                  	MOV	BYTE [11+EDX+EDI*1],16
  2813 00001BE6 C7 46 1C 00000028               	MOV	DWORD [28+ESI],40
  2814 00001BED C7 46 24 00000000               	MOV	DWORD [36+ESI],0
  2815 00001BF4 66 C7 40 0A 0000                	MOV	WORD [10+EAX],0
  2816 00001BFA 66 C7 40 08 0000                	MOV	WORD [8+EAX],0
  2817 00001C00 56                              	PUSH	ESI
  2818 00001C01 68 [0000058D]                   	PUSH	LC89
  2819 00001C06 53                              	PUSH	EBX
  2820 00001C07 E8 [00000000]                   	CALL	_sprintf
  2821 00001C0C 53                              	PUSH	EBX
  2822 00001C0D FF 75 08                        	PUSH	DWORD [8+EBP]
  2823 00001C10 E8 FFFFEDE5                     	CALL	_cons_putstr
  2824 00001C15 FF 76 20                        	PUSH	DWORD [32+ESI]
  2825 00001C18 68 [000005AB]                   	PUSH	LC90
  2826 00001C1D 53                              	PUSH	EBX
  2827 00001C1E E8 [00000000]                   	CALL	_sprintf
  2828 00001C23 83 C4 20                        	ADD	ESP,32
  2829 00001C26 53                              	PUSH	EBX
  2830 00001C27 E8 FFFFE3D4                     	CALL	_debug_print
  2831 00001C2C 8B 55 AC                        	MOV	EDX,DWORD [-84+EBP]
  2832 00001C2F 0F B6 44 3A 0B                  	MOVZX	EAX,BYTE [11+EDX+EDI*1]
  2833 00001C34 50                              	PUSH	EAX
  2834 00001C35 68 [000005C8]                   	PUSH	LC91
  2835 00001C3A 53                              	PUSH	EBX
  2836 00001C3B E8 [00000000]                   	CALL	_sprintf
  2837 00001C40 53                              	PUSH	EBX
  2838 00001C41 E8 FFFFE3BA                     	CALL	_debug_print
  2839 00001C46 8B 76 20                        	MOV	ESI,DWORD [32+ESI]
  2840 00001C49 89 B6 000007DC                  	MOV	DWORD [2012+ESI],ESI
  2841 00001C4F 8D BE 000007D0                  	LEA	EDI,DWORD [2000+ESI]
  2842 00001C55 FF 75 B0                        	PUSH	DWORD [-80+EBP]
  2843 00001C58 57                              	PUSH	EDI
  2844 00001C59 E8 [00000000]                   	CALL	_sprintf
  2845 00001C5E 8B 55 AC                        	MOV	EDX,DWORD [-84+EBP]
  2846 00001C61 8B 82 000007DC                  	MOV	EAX,DWORD [2012+EDX]
  2847 00001C67 89 86 000007D8                  	MOV	DWORD [2008+ESI],EAX
  2848 00001C6D FF B6 000007DC                  	PUSH	DWORD [2012+ESI]
  2849 00001C73 68 [000005D6]                   	PUSH	LC92
  2850 00001C78 53                              	PUSH	EBX
  2851 00001C79 E8 [00000000]                   	CALL	_sprintf
  2852 00001C7E 83 C4 28                        	ADD	ESP,40
  2853 00001C81 53                              	PUSH	EBX
  2854 00001C82 E8 FFFFE379                     	CALL	_debug_print
  2855 00001C87 57                              	PUSH	EDI
  2856 00001C88 68 [000005F2]                   	PUSH	LC93
  2857 00001C8D 53                              	PUSH	EBX
  2858 00001C8E E8 [00000000]                   	CALL	_sprintf
  2859 00001C93 53                              	PUSH	EBX
  2860 00001C94 E8 FFFFE367                     	CALL	_debug_print
  2861 00001C99 FF B6 000007D8                  	PUSH	DWORD [2008+ESI]
  2862 00001C9F 68 [0000060A]                   	PUSH	LC94
  2863 00001CA4 53                              	PUSH	EBX
  2864 00001CA5 E8 [00000000]                   	CALL	_sprintf
  2865 00001CAA 83 C4 20                        	ADD	ESP,32
  2866 00001CAD E9 FFFFFEB2                     	JMP	L500
  2867                                          [SECTION .data]
  2868 0000062D                                 LC97:
  2869 0000062D 74 68 69 73 20 66 69 6C 65 20   	DB	"this file name is already used, please use other name.",0x0A,0x00
       00000637 6E 61 6D 65 20 69 73 20 61 6C 
       00000641 72 65 61 64 79 20 75 73 65 64 
       0000064B 2C 20 70 6C 65 61 73 65 20 75 
       00000655 73 65 20 6F 74 68 65 72 20 6E 
       0000065F 61 6D 65 2E 0A 00 
  2870 00000665                                 LC98:
  2871 00000665 66 64 61 74 61 2D 3E 68 65 61   	DB	"fdata->head.name =",0x09,0x09,"%s[EOF]",0x0A,0x00
       0000066F 64 2E 6E 61 6D 65 20 3D 09 09 
       00000679 25 73 5B 45 4F 46 5D 0A 00 
  2872 00000682                                 LC99:
  2873 00000682 64 69 6E 66 6F 2D 3E 66 69 6E   	DB	"dinfo->finfo[i].name =",0x09,"%s[EOF]",0x0A,0x00
       0000068C 66 6F 5B 69 5D 2E 6E 61 6D 65 
       00000696 20 3D 09 25 73 5B 45 4F 46 5D 
       000006A0 0A 00 
  2874 000006A2                                 LC100:
  2875 000006A2 74 65 73 74 28 73 68 6F 75 6C   	DB	"test(should not be 0) = %d",0x0A,0x00
       000006AC 64 20 6E 6F 74 20 62 65 20 30 
       000006B6 29 20 3D 20 25 64 0A 00 
  2876 000006BE                                 LC101:
  2877 000006BE 63 72 65 61 74 65 64 20 66 69   	DB	"created file name = %s[EOF]",0x0A,0x00
       000006C8 6C 65 20 6E 61 6D 65 20 3D 20 
       000006D2 25 73 5B 45 4F 46 5D 0A 00 
  2878 000006DB                                 LC102:
  2879 000006DB 66 69 6C 65 20 6E 61 6D 65 20   	DB	"file name = %s",0x0A,0x00
       000006E5 3D 20 25 73 0A 00 
  2880 000006EB                                 LC103:
  2881 000006EB 66 69 6C 65 20 74 79 70 65 3D   	DB	"file type=0x%02x",0x0A,0x00
       000006F5 30 78 25 30 32 78 0A 00 
  2882 000006FD                                 LC95:
  2883 000006FD 66 69 6C 65 20 6E 61 6D 65 20   	DB	"file name should be within 8 letters,",0x0A,0x00
       00000707 73 68 6F 75 6C 64 20 62 65 20 
       00000711 77 69 74 68 69 6E 20 38 20 6C 
       0000071B 65 74 74 65 72 73 2C 0A 00 
  2884 00000724                                 LC96:
  2885 00000724 61 6E 64 20 65 78 74 65 6E 73   	DB	"and extension should be within 3 letters.",0x0A,0x00
       0000072E 69 6F 6E 20 73 68 6F 75 6C 64 
       00000738 20 62 65 20 77 69 74 68 69 6E 
       00000742 20 33 20 6C 65 74 74 65 72 73 
       0000074C 2E 0A 00 
  2886                                          [SECTION .text]
  2887 00001CB2                                 	GLOBAL	_cmd_mkfile
  2888 00001CB2                                 _cmd_mkfile:
  2889 00001CB2 55                              	PUSH	EBP
  2890 00001CB3 31 C9                           	XOR	ECX,ECX
  2891 00001CB5 89 E5                           	MOV	EBP,ESP
  2892 00001CB7 57                              	PUSH	EDI
  2893 00001CB8 56                              	PUSH	ESI
  2894 00001CB9 53                              	PUSH	EBX
  2895 00001CBA 81 EC 00000460                  	SUB	ESP,1120
  2896 00001CC0 8B 45 08                        	MOV	EAX,DWORD [8+EBP]
  2897 00001CC3 8B 55 0C                        	MOV	EDX,DWORD [12+EBP]
  2898 00001CC6 83 C2 07                        	ADD	EDX,7
  2899 00001CC9 8B 40 14                        	MOV	EAX,DWORD [20+EAX]
  2900 00001CCC 89 95 FFFFFB9C                  	MOV	DWORD [-1124+EBP],EDX
  2901 00001CD2 89 85 FFFFFBA0                  	MOV	DWORD [-1120+EBP],EAX
  2902 00001CD8                                 L507:
  2903 00001CD8 C6 44 0D A4 20                  	MOV	BYTE [-92+EBP+ECX*1],32
  2904 00001CDD 41                              	INC	ECX
  2905 00001CDE 83 F9 0A                        	CMP	ECX,10
  2906 00001CE1 7E F5                           	JLE	L507
  2907 00001CE3 8B 85 FFFFFB9C                  	MOV	EAX,DWORD [-1124+EBP]
  2908 00001CE9 31 C9                           	XOR	ECX,ECX
  2909 00001CEB 31 DB                           	XOR	EBX,EBX
  2910 00001CED 80 38 00                        	CMP	BYTE [EAX],0
  2911 00001CF0 74 3B                           	JE	L537
  2912 00001CF2                                 L516:
  2913 00001CF2 83 F9 0A                        	CMP	ECX,10
  2914 00001CF5 0F 8F 00000237                  	JG	L543
  2915 00001CFB 8B 85 FFFFFB9C                  	MOV	EAX,DWORD [-1124+EBP]
  2916 00001D01 8A 14 03                        	MOV	DL,BYTE [EBX+EAX*1]
  2917 00001D04 80 FA 2E                        	CMP	DL,46
  2918 00001D07 0F 84 00000212                  	JE	L545
  2919 00001D0D                                 L513:
  2920 00001D0D 8D 42 9F                        	LEA	EAX,DWORD [-97+EDX]
  2921 00001D10 88 54 0D A4                     	MOV	BYTE [-92+EBP+ECX*1],DL
  2922 00001D14 3C 19                           	CMP	AL,25
  2923 00001D16 77 07                           	JA	L515
  2924 00001D18 8D 42 E0                        	LEA	EAX,DWORD [-32+EDX]
  2925 00001D1B 88 44 0D A4                     	MOV	BYTE [-92+EBP+ECX*1],AL
  2926 00001D1F                                 L515:
  2927 00001D1F 41                              	INC	ECX
  2928 00001D20                                 L510:
  2929 00001D20 43                              	INC	EBX
  2930 00001D21 8B 95 FFFFFB9C                  	MOV	EDX,DWORD [-1124+EBP]
  2931 00001D27 80 3C 13 00                     	CMP	BYTE [EBX+EDX*1],0
  2932 00001D2B 75 C5                           	JNE	L516
  2933 00001D2D                                 L537:
  2934 00001D2D 6A 32                           	PUSH	50
  2935 00001D2F 8D 45 A4                        	LEA	EAX,DWORD [-92+EBP]
  2936 00001D32 FF B5 FFFFFBA0                  	PUSH	DWORD [-1120+EBP]
  2937 00001D38 50                              	PUSH	EAX
  2938 00001D39 E8 [00000000]                   	CALL	_myfinfo_search
  2939 00001D3E 83 C4 0C                        	ADD	ESP,12
  2940 00001D41 89 C6                           	MOV	ESI,EAX
  2941 00001D43 85 C0                           	TEST	EAX,EAX
  2942 00001D45 74 50                           	JE	L517
  2943 00001D47 68 [0000062D]                   	PUSH	LC97
  2944 00001D4C 8D 5D B4                        	LEA	EBX,DWORD [-76+EBP]
  2945 00001D4F 53                              	PUSH	EBX
  2946 00001D50 E8 [00000000]                   	CALL	_sprintf
  2947 00001D55 53                              	PUSH	EBX
  2948 00001D56 FF 75 08                        	PUSH	DWORD [8+EBP]
  2949 00001D59 E8 FFFFEC9C                     	CALL	_cons_putstr
  2950 00001D5E 0F B6 46 0B                     	MOVZX	EAX,BYTE [11+ESI]
  2951 00001D62 50                              	PUSH	EAX
  2952 00001D63 8D 46 08                        	LEA	EAX,DWORD [8+ESI]
  2953 00001D66 50                              	PUSH	EAX
  2954 00001D67 56                              	PUSH	ESI
  2955 00001D68 68 [00000568]                   	PUSH	LC88
  2956 00001D6D 53                              	PUSH	EBX
  2957 00001D6E E8 [00000000]                   	CALL	_sprintf
  2958 00001D73 83 C4 24                        	ADD	ESP,36
  2959 00001D76 53                              	PUSH	EBX
  2960 00001D77 FF 75 08                        	PUSH	DWORD [8+EBP]
  2961 00001D7A E8 FFFFEC7B                     	CALL	_cons_putstr
  2962 00001D7F FF 75 08                        	PUSH	DWORD [8+EBP]
  2963 00001D82 E8 FFFFEB4E                     	CALL	_cons_newline
  2964 00001D87                                 L544:
  2965 00001D87 FF 75 08                        	PUSH	DWORD [8+EBP]
  2966 00001D8A E8 FFFFEB46                     	CALL	_cons_newline
  2967 00001D8F 8D 65 F4                        	LEA	ESP,DWORD [-12+EBP]
  2968 00001D92 5B                              	POP	EBX
  2969 00001D93 5E                              	POP	ESI
  2970 00001D94 5F                              	POP	EDI
  2971 00001D95 5D                              	POP	EBP
  2972 00001D96 C3                              	RET
  2973 00001D97                                 L517:
  2974 00001D97 31 DB                           	XOR	EBX,EBX
  2975 00001D99 8B 85 FFFFFBA0                  	MOV	EAX,DWORD [-1120+EBP]
  2976 00001D9F                                 L523:
  2977 00001D9F 80 38 00                        	CMP	BYTE [EAX],0
  2978 00001DA2 74 09                           	JE	L519
  2979 00001DA4 43                              	INC	EBX
  2980 00001DA5 83 C0 28                        	ADD	EAX,40
  2981 00001DA8 83 FB 31                        	CMP	EBX,49
  2982 00001DAB 7E F2                           	JLE	L523
  2983 00001DAD                                 L519:
  2984 00001DAD 31 C9                           	XOR	ECX,ECX
  2985 00001DAF                                 L528:
  2986 00001DAF 6B C3 28                        	IMUL	EAX,EBX,40
  2987 00001DB2 03 85 FFFFFBA0                  	ADD	EAX,DWORD [-1120+EBP]
  2988 00001DB8 8A 54 0D A4                     	MOV	DL,BYTE [-92+EBP+ECX*1]
  2989 00001DBC 88 14 01                        	MOV	BYTE [ECX+EAX*1],DL
  2990 00001DBF 41                              	INC	ECX
  2991 00001DC0 83 F9 07                        	CMP	ECX,7
  2992 00001DC3 7E EA                           	JLE	L528
  2993 00001DC5 31 C9                           	XOR	ECX,ECX
  2994 00001DC7                                 L533:
  2995 00001DC7 6B C3 28                        	IMUL	EAX,EBX,40
  2996 00001DCA 89 85 FFFFFB94                  	MOV	DWORD [-1132+EBP],EAX
  2997 00001DD0 03 85 FFFFFBA0                  	ADD	EAX,DWORD [-1120+EBP]
  2998 00001DD6 89 85 FFFFFB98                  	MOV	DWORD [-1128+EBP],EAX
  2999 00001DDC 8B 95 FFFFFB98                  	MOV	EDX,DWORD [-1128+EBP]
  3000 00001DE2 8A 44 0D AC                     	MOV	AL,BYTE [-84+EBP+ECX*1]
  3001 00001DE6 88 44 11 08                     	MOV	BYTE [8+ECX+EDX*1],AL
  3002 00001DEA 41                              	INC	ECX
  3003 00001DEB 83 F9 02                        	CMP	ECX,2
  3004 00001DEE 7E D7                           	JLE	L533
  3005 00001DF0 89 D0                           	MOV	EAX,EDX
  3006 00001DF2 8B 8D FFFFFB94                  	MOV	ECX,DWORD [-1132+EBP]
  3007 00001DF8 83 C0 10                        	ADD	EAX,16
  3008 00001DFB 8D 5D B4                        	LEA	EBX,DWORD [-76+EBP]
  3009 00001DFE C7 42 1C 00000000               	MOV	DWORD [28+EDX],0
  3010 00001E05 66 C7 40 0A 0000                	MOV	WORD [10+EAX],0
  3011 00001E0B 66 C7 40 08 0000                	MOV	WORD [8+EAX],0
  3012 00001E11 8B 85 FFFFFBA0                  	MOV	EAX,DWORD [-1120+EBP]
  3013 00001E17 C6 44 08 0B 20                  	MOV	BYTE [11+EAX+ECX*1],32
  3014 00001E1C 8B 95 FFFFFBA0                  	MOV	EDX,DWORD [-1120+EBP]
  3015 00001E22 C6 85 FFFFFBA4 FF               	MOV	BYTE [-1116+EBP],-1
  3016 00001E29 8B 82 000007DC                  	MOV	EAX,DWORD [2012+EDX]
  3017 00001E2F 89 85 FFFFFBB8                  	MOV	DWORD [-1096+EBP],EAX
  3018 00001E35 8D 85 FFFFFBA4                  	LEA	EAX,DWORD [-1116+EBP]
  3019 00001E3B 50                              	PUSH	EAX
  3020 00001E3C E8 [00000000]                   	CALL	_get_newfdata
  3021 00001E41 FF B5 FFFFFB9C                  	PUSH	DWORD [-1124+EBP]
  3022 00001E47 8D 70 01                        	LEA	ESI,DWORD [1+EAX]
  3023 00001E4A 89 C7                           	MOV	EDI,EAX
  3024 00001E4C 56                              	PUSH	ESI
  3025 00001E4D E8 [00000000]                   	CALL	_strcpy
  3026 00001E52 56                              	PUSH	ESI
  3027 00001E53 68 [00000665]                   	PUSH	LC98
  3028 00001E58 53                              	PUSH	EBX
  3029 00001E59 E8 [00000000]                   	CALL	_sprintf
  3030 00001E5E 53                              	PUSH	EBX
  3031 00001E5F E8 FFFFE19C                     	CALL	_debug_print
  3032 00001E64 FF B5 FFFFFB98                  	PUSH	DWORD [-1128+EBP]
  3033 00001E6A 68 [00000682]                   	PUSH	LC99
  3034 00001E6F 53                              	PUSH	EBX
  3035 00001E70 E8 [00000000]                   	CALL	_sprintf
  3036 00001E75 83 C4 28                        	ADD	ESP,40
  3037 00001E78 53                              	PUSH	EBX
  3038 00001E79 E8 FFFFE182                     	CALL	_debug_print
  3039 00001E7E 6A 32                           	PUSH	50
  3040 00001E80 FF B5 FFFFFBA0                  	PUSH	DWORD [-1120+EBP]
  3041 00001E86 56                              	PUSH	ESI
  3042 00001E87 E8 [00000000]                   	CALL	_myfinfo_search
  3043 00001E8C 50                              	PUSH	EAX
  3044 00001E8D 68 [000006A2]                   	PUSH	LC100
  3045 00001E92 53                              	PUSH	EBX
  3046 00001E93 E8 [00000000]                   	CALL	_sprintf
  3047 00001E98 53                              	PUSH	EBX
  3048 00001E99 E8 FFFFE162                     	CALL	_debug_print
  3049 00001E9E 83 C4 20                        	ADD	ESP,32
  3050 00001EA1 C6 07 01                        	MOV	BYTE [EDI],1
  3051 00001EA4 89 7F 10                        	MOV	DWORD [16+EDI],EDI
  3052 00001EA7 8B 8D FFFFFBA0                  	MOV	ECX,DWORD [-1120+EBP]
  3053 00001EAD 8B 81 000007DC                  	MOV	EAX,DWORD [2012+ECX]
  3054 00001EB3 89 47 14                        	MOV	DWORD [20+EDI],EAX
  3055 00001EB6 8B 85 FFFFFB98                  	MOV	EAX,DWORD [-1128+EBP]
  3056 00001EBC 89 78 24                        	MOV	DWORD [36+EAX],EDI
  3057 00001EBF 8D 45 A4                        	LEA	EAX,DWORD [-92+EBP]
  3058 00001EC2 50                              	PUSH	EAX
  3059 00001EC3 68 [000006BE]                   	PUSH	LC101
  3060 00001EC8 53                              	PUSH	EBX
  3061 00001EC9 E8 [00000000]                   	CALL	_sprintf
  3062 00001ECE 53                              	PUSH	EBX
  3063 00001ECF FF 75 08                        	PUSH	DWORD [8+EBP]
  3064 00001ED2 E8 FFFFEB23                     	CALL	_cons_putstr
  3065 00001ED7 FF B5 FFFFFB98                  	PUSH	DWORD [-1128+EBP]
  3066 00001EDD 68 [000006DB]                   	PUSH	LC102
  3067 00001EE2 53                              	PUSH	EBX
  3068 00001EE3 E8 [00000000]                   	CALL	_sprintf
  3069 00001EE8 83 C4 20                        	ADD	ESP,32
  3070 00001EEB 53                              	PUSH	EBX
  3071 00001EEC FF 75 08                        	PUSH	DWORD [8+EBP]
  3072 00001EEF E8 FFFFEB06                     	CALL	_cons_putstr
  3073 00001EF4 8B 8D FFFFFBA0                  	MOV	ECX,DWORD [-1120+EBP]
  3074 00001EFA 8B 95 FFFFFB94                  	MOV	EDX,DWORD [-1132+EBP]
  3075 00001F00 0F B6 44 11 0B                  	MOVZX	EAX,BYTE [11+ECX+EDX*1]
  3076 00001F05 50                              	PUSH	EAX
  3077 00001F06 68 [000006EB]                   	PUSH	LC103
  3078 00001F0B 53                              	PUSH	EBX
  3079 00001F0C E8 [00000000]                   	CALL	_sprintf
  3080 00001F11 53                              	PUSH	EBX
  3081 00001F12 FF 75 08                        	PUSH	DWORD [8+EBP]
  3082 00001F15 E8 FFFFEAE0                     	CALL	_cons_putstr
  3083 00001F1A E9 FFFFFE68                     	JMP	L544
  3084 00001F1F                                 L545:
  3085 00001F1F 83 F9 08                        	CMP	ECX,8
  3086 00001F22 0F 8F FFFFFDE5                  	JG	L513
  3087 00001F28 B9 00000008                     	MOV	ECX,8
  3088 00001F2D E9 FFFFFDEE                     	JMP	L510
  3089 00001F32                                 L543:
  3090 00001F32 68 [000006FD]                   	PUSH	LC95
  3091 00001F37 8D 5D B4                        	LEA	EBX,DWORD [-76+EBP]
  3092 00001F3A 53                              	PUSH	EBX
  3093 00001F3B E8 [00000000]                   	CALL	_sprintf
  3094 00001F40 53                              	PUSH	EBX
  3095 00001F41 FF 75 08                        	PUSH	DWORD [8+EBP]
  3096 00001F44 E8 FFFFEAB1                     	CALL	_cons_putstr
  3097 00001F49 68 [00000724]                   	PUSH	LC96
  3098 00001F4E 53                              	PUSH	EBX
  3099 00001F4F E8 [00000000]                   	CALL	_sprintf
  3100 00001F54 53                              	PUSH	EBX
  3101 00001F55 FF 75 08                        	PUSH	DWORD [8+EBP]
  3102 00001F58 E8 FFFFEA9D                     	CALL	_cons_putstr
  3103 00001F5D 83 C4 20                        	ADD	ESP,32
  3104 00001F60 E9 FFFFFE22                     	JMP	L544
  3105                                          [SECTION .data]
  3106 0000074F                                 LC104:
  3107 0000074F 20 20 20 20 6C 6F 67 20 63 6F   	DB	"    log cons",0x0A,"mem:%d %d",0x0A,"sht:%d %d",0x0A,0x00
       00000759 6E 73 0A 6D 65 6D 3A 25 64 20 
       00000763 25 64 0A 73 68 74 3A 25 64 20 
       0000076D 25 64 0A 00 
  3108                                          [SECTION .text]
  3109 00001F65                                 	GLOBAL	_cmd_setlog
  3110 00001F65                                 _cmd_setlog:
  3111 00001F65 55                              	PUSH	EBP
  3112 00001F66 89 E5                           	MOV	EBP,ESP
  3113 00001F68 53                              	PUSH	EBX
  3114 00001F69 83 EC 70                        	SUB	ESP,112
  3115 00001F6C 8B 45 08                        	MOV	EAX,DWORD [8+EBP]
  3116 00001F6F 8D 5D 8C                        	LEA	EBX,DWORD [-116+EBP]
  3117 00001F72 A3 [00001DF0]                   	MOV	DWORD [_log],EAX
  3118 00001F77 FF 30                           	PUSH	DWORD [EAX]
  3119 00001F79 FF 30                           	PUSH	DWORD [EAX]
  3120 00001F7B 8D 45 08                        	LEA	EAX,DWORD [8+EBP]
  3121 00001F7E 50                              	PUSH	EAX
  3122 00001F7F 68 [00001DF0]                   	PUSH	_log
  3123 00001F84 68 [0000074F]                   	PUSH	LC104
  3124 00001F89 53                              	PUSH	EBX
  3125 00001F8A E8 [00000000]                   	CALL	_sprintf
  3126 00001F8F 53                              	PUSH	EBX
  3127 00001F90 FF 35 [00001DF0]                	PUSH	DWORD [_log]
  3128 00001F96 E8 FFFFEA8D                     	CALL	_cons_putstr0
  3129 00001F9B 83 C4 20                        	ADD	ESP,32
  3130 00001F9E FF 35 [00001DF0]                	PUSH	DWORD [_log]
  3131 00001FA4 E8 FFFFE92C                     	CALL	_cons_newline
  3132 00001FA9 8B 5D FC                        	MOV	EBX,DWORD [-4+EBP]
  3133 00001FAC C9                              	LEAVE
  3134 00001FAD C3                              	RET
  3135                                          [SECTION .data]
  3136 00000771                                 LC105:
  3137 00000771 66 72 65 65 73 20 20 25 64 0A   	DB	"frees  %d",0x0A,0x00
       0000077B 00 
  3138 0000077C                                 LC107:
  3139 0000077C 74 6F 74 61 6C 20 20 20 25 64   	DB	"total   %dMB",0x0A,"free %dKB",0x0A,0x0A,0x00
       00000786 4D 42 0A 66 72 65 65 20 25 64 
       00000790 4B 42 0A 0A 00 
  3140 00000795                                 LC106:
  3141 00000795 28 25 64 29 20 73 69 7A 65 3D   	DB	"(%d) size=%dKB addr=0x%x",0x0A,0x00
       0000079F 25 64 4B 42 20 61 64 64 72 3D 
       000007A9 30 78 25 78 0A 00 
  3142                                          [SECTION .text]
  3143 00001FAE                                 	GLOBAL	_cmd_mem
  3144 00001FAE                                 _cmd_mem:
  3145 00001FAE 55                              	PUSH	EBP
  3146 00001FAF 89 E5                           	MOV	EBP,ESP
  3147 00001FB1 57                              	PUSH	EDI
  3148 00001FB2 56                              	PUSH	ESI
  3149 00001FB3 31 F6                           	XOR	ESI,ESI
  3150 00001FB5 53                              	PUSH	EBX
  3151 00001FB6 8D 5D B4                        	LEA	EBX,DWORD [-76+EBP]
  3152 00001FB9 83 EC 40                        	SUB	ESP,64
  3153 00001FBC FF 35 003C0000                  	PUSH	DWORD [3932160]
  3154 00001FC2 68 [00000771]                   	PUSH	LC105
  3155 00001FC7 8B 7D 08                        	MOV	EDI,DWORD [8+EBP]
  3156 00001FCA 53                              	PUSH	EBX
  3157 00001FCB E8 [00000000]                   	CALL	_sprintf
  3158 00001FD0 53                              	PUSH	EBX
  3159 00001FD1 57                              	PUSH	EDI
  3160 00001FD2 E8 FFFFEA51                     	CALL	_cons_putstr0
  3161 00001FD7 83 C4 14                        	ADD	ESP,20
  3162 00001FDA 3B 35 003C0000                  	CMP	ESI,DWORD [3932160]
  3163 00001FE0 72 3B                           	JB	L552
  3164 00001FE2                                 L554:
  3165 00001FE2 68 003C0000                     	PUSH	3932160
  3166 00001FE7 E8 [00000000]                   	CALL	_memman_total
  3167 00001FEC BA 00100000                     	MOV	EDX,1048576
  3168 00001FF1 C1 E8 0A                        	SHR	EAX,10
  3169 00001FF4 89 D3                           	MOV	EBX,EDX
  3170 00001FF6 89 04 24                        	MOV	DWORD [ESP],EAX
  3171 00001FF9 8B 45 0C                        	MOV	EAX,DWORD [12+EBP]
  3172 00001FFC 99                              	CDQ
  3173 00001FFD F7 FB                           	IDIV	EBX
  3174 00001FFF 50                              	PUSH	EAX
  3175 00002000 8D 5D B4                        	LEA	EBX,DWORD [-76+EBP]
  3176 00002003 68 [0000077C]                   	PUSH	LC107
  3177 00002008 53                              	PUSH	EBX
  3178 00002009 E8 [00000000]                   	CALL	_sprintf
  3179 0000200E 53                              	PUSH	EBX
  3180 0000200F 57                              	PUSH	EDI
  3181 00002010 E8 FFFFEA13                     	CALL	_cons_putstr0
  3182 00002015 8D 65 F4                        	LEA	ESP,DWORD [-12+EBP]
  3183 00002018 5B                              	POP	EBX
  3184 00002019 5E                              	POP	ESI
  3185 0000201A 5F                              	POP	EDI
  3186 0000201B 5D                              	POP	EBP
  3187 0000201C C3                              	RET
  3188 0000201D                                 L552:
  3189 0000201D FF 34 F5 003C0010               	PUSH	DWORD [3932176+ESI*8]
  3190 00002024 8B 04 F5 003C0014               	MOV	EAX,DWORD [3932180+ESI*8]
  3191 0000202B 8D 5D B4                        	LEA	EBX,DWORD [-76+EBP]
  3192 0000202E C1 E8 0A                        	SHR	EAX,10
  3193 00002031 50                              	PUSH	EAX
  3194 00002032 56                              	PUSH	ESI
  3195 00002033 46                              	INC	ESI
  3196 00002034 68 [00000795]                   	PUSH	LC106
  3197 00002039 53                              	PUSH	EBX
  3198 0000203A E8 [00000000]                   	CALL	_sprintf
  3199 0000203F 53                              	PUSH	EBX
  3200 00002040 57                              	PUSH	EDI
  3201 00002041 E8 FFFFE9B4                     	CALL	_cons_putstr
  3202 00002046 83 C4 1C                        	ADD	ESP,28
  3203 00002049 3B 35 003C0000                  	CMP	ESI,DWORD [3932160]
  3204 0000204F 72 CC                           	JB	L552
  3205 00002051 EB 8F                           	JMP	L554
  3206 00002053                                 	GLOBAL	_cmd_memmap
  3207 00002053                                 _cmd_memmap:
  3208 00002053 55                              	PUSH	EBP
  3209 00002054 89 E5                           	MOV	EBP,ESP
  3210 00002056 53                              	PUSH	EBX
  3211 00002057 83 EC 40                        	SUB	ESP,64
  3212 0000205A 68 003C0000                     	PUSH	3932160
  3213 0000205F E8 [00000000]                   	CALL	_memman_total
  3214 00002064 BA 00100000                     	MOV	EDX,1048576
  3215 00002069 C1 E8 0A                        	SHR	EAX,10
  3216 0000206C 89 D3                           	MOV	EBX,EDX
  3217 0000206E 89 04 24                        	MOV	DWORD [ESP],EAX
  3218 00002071 8B 45 0C                        	MOV	EAX,DWORD [12+EBP]
  3219 00002074 99                              	CDQ
  3220 00002075 F7 FB                           	IDIV	EBX
  3221 00002077 50                              	PUSH	EAX
  3222 00002078 8D 5D BC                        	LEA	EBX,DWORD [-68+EBP]
  3223 0000207B 68 [0000077C]                   	PUSH	LC107
  3224 00002080 53                              	PUSH	EBX
  3225 00002081 E8 [00000000]                   	CALL	_sprintf
  3226 00002086 53                              	PUSH	EBX
  3227 00002087 FF 75 08                        	PUSH	DWORD [8+EBP]
  3228 0000208A E8 FFFFE999                     	CALL	_cons_putstr0
  3229 0000208F 8B 5D FC                        	MOV	EBX,DWORD [-4+EBP]
  3230 00002092 C9                              	LEAVE
  3231 00002093 C3                              	RET
  3232                                          [SECTION .data]
  3233 000007AF                                 LC108:
  3234 000007AF 6C 6F 67 20 74 65 73 74 00      	DB	"log test",0x00
  3235                                          [SECTION .text]
  3236 00002094                                 	GLOBAL	_cmd_log
  3237 00002094                                 _cmd_log:
  3238 00002094 55                              	PUSH	EBP
  3239 00002095 89 E5                           	MOV	EBP,ESP
  3240 00002097 53                              	PUSH	EBX
  3241 00002098 83 EC 70                        	SUB	ESP,112
  3242 0000209B 8D 5D 8C                        	LEA	EBX,DWORD [-116+EBP]
  3243 0000209E 68 [000007AF]                   	PUSH	LC108
  3244 000020A3 53                              	PUSH	EBX
  3245 000020A4 E8 [00000000]                   	CALL	_sprintf
  3246 000020A9 53                              	PUSH	EBX
  3247 000020AA FF 35 [00001DF0]                	PUSH	DWORD [_log]
  3248 000020B0 E8 FFFFE973                     	CALL	_cons_putstr0
  3249 000020B5 FF 35 [00001DF0]                	PUSH	DWORD [_log]
  3250 000020BB E8 FFFFE815                     	CALL	_cons_newline
  3251 000020C0 8B 5D FC                        	MOV	EBX,DWORD [-4+EBP]
  3252 000020C3 C9                              	LEAVE
  3253 000020C4 C3                              	RET
  3254                                          [SECTION .data]
  3255 000007B8                                 LC109:
  3256 000007B8 66 69 6C 65 6E 61 6D 65 3D 25   	DB	"filename=%s",0x0A,0x00
       000007C2 73 0A 00 
  3257 000007C5                                 LC110:
  3258 000007C5 46 69 6C 65 20 6E 6F 74 20 66   	DB	"File not found.",0x0A,0x00
       000007CF 6F 75 6E 64 2E 0A 00 
  3259                                          [SECTION .text]
  3260 000020C5                                 	GLOBAL	_cmd_cat
  3261 000020C5                                 _cmd_cat:
  3262 000020C5 55                              	PUSH	EBP
  3263 000020C6 89 E5                           	MOV	EBP,ESP
  3264 000020C8 57                              	PUSH	EDI
  3265 000020C9 56                              	PUSH	ESI
  3266 000020CA 53                              	PUSH	EBX
  3267 000020CB 8D 5D D4                        	LEA	EBX,DWORD [-44+EBP]
  3268 000020CE 83 EC 20                        	SUB	ESP,32
  3269 000020D1 8B 7D 08                        	MOV	EDI,DWORD [8+EBP]
  3270 000020D4 8B 45 10                        	MOV	EAX,DWORD [16+EBP]
  3271 000020D7 6A 32                           	PUSH	50
  3272 000020D9 83 C0 04                        	ADD	EAX,4
  3273 000020DC FF 77 14                        	PUSH	DWORD [20+EDI]
  3274 000020DF 50                              	PUSH	EAX
  3275 000020E0 E8 [00000000]                   	CALL	_myfinfo_search
  3276 000020E5 89 C6                           	MOV	ESI,EAX
  3277 000020E7 50                              	PUSH	EAX
  3278 000020E8 68 [000007B8]                   	PUSH	LC109
  3279 000020ED 53                              	PUSH	EBX
  3280 000020EE E8 [00000000]                   	CALL	_sprintf
  3281 000020F3 53                              	PUSH	EBX
  3282 000020F4 57                              	PUSH	EDI
  3283 000020F5 E8 FFFFE900                     	CALL	_cons_putstr
  3284 000020FA 83 C4 20                        	ADD	ESP,32
  3285 000020FD 85 F6                           	TEST	ESI,ESI
  3286 000020FF 74 51                           	JE	L558
  3287 00002101 FF 76 1C                        	PUSH	DWORD [28+ESI]
  3288 00002104 68 003C0000                     	PUSH	3932160
  3289 00002109 E8 [00000000]                   	CALL	_memman_alloc_4k
  3290 0000210E 68 00103E00                     	PUSH	1064448
  3291 00002113 FF 75 0C                        	PUSH	DWORD [12+EBP]
  3292 00002116 50                              	PUSH	EAX
  3293 00002117 89 C3                           	MOV	EBX,EAX
  3294 00002119 FF 76 1C                        	PUSH	DWORD [28+ESI]
  3295 0000211C 0F B7 46 1A                     	MOVZX	EAX,WORD [26+ESI]
  3296 00002120 50                              	PUSH	EAX
  3297 00002121 E8 [00000000]                   	CALL	_file_loadfile
  3298 00002126 FF 76 1C                        	PUSH	DWORD [28+ESI]
  3299 00002129 53                              	PUSH	EBX
  3300 0000212A 57                              	PUSH	EDI
  3301 0000212B E8 FFFFE926                     	CALL	_cons_putstr1
  3302 00002130 83 C4 28                        	ADD	ESP,40
  3303 00002133 FF 76 1C                        	PUSH	DWORD [28+ESI]
  3304 00002136 53                              	PUSH	EBX
  3305 00002137 68 003C0000                     	PUSH	3932160
  3306 0000213C E8 [00000000]                   	CALL	_memman_free_4k
  3307 00002141 83 C4 0C                        	ADD	ESP,12
  3308 00002144                                 L559:
  3309 00002144 57                              	PUSH	EDI
  3310 00002145 E8 FFFFE78B                     	CALL	_cons_newline
  3311 0000214A 8D 65 F4                        	LEA	ESP,DWORD [-12+EBP]
  3312 0000214D 5B                              	POP	EBX
  3313 0000214E 5E                              	POP	ESI
  3314 0000214F 5F                              	POP	EDI
  3315 00002150 5D                              	POP	EBP
  3316 00002151 C3                              	RET
  3317 00002152                                 L558:
  3318 00002152 68 [000007C5]                   	PUSH	LC110
  3319 00002157 57                              	PUSH	EDI
  3320 00002158 E8 FFFFE8CB                     	CALL	_cons_putstr0
  3321 0000215D 58                              	POP	EAX
  3322 0000215E 5A                              	POP	EDX
  3323 0000215F EB E3                           	JMP	L559
  3324 00002161                                 	GLOBAL	_cmd_cls
  3325 00002161                                 _cmd_cls:
  3326 00002161 55                              	PUSH	EBP
  3327 00002162 89 E5                           	MOV	EBP,ESP
  3328 00002164 57                              	PUSH	EDI
  3329 00002165 56                              	PUSH	ESI
  3330 00002166 BE 0000001C                     	MOV	ESI,28
  3331 0000216B 53                              	PUSH	EBX
  3332 0000216C 51                              	PUSH	ECX
  3333 0000216D 51                              	PUSH	ECX
  3334 0000216E 8B 45 08                        	MOV	EAX,DWORD [8+EBP]
  3335 00002171 8B 18                           	MOV	EBX,DWORD [EAX]
  3336 00002173 8B 43 08                        	MOV	EAX,DWORD [8+EBX]
  3337 00002176 8B 53 04                        	MOV	EDX,DWORD [4+EBX]
  3338 00002179 83 EA 10                        	SUB	EDX,16
  3339 0000217C 89 55 F0                        	MOV	DWORD [-16+EBP],EDX
  3340 0000217F 8D 50 DB                        	LEA	EDX,DWORD [-37+EAX]
  3341 00002182 83 E8 09                        	SUB	EAX,9
  3342 00002185 89 55 EC                        	MOV	DWORD [-20+EBP],EDX
  3343 00002188 39 C6                           	CMP	ESI,EAX
  3344 0000218A 7D 2E                           	JGE	L572
  3345 0000218C                                 L570:
  3346 0000218C 8B 7D F0                        	MOV	EDI,DWORD [-16+EBP]
  3347 0000218F B9 00000008                     	MOV	ECX,8
  3348 00002194 83 C7 08                        	ADD	EDI,8
  3349 00002197 39 F9                           	CMP	ECX,EDI
  3350 00002199 7D 14                           	JGE	L574
  3351 0000219B                                 L569:
  3352 0000219B 89 F0                           	MOV	EAX,ESI
  3353 0000219D 8B 13                           	MOV	EDX,DWORD [EBX]
  3354 0000219F 0F AF 43 04                     	IMUL	EAX,DWORD [4+EBX]
  3355 000021A3 8D 04 08                        	LEA	EAX,DWORD [EAX+ECX*1]
  3356 000021A6 41                              	INC	ECX
  3357 000021A7 39 F9                           	CMP	ECX,EDI
  3358 000021A9 C6 04 10 00                     	MOV	BYTE [EAX+EDX*1],0
  3359 000021AD 7C EC                           	JL	L569
  3360 000021AF                                 L574:
  3361 000021AF 8B 45 EC                        	MOV	EAX,DWORD [-20+EBP]
  3362 000021B2 46                              	INC	ESI
  3363 000021B3 83 C0 1C                        	ADD	EAX,28
  3364 000021B6 39 C6                           	CMP	ESI,EAX
  3365 000021B8 7C D2                           	JL	L570
  3366 000021BA                                 L572:
  3367 000021BA 8B 45 EC                        	MOV	EAX,DWORD [-20+EBP]
  3368 000021BD 83 C0 1C                        	ADD	EAX,28
  3369 000021C0 50                              	PUSH	EAX
  3370 000021C1 8B 45 F0                        	MOV	EAX,DWORD [-16+EBP]
  3371 000021C4 83 C0 08                        	ADD	EAX,8
  3372 000021C7 50                              	PUSH	EAX
  3373 000021C8 6A 1C                           	PUSH	28
  3374 000021CA 6A 08                           	PUSH	8
  3375 000021CC 53                              	PUSH	EBX
  3376 000021CD E8 [00000000]                   	CALL	_sheet_refresh
  3377 000021D2 8B 45 08                        	MOV	EAX,DWORD [8+EBP]
  3378 000021D5 C7 40 08 0000001C               	MOV	DWORD [8+EAX],28
  3379 000021DC 8D 65 F4                        	LEA	ESP,DWORD [-12+EBP]
  3380 000021DF 5B                              	POP	EBX
  3381 000021E0 5E                              	POP	ESI
  3382 000021E1 5F                              	POP	EDI
  3383 000021E2 5D                              	POP	EBP
  3384 000021E3 C3                              	RET
  3385 000021E4                                 	GLOBAL	_cmd_logcls
  3386 000021E4                                 _cmd_logcls:
  3387 000021E4 55                              	PUSH	EBP
  3388 000021E5 89 E5                           	MOV	EBP,ESP
  3389 000021E7 57                              	PUSH	EDI
  3390 000021E8 56                              	PUSH	ESI
  3391 000021E9 BE 0000001C                     	MOV	ESI,28
  3392 000021EE 53                              	PUSH	EBX
  3393 000021EF 53                              	PUSH	EBX
  3394 000021F0 53                              	PUSH	EBX
  3395 000021F1 A1 [00001DF0]                   	MOV	EAX,DWORD [_log]
  3396 000021F6 8B 18                           	MOV	EBX,DWORD [EAX]
  3397 000021F8 8B 43 04                        	MOV	EAX,DWORD [4+EBX]
  3398 000021FB 83 E8 10                        	SUB	EAX,16
  3399 000021FE 89 45 F0                        	MOV	DWORD [-16+EBP],EAX
  3400 00002201 8B 43 08                        	MOV	EAX,DWORD [8+EBX]
  3401 00002204 8D 50 DB                        	LEA	EDX,DWORD [-37+EAX]
  3402 00002207 83 E8 09                        	SUB	EAX,9
  3403 0000220A 89 55 EC                        	MOV	DWORD [-20+EBP],EDX
  3404 0000220D 39 C6                           	CMP	ESI,EAX
  3405 0000220F 7D 2E                           	JGE	L587
  3406 00002211                                 L585:
  3407 00002211 8B 7D F0                        	MOV	EDI,DWORD [-16+EBP]
  3408 00002214 B9 00000008                     	MOV	ECX,8
  3409 00002219 83 C7 08                        	ADD	EDI,8
  3410 0000221C 39 F9                           	CMP	ECX,EDI
  3411 0000221E 7D 14                           	JGE	L589
  3412 00002220                                 L584:
  3413 00002220 89 F0                           	MOV	EAX,ESI
  3414 00002222 8B 13                           	MOV	EDX,DWORD [EBX]
  3415 00002224 0F AF 43 04                     	IMUL	EAX,DWORD [4+EBX]
  3416 00002228 8D 04 08                        	LEA	EAX,DWORD [EAX+ECX*1]
  3417 0000222B 41                              	INC	ECX
  3418 0000222C 39 F9                           	CMP	ECX,EDI
  3419 0000222E C6 04 10 00                     	MOV	BYTE [EAX+EDX*1],0
  3420 00002232 7C EC                           	JL	L584
  3421 00002234                                 L589:
  3422 00002234 8B 45 EC                        	MOV	EAX,DWORD [-20+EBP]
  3423 00002237 46                              	INC	ESI
  3424 00002238 83 C0 1C                        	ADD	EAX,28
  3425 0000223B 39 C6                           	CMP	ESI,EAX
  3426 0000223D 7C D2                           	JL	L585
  3427 0000223F                                 L587:
  3428 0000223F 8B 45 EC                        	MOV	EAX,DWORD [-20+EBP]
  3429 00002242 83 C0 1C                        	ADD	EAX,28
  3430 00002245 50                              	PUSH	EAX
  3431 00002246 8B 45 F0                        	MOV	EAX,DWORD [-16+EBP]
  3432 00002249 83 C0 08                        	ADD	EAX,8
  3433 0000224C 50                              	PUSH	EAX
  3434 0000224D 6A 1C                           	PUSH	28
  3435 0000224F 6A 08                           	PUSH	8
  3436 00002251 53                              	PUSH	EBX
  3437 00002252 E8 [00000000]                   	CALL	_sheet_refresh
  3438 00002257 A1 [00001DF0]                   	MOV	EAX,DWORD [_log]
  3439 0000225C C7 40 08 0000001C               	MOV	DWORD [8+EAX],28
  3440 00002263 8D 65 F4                        	LEA	ESP,DWORD [-12+EBP]
  3441 00002266 5B                              	POP	EBX
  3442 00002267 5E                              	POP	ESI
  3443 00002268 5F                              	POP	EDI
  3444 00002269 5D                              	POP	EBP
  3445 0000226A C3                              	RET
  3446                                          [SECTION .data]
  3447 000007D6                                 LC111:
  3448 000007D6 42 4C 4F 43 4B 5F 53 49 5A 45   	DB	"BLOCK_SIZE = %d",0x0A,0x00
       000007E0 20 3D 20 25 64 0A 00 
  3449 000007E7                                 LC112:
  3450 000007E7 73 69 7A 65 6F 66 28 73 74 72   	DB	"sizeof(struct HEAD) = %d",0x0A,0x00
       000007F1 75 63 74 20 48 45 41 44 29 20 
       000007FB 3D 20 25 64 0A 00 
  3451 00000801                                 LC113:
  3452 00000801 42 4F 44 59 5F 53 49 5A 45 20   	DB	"BODY_SIZE = BLOCK_SIZE - sizeof(struct HEAD) = %d",0x0A,0x00
       0000080B 3D 20 42 4C 4F 43 4B 5F 53 49 
       00000815 5A 45 20 2D 20 73 69 7A 65 6F 
       0000081F 66 28 73 74 72 75 63 74 20 48 
       00000829 45 41 44 29 20 3D 20 25 64 0A 
       00000833 00 
  3453                                          [SECTION .text]
  3454 0000226B                                 	GLOBAL	_cmd_test
  3455 0000226B                                 _cmd_test:
  3456 0000226B 55                              	PUSH	EBP
  3457 0000226C 89 E5                           	MOV	EBP,ESP
  3458 0000226E 53                              	PUSH	EBX
  3459 0000226F 83 EC 70                        	SUB	ESP,112
  3460 00002272 8D 5D 8C                        	LEA	EBX,DWORD [-116+EBP]
  3461 00002275 68 00000400                     	PUSH	1024
  3462 0000227A 68 [000007D6]                   	PUSH	LC111
  3463 0000227F 53                              	PUSH	EBX
  3464 00002280 E8 [00000000]                   	CALL	_sprintf
  3465 00002285 53                              	PUSH	EBX
  3466 00002286 E8 FFFFDD75                     	CALL	_debug_print
  3467 0000228B 6A 1C                           	PUSH	28
  3468 0000228D 68 [000007E7]                   	PUSH	LC112
  3469 00002292 53                              	PUSH	EBX
  3470 00002293 E8 [00000000]                   	CALL	_sprintf
  3471 00002298 53                              	PUSH	EBX
  3472 00002299 E8 FFFFDD62                     	CALL	_debug_print
  3473 0000229E 83 C4 20                        	ADD	ESP,32
  3474 000022A1 68 000003E4                     	PUSH	996
  3475 000022A6 68 [00000801]                   	PUSH	LC113
  3476 000022AB 53                              	PUSH	EBX
  3477 000022AC E8 [00000000]                   	CALL	_sprintf
  3478 000022B1 53                              	PUSH	EBX
  3479 000022B2 E8 FFFFDD49                     	CALL	_debug_print
  3480 000022B7 FF 75 08                        	PUSH	DWORD [8+EBP]
  3481 000022BA E8 FFFFE616                     	CALL	_cons_newline
  3482 000022BF 8B 5D FC                        	MOV	EBX,DWORD [-4+EBP]
  3483 000022C2 C9                              	LEAVE
  3484 000022C3 C3                              	RET
  3485                                          [SECTION .data]
  3486 00000834                                 LC114:
  3487 00000834 09 66 69 6E 66 6F 20 61 64 64   	DB	0x09,"finfo addr = 0x%08x",0x0A,0x00
       0000083E 72 20 3D 20 30 78 25 30 38 78 
       00000848 0A 00 
  3488 0000084A                                 LC117:
  3489 0000084A 09 6E 61 6D 65 3D 25 73 5B 45   	DB	0x09,"name=%s[EOF]",0x0A,0x09,"ext=%s[EOF]",0x0A,0x09,"clustno=%d",0x0A,0x09,"date=%d",0x0A,0x09,"size=%d[byte]",0x0A,0x09,"time=%d",0x0A,0x09,"type=0x%02x",0x0A,0x00
       00000854 4F 46 5D 0A 09 65 78 74 3D 25 
       0000085E 73 5B 45 4F 46 5D 0A 09 63 6C 
       00000868 75 73 74 6E 6F 3D 25 64 0A 09 
       00000872 64 61 74 65 3D 25 64 0A 09 73 
       0000087C 69 7A 65 3D 25 64 5B 62 79 74 
       00000886 65 5D 0A 09 74 69 6D 65 3D 25 
       00000890 64 0A 09 74 79 70 65 3D 30 78 
       0000089A 25 30 32 78 0A 00 
  3490 000008A0                                 LC118:
  3491 000008A0 09 64 65 74 61 69 6C 20 66 69   	DB	0x09,"detail file type: ",0x00
       000008AA 6C 65 20 74 79 70 65 3A 20 00 
  3492 000008B4                                 LC123:
  3493 000008B4 25 73 0A 00                     	DB	"%s",0x0A,0x00
  3494 000008B8                                 LC122:
  3495 000008B8 25 73 20 6F 74 68 65 72 20 00   	DB	"%s other ",0x00
  3496 000008C2                                 LC121:
  3497 000008C2 25 73 20 73 79 73 74 65 6D 20   	DB	"%s system ",0x00
       000008CC 00 
  3498 000008CD                                 LC120:
  3499 000008CD 25 73 20 66 69 6C 65 20 00      	DB	"%s file ",0x00
  3500 000008D6                                 LC119:
  3501 000008D6 25 73 20 64 69 72 65 63 74 6F   	DB	"%s directory/readonly ",0x00
       000008E0 72 79 2F 72 65 61 64 6F 6E 6C 
       000008EA 79 20 00 
  3502 000008ED                                 LC115:
  3503 000008ED 09 25 73 20 77 61 73 20 6E 6F   	DB	0x09,"%s was not found.",0x0A,0x00
       000008F7 74 20 66 6F 75 6E 64 2E 0A 00 
  3504 00000901                                 LC116:
  3505 00000901 09 66 69 6E 66 6F 20 6E 75 6D   	DB	0x09,"finfo number was %d.",0x0A,0x00
       0000090B 62 65 72 20 77 61 73 20 25 64 
       00000915 2E 0A 00 
  3506                                          [SECTION .text]
  3507 000022C4                                 	GLOBAL	_cmd_show
  3508 000022C4                                 _cmd_show:
  3509 000022C4 55                              	PUSH	EBP
  3510 000022C5 89 E5                           	MOV	EBP,ESP
  3511 000022C7 57                              	PUSH	EDI
  3512 000022C8 56                              	PUSH	ESI
  3513 000022C9 53                              	PUSH	EBX
  3514 000022CA 8D B5 FFFFFF54                  	LEA	ESI,DWORD [-172+EBP]
  3515 000022D0 81 EC 000000A0                  	SUB	ESP,160
  3516 000022D6 8B 45 08                        	MOV	EAX,DWORD [8+EBP]
  3517 000022D9 8B 7D 0C                        	MOV	EDI,DWORD [12+EBP]
  3518 000022DC 6A 32                           	PUSH	50
  3519 000022DE 83 C7 05                        	ADD	EDI,5
  3520 000022E1 FF 70 14                        	PUSH	DWORD [20+EAX]
  3521 000022E4 57                              	PUSH	EDI
  3522 000022E5 E8 [00000000]                   	CALL	_myfinfo_search
  3523 000022EA 89 C3                           	MOV	EBX,EAX
  3524 000022EC 50                              	PUSH	EAX
  3525 000022ED 68 [00000834]                   	PUSH	LC114
  3526 000022F2 56                              	PUSH	ESI
  3527 000022F3 E8 [00000000]                   	CALL	_sprintf
  3528 000022F8 56                              	PUSH	ESI
  3529 000022F9 FF 75 08                        	PUSH	DWORD [8+EBP]
  3530 000022FC E8 FFFFE6F9                     	CALL	_cons_putstr
  3531 00002301 83 C4 20                        	ADD	ESP,32
  3532 00002304 85 DB                           	TEST	EBX,EBX
  3533 00002306 0F 84 000000D0                  	JE	L599
  3534 0000230C 0F B6 43 0B                     	MOVZX	EAX,BYTE [11+EBX]
  3535 00002310 50                              	PUSH	EAX
  3536 00002311 0F B7 43 16                     	MOVZX	EAX,WORD [22+EBX]
  3537 00002315 50                              	PUSH	EAX
  3538 00002316 FF 73 1C                        	PUSH	DWORD [28+EBX]
  3539 00002319 0F B7 43 18                     	MOVZX	EAX,WORD [24+EBX]
  3540 0000231D 50                              	PUSH	EAX
  3541 0000231E 0F B7 43 1A                     	MOVZX	EAX,WORD [26+EBX]
  3542 00002322 50                              	PUSH	EAX
  3543 00002323 8D 43 08                        	LEA	EAX,DWORD [8+EBX]
  3544 00002326 50                              	PUSH	EAX
  3545 00002327 53                              	PUSH	EBX
  3546 00002328 68 [0000084A]                   	PUSH	LC117
  3547 0000232D 56                              	PUSH	ESI
  3548 0000232E E8 [00000000]                   	CALL	_sprintf
  3549 00002333 83 C4 24                        	ADD	ESP,36
  3550 00002336 56                              	PUSH	ESI
  3551 00002337 FF 75 08                        	PUSH	DWORD [8+EBP]
  3552 0000233A E8 FFFFE6BB                     	CALL	_cons_putstr
  3553 0000233F 8A 5B 0B                        	MOV	BL,BYTE [11+EBX]
  3554 00002342 59                              	POP	ECX
  3555 00002343 5F                              	POP	EDI
  3556 00002344 68 [000008A0]                   	PUSH	LC118
  3557 00002349 56                              	PUSH	ESI
  3558 0000234A E8 [00000000]                   	CALL	_sprintf
  3559 0000234F 5F                              	POP	EDI
  3560 00002350 88 D8                           	MOV	AL,BL
  3561 00002352 5A                              	POP	EDX
  3562 00002353 83 E0 10                        	AND	EAX,16
  3563 00002356 84 C0                           	TEST	AL,AL
  3564 00002358 75 6E                           	JNE	L600
  3565 0000235A                                 L594:
  3566 0000235A 88 D8                           	MOV	AL,BL
  3567 0000235C 83 E0 20                        	AND	EAX,32
  3568 0000235F 84 C0                           	TEST	AL,AL
  3569 00002361 75 54                           	JNE	L601
  3570 00002363                                 L595:
  3571 00002363 88 D8                           	MOV	AL,BL
  3572 00002365 83 E0 40                        	AND	EAX,64
  3573 00002368 84 C0                           	TEST	AL,AL
  3574 0000236A 75 3A                           	JNE	L602
  3575 0000236C                                 L596:
  3576 0000236C 84 DB                           	TEST	BL,BL
  3577 0000236E 78 25                           	JS	L603
  3578 00002370                                 L597:
  3579 00002370 56                              	PUSH	ESI
  3580 00002371 68 [000008B4]                   	PUSH	LC123
  3581 00002376 56                              	PUSH	ESI
  3582 00002377 E8 [00000000]                   	CALL	_sprintf
  3583 0000237C 56                              	PUSH	ESI
  3584 0000237D FF 75 08                        	PUSH	DWORD [8+EBP]
  3585 00002380 E8 FFFFE6A3                     	CALL	_cons_putstr0
  3586 00002385                                 L598:
  3587 00002385 FF 75 08                        	PUSH	DWORD [8+EBP]
  3588 00002388 E8 FFFFE548                     	CALL	_cons_newline
  3589 0000238D 8D 65 F4                        	LEA	ESP,DWORD [-12+EBP]
  3590 00002390 5B                              	POP	EBX
  3591 00002391 5E                              	POP	ESI
  3592 00002392 5F                              	POP	EDI
  3593 00002393 5D                              	POP	EBP
  3594 00002394 C3                              	RET
  3595 00002395                                 L603:
  3596 00002395 56                              	PUSH	ESI
  3597 00002396 68 [000008B8]                   	PUSH	LC122
  3598 0000239B 56                              	PUSH	ESI
  3599 0000239C E8 [00000000]                   	CALL	_sprintf
  3600 000023A1 83 C4 0C                        	ADD	ESP,12
  3601 000023A4 EB CA                           	JMP	L597
  3602 000023A6                                 L602:
  3603 000023A6 56                              	PUSH	ESI
  3604 000023A7 68 [000008C2]                   	PUSH	LC121
  3605 000023AC 56                              	PUSH	ESI
  3606 000023AD E8 [00000000]                   	CALL	_sprintf
  3607 000023B2 83 C4 0C                        	ADD	ESP,12
  3608 000023B5 EB B5                           	JMP	L596
  3609 000023B7                                 L601:
  3610 000023B7 56                              	PUSH	ESI
  3611 000023B8 68 [000008CD]                   	PUSH	LC120
  3612 000023BD 56                              	PUSH	ESI
  3613 000023BE E8 [00000000]                   	CALL	_sprintf
  3614 000023C3 83 C4 0C                        	ADD	ESP,12
  3615 000023C6 EB 9B                           	JMP	L595
  3616 000023C8                                 L600:
  3617 000023C8 56                              	PUSH	ESI
  3618 000023C9 68 [000008D6]                   	PUSH	LC119
  3619 000023CE 56                              	PUSH	ESI
  3620 000023CF E8 [00000000]                   	CALL	_sprintf
  3621 000023D4 83 C4 0C                        	ADD	ESP,12
  3622 000023D7 E9 FFFFFF7E                     	JMP	L594
  3623 000023DC                                 L599:
  3624 000023DC 57                              	PUSH	EDI
  3625 000023DD 68 [000008ED]                   	PUSH	LC115
  3626 000023E2 56                              	PUSH	ESI
  3627 000023E3 E8 [00000000]                   	CALL	_sprintf
  3628 000023E8 56                              	PUSH	ESI
  3629 000023E9 FF 75 08                        	PUSH	DWORD [8+EBP]
  3630 000023EC E8 FFFFE609                     	CALL	_cons_putstr
  3631 000023F1 6A 00                           	PUSH	0
  3632 000023F3 68 [00000901]                   	PUSH	LC116
  3633 000023F8 56                              	PUSH	ESI
  3634 000023F9 E8 [00000000]                   	CALL	_sprintf
  3635 000023FE 83 C4 20                        	ADD	ESP,32
  3636 00002401 56                              	PUSH	ESI
  3637 00002402 FF 75 08                        	PUSH	DWORD [8+EBP]
  3638 00002405 E8 FFFFE5F0                     	CALL	_cons_putstr
  3639 0000240A E9 FFFFFF76                     	JMP	L598
  3640                                          [SECTION .data]
  3641 00000918                                 LC124:
  3642 00000918 66 69 6E 66 6F 20 61 64 64 72   	DB	"finfo addr = 0x%08x",0x0A,0x00
       00000922 20 3D 20 30 78 25 30 38 78 0A 
       0000092C 00 
  3643 0000092D                                 LC125:
  3644 0000092D 66 64 61 74 61 20 61 64 64 72   	DB	"fdata addr = 0x%08x",0x0A,0x00
       00000937 20 3D 20 30 78 25 30 38 78 0A 
       00000941 00 
  3645 00000942                                 LC126:
  3646 00000942 68 65 61 64 2E 64 61 74 61 5F   	DB	"head.data_addr=0x%08x",0x0A,0x00
       0000094C 61 64 64 72 3D 30 78 25 30 38 
       00000956 78 0A 00 
  3647 00000959                                 LC127:
  3648 00000959 68 65 61 64 2E 64 69 72 5F 61   	DB	"head.dir_addr=0x%08x",0x0A,0x00
       00000963 64 64 72 3D 30 78 25 30 38 78 
       0000096D 0A 00 
  3649 0000096F                                 LC128:
  3650 0000096F 68 65 61 64 2E 73 74 61 74 3D   	DB	"head.stat=0x%02x",0x0A,0x00
       00000979 30 78 25 30 32 78 0A 00 
  3651 00000981                                 LC129:
  3652 00000981 5B 45 4F 46 5D 0A 00            	DB	"[EOF]",0x0A,0x00
  3653 00000988                                 LC130:
  3654 00000988 73 69 7A 65 3A 20 25 64 0A 00   	DB	"size: %d",0x0A,0x00
  3655 00000992                                 LC131:
  3656 00000992 09 74 68 69 73 20 69 73 20 6E   	DB	0x09,"this is not file.",0x0A,0x00
       0000099C 6F 74 20 66 69 6C 65 2E 0A 00 
  3657                                          [SECTION .text]
  3658 0000240F                                 	GLOBAL	_cmd_fview
  3659 0000240F                                 _cmd_fview:
  3660 0000240F 55                              	PUSH	EBP
  3661 00002410 89 E5                           	MOV	EBP,ESP
  3662 00002412 57                              	PUSH	EDI
  3663 00002413 56                              	PUSH	ESI
  3664 00002414 53                              	PUSH	EBX
  3665 00002415 8D 9D FFFFFF64                  	LEA	EBX,DWORD [-156+EBP]
  3666 0000241B 81 EC 00000090                  	SUB	ESP,144
  3667 00002421 8B 45 08                        	MOV	EAX,DWORD [8+EBP]
  3668 00002424 8B 7D 0C                        	MOV	EDI,DWORD [12+EBP]
  3669 00002427 6A 32                           	PUSH	50
  3670 00002429 83 C7 06                        	ADD	EDI,6
  3671 0000242C FF 70 14                        	PUSH	DWORD [20+EAX]
  3672 0000242F 57                              	PUSH	EDI
  3673 00002430 E8 [00000000]                   	CALL	_myfinfo_search
  3674 00002435 89 C6                           	MOV	ESI,EAX
  3675 00002437 50                              	PUSH	EAX
  3676 00002438 68 [00000918]                   	PUSH	LC124
  3677 0000243D 53                              	PUSH	EBX
  3678 0000243E E8 [00000000]                   	CALL	_sprintf
  3679 00002443 53                              	PUSH	EBX
  3680 00002444 E8 FFFFDBB7                     	CALL	_debug_print
  3681 00002449 83 C4 1C                        	ADD	ESP,28
  3682 0000244C 85 F6                           	TEST	ESI,ESI
  3683 0000244E 0F 84 000000DE                  	JE	L609
  3684 00002454 8B 46 24                        	MOV	EAX,DWORD [36+ESI]
  3685 00002457 85 C0                           	TEST	EAX,EAX
  3686 00002459 0F 84 000000B2                  	JE	L607
  3687 0000245F 50                              	PUSH	EAX
  3688 00002460 68 [0000092D]                   	PUSH	LC125
  3689 00002465 53                              	PUSH	EBX
  3690 00002466 E8 [00000000]                   	CALL	_sprintf
  3691 0000246B 53                              	PUSH	EBX
  3692 0000246C E8 FFFFDB8F                     	CALL	_debug_print
  3693 00002471 8B 46 24                        	MOV	EAX,DWORD [36+ESI]
  3694 00002474 FF 70 10                        	PUSH	DWORD [16+EAX]
  3695 00002477 68 [00000942]                   	PUSH	LC126
  3696 0000247C 53                              	PUSH	EBX
  3697 0000247D E8 [00000000]                   	CALL	_sprintf
  3698 00002482 53                              	PUSH	EBX
  3699 00002483 E8 FFFFDB78                     	CALL	_debug_print
  3700 00002488 8B 46 24                        	MOV	EAX,DWORD [36+ESI]
  3701 0000248B 83 C4 20                        	ADD	ESP,32
  3702 0000248E FF 70 14                        	PUSH	DWORD [20+EAX]
  3703 00002491 68 [00000959]                   	PUSH	LC127
  3704 00002496 53                              	PUSH	EBX
  3705 00002497 E8 [00000000]                   	CALL	_sprintf
  3706 0000249C 53                              	PUSH	EBX
  3707 0000249D E8 FFFFDB5E                     	CALL	_debug_print
  3708 000024A2 8B 46 24                        	MOV	EAX,DWORD [36+ESI]
  3709 000024A5 0F B6 00                        	MOVZX	EAX,BYTE [EAX]
  3710 000024A8 50                              	PUSH	EAX
  3711 000024A9 68 [0000096F]                   	PUSH	LC128
  3712 000024AE 53                              	PUSH	EBX
  3713 000024AF E8 [00000000]                   	CALL	_sprintf
  3714 000024B4 53                              	PUSH	EBX
  3715 000024B5 E8 FFFFDB46                     	CALL	_debug_print
  3716 000024BA 83 C4 20                        	ADD	ESP,32
  3717 000024BD FF 76 24                        	PUSH	DWORD [36+ESI]
  3718 000024C0 53                              	PUSH	EBX
  3719 000024C1 E8 [00000000]                   	CALL	_myfread
  3720 000024C6 53                              	PUSH	EBX
  3721 000024C7 FF 75 08                        	PUSH	DWORD [8+EBP]
  3722 000024CA E8 FFFFE52B                     	CALL	_cons_putstr
  3723 000024CF 68 [00000981]                   	PUSH	LC129
  3724 000024D4 FF 75 08                        	PUSH	DWORD [8+EBP]
  3725 000024D7 E8 FFFFE51E                     	CALL	_cons_putstr
  3726 000024DC FF 76 24                        	PUSH	DWORD [36+ESI]
  3727 000024DF E8 [00000000]                   	CALL	_get_size_myfdata
  3728 000024E4 89 04 24                        	MOV	DWORD [ESP],EAX
  3729 000024E7 68 [00000988]                   	PUSH	LC130
  3730 000024EC 53                              	PUSH	EBX
  3731 000024ED E8 [00000000]                   	CALL	_sprintf
  3732 000024F2 83 C4 24                        	ADD	ESP,36
  3733 000024F5 53                              	PUSH	EBX
  3734 000024F6 FF 75 08                        	PUSH	DWORD [8+EBP]
  3735 000024F9 E8 FFFFE4FC                     	CALL	_cons_putstr
  3736 000024FE FF 75 08                        	PUSH	DWORD [8+EBP]
  3737 00002501 E8 FFFFE3CF                     	CALL	_cons_newline
  3738 00002506 83 C4 0C                        	ADD	ESP,12
  3739 00002509                                 L604:
  3740 00002509 8D 65 F4                        	LEA	ESP,DWORD [-12+EBP]
  3741 0000250C 5B                              	POP	EBX
  3742 0000250D 5E                              	POP	ESI
  3743 0000250E 5F                              	POP	EDI
  3744 0000250F 5D                              	POP	EBP
  3745 00002510 C3                              	RET
  3746 00002511                                 L607:
  3747 00002511 68 [00000992]                   	PUSH	LC131
  3748 00002516 53                              	PUSH	EBX
  3749 00002517 E8 [00000000]                   	CALL	_sprintf
  3750 0000251C 53                              	PUSH	EBX
  3751 0000251D FF 75 08                        	PUSH	DWORD [8+EBP]
  3752 00002520 E8 FFFFE4D5                     	CALL	_cons_putstr
  3753 00002525 FF 75 08                        	PUSH	DWORD [8+EBP]
  3754 00002528 E8 FFFFE3A8                     	CALL	_cons_newline
  3755 0000252D 83 C4 14                        	ADD	ESP,20
  3756 00002530 EB D7                           	JMP	L604
  3757 00002532                                 L609:
  3758 00002532 57                              	PUSH	EDI
  3759 00002533 68 [000008ED]                   	PUSH	LC115
  3760 00002538 53                              	PUSH	EBX
  3761 00002539 E8 [00000000]                   	CALL	_sprintf
  3762 0000253E 53                              	PUSH	EBX
  3763 0000253F FF 75 08                        	PUSH	DWORD [8+EBP]
  3764 00002542 E8 FFFFE4B3                     	CALL	_cons_putstr
  3765 00002547 6A 00                           	PUSH	0
  3766 00002549 68 [00000901]                   	PUSH	LC116
  3767 0000254E 53                              	PUSH	EBX
  3768 0000254F E8 [00000000]                   	CALL	_sprintf
  3769 00002554 83 C4 20                        	ADD	ESP,32
  3770 00002557 53                              	PUSH	EBX
  3771 00002558 FF 75 08                        	PUSH	DWORD [8+EBP]
  3772 0000255B E8 FFFFE49A                     	CALL	_cons_putstr
  3773 00002560 FF 75 08                        	PUSH	DWORD [8+EBP]
  3774 00002563 E8 FFFFE36D                     	CALL	_cons_newline
  3775 00002568 EB 9F                           	JMP	L604
  3776                                          [SECTION .data]
  3777 000009A6                                 LC132:
  3778 000009A6 52 4F 4F 54 20 20 20 20 00      	DB	"ROOT    ",0x00
  3779 000009AF                                 LC134:
  3780 000009AF 6D 61 6B 65 20 66 69 6C 65 73   	DB	"make filesystem!",0x0A,0x00
       000009B9 79 73 74 65 6D 21 0A 00 
  3781 000009C1                                 LC133:
  3782 000009C1 66 69 6C 65 6E 61 6D 65 2E 65   	DB	"filename.ext   %7d",0x0A,0x00
       000009CB 78 74 20 20 20 25 37 64 0A 00 
  3783                                          [SECTION .text]
  3784 0000256A                                 	GLOBAL	_cmd_mkfs
  3785 0000256A                                 _cmd_mkfs:
  3786 0000256A 55                              	PUSH	EBP
  3787 0000256B 89 E5                           	MOV	EBP,ESP
  3788 0000256D 57                              	PUSH	EDI
  3789 0000256E 56                              	PUSH	ESI
  3790 0000256F 31 FF                           	XOR	EDI,EDI
  3791 00002571 53                              	PUSH	EBX
  3792 00002572 8D 45 E4                        	LEA	EAX,DWORD [-28+EBP]
  3793 00002575 81 EC 00000800                  	SUB	ESP,2048
  3794 0000257B 8D 75 F4                        	LEA	ESI,DWORD [-12+EBP]
  3795 0000257E 68 [000009A6]                   	PUSH	LC132
  3796 00002583 50                              	PUSH	EAX
  3797 00002584 E8 [00000000]                   	CALL	_sprintf
  3798 00002589 8B 45 08                        	MOV	EAX,DWORD [8+EBP]
  3799 0000258C C7 45 EC 00000000               	MOV	DWORD [-20+EBP],0
  3800 00002593 C7 45 F0 00400000               	MOV	DWORD [-16+EBP],4194304
  3801 0000259A C7 40 14 00400000               	MOV	DWORD [20+EAX],4194304
  3802 000025A1 59                              	POP	ECX
  3803 000025A2 5B                              	POP	EBX
  3804 000025A3 31 DB                           	XOR	EBX,EBX
  3805 000025A5                                 L638:
  3806 000025A5 8A 83 00102600                  	MOV	AL,BYTE [1058304+EBX]
  3807 000025AB 84 C0                           	TEST	AL,AL
  3808 000025AD 74 19                           	JE	L612
  3809 000025AF 3C E5                           	CMP	AL,-27
  3810 000025B1 74 09                           	JE	L613
  3811 000025B3 F6 83 0010260B 18               	TEST	BYTE [1058315+EBX],24
  3812 000025BA 74 49                           	JE	L648
  3813 000025BC                                 L613:
  3814 000025BC 47                              	INC	EDI
  3815 000025BD 83 C3 20                        	ADD	EBX,32
  3816 000025C0 83 C6 28                        	ADD	ESI,40
  3817 000025C3 83 FF 09                        	CMP	EDI,9
  3818 000025C6 7E DD                           	JLE	L638
  3819 000025C8                                 L612:
  3820 000025C8 FC                              	CLD
  3821 000025C9 8D B5 FFFFF814                  	LEA	ESI,DWORD [-2028+EBP]
  3822 000025CF BF 00400000                     	MOV	EDI,4194304
  3823 000025D4 B9 000001F8                     	MOV	ECX,504
  3824 000025D9 8D 9D FFFFF7F4                  	LEA	EBX,DWORD [-2060+EBP]
  3825 000025DF F3                              	REP
  3826 000025E0 A5                              	MOVSD
  3827 000025E1 68 [000009AF]                   	PUSH	LC134
  3828 000025E6 53                              	PUSH	EBX
  3829 000025E7 E8 [00000000]                   	CALL	_sprintf
  3830 000025EC 53                              	PUSH	EBX
  3831 000025ED FF 75 08                        	PUSH	DWORD [8+EBP]
  3832 000025F0 E8 FFFFE433                     	CALL	_cons_putstr0
  3833 000025F5 FF 75 08                        	PUSH	DWORD [8+EBP]
  3834 000025F8 E8 FFFFE2D8                     	CALL	_cons_newline
  3835 000025FD 8D 65 F4                        	LEA	ESP,DWORD [-12+EBP]
  3836 00002600 5B                              	POP	EBX
  3837 00002601 5E                              	POP	ESI
  3838 00002602 5F                              	POP	EDI
  3839 00002603 5D                              	POP	EBP
  3840 00002604 C3                              	RET
  3841 00002605                                 L648:
  3842 00002605 FF B3 0010261C                  	PUSH	DWORD [1058332+EBX]
  3843 0000260B 68 [000009C1]                   	PUSH	LC133
  3844 00002610 8D 85 FFFFF7F4                  	LEA	EAX,DWORD [-2060+EBP]
  3845 00002616 50                              	PUSH	EAX
  3846 00002617 E8 [00000000]                   	CALL	_sprintf
  3847 0000261C 8D 8B 00102600                  	LEA	ECX,DWORD [1058304+EBX]
  3848 00002622 31 D2                           	XOR	EDX,EDX
  3849 00002624 83 C4 0C                        	ADD	ESP,12
  3850 00002627                                 L622:
  3851 00002627 8A 01                           	MOV	AL,BYTE [ECX]
  3852 00002629 41                              	INC	ECX
  3853 0000262A 88 84 15 FFFFF7F4               	MOV	BYTE [-2060+EBP+EDX*1],AL
  3854 00002631 42                              	INC	EDX
  3855 00002632 83 FA 07                        	CMP	EDX,7
  3856 00002635 7E F0                           	JLE	L622
  3857 00002637 8A 83 00102608                  	MOV	AL,BYTE [1058312+EBX]
  3858 0000263D 31 D2                           	XOR	EDX,EDX
  3859 0000263F 88 85 FFFFF7FD                  	MOV	BYTE [-2051+EBP],AL
  3860 00002645 8D 8E FFFFF828                  	LEA	ECX,DWORD [-2008+ESI]
  3861 0000264B 8A 83 00102609                  	MOV	AL,BYTE [1058313+EBX]
  3862 00002651 88 85 FFFFF7FE                  	MOV	BYTE [-2050+EBP],AL
  3863 00002657 8A 83 0010260A                  	MOV	AL,BYTE [1058314+EBX]
  3864 0000265D 88 85 FFFFF7FF                  	MOV	BYTE [-2049+EBP],AL
  3865 00002663 66 8B 83 0010261A               	MOV	AX,WORD [1058330+EBX]
  3866 0000266A 66 89 86 FFFFF83A               	MOV	WORD [-1990+ESI],AX
  3867 00002671 66 8B 83 00102618               	MOV	AX,WORD [1058328+EBX]
  3868 00002678 66 89 86 FFFFF838               	MOV	WORD [-1992+ESI],AX
  3869 0000267F                                 L627:
  3870 0000267F 8A 84 13 00102608               	MOV	AL,BYTE [1058312+EBX+EDX*1]
  3871 00002686 42                              	INC	EDX
  3872 00002687 88 01                           	MOV	BYTE [ECX],AL
  3873 00002689 41                              	INC	ECX
  3874 0000268A 83 FA 02                        	CMP	EDX,2
  3875 0000268D 7E F0                           	JLE	L627
  3876 0000268F 31 D2                           	XOR	EDX,EDX
  3877 00002691 8D 8B 00102600                  	LEA	ECX,DWORD [1058304+EBX]
  3878 00002697                                 L632:
  3879 00002697 8A 01                           	MOV	AL,BYTE [ECX]
  3880 00002699 41                              	INC	ECX
  3881 0000269A 88 84 32 FFFFF820               	MOV	BYTE [-2016+EDX+ESI*1],AL
  3882 000026A1 42                              	INC	EDX
  3883 000026A2 83 FA 07                        	CMP	EDX,7
  3884 000026A5 7E F0                           	JLE	L632
  3885 000026A7 31 D2                           	XOR	EDX,EDX
  3886 000026A9 8D 8E FFFFF82C                  	LEA	ECX,DWORD [-2004+ESI]
  3887 000026AF                                 L637:
  3888 000026AF 8A 84 13 0010260C               	MOV	AL,BYTE [1058316+EBX+EDX*1]
  3889 000026B6 42                              	INC	EDX
  3890 000026B7 88 01                           	MOV	BYTE [ECX],AL
  3891 000026B9 41                              	INC	ECX
  3892 000026BA 83 FA 09                        	CMP	EDX,9
  3893 000026BD 7E F0                           	JLE	L637
  3894 000026BF 8B 83 0010261C                  	MOV	EAX,DWORD [1058332+EBX]
  3895 000026C5 89 86 FFFFF83C                  	MOV	DWORD [-1988+ESI],EAX
  3896 000026CB 66 8B 83 00102616               	MOV	AX,WORD [1058326+EBX]
  3897 000026D2 66 89 86 FFFFF836               	MOV	WORD [-1994+ESI],AX
  3898 000026D9 8A 83 0010260B                  	MOV	AL,BYTE [1058315+EBX]
  3899 000026DF 88 86 FFFFF82B                  	MOV	BYTE [-2005+ESI],AL
  3900 000026E5 8D 85 FFFFF7F4                  	LEA	EAX,DWORD [-2060+EBP]
  3901 000026EB 50                              	PUSH	EAX
  3902 000026EC FF 75 08                        	PUSH	DWORD [8+EBP]
  3903 000026EF E8 FFFFE334                     	CALL	_cons_putstr0
  3904 000026F4 58                              	POP	EAX
  3905 000026F5 5A                              	POP	EDX
  3906 000026F6 E9 FFFFFEC1                     	JMP	L613
  3907                                          [SECTION .data]
  3908 000009D5                                 LC135:
  3909 000009D5 64 69 72 65 63 74 6F 72 79 20   	DB	"directory name",0x09,"%s",0x0A,0x00
       000009DF 6E 61 6D 65 09 25 73 0A 00 
  3910 000009E8                                 LC136:
  3911 000009E8 63 75 72 72 65 6E 74 20 64 69   	DB	"current dir addr",0x09
       000009F2 72 20 61 64 64 72 09 
  3912 000009F9 30 78 25 30 38 78 0A 00         	DB	"0x%08x",0x0A,0x00
  3913 00000A01                                 LC137:
  3914 00000A01 70 61 72 65 6E 74 20 64 69 72   	DB	"parent dir addr",0x09
       00000A0B 20 61 64 64 72 09 
  3915 00000A11 30 78 25 30 38 78 0A 00         	DB	"0x%08x",0x0A,0x00
  3916 00000A19                                 LC140:
  3917 00000A19 74 68 69 73 20 64 69 72 65 63   	DB	"this directory has no file...",0x0A,0x00
       00000A23 74 6F 72 79 20 68 61 73 20 6E 
       00000A2D 6F 20 66 69 6C 65 2E 2E 2E 0A 
       00000A37 00 
  3918 00000A38                                 LC139:
  3919 00000A38 66 69 6C 65 6E 61 6D 65 20 20   	DB	"filename    ",0x09,"%7d [DIR]",0x0A,0x00
       00000A42 20 20 09 25 37 64 20 5B 44 49 
       00000A4C 52 5D 0A 00 
  3920 00000A50                                 LC138:
  3921 00000A50 66 69 6C 65 6E 61 6D 65 2E 65   	DB	"filename.ext",0x09,"%7d [FILE]",0x0A,0x00
       00000A5A 78 74 09 25 37 64 20 5B 46 49 
       00000A64 4C 45 5D 0A 00 
  3922                                          [SECTION .text]
  3923 000026FB                                 	GLOBAL	_cmd_dir
  3924 000026FB                                 _cmd_dir:
  3925 000026FB 55                              	PUSH	EBP
  3926 000026FC 89 E5                           	MOV	EBP,ESP
  3927 000026FE 57                              	PUSH	EDI
  3928 000026FF 56                              	PUSH	ESI
  3929 00002700 53                              	PUSH	EBX
  3930 00002701 8D 75 B4                        	LEA	ESI,DWORD [-76+EBP]
  3931 00002704 83 EC 40                        	SUB	ESP,64
  3932 00002707 8B 7D 08                        	MOV	EDI,DWORD [8+EBP]
  3933 0000270A 8B 5F 14                        	MOV	EBX,DWORD [20+EDI]
  3934 0000270D 8D 83 000007D0                  	LEA	EAX,DWORD [2000+EBX]
  3935 00002713 50                              	PUSH	EAX
  3936 00002714 68 [000009D5]                   	PUSH	LC135
  3937 00002719 56                              	PUSH	ESI
  3938 0000271A E8 [00000000]                   	CALL	_sprintf
  3939 0000271F 56                              	PUSH	ESI
  3940 00002720 57                              	PUSH	EDI
  3941 00002721 E8 FFFFE2D4                     	CALL	_cons_putstr
  3942 00002726 FF B3 000007DC                  	PUSH	DWORD [2012+EBX]
  3943 0000272C 68 [000009E8]                   	PUSH	LC136
  3944 00002731 56                              	PUSH	ESI
  3945 00002732 E8 [00000000]                   	CALL	_sprintf
  3946 00002737 83 C4 20                        	ADD	ESP,32
  3947 0000273A 56                              	PUSH	ESI
  3948 0000273B E8 FFFFD8C0                     	CALL	_debug_print
  3949 00002740 FF B3 000007D8                  	PUSH	DWORD [2008+EBX]
  3950 00002746 68 [00000A01]                   	PUSH	LC137
  3951 0000274B 56                              	PUSH	ESI
  3952 0000274C E8 [00000000]                   	CALL	_sprintf
  3953 00002751 56                              	PUSH	ESI
  3954 00002752 31 F6                           	XOR	ESI,ESI
  3955 00002754 E8 FFFFD8A7                     	CALL	_debug_print
  3956 00002759 83 C4 14                        	ADD	ESP,20
  3957 0000275C                                 L669:
  3958 0000275C 8A 03                           	MOV	AL,BYTE [EBX]
  3959 0000275E 84 C0                           	TEST	AL,AL
  3960 00002760 74 1E                           	JE	L651
  3961 00002762 3C E5                           	CMP	AL,-27
  3962 00002764 74 11                           	JE	L652
  3963 00002766 8A 43 0B                        	MOV	AL,BYTE [11+EBX]
  3964 00002769 A9 00000018                     	TEST	EAX,24
  3965 0000276E 74 6D                           	JE	L677
  3966 00002770 83 E0 10                        	AND	EAX,16
  3967 00002773 84 C0                           	TEST	AL,AL
  3968 00002775 75 35                           	JNE	L678
  3969 00002777                                 L652:
  3970 00002777 46                              	INC	ESI
  3971 00002778 83 C3 28                        	ADD	EBX,40
  3972 0000277B 83 FE 31                        	CMP	ESI,49
  3973 0000277E 7E DC                           	JLE	L669
  3974 00002780                                 L651:
  3975 00002780 85 F6                           	TEST	ESI,ESI
  3976 00002782 74 0E                           	JE	L679
  3977 00002784                                 L670:
  3978 00002784 57                              	PUSH	EDI
  3979 00002785 E8 FFFFE14B                     	CALL	_cons_newline
  3980 0000278A 8D 65 F4                        	LEA	ESP,DWORD [-12+EBP]
  3981 0000278D 5B                              	POP	EBX
  3982 0000278E 5E                              	POP	ESI
  3983 0000278F 5F                              	POP	EDI
  3984 00002790 5D                              	POP	EBP
  3985 00002791 C3                              	RET
  3986 00002792                                 L679:
  3987 00002792 68 [00000A19]                   	PUSH	LC140
  3988 00002797 8D 5D B4                        	LEA	EBX,DWORD [-76+EBP]
  3989 0000279A 53                              	PUSH	EBX
  3990 0000279B E8 [00000000]                   	CALL	_sprintf
  3991 000027A0 53                              	PUSH	EBX
  3992 000027A1 57                              	PUSH	EDI
  3993 000027A2 E8 FFFFE253                     	CALL	_cons_putstr
  3994 000027A7 83 C4 10                        	ADD	ESP,16
  3995 000027AA EB D8                           	JMP	L670
  3996 000027AC                                 L678:
  3997 000027AC FF 73 1C                        	PUSH	DWORD [28+EBX]
  3998 000027AF 68 [00000A38]                   	PUSH	LC139
  3999 000027B4 8D 45 B4                        	LEA	EAX,DWORD [-76+EBP]
  4000 000027B7 50                              	PUSH	EAX
  4001 000027B8 E8 [00000000]                   	CALL	_sprintf
  4002 000027BD 83 C4 0C                        	ADD	ESP,12
  4003 000027C0 31 D2                           	XOR	EDX,EDX
  4004 000027C2                                 L668:
  4005 000027C2 8A 04 1A                        	MOV	AL,BYTE [EDX+EBX*1]
  4006 000027C5 88 44 15 B4                     	MOV	BYTE [-76+EBP+EDX*1],AL
  4007 000027C9 42                              	INC	EDX
  4008 000027CA 83 FA 07                        	CMP	EDX,7
  4009 000027CD 7E F3                           	JLE	L668
  4010 000027CF                                 L676:
  4011 000027CF 8D 45 B4                        	LEA	EAX,DWORD [-76+EBP]
  4012 000027D2 50                              	PUSH	EAX
  4013 000027D3 57                              	PUSH	EDI
  4014 000027D4 E8 FFFFE221                     	CALL	_cons_putstr
  4015 000027D9 58                              	POP	EAX
  4016 000027DA 5A                              	POP	EDX
  4017 000027DB EB 9A                           	JMP	L652
  4018 000027DD                                 L677:
  4019 000027DD FF 73 1C                        	PUSH	DWORD [28+EBX]
  4020 000027E0 68 [00000A50]                   	PUSH	LC138
  4021 000027E5 8D 45 B4                        	LEA	EAX,DWORD [-76+EBP]
  4022 000027E8 50                              	PUSH	EAX
  4023 000027E9 E8 [00000000]                   	CALL	_sprintf
  4024 000027EE 83 C4 0C                        	ADD	ESP,12
  4025 000027F1 31 D2                           	XOR	EDX,EDX
  4026 000027F3                                 L661:
  4027 000027F3 8A 04 1A                        	MOV	AL,BYTE [EDX+EBX*1]
  4028 000027F6 88 44 15 B4                     	MOV	BYTE [-76+EBP+EDX*1],AL
  4029 000027FA 42                              	INC	EDX
  4030 000027FB 83 FA 07                        	CMP	EDX,7
  4031 000027FE 7E F3                           	JLE	L661
  4032 00002800 8A 43 08                        	MOV	AL,BYTE [8+EBX]
  4033 00002803 88 45 BD                        	MOV	BYTE [-67+EBP],AL
  4034 00002806 8A 43 09                        	MOV	AL,BYTE [9+EBX]
  4035 00002809 88 45 BE                        	MOV	BYTE [-66+EBP],AL
  4036 0000280C 8A 43 0A                        	MOV	AL,BYTE [10+EBX]
  4037 0000280F 88 45 BF                        	MOV	BYTE [-65+EBP],AL
  4038 00002812 EB BB                           	JMP	L676
  4039                                          [SECTION .data]
  4040 00000A69                                 LC141:
  4041 00000A69 66 69 6C 65 74 79 70 65 3D 30   	DB	"filetype=0x%02x",0x0A,0x00
       00000A73 78 25 30 32 78 0A 00 
  4042                                          [SECTION .text]
  4043 00002814                                 	GLOBAL	_cmd_fddir
  4044 00002814                                 _cmd_fddir:
  4045 00002814 55                              	PUSH	EBP
  4046 00002815 89 E5                           	MOV	EBP,ESP
  4047 00002817 57                              	PUSH	EDI
  4048 00002818 56                              	PUSH	ESI
  4049 00002819 31 FF                           	XOR	EDI,EDI
  4050 0000281B 53                              	PUSH	EBX
  4051 0000281C 31 F6                           	XOR	ESI,ESI
  4052 0000281E 83 EC 20                        	SUB	ESP,32
  4053 00002821                                 L693:
  4054 00002821 8A 86 00102600                  	MOV	AL,BYTE [1058304+ESI]
  4055 00002827 84 C0                           	TEST	AL,AL
  4056 00002829 74 16                           	JE	L682
  4057 0000282B 3C E5                           	CMP	AL,-27
  4058 0000282D 74 09                           	JE	L683
  4059 0000282F F6 86 0010260B 18               	TEST	BYTE [1058315+ESI],24
  4060 00002836 74 19                           	JE	L697
  4061 00002838                                 L683:
  4062 00002838 47                              	INC	EDI
  4063 00002839 83 C6 20                        	ADD	ESI,32
  4064 0000283C 83 FF 31                        	CMP	EDI,49
  4065 0000283F 7E E0                           	JLE	L693
  4066 00002841                                 L682:
  4067 00002841 FF 75 08                        	PUSH	DWORD [8+EBP]
  4068 00002844 E8 FFFFE08C                     	CALL	_cons_newline
  4069 00002849 8D 65 F4                        	LEA	ESP,DWORD [-12+EBP]
  4070 0000284C 5B                              	POP	EBX
  4071 0000284D 5E                              	POP	ESI
  4072 0000284E 5F                              	POP	EDI
  4073 0000284F 5D                              	POP	EBP
  4074 00002850 C3                              	RET
  4075 00002851                                 L697:
  4076 00002851 FF B6 0010261C                  	PUSH	DWORD [1058332+ESI]
  4077 00002857 68 [000009C1]                   	PUSH	LC133
  4078 0000285C 8D 45 D4                        	LEA	EAX,DWORD [-44+EBP]
  4079 0000285F 50                              	PUSH	EAX
  4080 00002860 E8 [00000000]                   	CALL	_sprintf
  4081 00002865 8D 96 00102600                  	LEA	EDX,DWORD [1058304+ESI]
  4082 0000286B 31 C9                           	XOR	ECX,ECX
  4083 0000286D 83 C4 0C                        	ADD	ESP,12
  4084 00002870                                 L692:
  4085 00002870 8A 02                           	MOV	AL,BYTE [EDX]
  4086 00002872 42                              	INC	EDX
  4087 00002873 88 44 0D D4                     	MOV	BYTE [-44+EBP+ECX*1],AL
  4088 00002877 41                              	INC	ECX
  4089 00002878 83 F9 07                        	CMP	ECX,7
  4090 0000287B 7E F3                           	JLE	L692
  4091 0000287D 8A 86 00102608                  	MOV	AL,BYTE [1058312+ESI]
  4092 00002883 8D 5D D4                        	LEA	EBX,DWORD [-44+EBP]
  4093 00002886 88 45 DD                        	MOV	BYTE [-35+EBP],AL
  4094 00002889 8A 86 00102609                  	MOV	AL,BYTE [1058313+ESI]
  4095 0000288F 88 45 DE                        	MOV	BYTE [-34+EBP],AL
  4096 00002892 8A 86 0010260A                  	MOV	AL,BYTE [1058314+ESI]
  4097 00002898 53                              	PUSH	EBX
  4098 00002899 FF 75 08                        	PUSH	DWORD [8+EBP]
  4099 0000289C 88 45 DF                        	MOV	BYTE [-33+EBP],AL
  4100 0000289F E8 FFFFE184                     	CALL	_cons_putstr0
  4101 000028A4 0F B6 86 0010260B               	MOVZX	EAX,BYTE [1058315+ESI]
  4102 000028AB 50                              	PUSH	EAX
  4103 000028AC 68 [00000A69]                   	PUSH	LC141
  4104 000028B1 53                              	PUSH	EBX
  4105 000028B2 E8 [00000000]                   	CALL	_sprintf
  4106 000028B7 53                              	PUSH	EBX
  4107 000028B8 FF 75 08                        	PUSH	DWORD [8+EBP]
  4108 000028BB E8 FFFFE168                     	CALL	_cons_putstr0
  4109 000028C0 83 C4 1C                        	ADD	ESP,28
  4110 000028C3 E9 FFFFFF70                     	JMP	L683
  4111 000028C8                                 	GLOBAL	_cmd_exit
  4112 000028C8                                 _cmd_exit:
  4113 000028C8 55                              	PUSH	EBP
  4114 000028C9 89 E5                           	MOV	EBP,ESP
  4115 000028CB 57                              	PUSH	EDI
  4116 000028CC 56                              	PUSH	ESI
  4117 000028CD 53                              	PUSH	EBX
  4118 000028CE 50                              	PUSH	EAX
  4119 000028CF 8B 5D 08                        	MOV	EBX,DWORD [8+EBP]
  4120 000028D2 E8 [00000000]                   	CALL	_task_now
  4121 000028D7 8B 35 00000FE4                  	MOV	ESI,DWORD [4068]
  4122 000028DD 8B 3D 00000FEC                  	MOV	EDI,DWORD [4076]
  4123 000028E3 89 45 F0                        	MOV	DWORD [-16+EBP],EAX
  4124 000028E6 83 3B 00                        	CMP	DWORD [EBX],0
  4125 000028E9 74 09                           	JE	L699
  4126 000028EB FF 73 10                        	PUSH	DWORD [16+EBX]
  4127 000028EE E8 [00000000]                   	CALL	_timer_cancel
  4128 000028F3 58                              	POP	EAX
  4129 000028F4                                 L699:
  4130 000028F4 68 00002D00                     	PUSH	11520
  4131 000028F9 FF 75 0C                        	PUSH	DWORD [12+EBP]
  4132 000028FC 68 003C0000                     	PUSH	3932160
  4133 00002901 E8 [00000000]                   	CALL	_memman_free_4k
  4134 00002906 E8 [00000000]                   	CALL	_io_cli
  4135 0000290B 8B 03                           	MOV	EAX,DWORD [EBX]
  4136 0000290D 83 C4 0C                        	ADD	ESP,12
  4137 00002910 85 C0                           	TEST	EAX,EAX
  4138 00002912 74 2E                           	JE	L700
  4139 00002914 29 F0                           	SUB	EAX,ESI
  4140 00002916 2D 00000414                     	SUB	EAX,1044
  4141 0000291B C1 F8 03                        	SAR	EAX,3
  4142 0000291E 69 C0 CCCCCCCD                  	IMUL	EAX,EAX,-858993459
  4143 00002924 05 00000300                     	ADD	EAX,768
  4144 00002929                                 L705:
  4145 00002929 50                              	PUSH	EAX
  4146 0000292A 57                              	PUSH	EDI
  4147 0000292B E8 [00000000]                   	CALL	_fifo32_put
  4148 00002930 5B                              	POP	EBX
  4149 00002931 5E                              	POP	ESI
  4150 00002932 E8 [00000000]                   	CALL	_io_sti
  4151 00002937                                 L702:
  4152 00002937 FF 75 F0                        	PUSH	DWORD [-16+EBP]
  4153 0000293A E8 [00000000]                   	CALL	_task_sleep
  4154 0000293F 59                              	POP	ECX
  4155 00002940 EB F5                           	JMP	L702
  4156 00002942                                 L700:
  4157 00002942 8B 45 F0                        	MOV	EAX,DWORD [-16+EBP]
  4158 00002945 2B 05 [00000000]                	SUB	EAX,DWORD [_taskctl]
  4159 0000294B 2D 00001004                     	SUB	EAX,4100
  4160 00002950 C1 F8 02                        	SAR	EAX,2
  4161 00002953 69 C0 1A1F58D1                  	IMUL	EAX,EAX,438261969
  4162 00002959 05 00000400                     	ADD	EAX,1024
  4163 0000295E EB C9                           	JMP	L705
  4164 00002960                                 	GLOBAL	_cmd_start
  4165 00002960                                 _cmd_start:
  4166 00002960 55                              	PUSH	EBP
  4167 00002961 89 E5                           	MOV	EBP,ESP
  4168 00002963 57                              	PUSH	EDI
  4169 00002964 56                              	PUSH	ESI
  4170 00002965 53                              	PUSH	EBX
  4171 00002966 57                              	PUSH	EDI
  4172 00002967 57                              	PUSH	EDI
  4173 00002968 8B 45 08                        	MOV	EAX,DWORD [8+EBP]
  4174 0000296B 8B 7D 0C                        	MOV	EDI,DWORD [12+EBP]
  4175 0000296E 8B 35 00000FE4                  	MOV	ESI,DWORD [4068]
  4176 00002974 89 45 F0                        	MOV	DWORD [-16+EBP],EAX
  4177 00002977 FF 75 10                        	PUSH	DWORD [16+EBP]
  4178 0000297A 56                              	PUSH	ESI
  4179 0000297B E8 [00000000]                   	CALL	_open_console
  4180 00002980 89 C3                           	MOV	EBX,EAX
  4181 00002982 8B 40 24                        	MOV	EAX,DWORD [36+EAX]
  4182 00002985 83 C0 10                        	ADD	EAX,16
  4183 00002988 89 45 EC                        	MOV	DWORD [-20+EBP],EAX
  4184 0000298B 6A 04                           	PUSH	4
  4185 0000298D 6A 20                           	PUSH	32
  4186 0000298F 53                              	PUSH	EBX
  4187 00002990 E8 [00000000]                   	CALL	_sheet_slide
  4188 00002995 FF 76 10                        	PUSH	DWORD [16+ESI]
  4189 00002998 53                              	PUSH	EBX
  4190 00002999 BB 00000006                     	MOV	EBX,6
  4191 0000299E E8 [00000000]                   	CALL	_sheet_updown
  4192 000029A3 83 C4 1C                        	ADD	ESP,28
  4193 000029A6 80 7F 06 00                     	CMP	BYTE [6+EDI],0
  4194 000029AA 75 21                           	JNE	L711
  4195 000029AC                                 L713:
  4196 000029AC 68 0000010A                     	PUSH	266
  4197 000029B1 FF 75 EC                        	PUSH	DWORD [-20+EBP]
  4198 000029B4 E8 [00000000]                   	CALL	_fifo32_put
  4199 000029B9 58                              	POP	EAX
  4200 000029BA 8B 45 F0                        	MOV	EAX,DWORD [-16+EBP]
  4201 000029BD 5A                              	POP	EDX
  4202 000029BE 89 45 08                        	MOV	DWORD [8+EBP],EAX
  4203 000029C1 8D 65 F4                        	LEA	ESP,DWORD [-12+EBP]
  4204 000029C4 5B                              	POP	EBX
  4205 000029C5 5E                              	POP	ESI
  4206 000029C6 5F                              	POP	EDI
  4207 000029C7 5D                              	POP	EBP
  4208 000029C8 E9 FFFFDF08                     	JMP	_cons_newline
  4209 000029CD                                 L711:
  4210 000029CD 0F BE 04 3B                     	MOVSX	EAX,BYTE [EBX+EDI*1]
  4211 000029D1 05 00000100                     	ADD	EAX,256
  4212 000029D6 43                              	INC	EBX
  4213 000029D7 50                              	PUSH	EAX
  4214 000029D8 FF 75 EC                        	PUSH	DWORD [-20+EBP]
  4215 000029DB E8 [00000000]                   	CALL	_fifo32_put
  4216 000029E0 80 3C 3B 00                     	CMP	BYTE [EBX+EDI*1],0
  4217 000029E4 59                              	POP	ECX
  4218 000029E5 5E                              	POP	ESI
  4219 000029E6 75 E5                           	JNE	L711
  4220 000029E8 EB C2                           	JMP	L713
  4221 000029EA                                 	GLOBAL	_cmd_ncst
  4222 000029EA                                 _cmd_ncst:
  4223 000029EA 55                              	PUSH	EBP
  4224 000029EB 89 E5                           	MOV	EBP,ESP
  4225 000029ED 57                              	PUSH	EDI
  4226 000029EE 56                              	PUSH	ESI
  4227 000029EF BE 00000005                     	MOV	ESI,5
  4228 000029F4 53                              	PUSH	EBX
  4229 000029F5 51                              	PUSH	ECX
  4230 000029F6 8B 45 08                        	MOV	EAX,DWORD [8+EBP]
  4231 000029F9 8B 5D 0C                        	MOV	EBX,DWORD [12+EBP]
  4232 000029FC 89 45 F0                        	MOV	DWORD [-16+EBP],EAX
  4233 000029FF FF 75 10                        	PUSH	DWORD [16+EBP]
  4234 00002A02 6A 00                           	PUSH	0
  4235 00002A04 E8 [00000000]                   	CALL	_open_constask
  4236 00002A09 80 7B 05 00                     	CMP	BYTE [5+EBX],0
  4237 00002A0D 8D 78 10                        	LEA	EDI,DWORD [16+EAX]
  4238 00002A10 58                              	POP	EAX
  4239 00002A11 5A                              	POP	EDX
  4240 00002A12 75 1F                           	JNE	L719
  4241 00002A14                                 L721:
  4242 00002A14 68 0000010A                     	PUSH	266
  4243 00002A19 57                              	PUSH	EDI
  4244 00002A1A E8 [00000000]                   	CALL	_fifo32_put
  4245 00002A1F 58                              	POP	EAX
  4246 00002A20 8B 45 F0                        	MOV	EAX,DWORD [-16+EBP]
  4247 00002A23 5A                              	POP	EDX
  4248 00002A24 89 45 08                        	MOV	DWORD [8+EBP],EAX
  4249 00002A27 8D 65 F4                        	LEA	ESP,DWORD [-12+EBP]
  4250 00002A2A 5B                              	POP	EBX
  4251 00002A2B 5E                              	POP	ESI
  4252 00002A2C 5F                              	POP	EDI
  4253 00002A2D 5D                              	POP	EBP
  4254 00002A2E E9 FFFFDEA2                     	JMP	_cons_newline
  4255 00002A33                                 L719:
  4256 00002A33 0F BE 04 1E                     	MOVSX	EAX,BYTE [ESI+EBX*1]
  4257 00002A37 05 00000100                     	ADD	EAX,256
  4258 00002A3C 46                              	INC	ESI
  4259 00002A3D 50                              	PUSH	EAX
  4260 00002A3E 57                              	PUSH	EDI
  4261 00002A3F E8 [00000000]                   	CALL	_fifo32_put
  4262 00002A44 80 3C 1E 00                     	CMP	BYTE [ESI+EBX*1],0
  4263 00002A48 59                              	POP	ECX
  4264 00002A49 58                              	POP	EAX
  4265 00002A4A 75 E7                           	JNE	L719
  4266 00002A4C EB C6                           	JMP	L721
  4267                                          [SECTION .data]
  4268 00000A7A                                 LC142:
  4269 00000A7A 54 61 73 6B 20 4E 61 6D 65 3A   	DB	"Task Name:%s",0x0A,"ID:%d",0x0A,"Priority:%d",0x0A,"State: Running",0x0A,0x00
       00000A84 25 73 0A 49 44 3A 25 64 0A 50 
       00000A8E 72 69 6F 72 69 74 79 3A 25 64 
       00000A98 0A 53 74 61 74 65 3A 20 52 75 
       00000AA2 6E 6E 69 6E 67 0A 00 
  4270                                          [SECTION .text]
  4271 00002A4E                                 	GLOBAL	_cmd_top
  4272 00002A4E                                 _cmd_top:
  4273 00002A4E 55                              	PUSH	EBP
  4274 00002A4F 89 E5                           	MOV	EBP,ESP
  4275 00002A51 57                              	PUSH	EDI
  4276 00002A52 56                              	PUSH	ESI
  4277 00002A53 BE 00000001                     	MOV	ESI,1
  4278 00002A58 53                              	PUSH	EBX
  4279 00002A59 83 EC 40                        	SUB	ESP,64
  4280 00002A5C 8B 15 [00000000]                	MOV	EDX,DWORD [_taskctl]
  4281 00002A62 8B 7D 08                        	MOV	EDI,DWORD [8+EBP]
  4282 00002A65 3B 32                           	CMP	ESI,DWORD [EDX]
  4283 00002A67 7C 0E                           	JL	L727
  4284 00002A69                                 L729:
  4285 00002A69 57                              	PUSH	EDI
  4286 00002A6A E8 FFFFDE66                     	CALL	_cons_newline
  4287 00002A6F 8D 65 F4                        	LEA	ESP,DWORD [-12+EBP]
  4288 00002A72 5B                              	POP	EBX
  4289 00002A73 5E                              	POP	ESI
  4290 00002A74 5F                              	POP	EDI
  4291 00002A75 5D                              	POP	EBP
  4292 00002A76 C3                              	RET
  4293 00002A77                                 L727:
  4294 00002A77 8B 84 B2 00030DA4               	MOV	EAX,DWORD [200100+EDX+ESI*4]
  4295 00002A7E 8D 5D B4                        	LEA	EBX,DWORD [-76+EBP]
  4296 00002A81 FF 70 0C                        	PUSH	DWORD [12+EAX]
  4297 00002A84 8B 84 B2 00030DA4               	MOV	EAX,DWORD [200100+EDX+ESI*4]
  4298 00002A8B FF 30                           	PUSH	DWORD [EAX]
  4299 00002A8D 8B 84 B2 00030DA4               	MOV	EAX,DWORD [200100+EDX+ESI*4]
  4300 00002A94 46                              	INC	ESI
  4301 00002A95 FF B0 000000BC                  	PUSH	DWORD [188+EAX]
  4302 00002A9B 68 [00000A7A]                   	PUSH	LC142
  4303 00002AA0 53                              	PUSH	EBX
  4304 00002AA1 E8 [00000000]                   	CALL	_sprintf
  4305 00002AA6 53                              	PUSH	EBX
  4306 00002AA7 57                              	PUSH	EDI
  4307 00002AA8 E8 FFFFDF7B                     	CALL	_cons_putstr0
  4308 00002AAD 68 [0000037E]                   	PUSH	LC79
  4309 00002AB2 57                              	PUSH	EDI
  4310 00002AB3 E8 FFFFDF70                     	CALL	_cons_putstr0
  4311 00002AB8 8B 15 [00000000]                	MOV	EDX,DWORD [_taskctl]
  4312 00002ABE 83 C4 24                        	ADD	ESP,36
  4313 00002AC1 3B 32                           	CMP	ESI,DWORD [EDX]
  4314 00002AC3 7C B2                           	JL	L727
  4315 00002AC5 EB A2                           	JMP	L729
  4316                                          [SECTION .data]
  4317 00000AA9                                 LC143:
  4318 00000AA9 6D 6F 64 65 20 6E 75 6D 62 65   	DB	"mode number error.",0x0A,0x00
       00000AB3 72 20 65 72 72 6F 72 2E 0A 00 
  4319                                          [SECTION .text]
  4320 00002AC7                                 	GLOBAL	_cmd_langmode
  4321 00002AC7                                 _cmd_langmode:
  4322 00002AC7 55                              	PUSH	EBP
  4323 00002AC8 89 E5                           	MOV	EBP,ESP
  4324 00002ACA 56                              	PUSH	ESI
  4325 00002ACB 53                              	PUSH	EBX
  4326 00002ACC 8B 5D 0C                        	MOV	EBX,DWORD [12+EBP]
  4327 00002ACF 8B 75 08                        	MOV	ESI,DWORD [8+EBP]
  4328 00002AD2 E8 [00000000]                   	CALL	_task_now
  4329 00002AD7 8A 53 09                        	MOV	DL,BYTE [9+EBX]
  4330 00002ADA 83 EA 30                        	SUB	EDX,48
  4331 00002ADD 80 FA 02                        	CMP	DL,2
  4332 00002AE0 77 14                           	JA	L731
  4333 00002AE2 88 90 000000C0                  	MOV	BYTE [192+EAX],DL
  4334 00002AE8                                 L732:
  4335 00002AE8 89 75 08                        	MOV	DWORD [8+EBP],ESI
  4336 00002AEB 8D 65 F8                        	LEA	ESP,DWORD [-8+EBP]
  4337 00002AEE 5B                              	POP	EBX
  4338 00002AEF 5E                              	POP	ESI
  4339 00002AF0 5D                              	POP	EBP
  4340 00002AF1 E9 FFFFDDDF                     	JMP	_cons_newline
  4341 00002AF6                                 L731:
  4342 00002AF6 68 [00000AA9]                   	PUSH	LC143
  4343 00002AFB 56                              	PUSH	ESI
  4344 00002AFC E8 FFFFDF27                     	CALL	_cons_putstr0
  4345 00002B01 5B                              	POP	EBX
  4346 00002B02 58                              	POP	EAX
  4347 00002B03 EB E3                           	JMP	L732
  4348                                          [SECTION .data]
  4349 00000ABD                                 LC144:
  4350 00000ABD 48 61 72 69 00                  	DB	"Hari",0x00
  4351 00000AC2                                 LC145:
  4352 00000AC2 2E 68 72 62 20 66 69 6C 65 20   	DB	".hrb file format error.",0x0A,0x00
       00000ACC 66 6F 72 6D 61 74 20 65 72 72 
       00000AD6 6F 72 2E 0A 00 
  4353                                          [SECTION .text]
  4354 00002B05                                 	GLOBAL	_cmd_app
  4355 00002B05                                 _cmd_app:
  4356 00002B05 55                              	PUSH	EBP
  4357 00002B06 89 E5                           	MOV	EBP,ESP
  4358 00002B08 57                              	PUSH	EDI
  4359 00002B09 56                              	PUSH	ESI
  4360 00002B0A 31 F6                           	XOR	ESI,ESI
  4361 00002B0C 53                              	PUSH	EBX
  4362 00002B0D 83 EC 34                        	SUB	ESP,52
  4363 00002B10 8B 5D 10                        	MOV	EBX,DWORD [16+EBP]
  4364 00002B13 E8 [00000000]                   	CALL	_task_now
  4365 00002B18 89 45 C8                        	MOV	DWORD [-56+EBP],EAX
  4366 00002B1B                                 L739:
  4367 00002B1B 8A 04 1E                        	MOV	AL,BYTE [ESI+EBX*1]
  4368 00002B1E 3C 20                           	CMP	AL,32
  4369 00002B20 7E 0A                           	JLE	L735
  4370 00002B22 88 44 35 D4                     	MOV	BYTE [-44+EBP+ESI*1],AL
  4371 00002B26 46                              	INC	ESI
  4372 00002B27 83 FE 0C                        	CMP	ESI,12
  4373 00002B2A 7E EF                           	JLE	L739
  4374 00002B2C                                 L735:
  4375 00002B2C 68 000000E0                     	PUSH	224
  4376 00002B31 8D 5D D4                        	LEA	EBX,DWORD [-44+EBP]
  4377 00002B34 68 00102600                     	PUSH	1058304
  4378 00002B39 53                              	PUSH	EBX
  4379 00002B3A C6 44 35 D4 00                  	MOV	BYTE [-44+EBP+ESI*1],0
  4380 00002B3F E8 [00000000]                   	CALL	_file_search
  4381 00002B44 83 C4 0C                        	ADD	ESP,12
  4382 00002B47 89 C2                           	MOV	EDX,EAX
  4383 00002B49 85 C0                           	TEST	EAX,EAX
  4384 00002B4B 0F 84 000001B6                  	JE	L769
  4385 00002B51                                 L768:
  4386 00002B51 8B 42 1C                        	MOV	EAX,DWORD [28+EDX]
  4387 00002B54 89 45 D0                        	MOV	DWORD [-48+EBP],EAX
  4388 00002B57 8D 45 D0                        	LEA	EAX,DWORD [-48+EBP]
  4389 00002B5A FF 75 0C                        	PUSH	DWORD [12+EBP]
  4390 00002B5D 50                              	PUSH	EAX
  4391 00002B5E 0F B7 42 1A                     	MOVZX	EAX,WORD [26+EDX]
  4392 00002B62 50                              	PUSH	EAX
  4393 00002B63 E8 [00000000]                   	CALL	_file_loadfile2
  4394 00002B68 83 C4 0C                        	ADD	ESP,12
  4395 00002B6B 83 7D D0 23                     	CMP	DWORD [-48+EBP],35
  4396 00002B6F 89 45 CC                        	MOV	DWORD [-52+EBP],EAX
  4397 00002B72 7E 1C                           	JLE	L742
  4398 00002B74 89 C6                           	MOV	ESI,EAX
  4399 00002B76 BF [00000ABD]                   	MOV	EDI,LC144
  4400 00002B7B FC                              	CLD
  4401 00002B7C 83 C6 04                        	ADD	ESI,4
  4402 00002B7F B9 00000004                     	MOV	ECX,4
  4403 00002B84 F3                              	REPE
  4404 00002B85 A6                              	CMPSB
  4405 00002B86 75 08                           	JNE	L742
  4406 00002B88 8B 45 CC                        	MOV	EAX,DWORD [-52+EBP]
  4407 00002B8B 80 38 00                        	CMP	BYTE [EAX],0
  4408 00002B8E 74 34                           	JE	L770
  4409 00002B90                                 L742:
  4410 00002B90 68 [00000AC2]                   	PUSH	LC145
  4411 00002B95 FF 75 08                        	PUSH	DWORD [8+EBP]
  4412 00002B98 E8 FFFFDE8B                     	CALL	_cons_putstr0
  4413 00002B9D 58                              	POP	EAX
  4414 00002B9E 5A                              	POP	EDX
  4415 00002B9F                                 L760:
  4416 00002B9F FF 75 D0                        	PUSH	DWORD [-48+EBP]
  4417 00002BA2 FF 75 CC                        	PUSH	DWORD [-52+EBP]
  4418 00002BA5 68 003C0000                     	PUSH	3932160
  4419 00002BAA E8 [00000000]                   	CALL	_memman_free_4k
  4420 00002BAF FF 75 08                        	PUSH	DWORD [8+EBP]
  4421 00002BB2 E8 FFFFDD1E                     	CALL	_cons_newline
  4422 00002BB7 B8 00000001                     	MOV	EAX,1
  4423 00002BBC                                 L733:
  4424 00002BBC 8D 65 F4                        	LEA	ESP,DWORD [-12+EBP]
  4425 00002BBF 5B                              	POP	EBX
  4426 00002BC0 5E                              	POP	ESI
  4427 00002BC1 5F                              	POP	EDI
  4428 00002BC2 5D                              	POP	EBP
  4429 00002BC3 C3                              	RET
  4430 00002BC4                                 L770:
  4431 00002BC4 8B 10                           	MOV	EDX,DWORD [EAX]
  4432 00002BC6 8B 40 0C                        	MOV	EAX,DWORD [12+EAX]
  4433 00002BC9 89 55 C4                        	MOV	DWORD [-60+EBP],EDX
  4434 00002BCC 89 45 C0                        	MOV	DWORD [-64+EBP],EAX
  4435 00002BCF 8B 55 CC                        	MOV	EDX,DWORD [-52+EBP]
  4436 00002BD2 8B 5A 10                        	MOV	EBX,DWORD [16+EDX]
  4437 00002BD5 8B 72 14                        	MOV	ESI,DWORD [20+EDX]
  4438 00002BD8 FF 75 C4                        	PUSH	DWORD [-60+EBP]
  4439 00002BDB 68 003C0000                     	PUSH	3932160
  4440 00002BE0 E8 [00000000]                   	CALL	_memman_alloc_4k
  4441 00002BE5 89 C7                           	MOV	EDI,EAX
  4442 00002BE7 8B 45 C8                        	MOV	EAX,DWORD [-56+EBP]
  4443 00002BEA 89 B8 000000A8                  	MOV	DWORD [168+EAX],EDI
  4444 00002BF0 8B 45 D0                        	MOV	EAX,DWORD [-48+EBP]
  4445 00002BF3 68 000040FA                     	PUSH	16634
  4446 00002BF8 48                              	DEC	EAX
  4447 00002BF9 FF 75 CC                        	PUSH	DWORD [-52+EBP]
  4448 00002BFC 50                              	PUSH	EAX
  4449 00002BFD 8B 45 C8                        	MOV	EAX,DWORD [-56+EBP]
  4450 00002C00 05 00000094                     	ADD	EAX,148
  4451 00002C05 50                              	PUSH	EAX
  4452 00002C06 E8 [00000000]                   	CALL	_set_segmdesc
  4453 00002C0B 8B 45 C4                        	MOV	EAX,DWORD [-60+EBP]
  4454 00002C0E 68 000040F2                     	PUSH	16626
  4455 00002C13 48                              	DEC	EAX
  4456 00002C14 57                              	PUSH	EDI
  4457 00002C15 50                              	PUSH	EAX
  4458 00002C16 8B 45 C8                        	MOV	EAX,DWORD [-56+EBP]
  4459 00002C19 05 0000009C                     	ADD	EAX,156
  4460 00002C1E 50                              	PUSH	EAX
  4461 00002C1F E8 [00000000]                   	CALL	_set_segmdesc
  4462 00002C24 83 C4 28                        	ADD	ESP,40
  4463 00002C27 85 DB                           	TEST	EBX,EBX
  4464 00002C29 7E 16                           	JLE	L763
  4465 00002C2B 8B 45 CC                        	MOV	EAX,DWORD [-52+EBP]
  4466 00002C2E 8B 4D C0                        	MOV	ECX,DWORD [-64+EBP]
  4467 00002C31 01 F9                           	ADD	ECX,EDI
  4468 00002C33 8D 14 30                        	LEA	EDX,DWORD [EAX+ESI*1]
  4469 00002C36 89 DE                           	MOV	ESI,EBX
  4470 00002C38                                 L747:
  4471 00002C38 8A 02                           	MOV	AL,BYTE [EDX]
  4472 00002C3A 42                              	INC	EDX
  4473 00002C3B 88 01                           	MOV	BYTE [ECX],AL
  4474 00002C3D 41                              	INC	ECX
  4475 00002C3E 4E                              	DEC	ESI
  4476 00002C3F 75 F7                           	JNE	L747
  4477 00002C41                                 L763:
  4478 00002C41 8B 45 C8                        	MOV	EAX,DWORD [-56+EBP]
  4479 00002C44 BE 000000FF                     	MOV	ESI,255
  4480 00002C49 83 C0 30                        	ADD	EAX,48
  4481 00002C4C 50                              	PUSH	EAX
  4482 00002C4D 6A 0C                           	PUSH	12
  4483 00002C4F FF 75 C0                        	PUSH	DWORD [-64+EBP]
  4484 00002C52 6A 04                           	PUSH	4
  4485 00002C54 6A 1B                           	PUSH	27
  4486 00002C56 E8 [00000000]                   	CALL	_start_app
  4487 00002C5B 8B 1D 00000FE4                  	MOV	EBX,DWORD [4068]
  4488 00002C61 83 C4 14                        	ADD	ESP,20
  4489 00002C64 81 C3 00000414                  	ADD	EBX,1044
  4490 00002C6A                                 L753:
  4491 00002C6A 8B 43 1C                        	MOV	EAX,DWORD [28+EBX]
  4492 00002C6D 83 E0 11                        	AND	EAX,17
  4493 00002C70 83 F8 11                        	CMP	EAX,17
  4494 00002C73 74 7A                           	JE	L771
  4495 00002C75                                 L750:
  4496 00002C75 83 C3 28                        	ADD	EBX,40
  4497 00002C78 4E                              	DEC	ESI
  4498 00002C79 79 EF                           	JNS	L753
  4499 00002C7B 31 DB                           	XOR	EBX,EBX
  4500 00002C7D BE 00000007                     	MOV	ESI,7
  4501 00002C82                                 L759:
  4502 00002C82 8B 55 C8                        	MOV	EDX,DWORD [-56+EBP]
  4503 00002C85 8B 82 000000B0                  	MOV	EAX,DWORD [176+EDX]
  4504 00002C8B 83 3C 18 00                     	CMP	DWORD [EAX+EBX*1],0
  4505 00002C8F 75 32                           	JNE	L772
  4506 00002C91                                 L756:
  4507 00002C91 83 C3 0C                        	ADD	EBX,12
  4508 00002C94 4E                              	DEC	ESI
  4509 00002C95 79 EB                           	JNS	L759
  4510 00002C97 8B 45 C8                        	MOV	EAX,DWORD [-56+EBP]
  4511 00002C9A 83 C0 10                        	ADD	EAX,16
  4512 00002C9D 50                              	PUSH	EAX
  4513 00002C9E E8 [00000000]                   	CALL	_timer_cancelall
  4514 00002CA3 FF 75 C4                        	PUSH	DWORD [-60+EBP]
  4515 00002CA6 57                              	PUSH	EDI
  4516 00002CA7 68 003C0000                     	PUSH	3932160
  4517 00002CAC E8 [00000000]                   	CALL	_memman_free_4k
  4518 00002CB1 83 C4 10                        	ADD	ESP,16
  4519 00002CB4 8B 45 C8                        	MOV	EAX,DWORD [-56+EBP]
  4520 00002CB7 C6 80 000000C1 00               	MOV	BYTE [193+EAX],0
  4521 00002CBE E9 FFFFFEDC                     	JMP	L760
  4522 00002CC3                                 L772:
  4523 00002CC3 FF 74 18 04                     	PUSH	DWORD [4+EAX+EBX*1]
  4524 00002CC7 8B 82 000000B0                  	MOV	EAX,DWORD [176+EDX]
  4525 00002CCD FF 34 18                        	PUSH	DWORD [EAX+EBX*1]
  4526 00002CD0 68 003C0000                     	PUSH	3932160
  4527 00002CD5 E8 [00000000]                   	CALL	_memman_free_4k
  4528 00002CDA 83 C4 0C                        	ADD	ESP,12
  4529 00002CDD 8B 55 C8                        	MOV	EDX,DWORD [-56+EBP]
  4530 00002CE0 8B 82 000000B0                  	MOV	EAX,DWORD [176+EDX]
  4531 00002CE6 C7 04 18 00000000               	MOV	DWORD [EAX+EBX*1],0
  4532 00002CED EB A2                           	JMP	L756
  4533 00002CEF                                 L771:
  4534 00002CEF 8B 55 C8                        	MOV	EDX,DWORD [-56+EBP]
  4535 00002CF2 39 53 24                        	CMP	DWORD [36+EBX],EDX
  4536 00002CF5 0F 85 FFFFFF7A                  	JNE	L750
  4537 00002CFB 53                              	PUSH	EBX
  4538 00002CFC E8 [00000000]                   	CALL	_sheet_free
  4539 00002D01 59                              	POP	ECX
  4540 00002D02 E9 FFFFFF6E                     	JMP	L750
  4541 00002D07                                 L769:
  4542 00002D07 80 7C 35 D3 2E                  	CMP	BYTE [-45+EBP+ESI*1],46
  4543 00002D0C 74 2E                           	JE	L740
  4544 00002D0E 68 000000E0                     	PUSH	224
  4545 00002D13 68 00102600                     	PUSH	1058304
  4546 00002D18 53                              	PUSH	EBX
  4547 00002D19 C6 44 35 D4 2E                  	MOV	BYTE [-44+EBP+ESI*1],46
  4548 00002D1E C6 44 35 D5 48                  	MOV	BYTE [-43+EBP+ESI*1],72
  4549 00002D23 C6 44 35 D6 52                  	MOV	BYTE [-42+EBP+ESI*1],82
  4550 00002D28 C6 44 35 D7 42                  	MOV	BYTE [-41+EBP+ESI*1],66
  4551 00002D2D C6 44 35 D8 00                  	MOV	BYTE [-40+EBP+ESI*1],0
  4552 00002D32 E8 [00000000]                   	CALL	_file_search
  4553 00002D37 83 C4 0C                        	ADD	ESP,12
  4554 00002D3A 89 C2                           	MOV	EDX,EAX
  4555 00002D3C                                 L740:
  4556 00002D3C 85 D2                           	TEST	EDX,EDX
  4557 00002D3E 0F 85 FFFFFE0D                  	JNE	L768
  4558 00002D44 31 C0                           	XOR	EAX,EAX
  4559 00002D46 E9 FFFFFE71                     	JMP	L733
  4560                                          [SECTION .data]
  4561 00000ADB                                 LC146:
  4562 00000ADB 67 64 74 5F 62 61 73 65 3A 20   	DB	"gdt_base: %x",0x0A,"ldt_base: %x",0x0A,"ds_base: %x",0x0A,"log_addr: %x",0x0A,"phy_addr: %x",0x0A,"value: %d",0x0A,0x00
       00000AE5 25 78 0A 6C 64 74 5F 62 61 73 
       00000AEF 65 3A 20 25 78 0A 64 73 5F 62 
       00000AF9 61 73 65 3A 20 25 78 0A 6C 6F 
       00000B03 67 5F 61 64 64 72 3A 20 25 78 
       00000B0D 0A 70 68 79 5F 61 64 64 72 3A 
       00000B17 20 25 78 0A 76 61 6C 75 65 3A 
       00000B21 20 25 64 0A 00 
  4563 00000B26                                 LC147:
  4564 00000B26 67 64 74 5F 62 61 73 65 3A 20   	DB	"gdt_base: %x  ldt_index: %d",0x0A,"ldt_des: %x  ldt_addr: %x",0x0A,"ds_index: %d  ds_des: %x",0x0A,"ds_addr: %x  log_addr: %x",0x0A,"phy_addr:%x  value: %d",0x0A,0x00
       00000B30 25 78 20 20 6C 64 74 5F 69 6E 
       00000B3A 64 65 78 3A 20 25 64 0A 6C 64 
       00000B44 74 5F 64 65 73 3A 20 25 78 20 
       00000B4E 20 6C 64 74 5F 61 64 64 72 3A 
       00000B58 20 25 78 0A 64 73 5F 69 6E 64 
       00000B62 65 78 3A 20 25 64 20 20 64 73 
       00000B6C 5F 64 65 73 3A 20 25 78 0A 64 
       00000B76 73 5F 61 64 64 72 3A 20 25 78 
       00000B80 20 20 6C 6F 67 5F 61 64 64 72 
       00000B8A 3A 20 25 78 0A 70 68 79 5F 61 
       00000B94 64 64 72 3A 25 78 20 20 76 61 
       00000B9E 6C 75 65 3A 20 25 64 0A 00 
  4565                                          [SECTION .text]
  4566 00002D4B                                 	GLOBAL	_hrb_api
  4567 00002D4B                                 _hrb_api:
  4568 00002D4B 55                              	PUSH	EBP
  4569 00002D4C 89 E5                           	MOV	EBP,ESP
  4570 00002D4E 57                              	PUSH	EDI
  4571 00002D4F 56                              	PUSH	ESI
  4572 00002D50 53                              	PUSH	EBX
  4573 00002D51 83 EC 20                        	SUB	ESP,32
  4574 00002D54 8B 75 18                        	MOV	ESI,DWORD [24+EBP]
  4575 00002D57 E8 [00000000]                   	CALL	_task_now
  4576 00002D5C 8B 0D 00000FE4                  	MOV	ECX,DWORD [4068]
  4577 00002D62 8B 3D 00000FEC                  	MOV	EDI,DWORD [4076]
  4578 00002D68 89 45 F0                        	MOV	DWORD [-16+EBP],EAX
  4579 00002D6B 89 4D E4                        	MOV	DWORD [-28+EBP],ECX
  4580 00002D6E 8B 80 000000A8                  	MOV	EAX,DWORD [168+EAX]
  4581 00002D74 8B 55 F0                        	MOV	EDX,DWORD [-16+EBP]
  4582 00002D77 89 45 EC                        	MOV	DWORD [-20+EBP],EAX
  4583 00002D7A 8B 45 1C                        	MOV	EAX,DWORD [28+EBP]
  4584 00002D7D 8B 92 000000A4                  	MOV	EDX,DWORD [164+EDX]
  4585 00002D83 48                              	DEC	EAX
  4586 00002D84 89 55 E8                        	MOV	DWORD [-24+EBP],EDX
  4587 00002D87 83 F8 2A                        	CMP	EAX,42
  4588 00002D8A 77 19                           	JA	L774
  4589 00002D8C FF 24 85 [00000BA8]             	JMP	DWORD [L869+EAX*4]
  4590                                          [SECTION .data]
  4591 00000BA7 00                              	ALIGNB	4
  4592 00000BA8                                 L869:
  4593 00000BA8 [00002D93]                      	DD	L775
  4594 00000BAC [00002DAF]                      	DD	L776
  4595 00000BB0 [00002DC2]                      	DD	L777
  4596 00000BB4 [00002DD6]                      	DD	L778
  4597 00000BB8 [00002DDE]                      	DD	L779
  4598 00000BBC [00002E5C]                      	DD	L780
  4599 00000BC0 [00002EA6]                      	DD	L782
  4600 00000BC4 [00002EE4]                      	DD	L784
  4601 00000BC8 [00002F08]                      	DD	L785
  4602 00000BCC [00002F26]                      	DD	L786
  4603 00000BD0 [00002F44]                      	DD	L787
  4604 00000BD4 [00002F79]                      	DD	L789
  4605 00000BD8 [00002F8B]                      	DD	L790
  4606 00000BDC [00002FDC]                      	DD	L794
  4607 00000BE0 [00002FE8]                      	DD	L796
  4608 00000BE4 [000030ED]                      	DD	L807
  4609 00000BE8 [000030FE]                      	DD	L808
  4610 00000BEC [00003119]                      	DD	L809
  4611 00000BF0 [00003127]                      	DD	L810
  4612 00000BF4 [00003132]                      	DD	L811
  4613 00000BF8 [000031A1]                      	DD	L814
  4614 00000BFC [00003224]                      	DD	L823
  4615 00000C00 [00003241]                      	DD	L824
  4616 00000C04 [00003286]                      	DD	L832
  4617 00000C08 [000032BA]                      	DD	L838
  4618 00000C0C [000032EB]                      	DD	L845
  4619 00000C10 [00003316]                      	DD	L851
  4620 00000C14 [00003325]                      	DD	L852
  4621 00000C18 [000033ED]                      	DD	L853
  4622 00000C1C [000034CC]                      	DD	L854
  4623 00000C20 [000034D6]                      	DD	L855
  4624 00000C24 [000034E0]                      	DD	L856
  4625 00000C28 [000034ED]                      	DD	L857
  4626 00000C2C [000034FA]                      	DD	L858
  4627 00000C30 [00003507]                      	DD	L859
  4628 00000C34 [00003514]                      	DD	L860
  4629 00000C38 [00003521]                      	DD	L861
  4630 00000C3C [00003534]                      	DD	L862
  4631 00000C40 [00003547]                      	DD	L863
  4632 00000C44 [00003560]                      	DD	L864
  4633 00000C48 [00003573]                      	DD	L865
  4634 00000C4C [0000357D]                      	DD	L866
  4635 00000C50 [00003587]                      	DD	L867
  4636                                          [SECTION .text]
  4637 00002D93                                 L775:
  4638 00002D93 6A 01                           	PUSH	1
  4639 00002D95 0F B6 45 24                     	MOVZX	EAX,BYTE [36+EBP]
  4640 00002D99 50                              	PUSH	EAX
  4641 00002D9A FF 75 E8                        	PUSH	DWORD [-24+EBP]
  4642 00002D9D E8 FFFFDA78                     	CALL	_cons_putchar
  4643 00002DA2                                 L877:
  4644 00002DA2 83 C4 0C                        	ADD	ESP,12
  4645 00002DA5                                 L774:
  4646 00002DA5 31 C0                           	XOR	EAX,EAX
  4647 00002DA7                                 L773:
  4648 00002DA7 8D 65 F4                        	LEA	ESP,DWORD [-12+EBP]
  4649 00002DAA 5B                              	POP	EBX
  4650 00002DAB 5E                              	POP	ESI
  4651 00002DAC 5F                              	POP	EDI
  4652 00002DAD 5D                              	POP	EBP
  4653 00002DAE C3                              	RET
  4654 00002DAF                                 L776:
  4655 00002DAF 8B 55 EC                        	MOV	EDX,DWORD [-20+EBP]
  4656 00002DB2 8D 04 32                        	LEA	EAX,DWORD [EDX+ESI*1]
  4657 00002DB5 50                              	PUSH	EAX
  4658 00002DB6                                 L881:
  4659 00002DB6 FF 75 E8                        	PUSH	DWORD [-24+EBP]
  4660 00002DB9 E8 FFFFDC6A                     	CALL	_cons_putstr0
  4661 00002DBE                                 L875:
  4662 00002DBE 5E                              	POP	ESI
  4663 00002DBF 5F                              	POP	EDI
  4664 00002DC0 EB E3                           	JMP	L774
  4665 00002DC2                                 L777:
  4666 00002DC2 8B 4D EC                        	MOV	ECX,DWORD [-20+EBP]
  4667 00002DC5 FF 75 20                        	PUSH	DWORD [32+EBP]
  4668 00002DC8 8D 04 31                        	LEA	EAX,DWORD [ECX+ESI*1]
  4669 00002DCB 50                              	PUSH	EAX
  4670 00002DCC FF 75 E8                        	PUSH	DWORD [-24+EBP]
  4671 00002DCF E8 FFFFDC82                     	CALL	_cons_putstr1
  4672 00002DD4 EB CC                           	JMP	L877
  4673 00002DD6                                 L778:
  4674 00002DD6 8B 45 F0                        	MOV	EAX,DWORD [-16+EBP]
  4675 00002DD9 83 C0 30                        	ADD	EAX,48
  4676 00002DDC EB C9                           	JMP	L773
  4677 00002DDE                                 L779:
  4678 00002DDE FF 75 E4                        	PUSH	DWORD [-28+EBP]
  4679 00002DE1 E8 [00000000]                   	CALL	_sheet_alloc
  4680 00002DE6 8B 55 EC                        	MOV	EDX,DWORD [-20+EBP]
  4681 00002DE9 89 C7                           	MOV	EDI,EAX
  4682 00002DEB 8B 45 F0                        	MOV	EAX,DWORD [-16+EBP]
  4683 00002DEE 8D 1C 32                        	LEA	EBX,DWORD [EDX+ESI*1]
  4684 00002DF1 89 47 24                        	MOV	DWORD [36+EDI],EAX
  4685 00002DF4 83 4F 1C 10                     	OR	DWORD [28+EDI],16
  4686 00002DF8 FF 75 24                        	PUSH	DWORD [36+EBP]
  4687 00002DFB FF 75 08                        	PUSH	DWORD [8+EBP]
  4688 00002DFE FF 75 0C                        	PUSH	DWORD [12+EBP]
  4689 00002E01 53                              	PUSH	EBX
  4690 00002E02 57                              	PUSH	EDI
  4691 00002E03 E8 [00000000]                   	CALL	_sheet_setbuf
  4692 00002E08 8B 45 20                        	MOV	EAX,DWORD [32+EBP]
  4693 00002E0B 03 45 EC                        	ADD	EAX,DWORD [-20+EBP]
  4694 00002E0E 6A 00                           	PUSH	0
  4695 00002E10 50                              	PUSH	EAX
  4696 00002E11 FF 75 08                        	PUSH	DWORD [8+EBP]
  4697 00002E14 FF 75 0C                        	PUSH	DWORD [12+EBP]
  4698 00002E17 53                              	PUSH	EBX
  4699 00002E18 BB 00000002                     	MOV	EBX,2
  4700 00002E1D E8 [00000000]                   	CALL	_make_window8
  4701 00002E22 8B 4D E4                        	MOV	ECX,DWORD [-28+EBP]
  4702 00002E25 83 C4 2C                        	ADD	ESP,44
  4703 00002E28 8B 41 0C                        	MOV	EAX,DWORD [12+ECX]
  4704 00002E2B 2B 45 08                        	SUB	EAX,DWORD [8+EBP]
  4705 00002E2E 99                              	CDQ
  4706 00002E2F F7 FB                           	IDIV	EBX
  4707 00002E31 50                              	PUSH	EAX
  4708 00002E32 8B 41 08                        	MOV	EAX,DWORD [8+ECX]
  4709 00002E35 2B 45 0C                        	SUB	EAX,DWORD [12+EBP]
  4710 00002E38 99                              	CDQ
  4711 00002E39 F7 FB                           	IDIV	EBX
  4712 00002E3B 83 E0 FC                        	AND	EAX,-4
  4713 00002E3E 50                              	PUSH	EAX
  4714 00002E3F 57                              	PUSH	EDI
  4715 00002E40 E8 [00000000]                   	CALL	_sheet_slide
  4716 00002E45 8B 4D E4                        	MOV	ECX,DWORD [-28+EBP]
  4717 00002E48 FF 71 10                        	PUSH	DWORD [16+ECX]
  4718 00002E4B 57                              	PUSH	EDI
  4719 00002E4C E8 [00000000]                   	CALL	_sheet_updown
  4720 00002E51 89 7D 44                        	MOV	DWORD [68+EBP],EDI
  4721 00002E54                                 L879:
  4722 00002E54 83 C4 14                        	ADD	ESP,20
  4723 00002E57 E9 FFFFFF49                     	JMP	L774
  4724 00002E5C                                 L780:
  4725 00002E5C 8B 45 10                        	MOV	EAX,DWORD [16+EBP]
  4726 00002E5F 89 F7                           	MOV	EDI,ESI
  4727 00002E61 03 45 EC                        	ADD	EAX,DWORD [-20+EBP]
  4728 00002E64 83 E7 FE                        	AND	EDI,-2
  4729 00002E67 50                              	PUSH	EAX
  4730 00002E68 0F BE 45 24                     	MOVSX	EAX,BYTE [36+EBP]
  4731 00002E6C 50                              	PUSH	EAX
  4732 00002E6D FF 75 08                        	PUSH	DWORD [8+EBP]
  4733 00002E70 FF 75 0C                        	PUSH	DWORD [12+EBP]
  4734 00002E73 FF 77 04                        	PUSH	DWORD [4+EDI]
  4735 00002E76 FF 37                           	PUSH	DWORD [EDI]
  4736 00002E78 E8 [00000000]                   	CALL	_putfonts8_asc
  4737 00002E7D 83 C4 18                        	ADD	ESP,24
  4738 00002E80 83 E6 01                        	AND	ESI,1
  4739 00002E83 0F 85 FFFFFF1C                  	JNE	L774
  4740 00002E89 8B 55 0C                        	MOV	EDX,DWORD [12+EBP]
  4741 00002E8C 8B 45 08                        	MOV	EAX,DWORD [8+EBP]
  4742 00002E8F 8B 75 20                        	MOV	ESI,DWORD [32+EBP]
  4743 00002E92 83 C0 10                        	ADD	EAX,16
  4744 00002E95 50                              	PUSH	EAX
  4745 00002E96 8D 04 F2                        	LEA	EAX,DWORD [EDX+ESI*8]
  4746 00002E99 50                              	PUSH	EAX
  4747 00002E9A FF 75 08                        	PUSH	DWORD [8+EBP]
  4748 00002E9D 52                              	PUSH	EDX
  4749 00002E9E                                 L880:
  4750 00002E9E 57                              	PUSH	EDI
  4751 00002E9F                                 L878:
  4752 00002E9F E8 [00000000]                   	CALL	_sheet_refresh
  4753 00002EA4 EB AE                           	JMP	L879
  4754 00002EA6                                 L782:
  4755 00002EA6 FF 75 08                        	PUSH	DWORD [8+EBP]
  4756 00002EA9 FF 75 0C                        	PUSH	DWORD [12+EBP]
  4757 00002EAC FF 75 20                        	PUSH	DWORD [32+EBP]
  4758 00002EAF 89 F7                           	MOV	EDI,ESI
  4759 00002EB1 FF 75 24                        	PUSH	DWORD [36+EBP]
  4760 00002EB4 83 E7 FE                        	AND	EDI,-2
  4761 00002EB7 0F B6 45 10                     	MOVZX	EAX,BYTE [16+EBP]
  4762 00002EBB 50                              	PUSH	EAX
  4763 00002EBC FF 77 04                        	PUSH	DWORD [4+EDI]
  4764 00002EBF FF 37                           	PUSH	DWORD [EDI]
  4765 00002EC1 E8 [00000000]                   	CALL	_boxfill8
  4766 00002EC6 83 C4 1C                        	ADD	ESP,28
  4767 00002EC9 83 E6 01                        	AND	ESI,1
  4768 00002ECC 0F 85 FFFFFED3                  	JNE	L774
  4769 00002ED2                                 L793:
  4770 00002ED2 8B 45 08                        	MOV	EAX,DWORD [8+EBP]
  4771 00002ED5 40                              	INC	EAX
  4772 00002ED6 50                              	PUSH	EAX
  4773 00002ED7 8B 45 0C                        	MOV	EAX,DWORD [12+EBP]
  4774 00002EDA 40                              	INC	EAX
  4775 00002EDB 50                              	PUSH	EAX
  4776 00002EDC FF 75 20                        	PUSH	DWORD [32+EBP]
  4777 00002EDF FF 75 24                        	PUSH	DWORD [36+EBP]
  4778 00002EE2 EB BA                           	JMP	L880
  4779 00002EE4                                 L784:
  4780 00002EE4 8B 4D EC                        	MOV	ECX,DWORD [-20+EBP]
  4781 00002EE7 8D 1C 31                        	LEA	EBX,DWORD [ECX+ESI*1]
  4782 00002EEA 53                              	PUSH	EBX
  4783 00002EEB E8 [00000000]                   	CALL	_memman_init
  4784 00002EF0 83 65 20 F0                     	AND	DWORD [32+EBP],-16
  4785 00002EF4 FF 75 20                        	PUSH	DWORD [32+EBP]
  4786 00002EF7 FF 75 24                        	PUSH	DWORD [36+EBP]
  4787 00002EFA 53                              	PUSH	EBX
  4788 00002EFB E8 [00000000]                   	CALL	_memman_free
  4789 00002F00 83 C4 10                        	ADD	ESP,16
  4790 00002F03 E9 FFFFFE9D                     	JMP	L774
  4791 00002F08                                 L785:
  4792 00002F08 8B 45 20                        	MOV	EAX,DWORD [32+EBP]
  4793 00002F0B 8B 55 EC                        	MOV	EDX,DWORD [-20+EBP]
  4794 00002F0E 83 C0 0F                        	ADD	EAX,15
  4795 00002F11 83 E0 F0                        	AND	EAX,-16
  4796 00002F14 50                              	PUSH	EAX
  4797 00002F15 8D 04 32                        	LEA	EAX,DWORD [EDX+ESI*1]
  4798 00002F18 50                              	PUSH	EAX
  4799 00002F19 E8 [00000000]                   	CALL	_memman_alloc
  4800 00002F1E                                 L873:
  4801 00002F1E 89 45 44                        	MOV	DWORD [68+EBP],EAX
  4802 00002F21 E9 FFFFFE98                     	JMP	L875
  4803 00002F26                                 L786:
  4804 00002F26 8B 45 20                        	MOV	EAX,DWORD [32+EBP]
  4805 00002F29 8B 4D EC                        	MOV	ECX,DWORD [-20+EBP]
  4806 00002F2C 83 C0 0F                        	ADD	EAX,15
  4807 00002F2F 83 E0 F0                        	AND	EAX,-16
  4808 00002F32 50                              	PUSH	EAX
  4809 00002F33 8D 04 31                        	LEA	EAX,DWORD [ECX+ESI*1]
  4810 00002F36 FF 75 24                        	PUSH	DWORD [36+EBP]
  4811 00002F39 50                              	PUSH	EAX
  4812 00002F3A E8 [00000000]                   	CALL	_memman_free
  4813 00002F3F E9 FFFFFE5E                     	JMP	L877
  4814 00002F44                                 L787:
  4815 00002F44 89 F7                           	MOV	EDI,ESI
  4816 00002F46 8B 45 08                        	MOV	EAX,DWORD [8+EBP]
  4817 00002F49 83 E7 FE                        	AND	EDI,-2
  4818 00002F4C 8A 55 24                        	MOV	DL,BYTE [36+EBP]
  4819 00002F4F 0F AF 47 04                     	IMUL	EAX,DWORD [4+EDI]
  4820 00002F53 03 45 0C                        	ADD	EAX,DWORD [12+EBP]
  4821 00002F56 8B 0F                           	MOV	ECX,DWORD [EDI]
  4822 00002F58 83 E6 01                        	AND	ESI,1
  4823 00002F5B 88 14 08                        	MOV	BYTE [EAX+ECX*1],DL
  4824 00002F5E 0F 85 FFFFFE41                  	JNE	L774
  4825 00002F64 8B 45 08                        	MOV	EAX,DWORD [8+EBP]
  4826 00002F67 40                              	INC	EAX
  4827 00002F68 50                              	PUSH	EAX
  4828 00002F69 8B 45 0C                        	MOV	EAX,DWORD [12+EBP]
  4829 00002F6C 40                              	INC	EAX
  4830 00002F6D 50                              	PUSH	EAX
  4831 00002F6E FF 75 08                        	PUSH	DWORD [8+EBP]
  4832 00002F71 FF 75 0C                        	PUSH	DWORD [12+EBP]
  4833 00002F74 E9 FFFFFF25                     	JMP	L880
  4834 00002F79                                 L789:
  4835 00002F79 FF 75 08                        	PUSH	DWORD [8+EBP]
  4836 00002F7C FF 75 0C                        	PUSH	DWORD [12+EBP]
  4837 00002F7F FF 75 20                        	PUSH	DWORD [32+EBP]
  4838 00002F82 FF 75 24                        	PUSH	DWORD [36+EBP]
  4839 00002F85 56                              	PUSH	ESI
  4840 00002F86 E9 FFFFFF14                     	JMP	L878
  4841 00002F8B                                 L790:
  4842 00002F8B FF 75 10                        	PUSH	DWORD [16+EBP]
  4843 00002F8E FF 75 08                        	PUSH	DWORD [8+EBP]
  4844 00002F91 FF 75 0C                        	PUSH	DWORD [12+EBP]
  4845 00002F94 FF 75 20                        	PUSH	DWORD [32+EBP]
  4846 00002F97 89 F7                           	MOV	EDI,ESI
  4847 00002F99 FF 75 24                        	PUSH	DWORD [36+EBP]
  4848 00002F9C 83 E7 FE                        	AND	EDI,-2
  4849 00002F9F 57                              	PUSH	EDI
  4850 00002FA0 E8 0000067E                     	CALL	_hrb_api_linewin
  4851 00002FA5 83 C4 18                        	ADD	ESP,24
  4852 00002FA8 83 E6 01                        	AND	ESI,1
  4853 00002FAB 0F 85 FFFFFDF4                  	JNE	L774
  4854 00002FB1 8B 45 24                        	MOV	EAX,DWORD [36+EBP]
  4855 00002FB4 3B 45 0C                        	CMP	EAX,DWORD [12+EBP]
  4856 00002FB7 7E 09                           	JLE	L792
  4857 00002FB9 8B 75 0C                        	MOV	ESI,DWORD [12+EBP]
  4858 00002FBC 89 45 0C                        	MOV	DWORD [12+EBP],EAX
  4859 00002FBF 89 75 24                        	MOV	DWORD [36+EBP],ESI
  4860 00002FC2                                 L792:
  4861 00002FC2 8B 45 08                        	MOV	EAX,DWORD [8+EBP]
  4862 00002FC5 39 45 20                        	CMP	DWORD [32+EBP],EAX
  4863 00002FC8 0F 8E FFFFFF04                  	JLE	L793
  4864 00002FCE 8B 5D 20                        	MOV	EBX,DWORD [32+EBP]
  4865 00002FD1 89 45 20                        	MOV	DWORD [32+EBP],EAX
  4866 00002FD4 89 5D 08                        	MOV	DWORD [8+EBP],EBX
  4867 00002FD7 E9 FFFFFEF6                     	JMP	L793
  4868 00002FDC                                 L794:
  4869 00002FDC 56                              	PUSH	ESI
  4870 00002FDD E8 [00000000]                   	CALL	_sheet_free
  4871 00002FE2                                 L874:
  4872 00002FE2 5B                              	POP	EBX
  4873 00002FE3 E9 FFFFFDBD                     	JMP	L774
  4874 00002FE8                                 L796:
  4875 00002FE8 E8 [00000000]                   	CALL	_io_cli
  4876 00002FED 8B 45 F0                        	MOV	EAX,DWORD [-16+EBP]
  4877 00002FF0 83 C0 10                        	ADD	EAX,16
  4878 00002FF3 50                              	PUSH	EAX
  4879 00002FF4 E8 [00000000]                   	CALL	_fifo32_status
  4880 00002FF9 5A                              	POP	EDX
  4881 00002FFA 85 C0                           	TEST	EAX,EAX
  4882 00002FFC 75 13                           	JNE	L799
  4883 00002FFE 83 7D 24 00                     	CMP	DWORD [36+EBP],0
  4884 00003002 0F 84 000000D4                  	JE	L800
  4885 00003008 FF 75 F0                        	PUSH	DWORD [-16+EBP]
  4886 0000300B E8 [00000000]                   	CALL	_task_sleep
  4887 00003010 58                              	POP	EAX
  4888 00003011                                 L799:
  4889 00003011 8B 75 F0                        	MOV	ESI,DWORD [-16+EBP]
  4890 00003014 83 C6 10                        	ADD	ESI,16
  4891 00003017 56                              	PUSH	ESI
  4892 00003018 E8 [00000000]                   	CALL	_fifo32_get
  4893 0000301D 89 C3                           	MOV	EBX,EAX
  4894 0000301F E8 [00000000]                   	CALL	_io_sti
  4895 00003024 58                              	POP	EAX
  4896 00003025 83 FB 01                        	CMP	EBX,1
  4897 00003028 0F 8E 00000082                  	JLE	L882
  4898 0000302E                                 L802:
  4899 0000302E 83 FB 02                        	CMP	EBX,2
  4900 00003031 74 71                           	JE	L883
  4901 00003033                                 L803:
  4902 00003033 83 FB 03                        	CMP	EBX,3
  4903 00003036 74 60                           	JE	L884
  4904 00003038                                 L804:
  4905 00003038 83 FB 04                        	CMP	EBX,4
  4906 0000303B 74 16                           	JE	L885
  4907 0000303D                                 L805:
  4908 0000303D 8D 83 FFFFFF00                  	LEA	EAX,DWORD [-256+EBX]
  4909 00003043 81 FB 000000FF                  	CMP	EBX,255
  4910 00003049 7E 9D                           	JLE	L796
  4911 0000304B                                 L876:
  4912 0000304B 89 45 44                        	MOV	DWORD [68+EBP],EAX
  4913 0000304E E9 FFFFFD52                     	JMP	L774
  4914 00003053                                 L885:
  4915 00003053 8B 55 E8                        	MOV	EDX,DWORD [-24+EBP]
  4916 00003056 FF 72 10                        	PUSH	DWORD [16+EDX]
  4917 00003059 E8 [00000000]                   	CALL	_timer_cancel
  4918 0000305E E8 [00000000]                   	CALL	_io_cli
  4919 00003063 8B 4D E8                        	MOV	ECX,DWORD [-24+EBP]
  4920 00003066 8B 01                           	MOV	EAX,DWORD [ECX]
  4921 00003068 2B 45 E4                        	SUB	EAX,DWORD [-28+EBP]
  4922 0000306B 2D 00000414                     	SUB	EAX,1044
  4923 00003070 C1 F8 03                        	SAR	EAX,3
  4924 00003073 69 C0 CCCCCCCD                  	IMUL	EAX,EAX,-858993459
  4925 00003079 05 000007E8                     	ADD	EAX,2024
  4926 0000307E 50                              	PUSH	EAX
  4927 0000307F 57                              	PUSH	EDI
  4928 00003080 E8 [00000000]                   	CALL	_fifo32_put
  4929 00003085 8B 75 E8                        	MOV	ESI,DWORD [-24+EBP]
  4930 00003088 C7 06 00000000                  	MOV	DWORD [ESI],0
  4931 0000308E E8 [00000000]                   	CALL	_io_sti
  4932 00003093 83 C4 0C                        	ADD	ESP,12
  4933 00003096 EB A5                           	JMP	L805
  4934 00003098                                 L884:
  4935 00003098 8B 45 E8                        	MOV	EAX,DWORD [-24+EBP]
  4936 0000309B C7 40 0C FFFFFFFF               	MOV	DWORD [12+EAX],-1
  4937 000030A2 EB 94                           	JMP	L804
  4938 000030A4                                 L883:
  4939 000030A4 8B 75 E8                        	MOV	ESI,DWORD [-24+EBP]
  4940 000030A7 C7 46 0C 00000007               	MOV	DWORD [12+ESI],7
  4941 000030AE EB 83                           	JMP	L803
  4942 000030B0                                 L882:
  4943 000030B0 8B 55 E8                        	MOV	EDX,DWORD [-24+EBP]
  4944 000030B3 83 3A 00                        	CMP	DWORD [EDX],0
  4945 000030B6 0F 84 FFFFFF72                  	JE	L802
  4946 000030BC 6A 01                           	PUSH	1
  4947 000030BE 56                              	PUSH	ESI
  4948 000030BF FF 72 10                        	PUSH	DWORD [16+EDX]
  4949 000030C2 E8 [00000000]                   	CALL	_timer_init
  4950 000030C7 8B 4D E8                        	MOV	ECX,DWORD [-24+EBP]
  4951 000030CA 6A 32                           	PUSH	50
  4952 000030CC FF 71 10                        	PUSH	DWORD [16+ECX]
  4953 000030CF E8 [00000000]                   	CALL	_timer_settime
  4954 000030D4 83 C4 14                        	ADD	ESP,20
  4955 000030D7 E9 FFFFFF52                     	JMP	L802
  4956 000030DC                                 L800:
  4957 000030DC E8 [00000000]                   	CALL	_io_sti
  4958 000030E1 C7 45 44 FFFFFFFF               	MOV	DWORD [68+EBP],-1
  4959 000030E8 E9 FFFFFCB8                     	JMP	L774
  4960 000030ED                                 L807:
  4961 000030ED E8 [00000000]                   	CALL	_timer_alloc
  4962 000030F2 89 45 44                        	MOV	DWORD [68+EBP],EAX
  4963 000030F5 C6 40 09 01                     	MOV	BYTE [9+EAX],1
  4964 000030F9 E9 FFFFFCA7                     	JMP	L774
  4965 000030FE                                 L808:
  4966 000030FE 8B 45 24                        	MOV	EAX,DWORD [36+EBP]
  4967 00003101 05 00000100                     	ADD	EAX,256
  4968 00003106 50                              	PUSH	EAX
  4969 00003107 8B 45 F0                        	MOV	EAX,DWORD [-16+EBP]
  4970 0000310A 83 C0 10                        	ADD	EAX,16
  4971 0000310D 50                              	PUSH	EAX
  4972 0000310E 56                              	PUSH	ESI
  4973 0000310F E8 [00000000]                   	CALL	_timer_init
  4974 00003114 E9 FFFFFC89                     	JMP	L877
  4975 00003119                                 L809:
  4976 00003119 FF 75 24                        	PUSH	DWORD [36+EBP]
  4977 0000311C 56                              	PUSH	ESI
  4978 0000311D E8 [00000000]                   	CALL	_timer_settime
  4979 00003122 E9 FFFFFC97                     	JMP	L875
  4980 00003127                                 L810:
  4981 00003127 56                              	PUSH	ESI
  4982 00003128 E8 [00000000]                   	CALL	_timer_free
  4983 0000312D E9 FFFFFEB0                     	JMP	L874
  4984 00003132                                 L811:
  4985 00003132 8B 55 24                        	MOV	EDX,DWORD [36+EBP]
  4986 00003135 85 D2                           	TEST	EDX,EDX
  4987 00003137 75 19                           	JNE	L812
  4988 00003139 6A 61                           	PUSH	97
  4989 0000313B E8 [00000000]                   	CALL	_io_in8
  4990 00003140 89 C3                           	MOV	EBX,EAX
  4991 00003142 83 E3 0D                        	AND	EBX,13
  4992 00003145 53                              	PUSH	EBX
  4993 00003146 6A 61                           	PUSH	97
  4994 00003148 E8 [00000000]                   	CALL	_io_out8
  4995 0000314D E9 FFFFFC50                     	JMP	L877
  4996 00003152                                 L812:
  4997 00003152 B9 471E7B60                     	MOV	ECX,1193180000
  4998 00003157 89 D6                           	MOV	ESI,EDX
  4999 00003159 89 C8                           	MOV	EAX,ECX
  5000 0000315B 68 000000B6                     	PUSH	182
  5001 00003160 99                              	CDQ
  5002 00003161 F7 FE                           	IDIV	ESI
  5003 00003163 6A 43                           	PUSH	67
  5004 00003165 89 C3                           	MOV	EBX,EAX
  5005 00003167 E8 [00000000]                   	CALL	_io_out8
  5006 0000316C 0F B6 C3                        	MOVZX	EAX,BL
  5007 0000316F C1 FB 08                        	SAR	EBX,8
  5008 00003172 50                              	PUSH	EAX
  5009 00003173 6A 42                           	PUSH	66
  5010 00003175 E8 [00000000]                   	CALL	_io_out8
  5011 0000317A 53                              	PUSH	EBX
  5012 0000317B 6A 42                           	PUSH	66
  5013 0000317D E8 [00000000]                   	CALL	_io_out8
  5014 00003182 6A 61                           	PUSH	97
  5015 00003184 E8 [00000000]                   	CALL	_io_in8
  5016 00003189 89 C3                           	MOV	EBX,EAX
  5017 0000318B 83 CB 03                        	OR	EBX,3
  5018 0000318E 83 E3 0F                        	AND	EBX,15
  5019 00003191 53                              	PUSH	EBX
  5020 00003192 6A 61                           	PUSH	97
  5021 00003194 E8 [00000000]                   	CALL	_io_out8
  5022 00003199 83 C4 24                        	ADD	ESP,36
  5023 0000319C E9 FFFFFC04                     	JMP	L774
  5024 000031A1                                 L814:
  5025 000031A1 31 DB                           	XOR	EBX,EBX
  5026 000031A3 31 C0                           	XOR	EAX,EAX
  5027 000031A5                                 L820:
  5028 000031A5 8B 4D F0                        	MOV	ECX,DWORD [-16+EBP]
  5029 000031A8 8B 91 000000B0                  	MOV	EDX,DWORD [176+ECX]
  5030 000031AE 83 3C 02 00                     	CMP	DWORD [EDX+EAX*1],0
  5031 000031B2 74 09                           	JE	L816
  5032 000031B4 43                              	INC	EBX
  5033 000031B5 83 C0 0C                        	ADD	EAX,12
  5034 000031B8 83 FB 07                        	CMP	EBX,7
  5035 000031BB 7E E8                           	JLE	L820
  5036 000031BD                                 L816:
  5037 000031BD 6B C3 0C                        	IMUL	EAX,EBX,12
  5038 000031C0 C7 45 44 00000000               	MOV	DWORD [68+EBP],0
  5039 000031C7 8D 3C 10                        	LEA	EDI,DWORD [EAX+EDX*1]
  5040 000031CA 83 FB 07                        	CMP	EBX,7
  5041 000031CD 0F 8F FFFFFBD2                  	JG	L774
  5042 000031D3 8B 55 EC                        	MOV	EDX,DWORD [-20+EBP]
  5043 000031D6 68 000000E0                     	PUSH	224
  5044 000031DB 68 00102600                     	PUSH	1058304
  5045 000031E0 8D 04 32                        	LEA	EAX,DWORD [EDX+ESI*1]
  5046 000031E3 50                              	PUSH	EAX
  5047 000031E4 E8 [00000000]                   	CALL	_file_search
  5048 000031E9 83 C4 0C                        	ADD	ESP,12
  5049 000031EC 89 C2                           	MOV	EDX,EAX
  5050 000031EE 85 C0                           	TEST	EAX,EAX
  5051 000031F0 0F 84 FFFFFBAF                  	JE	L774
  5052 000031F6 89 7D 44                        	MOV	DWORD [68+EBP],EDI
  5053 000031F9 8B 4D F0                        	MOV	ECX,DWORD [-16+EBP]
  5054 000031FC 8B 40 1C                        	MOV	EAX,DWORD [28+EAX]
  5055 000031FF 89 47 04                        	MOV	DWORD [4+EDI],EAX
  5056 00003202 8D 47 04                        	LEA	EAX,DWORD [4+EDI]
  5057 00003205 C7 47 08 00000000               	MOV	DWORD [8+EDI],0
  5058 0000320C FF B1 000000B4                  	PUSH	DWORD [180+ECX]
  5059 00003212 50                              	PUSH	EAX
  5060 00003213 0F B7 42 1A                     	MOVZX	EAX,WORD [26+EDX]
  5061 00003217 50                              	PUSH	EAX
  5062 00003218 E8 [00000000]                   	CALL	_file_loadfile2
  5063 0000321D 89 07                           	MOV	DWORD [EDI],EAX
  5064 0000321F E9 FFFFFB7E                     	JMP	L877
  5065 00003224                                 L823:
  5066 00003224 8B 7D 24                        	MOV	EDI,DWORD [36+EBP]
  5067 00003227 FF 77 04                        	PUSH	DWORD [4+EDI]
  5068 0000322A FF 37                           	PUSH	DWORD [EDI]
  5069 0000322C 68 003C0000                     	PUSH	3932160
  5070 00003231 E8 [00000000]                   	CALL	_memman_free_4k
  5071 00003236 C7 07 00000000                  	MOV	DWORD [EDI],0
  5072 0000323C E9 FFFFFB61                     	JMP	L877
  5073 00003241                                 L824:
  5074 00003241 8B 7D 24                        	MOV	EDI,DWORD [36+EBP]
  5075 00003244 83 7D 20 00                     	CMP	DWORD [32+EBP],0
  5076 00003248 74 32                           	JE	L872
  5077 0000324A 83 7D 20 01                     	CMP	DWORD [32+EBP],1
  5078 0000324E 74 31                           	JE	L886
  5079 00003250 83 7D 20 02                     	CMP	DWORD [32+EBP],2
  5080 00003254 74 23                           	JE	L887
  5081 00003256                                 L826:
  5082 00003256 83 7F 08 00                     	CMP	DWORD [8+EDI],0
  5083 0000325A 78 14                           	JS	L888
  5084 0000325C                                 L830:
  5085 0000325C 8B 47 04                        	MOV	EAX,DWORD [4+EDI]
  5086 0000325F 39 47 08                        	CMP	DWORD [8+EDI],EAX
  5087 00003262 0F 8E FFFFFB3D                  	JLE	L774
  5088 00003268 89 47 08                        	MOV	DWORD [8+EDI],EAX
  5089 0000326B E9 FFFFFB35                     	JMP	L774
  5090 00003270                                 L888:
  5091 00003270 C7 47 08 00000000               	MOV	DWORD [8+EDI],0
  5092 00003277 EB E3                           	JMP	L830
  5093 00003279                                 L887:
  5094 00003279 03 77 04                        	ADD	ESI,DWORD [4+EDI]
  5095 0000327C                                 L872:
  5096 0000327C 89 77 08                        	MOV	DWORD [8+EDI],ESI
  5097 0000327F EB D5                           	JMP	L826
  5098 00003281                                 L886:
  5099 00003281 01 77 08                        	ADD	DWORD [8+EDI],ESI
  5100 00003284 EB D0                           	JMP	L826
  5101 00003286                                 L832:
  5102 00003286 8B 7D 24                        	MOV	EDI,DWORD [36+EBP]
  5103 00003289 83 7D 20 00                     	CMP	DWORD [32+EBP],0
  5104 0000328D 75 08                           	JNE	L833
  5105 0000328F 8B 47 04                        	MOV	EAX,DWORD [4+EDI]
  5106 00003292 E9 FFFFFDB4                     	JMP	L876
  5107 00003297                                 L833:
  5108 00003297 83 7D 20 01                     	CMP	DWORD [32+EBP],1
  5109 0000329B 74 15                           	JE	L889
  5110 0000329D 83 7D 20 02                     	CMP	DWORD [32+EBP],2
  5111 000032A1 0F 85 FFFFFAFE                  	JNE	L774
  5112 000032A7 8B 47 08                        	MOV	EAX,DWORD [8+EDI]
  5113 000032AA 2B 47 04                        	SUB	EAX,DWORD [4+EDI]
  5114 000032AD E9 FFFFFD99                     	JMP	L876
  5115 000032B2                                 L889:
  5116 000032B2 8B 47 08                        	MOV	EAX,DWORD [8+EDI]
  5117 000032B5 E9 FFFFFD91                     	JMP	L876
  5118 000032BA                                 L838:
  5119 000032BA 31 DB                           	XOR	EBX,EBX
  5120 000032BC 8B 7D 24                        	MOV	EDI,DWORD [36+EBP]
  5121 000032BF 3B 5D 20                        	CMP	EBX,DWORD [32+EBP]
  5122 000032C2 7D 1F                           	JGE	L847
  5123 000032C4                                 L844:
  5124 000032C4 8B 4F 08                        	MOV	ECX,DWORD [8+EDI]
  5125 000032C7 3B 4F 04                        	CMP	ECX,DWORD [4+EDI]
  5126 000032CA 74 17                           	JE	L847
  5127 000032CC 8B 55 EC                        	MOV	EDX,DWORD [-20+EBP]
  5128 000032CF 8D 04 32                        	LEA	EAX,DWORD [EDX+ESI*1]
  5129 000032D2 8B 17                           	MOV	EDX,DWORD [EDI]
  5130 000032D4 8A 14 11                        	MOV	DL,BYTE [ECX+EDX*1]
  5131 000032D7 88 14 03                        	MOV	BYTE [EBX+EAX*1],DL
  5132 000032DA 43                              	INC	EBX
  5133 000032DB FF 47 08                        	INC	DWORD [8+EDI]
  5134 000032DE 3B 5D 20                        	CMP	EBX,DWORD [32+EBP]
  5135 000032E1 7C E1                           	JL	L844
  5136 000032E3                                 L847:
  5137 000032E3 89 5D 44                        	MOV	DWORD [68+EBP],EBX
  5138 000032E6 E9 FFFFFABA                     	JMP	L774
  5139 000032EB                                 L845:
  5140 000032EB 31 DB                           	XOR	EBX,EBX
  5141 000032ED                                 L846:
  5142 000032ED 8B 4D EC                        	MOV	ECX,DWORD [-20+EBP]
  5143 000032F0 8D 14 31                        	LEA	EDX,DWORD [ECX+ESI*1]
  5144 000032F3 8B 4D F0                        	MOV	ECX,DWORD [-16+EBP]
  5145 000032F6 8B 81 000000B8                  	MOV	EAX,DWORD [184+ECX]
  5146 000032FC 8A 04 03                        	MOV	AL,BYTE [EBX+EAX*1]
  5147 000032FF 88 04 13                        	MOV	BYTE [EBX+EDX*1],AL
  5148 00003302 8B 81 000000B8                  	MOV	EAX,DWORD [184+ECX]
  5149 00003308 80 3C 03 00                     	CMP	BYTE [EBX+EAX*1],0
  5150 0000330C 74 D5                           	JE	L847
  5151 0000330E 3B 5D 20                        	CMP	EBX,DWORD [32+EBP]
  5152 00003311 7D D0                           	JGE	L847
  5153 00003313 43                              	INC	EBX
  5154 00003314 EB D7                           	JMP	L846
  5155 00003316                                 L851:
  5156 00003316 8B 75 F0                        	MOV	ESI,DWORD [-16+EBP]
  5157 00003319 0F B6 86 000000C0               	MOVZX	EAX,BYTE [192+ESI]
  5158 00003320 E9 FFFFFD26                     	JMP	L876
  5159 00003325                                 L852:
  5160 00003325 8B 55 F0                        	MOV	EDX,DWORD [-16+EBP]
  5161 00003328 C7 05 [00002284] 00270000       	MOV	DWORD [_gdt_addr],2555904
  5162 00003332 8B 82 0000008C                  	MOV	EAX,DWORD [140+EDX]
  5163 00003338 A3 [00002288]                   	MOV	DWORD [_ldt_addr_offset],EAX
  5164 0000333D 8B 90 00270004                  	MOV	EDX,DWORD [2555908+EAX]
  5165 00003343 8B 80 00270000                  	MOV	EAX,DWORD [2555904+EAX]
  5166 00003349 89 15 [00002294]                	MOV	DWORD [_temp+4],EDX
  5167 0000334F A3 [00002290]                   	MOV	DWORD [_temp],EAX
  5168 00003354 0F BE 05 [00002294]             	MOVSX	EAX,BYTE [_temp+4]
  5169 0000335B 0F BF 0D [00002292]             	MOVSX	ECX,WORD [_temp+2]
  5170 00003362 C1 E0 10                        	SAL	EAX,16
  5171 00003365 01 C1                           	ADD	ECX,EAX
  5172 00003367 0F BE 05 [00002297]             	MOVSX	EAX,BYTE [_temp+7]
  5173 0000336E C1 E0 18                        	SAL	EAX,24
  5174 00003371 01 C1                           	ADD	ECX,EAX
  5175 00003373 89 0D [00002298]                	MOV	DWORD [_ldt_addr],ECX
  5176 00003379 8B 51 0C                        	MOV	EDX,DWORD [12+ECX]
  5177 0000337C 8B 41 08                        	MOV	EAX,DWORD [8+ECX]
  5178 0000337F 89 15 [00002294]                	MOV	DWORD [_temp+4],EDX
  5179 00003385 A3 [00002290]                   	MOV	DWORD [_temp],EAX
  5180 0000338A 0F BE 05 [00002294]             	MOVSX	EAX,BYTE [_temp+4]
  5181 00003391 0F BF 15 [00002292]             	MOVSX	EDX,WORD [_temp+2]
  5182 00003398 C1 E0 10                        	SAL	EAX,16
  5183 0000339B 01 C2                           	ADD	EDX,EAX
  5184 0000339D 0F BE 05 [00002297]             	MOVSX	EAX,BYTE [_temp+7]
  5185 000033A4 C1 E0 18                        	SAL	EAX,24
  5186 000033A7 8D 04 10                        	LEA	EAX,DWORD [EAX+EDX*1]
  5187 000033AA 8B 55 24                        	MOV	EDX,DWORD [36+EBP]
  5188 000033AD 89 45 EC                        	MOV	DWORD [-20+EBP],EAX
  5189 000033B0 01 D0                           	ADD	EAX,EDX
  5190 000033B2 A3 [0000229C]                   	MOV	DWORD [_phy_addr],EAX
  5191 000033B7 FF 30                           	PUSH	DWORD [EAX]
  5192 000033B9 50                              	PUSH	EAX
  5193 000033BA 52                              	PUSH	EDX
  5194 000033BB FF 75 EC                        	PUSH	DWORD [-20+EBP]
  5195 000033BE 51                              	PUSH	ECX
  5196 000033BF 68 00270000                     	PUSH	2555904
  5197 000033C4 68 [00000ADB]                   	PUSH	LC146
  5198 000033C9 68 [00002220]                   	PUSH	_s
  5199 000033CE E8 [00000000]                   	CALL	_sprintf
  5200 000033D3 83 C4 20                        	ADD	ESP,32
  5201 000033D6 68 [00002220]                   	PUSH	_s
  5202 000033DB FF 75 E8                        	PUSH	DWORD [-24+EBP]
  5203 000033DE E8 FFFFD645                     	CALL	_cons_putstr0
  5204 000033E3 A1 [0000229C]                   	MOV	EAX,DWORD [_phy_addr]
  5205 000033E8 E9 FFFFFB31                     	JMP	L873
  5206 000033ED                                 L853:
  5207 000033ED C1 FE 03                        	SAR	ESI,3
  5208 000033F0 8B 4D EC                        	MOV	ECX,DWORD [-20+EBP]
  5209 000033F3 8B 45 24                        	MOV	EAX,DWORD [36+EBP]
  5210 000033F6 8B 44 08 02                     	MOV	EAX,DWORD [2+EAX+ECX*1]
  5211 000033FA 89 45 DC                        	MOV	DWORD [-36+EBP],EAX
  5212 000033FD A3 [000022A0]                   	MOV	DWORD [_gdt],EAX
  5213 00003402 8B 45 20                        	MOV	EAX,DWORD [32+EBP]
  5214 00003405 8B 55 DC                        	MOV	EDX,DWORD [-36+EBP]
  5215 00003408 C1 F8 03                        	SAR	EAX,3
  5216 0000340B 89 45 D8                        	MOV	DWORD [-40+EBP],EAX
  5217 0000340E A3 [000022A4]                   	MOV	DWORD [_ldt_index],EAX
  5218 00003413 8D 3C C2                        	LEA	EDI,DWORD [EDX+EAX*8]
  5219 00003416 89 3D [000022A8]                	MOV	DWORD [_ldt_des],EDI
  5220 0000341C 8B 57 04                        	MOV	EDX,DWORD [4+EDI]
  5221 0000341F 8B 07                           	MOV	EAX,DWORD [EDI]
  5222 00003421 89 15 [00002294]                	MOV	DWORD [_temp+4],EDX
  5223 00003427 A3 [00002290]                   	MOV	DWORD [_temp],EAX
  5224 0000342C 0F BE 05 [00002294]             	MOVSX	EAX,BYTE [_temp+4]
  5225 00003433 0F BF 0D [00002292]             	MOVSX	ECX,WORD [_temp+2]
  5226 0000343A C1 E0 10                        	SAL	EAX,16
  5227 0000343D 89 35 [000022AC]                	MOV	DWORD [_ds_index],ESI
  5228 00003443 01 C1                           	ADD	ECX,EAX
  5229 00003445 0F BE 05 [00002297]             	MOVSX	EAX,BYTE [_temp+7]
  5230 0000344C C1 E0 18                        	SAL	EAX,24
  5231 0000344F 01 C1                           	ADD	ECX,EAX
  5232 00003451 89 0D [00002298]                	MOV	DWORD [_ldt_addr],ECX
  5233 00003457 8D 1C F1                        	LEA	EBX,DWORD [ECX+ESI*8]
  5234 0000345A 89 1D [000022B0]                	MOV	DWORD [_ds_des],EBX
  5235 00003460 8B 53 04                        	MOV	EDX,DWORD [4+EBX]
  5236 00003463 8B 03                           	MOV	EAX,DWORD [EBX]
  5237 00003465 89 15 [00002294]                	MOV	DWORD [_temp+4],EDX
  5238 0000346B A3 [00002290]                   	MOV	DWORD [_temp],EAX
  5239 00003470 0F BE 05 [00002294]             	MOVSX	EAX,BYTE [_temp+4]
  5240 00003477 0F BF 15 [00002292]             	MOVSX	EDX,WORD [_temp+2]
  5241 0000347E C1 E0 10                        	SAL	EAX,16
  5242 00003481 01 C2                           	ADD	EDX,EAX
  5243 00003483 0F BE 05 [00002297]             	MOVSX	EAX,BYTE [_temp+7]
  5244 0000348A C1 E0 18                        	SAL	EAX,24
  5245 0000348D 01 C2                           	ADD	EDX,EAX
  5246 0000348F 8B 45 10                        	MOV	EAX,DWORD [16+EBP]
  5247 00003492 01 D0                           	ADD	EAX,EDX
  5248 00003494 89 15 [000022B4]                	MOV	DWORD [_ds_addr],EDX
  5249 0000349A A3 [0000229C]                   	MOV	DWORD [_phy_addr],EAX
  5250 0000349F FF 30                           	PUSH	DWORD [EAX]
  5251 000034A1 50                              	PUSH	EAX
  5252 000034A2 FF 75 10                        	PUSH	DWORD [16+EBP]
  5253 000034A5 52                              	PUSH	EDX
  5254 000034A6 53                              	PUSH	EBX
  5255 000034A7 56                              	PUSH	ESI
  5256 000034A8 51                              	PUSH	ECX
  5257 000034A9 57                              	PUSH	EDI
  5258 000034AA FF 75 D8                        	PUSH	DWORD [-40+EBP]
  5259 000034AD FF 75 DC                        	PUSH	DWORD [-36+EBP]
  5260 000034B0 68 [00000B26]                   	PUSH	LC147
  5261 000034B5 68 [00002220]                   	PUSH	_s
  5262 000034BA E8 [00000000]                   	CALL	_sprintf
  5263 000034BF 83 C4 30                        	ADD	ESP,48
  5264 000034C2 68 [00002220]                   	PUSH	_s
  5265 000034C7 E9 FFFFF8EA                     	JMP	L881
  5266 000034CC                                 L854:
  5267 000034CC E8 00000933                     	CALL	_cmd_reader
  5268 000034D1 E9 FFFFF8CF                     	JMP	L774
  5269 000034D6                                 L855:
  5270 000034D6 E8 00000A3A                     	CALL	_cmd_writer
  5271 000034DB E9 FFFFF8C5                     	JMP	L774
  5272 000034E0                                 L856:
  5273 000034E0 FF 75 E8                        	PUSH	DWORD [-24+EBP]
  5274 000034E3 E8 00000C78                     	CALL	_shareadd
  5275 000034E8 E9 FFFFFAF5                     	JMP	L874
  5276 000034ED                                 L857:
  5277 000034ED FF 75 E8                        	PUSH	DWORD [-24+EBP]
  5278 000034F0 E8 00000DE1                     	CALL	_consume
  5279 000034F5 E9 FFFFFAE8                     	JMP	L874
  5280 000034FA                                 L858:
  5281 000034FA FF 75 E8                        	PUSH	DWORD [-24+EBP]
  5282 000034FD E8 00000CEE                     	CALL	_produce
  5283 00003502 E9 FFFFFADB                     	JMP	L874
  5284 00003507                                 L859:
  5285 00003507 FF 75 24                        	PUSH	DWORD [36+EBP]
  5286 0000350A E8 00000E82                     	CALL	_entrance
  5287 0000350F E9 FFFFFACE                     	JMP	L874
  5288 00003514                                 L860:
  5289 00003514 FF 75 24                        	PUSH	DWORD [36+EBP]
  5290 00003517 E8 00000F0B                     	CALL	_exiting
  5291 0000351C E9 FFFFFAC1                     	JMP	L874
  5292 00003521                                 L861:
  5293 00003521 8B 45 EC                        	MOV	EAX,DWORD [-20+EBP]
  5294 00003524 FF 75 20                        	PUSH	DWORD [32+EBP]
  5295 00003527 01 F0                           	ADD	EAX,ESI
  5296 00003529 50                              	PUSH	EAX
  5297 0000352A E8 [00000000]                   	CALL	_var_create
  5298 0000352F E9 FFFFF9EA                     	JMP	L873
  5299 00003534                                 L862:
  5300 00003534 8B 45 EC                        	MOV	EAX,DWORD [-20+EBP]
  5301 00003537 FF 75 20                        	PUSH	DWORD [32+EBP]
  5302 0000353A 01 F0                           	ADD	EAX,ESI
  5303 0000353C 50                              	PUSH	EAX
  5304 0000353D E8 [00000000]                   	CALL	_var_read
  5305 00003542 E9 FFFFF9D7                     	JMP	L873
  5306 00003547                                 L863:
  5307 00003547 FF 75 24                        	PUSH	DWORD [36+EBP]
  5308 0000354A 8B 45 EC                        	MOV	EAX,DWORD [-20+EBP]
  5309 0000354D FF 75 20                        	PUSH	DWORD [32+EBP]
  5310 00003550 01 F0                           	ADD	EAX,ESI
  5311 00003552 50                              	PUSH	EAX
  5312 00003553 E8 [00000000]                   	CALL	_var_wrt
  5313 00003558 89 45 44                        	MOV	DWORD [68+EBP],EAX
  5314 0000355B E9 FFFFF842                     	JMP	L877
  5315 00003560                                 L864:
  5316 00003560 8B 45 EC                        	MOV	EAX,DWORD [-20+EBP]
  5317 00003563 01 F0                           	ADD	EAX,ESI
  5318 00003565 50                              	PUSH	EAX
  5319 00003566 E8 [00000000]                   	CALL	_var_free
  5320 0000356B 89 45 44                        	MOV	DWORD [68+EBP],EAX
  5321 0000356E E9 FFFFFA6F                     	JMP	L874
  5322 00003573                                 L865:
  5323 00003573 E8 [00000000]                   	CALL	_avoid_sleep
  5324 00003578 E9 FFFFF828                     	JMP	L774
  5325 0000357D                                 L866:
  5326 0000357D E8 [00000000]                   	CALL	_Tlock
  5327 00003582 E9 FFFFF81E                     	JMP	L774
  5328 00003587                                 L867:
  5329 00003587 E8 [00000000]                   	CALL	_unTlock
  5330 0000358C E9 FFFFF814                     	JMP	L774
  5331                                          [SECTION .data]
  5332 00000C54                                 LC148:
  5333 00000C54 0A 49 4E 54 20 30 43 20 3A 0A   	DB	0x0A,"INT 0C :",0x0A," Stack Exception.",0x0A,0x00
       00000C5E 20 53 74 61 63 6B 20 45 78 63 
       00000C68 65 70 74 69 6F 6E 2E 0A 00 
  5334 00000C71                                 LC149:
  5335 00000C71 45 49 50 20 3D 20 25 30 38 58   	DB	"EIP = %08X",0x0A,0x00
       00000C7B 0A 00 
  5336                                          [SECTION .text]
  5337 00003591                                 	GLOBAL	_inthandler0c
  5338 00003591                                 _inthandler0c:
  5339 00003591 55                              	PUSH	EBP
  5340 00003592 89 E5                           	MOV	EBP,ESP
  5341 00003594 57                              	PUSH	EDI
  5342 00003595 56                              	PUSH	ESI
  5343 00003596 53                              	PUSH	EBX
  5344 00003597 8D 5D D4                        	LEA	EBX,DWORD [-44+EBP]
  5345 0000359A 83 EC 20                        	SUB	ESP,32
  5346 0000359D E8 [00000000]                   	CALL	_task_now
  5347 000035A2 89 C6                           	MOV	ESI,EAX
  5348 000035A4 8B B8 000000A4                  	MOV	EDI,DWORD [164+EAX]
  5349 000035AA 83 C6 30                        	ADD	ESI,48
  5350 000035AD 68 [00000C54]                   	PUSH	LC148
  5351 000035B2 57                              	PUSH	EDI
  5352 000035B3 E8 FFFFD470                     	CALL	_cons_putstr0
  5353 000035B8 8B 45 08                        	MOV	EAX,DWORD [8+EBP]
  5354 000035BB FF 70 2C                        	PUSH	DWORD [44+EAX]
  5355 000035BE 68 [00000C71]                   	PUSH	LC149
  5356 000035C3 53                              	PUSH	EBX
  5357 000035C4 E8 [00000000]                   	CALL	_sprintf
  5358 000035C9 53                              	PUSH	EBX
  5359 000035CA 57                              	PUSH	EDI
  5360 000035CB E8 FFFFD458                     	CALL	_cons_putstr0
  5361 000035D0 8D 65 F4                        	LEA	ESP,DWORD [-12+EBP]
  5362 000035D3 5B                              	POP	EBX
  5363 000035D4 89 F0                           	MOV	EAX,ESI
  5364 000035D6 5E                              	POP	ESI
  5365 000035D7 5F                              	POP	EDI
  5366 000035D8 5D                              	POP	EBP
  5367 000035D9 C3                              	RET
  5368                                          [SECTION .data]
  5369 00000C7D                                 LC150:
  5370 00000C7D 0A 49 4E 54 20 30 44 20 3A 0A   	DB	0x0A,"INT 0D :",0x0A," General Protected Exception.",0x0A,0x00
       00000C87 20 47 65 6E 65 72 61 6C 20 50 
       00000C91 72 6F 74 65 63 74 65 64 20 45 
       00000C9B 78 63 65 70 74 69 6F 6E 2E 0A 
       00000CA5 00 
  5371                                          [SECTION .text]
  5372 000035DA                                 	GLOBAL	_inthandler0d
  5373 000035DA                                 _inthandler0d:
  5374 000035DA 55                              	PUSH	EBP
  5375 000035DB 89 E5                           	MOV	EBP,ESP
  5376 000035DD 57                              	PUSH	EDI
  5377 000035DE 56                              	PUSH	ESI
  5378 000035DF 53                              	PUSH	EBX
  5379 000035E0 8D 5D D4                        	LEA	EBX,DWORD [-44+EBP]
  5380 000035E3 83 EC 20                        	SUB	ESP,32
  5381 000035E6 E8 [00000000]                   	CALL	_task_now
  5382 000035EB 89 C6                           	MOV	ESI,EAX
  5383 000035ED 8B B8 000000A4                  	MOV	EDI,DWORD [164+EAX]
  5384 000035F3 83 C6 30                        	ADD	ESI,48
  5385 000035F6 68 [00000C7D]                   	PUSH	LC150
  5386 000035FB 57                              	PUSH	EDI
  5387 000035FC E8 FFFFD427                     	CALL	_cons_putstr0
  5388 00003601 8B 45 08                        	MOV	EAX,DWORD [8+EBP]
  5389 00003604 FF 70 2C                        	PUSH	DWORD [44+EAX]
  5390 00003607 68 [00000C71]                   	PUSH	LC149
  5391 0000360C 53                              	PUSH	EBX
  5392 0000360D E8 [00000000]                   	CALL	_sprintf
  5393 00003612 53                              	PUSH	EBX
  5394 00003613 57                              	PUSH	EDI
  5395 00003614 E8 FFFFD40F                     	CALL	_cons_putstr0
  5396 00003619 8D 65 F4                        	LEA	ESP,DWORD [-12+EBP]
  5397 0000361C 5B                              	POP	EBX
  5398 0000361D 89 F0                           	MOV	EAX,ESI
  5399 0000361F 5E                              	POP	ESI
  5400 00003620 5F                              	POP	EDI
  5401 00003621 5D                              	POP	EBP
  5402 00003622 C3                              	RET
  5403 00003623                                 	GLOBAL	_hrb_api_linewin
  5404 00003623                                 _hrb_api_linewin:
  5405 00003623 55                              	PUSH	EBP
  5406 00003624 89 E5                           	MOV	EBP,ESP
  5407 00003626 57                              	PUSH	EDI
  5408 00003627 56                              	PUSH	ESI
  5409 00003628 53                              	PUSH	EBX
  5410 00003629 83 EC 0C                        	SUB	ESP,12
  5411 0000362C 8B 5D 0C                        	MOV	EBX,DWORD [12+EBP]
  5412 0000362F 8B 45 14                        	MOV	EAX,DWORD [20+EBP]
  5413 00003632 89 D9                           	MOV	ECX,EBX
  5414 00003634 8B 55 18                        	MOV	EDX,DWORD [24+EBP]
  5415 00003637 C1 E1 0A                        	SAL	ECX,10
  5416 0000363A 89 D7                           	MOV	EDI,EDX
  5417 0000363C 89 4D F0                        	MOV	DWORD [-16+EBP],ECX
  5418 0000363F 89 C6                           	MOV	ESI,EAX
  5419 00003641 8B 4D 10                        	MOV	ECX,DWORD [16+EBP]
  5420 00003644 2B 7D 10                        	SUB	EDI,DWORD [16+EBP]
  5421 00003647 C1 E1 0A                        	SAL	ECX,10
  5422 0000364A 29 DE                           	SUB	ESI,EBX
  5423 0000364C 89 4D EC                        	MOV	DWORD [-20+EBP],ECX
  5424 0000364F 0F 88 000000A3                  	JS	L914
  5425 00003655                                 L893:
  5426 00003655 85 FF                           	TEST	EDI,EDI
  5427 00003657 0F 88 00000094                  	JS	L915
  5428 0000365D                                 L894:
  5429 0000365D 39 FE                           	CMP	ESI,EDI
  5430 0000365F 7C 62                           	JL	L895
  5431 00003661 8D 4E 01                        	LEA	ECX,DWORD [1+ESI]
  5432 00003664 39 C3                           	CMP	EBX,EAX
  5433 00003666 BE FFFFFC00                     	MOV	ESI,-1024
  5434 0000366B 7F 05                           	JG	L897
  5435 0000366D BE 00000400                     	MOV	ESI,1024
  5436 00003672                                 L897:
  5437 00003672 39 55 10                        	CMP	DWORD [16+EBP],EDX
  5438 00003675 7F 46                           	JG	L898
  5439 00003677 2B 55 10                        	SUB	EDX,DWORD [16+EBP]
  5440 0000367A 42                              	INC	EDX
  5441 0000367B                                 L913:
  5442 0000367B C1 E2 0A                        	SAL	EDX,10
  5443 0000367E 89 D0                           	MOV	EAX,EDX
  5444 00003680 99                              	CDQ
  5445 00003681 F7 F9                           	IDIV	ECX
  5446 00003683 89 C7                           	MOV	EDI,EAX
  5447 00003685                                 L900:
  5448 00003685 85 C9                           	TEST	ECX,ECX
  5449 00003687 7E 2C                           	JLE	L911
  5450 00003689 89 CB                           	MOV	EBX,ECX
  5451 0000368B                                 L909:
  5452 0000368B 8B 55 08                        	MOV	EDX,DWORD [8+EBP]
  5453 0000368E 8B 45 EC                        	MOV	EAX,DWORD [-20+EBP]
  5454 00003691 C1 F8 0A                        	SAR	EAX,10
  5455 00003694 8B 4D F0                        	MOV	ECX,DWORD [-16+EBP]
  5456 00003697 0F AF 42 04                     	IMUL	EAX,DWORD [4+EDX]
  5457 0000369B C1 F9 0A                        	SAR	ECX,10
  5458 0000369E 89 4D E8                        	MOV	DWORD [-24+EBP],ECX
  5459 000036A1 8B 0A                           	MOV	ECX,DWORD [EDX]
  5460 000036A3 03 45 E8                        	ADD	EAX,DWORD [-24+EBP]
  5461 000036A6 8A 55 1C                        	MOV	DL,BYTE [28+EBP]
  5462 000036A9 88 14 08                        	MOV	BYTE [EAX+ECX*1],DL
  5463 000036AC 01 75 F0                        	ADD	DWORD [-16+EBP],ESI
  5464 000036AF 01 7D EC                        	ADD	DWORD [-20+EBP],EDI
  5465 000036B2 4B                              	DEC	EBX
  5466 000036B3 75 D6                           	JNE	L909
  5467 000036B5                                 L911:
  5468 000036B5 83 C4 0C                        	ADD	ESP,12
  5469 000036B8 5B                              	POP	EBX
  5470 000036B9 5E                              	POP	ESI
  5471 000036BA 5F                              	POP	EDI
  5472 000036BB 5D                              	POP	EBP
  5473 000036BC C3                              	RET
  5474 000036BD                                 L898:
  5475 000036BD 2B 55 10                        	SUB	EDX,DWORD [16+EBP]
  5476 000036C0 4A                              	DEC	EDX
  5477 000036C1 EB B8                           	JMP	L913
  5478 000036C3                                 L895:
  5479 000036C3 8D 4F 01                        	LEA	ECX,DWORD [1+EDI]
  5480 000036C6 39 55 10                        	CMP	DWORD [16+EBP],EDX
  5481 000036C9 BF FFFFFC00                     	MOV	EDI,-1024
  5482 000036CE 7F 05                           	JG	L902
  5483 000036D0 BF 00000400                     	MOV	EDI,1024
  5484 000036D5                                 L902:
  5485 000036D5 39 C3                           	CMP	EBX,EAX
  5486 000036D7 7F 11                           	JG	L903
  5487 000036D9 29 D8                           	SUB	EAX,EBX
  5488 000036DB 8D 50 01                        	LEA	EDX,DWORD [1+EAX]
  5489 000036DE                                 L912:
  5490 000036DE C1 E2 0A                        	SAL	EDX,10
  5491 000036E1 89 D0                           	MOV	EAX,EDX
  5492 000036E3 99                              	CDQ
  5493 000036E4 F7 F9                           	IDIV	ECX
  5494 000036E6 89 C6                           	MOV	ESI,EAX
  5495 000036E8 EB 9B                           	JMP	L900
  5496 000036EA                                 L903:
  5497 000036EA 29 D8                           	SUB	EAX,EBX
  5498 000036EC 8D 50 FF                        	LEA	EDX,DWORD [-1+EAX]
  5499 000036EF EB ED                           	JMP	L912
  5500 000036F1                                 L915:
  5501 000036F1 F7 DF                           	NEG	EDI
  5502 000036F3 E9 FFFFFF65                     	JMP	L894
  5503 000036F8                                 L914:
  5504 000036F8 F7 DE                           	NEG	ESI
  5505 000036FA E9 FFFFFF56                     	JMP	L893
  5506 000036FF                                 	GLOBAL	_cmd_clearline
  5507 000036FF                                 _cmd_clearline:
  5508 000036FF 55                              	PUSH	EBP
  5509 00003700 89 E5                           	MOV	EBP,ESP
  5510 00003702 8B 45 0C                        	MOV	EAX,DWORD [12+EBP]
  5511 00003705 80 38 00                        	CMP	BYTE [EAX],0
  5512 00003708 74 09                           	JE	L916
  5513 0000370A                                 L923:
  5514 0000370A C6 00 00                        	MOV	BYTE [EAX],0
  5515 0000370D 40                              	INC	EAX
  5516 0000370E 80 38 00                        	CMP	BYTE [EAX],0
  5517 00003711 75 F7                           	JNE	L923
  5518 00003713                                 L916:
  5519 00003713 5D                              	POP	EBP
  5520 00003714 C3                              	RET
  5521                                          [SECTION .data]
  5522 00000CA6 00 00 00 00 00 00 00 00 00 00   	ALIGNB	16
  5523 00000CB0                                 _s.0:
  5524 00000CB0 00 00 00 00 00 00 00 00 00 00   	RESB	4000
       00000CBA 00 00 00 00 00 00 00 00 00 00 
       00000CC4 00 00 00 00 00 00 00 00 00 00 
       00000CCE 00 00 00 00 00 00 00 00 00 00 
       00000CD8 00 00 00 00 00 00 00 00 00 00 
       00000CE2 00 00 00 00 00 00 00 00 00 00 
       00000CEC 00 00 00 00 00 00 00 00 00 00 
       00000CF6 00 00 00 00 00 00 00 00 00 00 
       00000D00 00 00 00 00 00 00 00 00 00 00 
       00000D0A 00 00 00 00 00 00 00 00 00 00 
       00000D14 00 00 00 00 00 00 00 00 00 00 
       00000D1E 00 00 00 00 00 00 00 00 00 00 
       00000D28 00 00 00 00 00 00 00 00 00 00 
       00000D32 00 00 00 00 00 00 00 00 00 00 
       00000D3C 00 00 00 00 00 00 00 00 00 00 
       00000D46 00 00 00 00 00 00 00 00 00 00 
       00000D50 00 00 00 00 00 00 00 00 00 00 
       00000D5A 00 00 00 00 00 00 00 00 00 00 
       00000D64 00 00 00 00 00 00 00 00 00 00 
       00000D6E 00 00 00 00 00 00 00 00 00 00 
       00000D78 00 00 00 00 00 00 00 00 00 00 
       00000D82 00 00 00 00 00 00 00 00 00 00 
       00000D8C 00 00 00 00 00 00 00 00 00 00 
       00000D96 00 00 00 00 00 00 00 00 00 00 
       00000DA0 00 00 00 00 00 00 00 00 00 00 
       00000DAA 00 00 00 00 00 00 00 00 00 00 
       00000DB4 00 00 00 00 00 00 00 00 00 00 
       00000DBE 00 00 00 00 00 00 00 00 00 00 
       00000DC8 00 00 00 00 00 00 00 00 00 00 
       00000DD2 00 00 00 00 00 00 00 00 00 00 
       00000DDC 00 00 00 00 00 00 00 00 00 00 
       00000DE6 00 00 00 00 00 00 00 00 00 00 
       00000DF0 00 00 00 00 00 00 00 00 00 00 
       00000DFA 00 00 00 00 00 00 00 00 00 00 
       00000E04 00 00 00 00 00 00 00 00 00 00 
       00000E0E 00 00 00 00 00 00 00 00 00 00 
       00000E18 00 00 00 00 00 00 00 00 00 00 
       00000E22 00 00 00 00 00 00 00 00 00 00 
       00000E2C 00 00 00 00 00 00 00 00 00 00 
       00000E36 00 00 00 00 00 00 00 00 00 00 
       00000E40 00 00 00 00 00 00 00 00 00 00 
       00000E4A 00 00 00 00 00 00 00 00 00 00 
       00000E54 00 00 00 00 00 00 00 00 00 00 
       00000E5E 00 00 00 00 00 00 00 00 00 00 
       00000E68 00 00 00 00 00 00 00 00 00 00 
       00000E72 00 00 00 00 00 00 00 00 00 00 
       00000E7C 00 00 00 00 00 00 00 00 00 00 
       00000E86 00 00 00 00 00 00 00 00 00 00 
       00000E90 00 00 00 00 00 00 00 00 00 00 
       00000E9A 00 00 00 00 00 00 00 00 00 00 
       00000EA4 00 00 00 00 00 00 00 00 00 00 
       00000EAE 00 00 00 00 00 00 00 00 00 00 
       00000EB8 00 00 00 00 00 00 00 00 00 00 
       00000EC2 00 00 00 00 00 00 00 00 00 00 
       00000ECC 00 00 00 00 00 00 00 00 00 00 
       00000ED6 00 00 00 00 00 00 00 00 00 00 
       00000EE0 00 00 00 00 00 00 00 00 00 00 
       00000EEA 00 00 00 00 00 00 00 00 00 00 
       00000EF4 00 00 00 00 00 00 00 00 00 00 
       00000EFE 00 00 00 00 00 00 00 00 00 00 
       00000F08 00 00 00 00 00 00 00 00 00 00 
       00000F12 00 00 00 00 00 00 00 00 00 00 
       00000F1C 00 00 00 00 00 00 00 00 00 00 
       00000F26 00 00 00 00 00 00 00 00 00 00 
       00000F30 00 00 00 00 00 00 00 00 00 00 
       00000F3A 00 00 00 00 00 00 00 00 00 00 
       00000F44 00 00 00 00 00 00 00 00 00 00 
       00000F4E 00 00 00 00 00 00 00 00 00 00 
       00000F58 00 00 00 00 00 00 00 00 00 00 
       00000F62 00 00 00 00 00 00 00 00 00 00 
       00000F6C 00 00 00 00 00 00 00 00 00 00 
       00000F76 00 00 00 00 00 00 00 00 00 00 
       00000F80 00 00 00 00 00 00 00 00 00 00 
       00000F8A 00 00 00 00 00 00 00 00 00 00 
       00000F94 00 00 00 00 00 00 00 00 00 00 
       00000F9E 00 00 00 00 00 00 00 00 00 00 
       00000FA8 00 00 00 00 00 00 00 00 00 00 
       00000FB2 00 00 00 00 00 00 00 00 00 00 
       00000FBC 00 00 00 00 00 00 00 00 00 00 
       00000FC6 00 00 00 00 00 00 00 00 00 00 
       00000FD0 00 00 00 00 00 00 00 00 00 00 
       00000FDA 00 00 00 00 00 00 00 00 00 00 
       00000FE4 00 00 00 00 00 00 00 00 00 00 
       00000FEE 00 00 00 00 00 00 00 00 00 00 
       00000FF8 00 00 00 00 00 00 00 00 00 00 
       00001002 00 00 00 00 00 00 00 00 00 00 
       0000100C 00 00 00 00 00 00 00 00 00 00 
       00001016 00 00 00 00 00 00 00 00 00 00 
       00001020 00 00 00 00 00 00 00 00 00 00 
       0000102A 00 00 00 00 00 00 00 00 00 00 
       00001034 00 00 00 00 00 00 00 00 00 00 
       0000103E 00 00 00 00 00 00 00 00 00 00 
       00001048 00 00 00 00 00 00 00 00 00 00 
       00001052 00 00 00 00 00 00 00 00 00 00 
       0000105C 00 00 00 00 00 00 00 00 00 00 
       00001066 00 00 00 00 00 00 00 00 00 00 
       00001070 00 00 00 00 00 00 00 00 00 00 
       0000107A 00 00 00 00 00 00 00 00 00 00 
       00001084 00 00 00 00 00 00 00 00 00 00 
       0000108E 00 00 00 00 00 00 00 00 00 00 
       00001098 00 00 00 00 00 00 00 00 00 00 
       000010A2 00 00 00 00 00 00 00 00 00 00 
       000010AC 00 00 00 00 00 00 00 00 00 00 
       000010B6 00 00 00 00 00 00 00 00 00 00 
       000010C0 00 00 00 00 00 00 00 00 00 00 
       000010CA 00 00 00 00 00 00 00 00 00 00 
       000010D4 00 00 00 00 00 00 00 00 00 00 
       000010DE 00 00 00 00 00 00 00 00 00 00 
       000010E8 00 00 00 00 00 00 00 00 00 00 
       000010F2 00 00 00 00 00 00 00 00 00 00 
       000010FC 00 00 00 00 00 00 00 00 00 00 
       00001106 00 00 00 00 00 00 00 00 00 00 
       00001110 00 00 00 00 00 00 00 00 00 00 
       0000111A 00 00 00 00 00 00 00 00 00 00 
       00001124 00 00 00 00 00 00 00 00 00 00 
       0000112E 00 00 00 00 00 00 00 00 00 00 
       00001138 00 00 00 00 00 00 00 00 00 00 
       00001142 00 00 00 00 00 00 00 00 00 00 
       0000114C 00 00 00 00 00 00 00 00 00 00 
       00001156 00 00 00 00 00 00 00 00 00 00 
       00001160 00 00 00 00 00 00 00 00 00 00 
       0000116A 00 00 00 00 00 00 00 00 00 00 
       00001174 00 00 00 00 00 00 00 00 00 00 
       0000117E 00 00 00 00 00 00 00 00 00 00 
       00001188 00 00 00 00 00 00 00 00 00 00 
       00001192 00 00 00 00 00 00 00 00 00 00 
       0000119C 00 00 00 00 00 00 00 00 00 00 
       000011A6 00 00 00 00 00 00 00 00 00 00 
       000011B0 00 00 00 00 00 00 00 00 00 00 
       000011BA 00 00 00 00 00 00 00 00 00 00 
       000011C4 00 00 00 00 00 00 00 00 00 00 
       000011CE 00 00 00 00 00 00 00 00 00 00 
       000011D8 00 00 00 00 00 00 00 00 00 00 
       000011E2 00 00 00 00 00 00 00 00 00 00 
       000011EC 00 00 00 00 00 00 00 00 00 00 
       000011F6 00 00 00 00 00 00 00 00 00 00 
       00001200 00 00 00 00 00 00 00 00 00 00 
       0000120A 00 00 00 00 00 00 00 00 00 00 
       00001214 00 00 00 00 00 00 00 00 00 00 
       0000121E 00 00 00 00 00 00 00 00 00 00 
       00001228 00 00 00 00 00 00 00 00 00 00 
       00001232 00 00 00 00 00 00 00 00 00 00 
       0000123C 00 00 00 00 00 00 00 00 00 00 
       00001246 00 00 00 00 00 00 00 00 00 00 
       00001250 00 00 00 00 00 00 00 00 00 00 
       0000125A 00 00 00 00 00 00 00 00 00 00 
       00001264 00 00 00 00 00 00 00 00 00 00 
       0000126E 00 00 00 00 00 00 00 00 00 00 
       00001278 00 00 00 00 00 00 00 00 00 00 
       00001282 00 00 00 00 00 00 00 00 00 00 
       0000128C 00 00 00 00 00 00 00 00 00 00 
       00001296 00 00 00 00 00 00 00 00 00 00 
       000012A0 00 00 00 00 00 00 00 00 00 00 
       000012AA 00 00 00 00 00 00 00 00 00 00 
       000012B4 00 00 00 00 00 00 00 00 00 00 
       000012BE 00 00 00 00 00 00 00 00 00 00 
       000012C8 00 00 00 00 00 00 00 00 00 00 
       000012D2 00 00 00 00 00 00 00 00 00 00 
       000012DC 00 00 00 00 00 00 00 00 00 00 
       000012E6 00 00 00 00 00 00 00 00 00 00 
       000012F0 00 00 00 00 00 00 00 00 00 00 
       000012FA 00 00 00 00 00 00 00 00 00 00 
       00001304 00 00 00 00 00 00 00 00 00 00 
       0000130E 00 00 00 00 00 00 00 00 00 00 
       00001318 00 00 00 00 00 00 00 00 00 00 
       00001322 00 00 00 00 00 00 00 00 00 00 
       0000132C 00 00 00 00 00 00 00 00 00 00 
       00001336 00 00 00 00 00 00 00 00 00 00 
       00001340 00 00 00 00 00 00 00 00 00 00 
       0000134A 00 00 00 00 00 00 00 00 00 00 
       00001354 00 00 00 00 00 00 00 00 00 00 
       0000135E 00 00 00 00 00 00 00 00 00 00 
       00001368 00 00 00 00 00 00 00 00 00 00 
       00001372 00 00 00 00 00 00 00 00 00 00 
       0000137C 00 00 00 00 00 00 00 00 00 00 
       00001386 00 00 00 00 00 00 00 00 00 00 
       00001390 00 00 00 00 00 00 00 00 00 00 
       0000139A 00 00 00 00 00 00 00 00 00 00 
       000013A4 00 00 00 00 00 00 00 00 00 00 
       000013AE 00 00 00 00 00 00 00 00 00 00 
       000013B8 00 00 00 00 00 00 00 00 00 00 
       000013C2 00 00 00 00 00 00 00 00 00 00 
       000013CC 00 00 00 00 00 00 00 00 00 00 
       000013D6 00 00 00 00 00 00 00 00 00 00 
       000013E0 00 00 00 00 00 00 00 00 00 00 
       000013EA 00 00 00 00 00 00 00 00 00 00 
       000013F4 00 00 00 00 00 00 00 00 00 00 
       000013FE 00 00 00 00 00 00 00 00 00 00 
       00001408 00 00 00 00 00 00 00 00 00 00 
       00001412 00 00 00 00 00 00 00 00 00 00 
       0000141C 00 00 00 00 00 00 00 00 00 00 
       00001426 00 00 00 00 00 00 00 00 00 00 
       00001430 00 00 00 00 00 00 00 00 00 00 
       0000143A 00 00 00 00 00 00 00 00 00 00 
       00001444 00 00 00 00 00 00 00 00 00 00 
       0000144E 00 00 00 00 00 00 00 00 00 00 
       00001458 00 00 00 00 00 00 00 00 00 00 
       00001462 00 00 00 00 00 00 00 00 00 00 
       0000146C 00 00 00 00 00 00 00 00 00 00 
       00001476 00 00 00 00 00 00 00 00 00 00 
       00001480 00 00 00 00 00 00 00 00 00 00 
       0000148A 00 00 00 00 00 00 00 00 00 00 
       00001494 00 00 00 00 00 00 00 00 00 00 
       0000149E 00 00 00 00 00 00 00 00 00 00 
       000014A8 00 00 00 00 00 00 00 00 00 00 
       000014B2 00 00 00 00 00 00 00 00 00 00 
       000014BC 00 00 00 00 00 00 00 00 00 00 
       000014C6 00 00 00 00 00 00 00 00 00 00 
       000014D0 00 00 00 00 00 00 00 00 00 00 
       000014DA 00 00 00 00 00 00 00 00 00 00 
       000014E4 00 00 00 00 00 00 00 00 00 00 
       000014EE 00 00 00 00 00 00 00 00 00 00 
       000014F8 00 00 00 00 00 00 00 00 00 00 
       00001502 00 00 00 00 00 00 00 00 00 00 
       0000150C 00 00 00 00 00 00 00 00 00 00 
       00001516 00 00 00 00 00 00 00 00 00 00 
       00001520 00 00 00 00 00 00 00 00 00 00 
       0000152A 00 00 00 00 00 00 00 00 00 00 
       00001534 00 00 00 00 00 00 00 00 00 00 
       0000153E 00 00 00 00 00 00 00 00 00 00 
       00001548 00 00 00 00 00 00 00 00 00 00 
       00001552 00 00 00 00 00 00 00 00 00 00 
       0000155C 00 00 00 00 00 00 00 00 00 00 
       00001566 00 00 00 00 00 00 00 00 00 00 
       00001570 00 00 00 00 00 00 00 00 00 00 
       0000157A 00 00 00 00 00 00 00 00 00 00 
       00001584 00 00 00 00 00 00 00 00 00 00 
       0000158E 00 00 00 00 00 00 00 00 00 00 
       00001598 00 00 00 00 00 00 00 00 00 00 
       000015A2 00 00 00 00 00 00 00 00 00 00 
       000015AC 00 00 00 00 00 00 00 00 00 00 
       000015B6 00 00 00 00 00 00 00 00 00 00 
       000015C0 00 00 00 00 00 00 00 00 00 00 
       000015CA 00 00 00 00 00 00 00 00 00 00 
       000015D4 00 00 00 00 00 00 00 00 00 00 
       000015DE 00 00 00 00 00 00 00 00 00 00 
       000015E8 00 00 00 00 00 00 00 00 00 00 
       000015F2 00 00 00 00 00 00 00 00 00 00 
       000015FC 00 00 00 00 00 00 00 00 00 00 
       00001606 00 00 00 00 00 00 00 00 00 00 
       00001610 00 00 00 00 00 00 00 00 00 00 
       0000161A 00 00 00 00 00 00 00 00 00 00 
       00001624 00 00 00 00 00 00 00 00 00 00 
       0000162E 00 00 00 00 00 00 00 00 00 00 
       00001638 00 00 00 00 00 00 00 00 00 00 
       00001642 00 00 00 00 00 00 00 00 00 00 
       0000164C 00 00 00 00 00 00 00 00 00 00 
       00001656 00 00 00 00 00 00 00 00 00 00 
       00001660 00 00 00 00 00 00 00 00 00 00 
       0000166A 00 00 00 00 00 00 00 00 00 00 
       00001674 00 00 00 00 00 00 00 00 00 00 
       0000167E 00 00 00 00 00 00 00 00 00 00 
       00001688 00 00 00 00 00 00 00 00 00 00 
       00001692 00 00 00 00 00 00 00 00 00 00 
       0000169C 00 00 00 00 00 00 00 00 00 00 
       000016A6 00 00 00 00 00 00 00 00 00 00 
       000016B0 00 00 00 00 00 00 00 00 00 00 
       000016BA 00 00 00 00 00 00 00 00 00 00 
       000016C4 00 00 00 00 00 00 00 00 00 00 
       000016CE 00 00 00 00 00 00 00 00 00 00 
       000016D8 00 00 00 00 00 00 00 00 00 00 
       000016E2 00 00 00 00 00 00 00 00 00 00 
       000016EC 00 00 00 00 00 00 00 00 00 00 
       000016F6 00 00 00 00 00 00 00 00 00 00 
       00001700 00 00 00 00 00 00 00 00 00 00 
       0000170A 00 00 00 00 00 00 00 00 00 00 
       00001714 00 00 00 00 00 00 00 00 00 00 
       0000171E 00 00 00 00 00 00 00 00 00 00 
       00001728 00 00 00 00 00 00 00 00 00 00 
       00001732 00 00 00 00 00 00 00 00 00 00 
       0000173C 00 00 00 00 00 00 00 00 00 00 
       00001746 00 00 00 00 00 00 00 00 00 00 
       00001750 00 00 00 00 00 00 00 00 00 00 
       0000175A 00 00 00 00 00 00 00 00 00 00 
       00001764 00 00 00 00 00 00 00 00 00 00 
       0000176E 00 00 00 00 00 00 00 00 00 00 
       00001778 00 00 00 00 00 00 00 00 00 00 
       00001782 00 00 00 00 00 00 00 00 00 00 
       0000178C 00 00 00 00 00 00 00 00 00 00 
       00001796 00 00 00 00 00 00 00 00 00 00 
       000017A0 00 00 00 00 00 00 00 00 00 00 
       000017AA 00 00 00 00 00 00 00 00 00 00 
       000017B4 00 00 00 00 00 00 00 00 00 00 
       000017BE 00 00 00 00 00 00 00 00 00 00 
       000017C8 00 00 00 00 00 00 00 00 00 00 
       000017D2 00 00 00 00 00 00 00 00 00 00 
       000017DC 00 00 00 00 00 00 00 00 00 00 
       000017E6 00 00 00 00 00 00 00 00 00 00 
       000017F0 00 00 00 00 00 00 00 00 00 00 
       000017FA 00 00 00 00 00 00 00 00 00 00 
       00001804 00 00 00 00 00 00 00 00 00 00 
       0000180E 00 00 00 00 00 00 00 00 00 00 
       00001818 00 00 00 00 00 00 00 00 00 00 
       00001822 00 00 00 00 00 00 00 00 00 00 
       0000182C 00 00 00 00 00 00 00 00 00 00 
       00001836 00 00 00 00 00 00 00 00 00 00 
       00001840 00 00 00 00 00 00 00 00 00 00 
       0000184A 00 00 00 00 00 00 00 00 00 00 
       00001854 00 00 00 00 00 00 00 00 00 00 
       0000185E 00 00 00 00 00 00 00 00 00 00 
       00001868 00 00 00 00 00 00 00 00 00 00 
       00001872 00 00 00 00 00 00 00 00 00 00 
       0000187C 00 00 00 00 00 00 00 00 00 00 
       00001886 00 00 00 00 00 00 00 00 00 00 
       00001890 00 00 00 00 00 00 00 00 00 00 
       0000189A 00 00 00 00 00 00 00 00 00 00 
       000018A4 00 00 00 00 00 00 00 00 00 00 
       000018AE 00 00 00 00 00 00 00 00 00 00 
       000018B8 00 00 00 00 00 00 00 00 00 00 
       000018C2 00 00 00 00 00 00 00 00 00 00 
       000018CC 00 00 00 00 00 00 00 00 00 00 
       000018D6 00 00 00 00 00 00 00 00 00 00 
       000018E0 00 00 00 00 00 00 00 00 00 00 
       000018EA 00 00 00 00 00 00 00 00 00 00 
       000018F4 00 00 00 00 00 00 00 00 00 00 
       000018FE 00 00 00 00 00 00 00 00 00 00 
       00001908 00 00 00 00 00 00 00 00 00 00 
       00001912 00 00 00 00 00 00 00 00 00 00 
       0000191C 00 00 00 00 00 00 00 00 00 00 
       00001926 00 00 00 00 00 00 00 00 00 00 
       00001930 00 00 00 00 00 00 00 00 00 00 
       0000193A 00 00 00 00 00 00 00 00 00 00 
       00001944 00 00 00 00 00 00 00 00 00 00 
       0000194E 00 00 00 00 00 00 00 00 00 00 
       00001958 00 00 00 00 00 00 00 00 00 00 
       00001962 00 00 00 00 00 00 00 00 00 00 
       0000196C 00 00 00 00 00 00 00 00 00 00 
       00001976 00 00 00 00 00 00 00 00 00 00 
       00001980 00 00 00 00 00 00 00 00 00 00 
       0000198A 00 00 00 00 00 00 00 00 00 00 
       00001994 00 00 00 00 00 00 00 00 00 00 
       0000199E 00 00 00 00 00 00 00 00 00 00 
       000019A8 00 00 00 00 00 00 00 00 00 00 
       000019B2 00 00 00 00 00 00 00 00 00 00 
       000019BC 00 00 00 00 00 00 00 00 00 00 
       000019C6 00 00 00 00 00 00 00 00 00 00 
       000019D0 00 00 00 00 00 00 00 00 00 00 
       000019DA 00 00 00 00 00 00 00 00 00 00 
       000019E4 00 00 00 00 00 00 00 00 00 00 
       000019EE 00 00 00 00 00 00 00 00 00 00 
       000019F8 00 00 00 00 00 00 00 00 00 00 
       00001A02 00 00 00 00 00 00 00 00 00 00 
       00001A0C 00 00 00 00 00 00 00 00 00 00 
       00001A16 00 00 00 00 00 00 00 00 00 00 
       00001A20 00 00 00 00 00 00 00 00 00 00 
       00001A2A 00 00 00 00 00 00 00 00 00 00 
       00001A34 00 00 00 00 00 00 00 00 00 00 
       00001A3E 00 00 00 00 00 00 00 00 00 00 
       00001A48 00 00 00 00 00 00 00 00 00 00 
       00001A52 00 00 00 00 00 00 00 00 00 00 
       00001A5C 00 00 00 00 00 00 00 00 00 00 
       00001A66 00 00 00 00 00 00 00 00 00 00 
       00001A70 00 00 00 00 00 00 00 00 00 00 
       00001A7A 00 00 00 00 00 00 00 00 00 00 
       00001A84 00 00 00 00 00 00 00 00 00 00 
       00001A8E 00 00 00 00 00 00 00 00 00 00 
       00001A98 00 00 00 00 00 00 00 00 00 00 
       00001AA2 00 00 00 00 00 00 00 00 00 00 
       00001AAC 00 00 00 00 00 00 00 00 00 00 
       00001AB6 00 00 00 00 00 00 00 00 00 00 
       00001AC0 00 00 00 00 00 00 00 00 00 00 
       00001ACA 00 00 00 00 00 00 00 00 00 00 
       00001AD4 00 00 00 00 00 00 00 00 00 00 
       00001ADE 00 00 00 00 00 00 00 00 00 00 
       00001AE8 00 00 00 00 00 00 00 00 00 00 
       00001AF2 00 00 00 00 00 00 00 00 00 00 
       00001AFC 00 00 00 00 00 00 00 00 00 00 
       00001B06 00 00 00 00 00 00 00 00 00 00 
       00001B10 00 00 00 00 00 00 00 00 00 00 
       00001B1A 00 00 00 00 00 00 00 00 00 00 
       00001B24 00 00 00 00 00 00 00 00 00 00 
       00001B2E 00 00 00 00 00 00 00 00 00 00 
       00001B38 00 00 00 00 00 00 00 00 00 00 
       00001B42 00 00 00 00 00 00 00 00 00 00 
       00001B4C 00 00 00 00 00 00 00 00 00 00 
       00001B56 00 00 00 00 00 00 00 00 00 00 
       00001B60 00 00 00 00 00 00 00 00 00 00 
       00001B6A 00 00 00 00 00 00 00 00 00 00 
       00001B74 00 00 00 00 00 00 00 00 00 00 
       00001B7E 00 00 00 00 00 00 00 00 00 00 
       00001B88 00 00 00 00 00 00 00 00 00 00 
       00001B92 00 00 00 00 00 00 00 00 00 00 
       00001B9C 00 00 00 00 00 00 00 00 00 00 
       00001BA6 00 00 00 00 00 00 00 00 00 00 
       00001BB0 00 00 00 00 00 00 00 00 00 00 
       00001BBA 00 00 00 00 00 00 00 00 00 00 
       00001BC4 00 00 00 00 00 00 00 00 00 00 
       00001BCE 00 00 00 00 00 00 00 00 00 00 
       00001BD8 00 00 00 00 00 00 00 00 00 00 
       00001BE2 00 00 00 00 00 00 00 00 00 00 
       00001BEC 00 00 00 00 00 00 00 00 00 00 
       00001BF6 00 00 00 00 00 00 00 00 00 00 
       00001C00 00 00 00 00 00 00 00 00 00 00 
       00001C0A 00 00 00 00 00 00 00 00 00 00 
       00001C14 00 00 00 00 00 00 00 00 00 00 
       00001C1E 00 00 00 00 00 00 00 00 00 00 
       00001C28 00 00 00 00 00 00 00 00 00 00 
       00001C32 00 00 00 00 00 00 00 00 00 00 
       00001C3C 00 00 00 00 00 00 00 00 00 00 
       00001C46 00 00 00 00 00 00 00 00 00 00 
  5525                                          [SECTION .data]
  5526 00001C50                                 LC151:
  5527 00001C50 69 6E 70 75 74 20 34 20 73 74   	DB	"input 4 stamp values:",0x00
       00001C5A 61 6D 70 20 76 61 6C 75 65 73 
       00001C64 3A 00 
  5528 00001C66                                 LC152:
  5529 00001C66 54 68 65 20 6D 61 78 20 69 73   	DB	"The max is %d",0x0A,0x00
       00001C70 20 25 64 0A 00 
  5530                                          [SECTION .text]
  5531 00003715                                 	GLOBAL	_cmd_stamp
  5532 00003715                                 _cmd_stamp:
  5533 00003715 55                              	PUSH	EBP
  5534 00003716 89 E5                           	MOV	EBP,ESP
  5535 00003718 57                              	PUSH	EDI
  5536 00003719 56                              	PUSH	ESI
  5537 0000371A 53                              	PUSH	EBX
  5538 0000371B 8D 7D D4                        	LEA	EDI,DWORD [-44+EBP]
  5539 0000371E 81 EC 000000AC                  	SUB	ESP,172
  5540 00003724 E8 [00000000]                   	CALL	_task_now
  5541 00003729 68 [00001C50]                   	PUSH	LC151
  5542 0000372E 89 C3                           	MOV	EBX,EAX
  5543 00003730 FF 75 08                        	PUSH	DWORD [8+EBP]
  5544 00003733 E8 FFFFD2F0                     	CALL	_cons_putstr0
  5545 00003738 FF 75 08                        	PUSH	DWORD [8+EBP]
  5546 0000373B E8 FFFFD195                     	CALL	_cons_newline
  5547 00003740 FF 75 0C                        	PUSH	DWORD [12+EBP]
  5548 00003743 FF 75 08                        	PUSH	DWORD [8+EBP]
  5549 00003746 E8 FFFFFFB4                     	CALL	_cmd_clearline
  5550 0000374B FF B3 000000B8                  	PUSH	DWORD [184+EBX]
  5551 00003751 FF 75 08                        	PUSH	DWORD [8+EBP]
  5552 00003754 31 DB                           	XOR	EBX,EBX
  5553 00003756 E8 FFFFFFA4                     	CALL	_cmd_clearline
  5554 0000375B FC                              	CLD
  5555 0000375C B8 00000007                     	MOV	EAX,7
  5556 00003761 8B 75 08                        	MOV	ESI,DWORD [8+EBP]
  5557 00003764 89 C1                           	MOV	ECX,EAX
  5558 00003766 F3                              	REP
  5559 00003767 A5                              	MOVSD
  5560 00003768 FF 75 0C                        	PUSH	DWORD [12+EBP]
  5561 0000376B 83 EC 1C                        	SUB	ESP,28
  5562 0000376E 89 C1                           	MOV	ECX,EAX
  5563 00003770 89 E7                           	MOV	EDI,ESP
  5564 00003772 8D 75 D4                        	LEA	ESI,DWORD [-44+EBP]
  5565 00003775 F3                              	REP
  5566 00003776 A5                              	MOVSD
  5567 00003777 31 F6                           	XOR	ESI,ESI
  5568 00003779 E8 00000206                     	CALL	_get_1_line
  5569 0000377E 89 C1                           	MOV	ECX,EAX
  5570 00003780 83 C4 3C                        	ADD	ESP,60
  5571 00003783 80 38 20                        	CMP	BYTE [EAX],32
  5572 00003786 7F 06                           	JG	L970
  5573 00003788                                 L930:
  5574 00003788 41                              	INC	ECX
  5575 00003789 80 39 20                        	CMP	BYTE [ECX],32
  5576 0000378C 7E FA                           	JLE	L930
  5577 0000378E                                 L970:
  5578 0000378E 80 39 00                        	CMP	BYTE [ECX],0
  5579 00003791 74 45                           	JE	L972
  5580 00003793                                 L941:
  5581 00003793 8A 14 0B                        	MOV	DL,BYTE [EBX+ECX*1]
  5582 00003796 8D 42 D0                        	LEA	EAX,DWORD [-48+EDX]
  5583 00003799 3C 09                           	CMP	AL,9
  5584 0000379B 0F 87 000001DD                  	JA	L935
  5585 000037A1 0F BE C2                        	MOVSX	EAX,DL
  5586 000037A4 83 E8 30                        	SUB	EAX,48
  5587 000037A7 43                              	INC	EBX
  5588 000037A8 89 44 B5 A4                     	MOV	DWORD [-92+EBP+ESI*4],EAX
  5589 000037AC 8A 14 0B                        	MOV	DL,BYTE [EBX+ECX*1]
  5590 000037AF 8D 42 D0                        	LEA	EAX,DWORD [-48+EDX]
  5591 000037B2 3C 09                           	CMP	AL,9
  5592 000037B4 77 1B                           	JA	L974
  5593 000037B6                                 L939:
  5594 000037B6 6B 44 B5 A4 0A                  	IMUL	EAX,DWORD [-92+EBP+ESI*4],10
  5595 000037BB 0F BE D2                        	MOVSX	EDX,DL
  5596 000037BE 43                              	INC	EBX
  5597 000037BF 8D 44 02 D0                     	LEA	EAX,DWORD [-48+EDX+EAX*1]
  5598 000037C3 89 44 B5 A4                     	MOV	DWORD [-92+EBP+ESI*4],EAX
  5599 000037C7 8A 14 0B                        	MOV	DL,BYTE [EBX+ECX*1]
  5600 000037CA 8D 42 D0                        	LEA	EAX,DWORD [-48+EDX]
  5601 000037CD 3C 09                           	CMP	AL,9
  5602 000037CF 76 E5                           	JBE	L939
  5603 000037D1                                 L974:
  5604 000037D1 46                              	INC	ESI
  5605 000037D2                                 L931:
  5606 000037D2 80 3C 0B 00                     	CMP	BYTE [EBX+ECX*1],0
  5607 000037D6 75 BB                           	JNE	L941
  5608 000037D8                                 L972:
  5609 000037D8 8B 45 AC                        	MOV	EAX,DWORD [-84+EBP]
  5610 000037DB 8B 55 B0                        	MOV	EDX,DWORD [-80+EBP]
  5611 000037DE 8B 4D A4                        	MOV	ECX,DWORD [-92+EBP]
  5612 000037E1 8B 75 A8                        	MOV	ESI,DWORD [-88+EBP]
  5613 000037E4 31 DB                           	XOR	EBX,EBX
  5614 000037E6 89 85 FFFFFF58                  	MOV	DWORD [-168+EBP],EAX
  5615 000037EC 89 95 FFFFFF54                  	MOV	DWORD [-172+EBP],EDX
  5616 000037F2 89 8D FFFFFF50                  	MOV	DWORD [-176+EBP],ECX
  5617 000037F8 89 B5 FFFFFF4C                  	MOV	DWORD [-180+EBP],ESI
  5618 000037FE                                 L962:
  5619 000037FE C7 45 98 00000000               	MOV	DWORD [-104+EBP],0
  5620 00003805 83 FB 05                        	CMP	EBX,5
  5621 00003808 0F 8F 00000121                  	JG	L978
  5622 0000380E 8B 85 FFFFFF58                  	MOV	EAX,DWORD [-168+EBP]
  5623 00003814 8B 95 FFFFFF54                  	MOV	EDX,DWORD [-172+EBP]
  5624 0000381A 8B 8D FFFFFF50                  	MOV	ECX,DWORD [-176+EBP]
  5625 00003820 8B B5 FFFFFF4C                  	MOV	ESI,DWORD [-180+EBP]
  5626 00003826 89 85 FFFFFF68                  	MOV	DWORD [-152+EBP],EAX
  5627 0000382C 89 95 FFFFFF64                  	MOV	DWORD [-156+EBP],EDX
  5628 00003832 89 8D FFFFFF60                  	MOV	DWORD [-160+EBP],ECX
  5629 00003838 89 B5 FFFFFF5C                  	MOV	DWORD [-164+EBP],ESI
  5630 0000383E                                 L961:
  5631 0000383E 8B 55 98                        	MOV	EDX,DWORD [-104+EBP]
  5632 00003841 C7 45 94 00000000               	MOV	DWORD [-108+EBP],0
  5633 00003848 8D 04 1A                        	LEA	EAX,DWORD [EDX+EBX*1]
  5634 0000384B 83 F8 05                        	CMP	EAX,5
  5635 0000384E 0F 8F 000000C9                  	JG	L980
  5636 00003854 8B 8D FFFFFF68                  	MOV	ECX,DWORD [-152+EBP]
  5637 0000385A 8B B5 FFFFFF64                  	MOV	ESI,DWORD [-156+EBP]
  5638 00003860 89 8D FFFFFF7C                  	MOV	DWORD [-132+EBP],ECX
  5639 00003866 8B 95 FFFFFF60                  	MOV	EDX,DWORD [-160+EBP]
  5640 0000386C 8B 8D FFFFFF5C                  	MOV	ECX,DWORD [-164+EBP]
  5641 00003872 89 B5 FFFFFF78                  	MOV	DWORD [-136+EBP],ESI
  5642 00003878 89 95 FFFFFF74                  	MOV	DWORD [-140+EBP],EDX
  5643 0000387E 89 8D FFFFFF70                  	MOV	DWORD [-144+EBP],ECX
  5644 00003884 89 C6                           	MOV	ESI,EAX
  5645 00003886 89 85 FFFFFF6C                  	MOV	DWORD [-148+EBP],EAX
  5646 0000388C 89 C7                           	MOV	EDI,EAX
  5647 0000388E                                 L960:
  5648 0000388E C7 45 90 00000000               	MOV	DWORD [-112+EBP],0
  5649 00003895 83 FF 05                        	CMP	EDI,5
  5650 00003898 7F 6F                           	JG	L982
  5651 0000389A 8B 85 FFFFFF7C                  	MOV	EAX,DWORD [-132+EBP]
  5652 000038A0 8B 95 FFFFFF78                  	MOV	EDX,DWORD [-136+EBP]
  5653 000038A6 89 45 8C                        	MOV	DWORD [-116+EBP],EAX
  5654 000038A9 8B 8D FFFFFF74                  	MOV	ECX,DWORD [-140+EBP]
  5655 000038AF 8B 85 FFFFFF70                  	MOV	EAX,DWORD [-144+EBP]
  5656 000038B5 89 55 88                        	MOV	DWORD [-120+EBP],EDX
  5657 000038B8 89 4D 84                        	MOV	DWORD [-124+EBP],ECX
  5658 000038BB 89 45 80                        	MOV	DWORD [-128+EBP],EAX
  5659 000038BE C7 85 FFFFFF48 00000000         	MOV	DWORD [-184+EBP],0
  5660 000038C8                                 L959:
  5661 000038C8 8B 45 8C                        	MOV	EAX,DWORD [-116+EBP]
  5662 000038CB 8B 55 84                        	MOV	EDX,DWORD [-124+EBP]
  5663 000038CE 0F AF 45 94                     	IMUL	EAX,DWORD [-108+EBP]
  5664 000038D2 8B 4D 80                        	MOV	ECX,DWORD [-128+EBP]
  5665 000038D5 03 85 FFFFFF48                  	ADD	EAX,DWORD [-184+EBP]
  5666 000038DB 0F AF D3                        	IMUL	EDX,EBX
  5667 000038DE 0F AF 4D 98                     	IMUL	ECX,DWORD [-104+EBP]
  5668 000038E2 01 CA                           	ADD	EDX,ECX
  5669 000038E4 01 D0                           	ADD	EAX,EDX
  5670 000038E6 74 07                           	JE	L956
  5671 000038E8 FF 04 85 [00000CB0]             	INC	DWORD [_s.0+EAX*4]
  5672 000038EF                                 L956:
  5673 000038EF 8B 85 FFFFFF6C                  	MOV	EAX,DWORD [-148+EBP]
  5674 000038F5 FF 45 90                        	INC	DWORD [-112+EBP]
  5675 000038F8 03 45 90                        	ADD	EAX,DWORD [-112+EBP]
  5676 000038FB 8B 55 88                        	MOV	EDX,DWORD [-120+EBP]
  5677 000038FE 01 95 FFFFFF48                  	ADD	DWORD [-184+EBP],EDX
  5678 00003904 83 F8 05                        	CMP	EAX,5
  5679 00003907 7E BF                           	JLE	L959
  5680 00003909                                 L982:
  5681 00003909 46                              	INC	ESI
  5682 0000390A FF 85 FFFFFF6C                  	INC	DWORD [-148+EBP]
  5683 00003910 47                              	INC	EDI
  5684 00003911 FF 45 94                        	INC	DWORD [-108+EBP]
  5685 00003914 83 FE 05                        	CMP	ESI,5
  5686 00003917 0F 8E FFFFFF71                  	JLE	L960
  5687 0000391D                                 L980:
  5688 0000391D FF 45 98                        	INC	DWORD [-104+EBP]
  5689 00003920 8B 4D 98                        	MOV	ECX,DWORD [-104+EBP]
  5690 00003923 8D 04 19                        	LEA	EAX,DWORD [ECX+EBX*1]
  5691 00003926 83 F8 05                        	CMP	EAX,5
  5692 00003929 0F 8E FFFFFF0F                  	JLE	L961
  5693 0000392F                                 L978:
  5694 0000392F 43                              	INC	EBX
  5695 00003930 83 FB 05                        	CMP	EBX,5
  5696 00003933 0F 8E FFFFFEC5                  	JLE	L962
  5697 00003939 BB 00000001                     	MOV	EBX,1
  5698 0000393E                                 L968:
  5699 0000393E 83 3C 9D [00000CB0] 00          	CMP	DWORD [_s.0+EBX*4],0
  5700 00003946 74 09                           	JE	L964
  5701 00003948 43                              	INC	EBX
  5702 00003949 81 FB 000003E8                  	CMP	EBX,1000
  5703 0000394F 7E ED                           	JLE	L968
  5704 00003951                                 L964:
  5705 00003951 8B 75 08                        	MOV	ESI,DWORD [8+EBP]
  5706 00003954 4B                              	DEC	EBX
  5707 00003955 83 46 08 10                     	ADD	DWORD [8+ESI],16
  5708 00003959 C7 46 04 00000008               	MOV	DWORD [4+ESI],8
  5709 00003960 53                              	PUSH	EBX
  5710 00003961 8D 5D B4                        	LEA	EBX,DWORD [-76+EBP]
  5711 00003964 68 [00001C66]                   	PUSH	LC152
  5712 00003969 53                              	PUSH	EBX
  5713 0000396A E8 [00000000]                   	CALL	_sprintf
  5714 0000396F 53                              	PUSH	EBX
  5715 00003970 56                              	PUSH	ESI
  5716 00003971 E8 FFFFD0B2                     	CALL	_cons_putstr0
  5717 00003976 8D 65 F4                        	LEA	ESP,DWORD [-12+EBP]
  5718 00003979 5B                              	POP	EBX
  5719 0000397A 5E                              	POP	ESI
  5720 0000397B 5F                              	POP	EDI
  5721 0000397C 5D                              	POP	EBP
  5722 0000397D C3                              	RET
  5723 0000397E                                 L935:
  5724 0000397E 43                              	INC	EBX
  5725 0000397F E9 FFFFFE4E                     	JMP	L931
  5726 00003984                                 	GLOBAL	_get_1_line
  5727 00003984                                 _get_1_line:
  5728 00003984 55                              	PUSH	EBP
  5729 00003985 89 E5                           	MOV	EBP,ESP
  5730 00003987 57                              	PUSH	EDI
  5731 00003988 56                              	PUSH	ESI
  5732 00003989 53                              	PUSH	EBX
  5733 0000398A 51                              	PUSH	ECX
  5734 0000398B 51                              	PUSH	ECX
  5735 0000398C E8 [00000000]                   	CALL	_task_now
  5736 00003991 89 C7                           	MOV	EDI,EAX
  5737 00003993 8D 45 08                        	LEA	EAX,DWORD [8+EBP]
  5738 00003996 50                              	PUSH	EAX
  5739 00003997 E8 FFFFD0ED                     	CALL	_cons_putdir
  5740 0000399C 6A 01                           	PUSH	1
  5741 0000399E 6A 3E                           	PUSH	62
  5742 000039A0 89 45 F0                        	MOV	DWORD [-16+EBP],EAX
  5743 000039A3 8D 45 08                        	LEA	EAX,DWORD [8+EBP]
  5744 000039A6 50                              	PUSH	EAX
  5745 000039A7 E8 FFFFCE6E                     	CALL	_cons_putchar
  5746 000039AC 83 C4 10                        	ADD	ESP,16
  5747 000039AF                                 L985:
  5748 000039AF 8D 5F 10                        	LEA	EBX,DWORD [16+EDI]
  5749 000039B2 E8 [00000000]                   	CALL	_io_cli
  5750 000039B7 53                              	PUSH	EBX
  5751 000039B8 E8 [00000000]                   	CALL	_fifo32_status
  5752 000039BD 5A                              	POP	EDX
  5753 000039BE 85 C0                           	TEST	EAX,EAX
  5754 000039C0 0F 84 00000213                  	JE	L1010
  5755 000039C6 53                              	PUSH	EBX
  5756 000039C7 E8 [00000000]                   	CALL	_fifo32_get
  5757 000039CC 89 C6                           	MOV	ESI,EAX
  5758 000039CE E8 [00000000]                   	CALL	_io_sti
  5759 000039D3 58                              	POP	EAX
  5760 000039D4 83 FE 01                        	CMP	ESI,1
  5761 000039D7 0F 8E 000001A5                  	JLE	L1011
  5762 000039DD                                 L990:
  5763 000039DD 83 FE 02                        	CMP	ESI,2
  5764 000039E0 0F 84 00000190                  	JE	L1012
  5765 000039E6                                 L995:
  5766 000039E6 83 FE 03                        	CMP	ESI,3
  5767 000039E9 0F 84 00000153                  	JE	L1013
  5768 000039EF                                 L996:
  5769 000039EF 83 FE 04                        	CMP	ESI,4
  5770 000039F2 0F 84 00000134                  	JE	L1014
  5771 000039F8                                 L998:
  5772 000039F8 8D 86 FFFFFF00                  	LEA	EAX,DWORD [-256+ESI]
  5773 000039FE 89 45 EC                        	MOV	DWORD [-20+EBP],EAX
  5774 00003A01 3D 000000FF                     	CMP	EAX,255
  5775 00003A06 77 23                           	JA	L999
  5776 00003A08 81 FE 00000108                  	CMP	ESI,264
  5777 00003A0E 0F 84 000000EF                  	JE	L1015
  5778 00003A14 81 FE 0000010A                  	CMP	ESI,266
  5779 00003A1A 0F 84 0000008E                  	JE	L1016
  5780 00003A20 8B 4D 0C                        	MOV	ECX,DWORD [12+EBP]
  5781 00003A23 81 F9 0000010F                  	CMP	ECX,271
  5782 00003A29 7E 53                           	JLE	L1017
  5783 00003A2B                                 L999:
  5784 00003A2B 8B 5D 08                        	MOV	EBX,DWORD [8+EBP]
  5785 00003A2E 85 DB                           	TEST	EBX,EBX
  5786 00003A30 0F 84 FFFFFF79                  	JE	L985
  5787 00003A36 83 7D 14 00                     	CMP	DWORD [20+EBP],0
  5788 00003A3A 78 22                           	JS	L1008
  5789 00003A3C 8B 4D 10                        	MOV	ECX,DWORD [16+EBP]
  5790 00003A3F 8B 55 0C                        	MOV	EDX,DWORD [12+EBP]
  5791 00003A42 8D 41 0F                        	LEA	EAX,DWORD [15+ECX]
  5792 00003A45 50                              	PUSH	EAX
  5793 00003A46 8D 42 07                        	LEA	EAX,DWORD [7+EDX]
  5794 00003A49 50                              	PUSH	EAX
  5795 00003A4A 51                              	PUSH	ECX
  5796 00003A4B 52                              	PUSH	EDX
  5797 00003A4C 0F B6 45 14                     	MOVZX	EAX,BYTE [20+EBP]
  5798 00003A50 50                              	PUSH	EAX
  5799 00003A51 FF 73 04                        	PUSH	DWORD [4+EBX]
  5800 00003A54 FF 33                           	PUSH	DWORD [EBX]
  5801 00003A56 E8 [00000000]                   	CALL	_boxfill8
  5802 00003A5B 83 C4 1C                        	ADD	ESP,28
  5803 00003A5E                                 L1008:
  5804 00003A5E 8B 4D 10                        	MOV	ECX,DWORD [16+EBP]
  5805 00003A61 8B 55 0C                        	MOV	EDX,DWORD [12+EBP]
  5806 00003A64 8D 41 10                        	LEA	EAX,DWORD [16+ECX]
  5807 00003A67 50                              	PUSH	EAX
  5808 00003A68 8D 42 08                        	LEA	EAX,DWORD [8+EDX]
  5809 00003A6B 50                              	PUSH	EAX
  5810 00003A6C 51                              	PUSH	ECX
  5811 00003A6D 52                              	PUSH	EDX
  5812 00003A6E FF 75 08                        	PUSH	DWORD [8+EBP]
  5813 00003A71 E8 [00000000]                   	CALL	_sheet_refresh
  5814 00003A76 83 C4 14                        	ADD	ESP,20
  5815 00003A79 E9 FFFFFF31                     	JMP	L985
  5816 00003A7E                                 L1017:
  5817 00003A7E 89 C8                           	MOV	EAX,ECX
  5818 00003A80 BA 00000008                     	MOV	EDX,8
  5819 00003A85 89 D3                           	MOV	EBX,EDX
  5820 00003A87 99                              	CDQ
  5821 00003A88 F7 FB                           	IDIV	EBX
  5822 00003A8A 89 C1                           	MOV	ECX,EAX
  5823 00003A8C 8B 55 24                        	MOV	EDX,DWORD [36+EBP]
  5824 00003A8F 2B 4D F0                        	SUB	ECX,DWORD [-16+EBP]
  5825 00003A92 89 F0                           	MOV	EAX,ESI
  5826 00003A94 88 44 11 FE                     	MOV	BYTE [-2+ECX+EDX*1],AL
  5827 00003A98 8D 45 08                        	LEA	EAX,DWORD [8+EBP]
  5828 00003A9B 6A 01                           	PUSH	1
  5829 00003A9D FF 75 EC                        	PUSH	DWORD [-20+EBP]
  5830 00003AA0 50                              	PUSH	EAX
  5831 00003AA1 E8 FFFFCD74                     	CALL	_cons_putchar
  5832 00003AA6                                 L1009:
  5833 00003AA6 83 C4 0C                        	ADD	ESP,12
  5834 00003AA9 E9 FFFFFF7D                     	JMP	L999
  5835 00003AAE                                 L1016:
  5836 00003AAE 6A 00                           	PUSH	0
  5837 00003AB0 8D 45 08                        	LEA	EAX,DWORD [8+EBP]
  5838 00003AB3 6A 20                           	PUSH	32
  5839 00003AB5 50                              	PUSH	EAX
  5840 00003AB6 E8 FFFFCD5F                     	CALL	_cons_putchar
  5841 00003ABB 8B 5D 24                        	MOV	EBX,DWORD [36+EBP]
  5842 00003ABE 8B 45 0C                        	MOV	EAX,DWORD [12+EBP]
  5843 00003AC1 BA 00000008                     	MOV	EDX,8
  5844 00003AC6 89 D1                           	MOV	ECX,EDX
  5845 00003AC8 99                              	CDQ
  5846 00003AC9 F7 F9                           	IDIV	ECX
  5847 00003ACB 2B 45 F0                        	SUB	EAX,DWORD [-16+EBP]
  5848 00003ACE C6 44 18 FE 00                  	MOV	BYTE [-2+EAX+EBX*1],0
  5849 00003AD3 8D 45 08                        	LEA	EAX,DWORD [8+EBP]
  5850 00003AD6 50                              	PUSH	EAX
  5851 00003AD7 E8 FFFFCDF9                     	CALL	_cons_newline
  5852 00003ADC 83 C4 10                        	ADD	ESP,16
  5853 00003ADF 83 7D 08 00                     	CMP	DWORD [8+EBP],0
  5854 00003AE3 74 0B                           	JE	L1018
  5855 00003AE5                                 L1004:
  5856 00003AE5 8B 45 24                        	MOV	EAX,DWORD [36+EBP]
  5857 00003AE8 8D 65 F4                        	LEA	ESP,DWORD [-12+EBP]
  5858 00003AEB 5B                              	POP	EBX
  5859 00003AEC 5E                              	POP	ESI
  5860 00003AED 5F                              	POP	EDI
  5861 00003AEE 5D                              	POP	EBP
  5862 00003AEF C3                              	RET
  5863 00003AF0                                 L1018:
  5864 00003AF0 FF B7 000000B4                  	PUSH	DWORD [180+EDI]
  5865 00003AF6 8D 45 08                        	LEA	EAX,DWORD [8+EBP]
  5866 00003AF9 50                              	PUSH	EAX
  5867 00003AFA E8 FFFFEDC9                     	CALL	_cmd_exit
  5868 00003AFF 59                              	POP	ECX
  5869 00003B00 5B                              	POP	EBX
  5870 00003B01 EB E2                           	JMP	L1004
  5871 00003B03                                 L1015:
  5872 00003B03 8B 55 F0                        	MOV	EDX,DWORD [-16+EBP]
  5873 00003B06 8D 04 D5 00000010               	LEA	EAX,DWORD [16+EDX*8]
  5874 00003B0D 39 45 0C                        	CMP	DWORD [12+EBP],EAX
  5875 00003B10 0F 8E FFFFFF15                  	JLE	L999
  5876 00003B16 6A 00                           	PUSH	0
  5877 00003B18 8D 45 08                        	LEA	EAX,DWORD [8+EBP]
  5878 00003B1B 6A 20                           	PUSH	32
  5879 00003B1D 50                              	PUSH	EAX
  5880 00003B1E E8 FFFFCCF7                     	CALL	_cons_putchar
  5881 00003B23 83 6D 0C 08                     	SUB	DWORD [12+EBP],8
  5882 00003B27 E9 FFFFFF7A                     	JMP	L1009
  5883 00003B2C                                 L1014:
  5884 00003B2C FF B7 000000B4                  	PUSH	DWORD [180+EDI]
  5885 00003B32 8D 45 08                        	LEA	EAX,DWORD [8+EBP]
  5886 00003B35 50                              	PUSH	EAX
  5887 00003B36 E8 FFFFED8D                     	CALL	_cmd_exit
  5888 00003B3B 58                              	POP	EAX
  5889 00003B3C 5A                              	POP	EDX
  5890 00003B3D E9 FFFFFEB6                     	JMP	L998
  5891 00003B42                                 L1013:
  5892 00003B42 8B 5D 08                        	MOV	EBX,DWORD [8+EBP]
  5893 00003B45 85 DB                           	TEST	EBX,EBX
  5894 00003B47 75 0C                           	JNE	L1019
  5895 00003B49                                 L997:
  5896 00003B49 C7 45 14 FFFFFFFF               	MOV	DWORD [20+EBP],-1
  5897 00003B50 E9 FFFFFE9A                     	JMP	L996
  5898 00003B55                                 L1019:
  5899 00003B55 8B 4D 10                        	MOV	ECX,DWORD [16+EBP]
  5900 00003B58 8B 55 0C                        	MOV	EDX,DWORD [12+EBP]
  5901 00003B5B 8D 41 0F                        	LEA	EAX,DWORD [15+ECX]
  5902 00003B5E 50                              	PUSH	EAX
  5903 00003B5F 8D 42 07                        	LEA	EAX,DWORD [7+EDX]
  5904 00003B62 50                              	PUSH	EAX
  5905 00003B63 51                              	PUSH	ECX
  5906 00003B64 52                              	PUSH	EDX
  5907 00003B65 6A 00                           	PUSH	0
  5908 00003B67 FF 73 04                        	PUSH	DWORD [4+EBX]
  5909 00003B6A FF 33                           	PUSH	DWORD [EBX]
  5910 00003B6C E8 [00000000]                   	CALL	_boxfill8
  5911 00003B71 83 C4 1C                        	ADD	ESP,28
  5912 00003B74 EB D3                           	JMP	L997
  5913 00003B76                                 L1012:
  5914 00003B76 C7 45 14 00000007               	MOV	DWORD [20+EBP],7
  5915 00003B7D E9 FFFFFE64                     	JMP	L995
  5916 00003B82                                 L1011:
  5917 00003B82 83 7D 08 00                     	CMP	DWORD [8+EBP],0
  5918 00003B86 0F 84 FFFFFE51                  	JE	L990
  5919 00003B8C 85 F6                           	TEST	ESI,ESI
  5920 00003B8E 74 2C                           	JE	L991
  5921 00003B90 6A 00                           	PUSH	0
  5922 00003B92 53                              	PUSH	EBX
  5923 00003B93 FF 75 18                        	PUSH	DWORD [24+EBP]
  5924 00003B96 E8 [00000000]                   	CALL	_timer_init
  5925 00003B9B 83 C4 0C                        	ADD	ESP,12
  5926 00003B9E 83 7D 14 00                     	CMP	DWORD [20+EBP],0
  5927 00003BA2 78 07                           	JS	L993
  5928 00003BA4 C7 45 14 00000007               	MOV	DWORD [20+EBP],7
  5929 00003BAB                                 L993:
  5930 00003BAB 6A 32                           	PUSH	50
  5931 00003BAD FF 75 18                        	PUSH	DWORD [24+EBP]
  5932 00003BB0 E8 [00000000]                   	CALL	_timer_settime
  5933 00003BB5 59                              	POP	ECX
  5934 00003BB6 5B                              	POP	EBX
  5935 00003BB7 E9 FFFFFE21                     	JMP	L990
  5936 00003BBC                                 L991:
  5937 00003BBC 6A 01                           	PUSH	1
  5938 00003BBE 53                              	PUSH	EBX
  5939 00003BBF FF 75 18                        	PUSH	DWORD [24+EBP]
  5940 00003BC2 E8 [00000000]                   	CALL	_timer_init
  5941 00003BC7 83 C4 0C                        	ADD	ESP,12
  5942 00003BCA 83 7D 14 00                     	CMP	DWORD [20+EBP],0
  5943 00003BCE 78 DB                           	JS	L993
  5944 00003BD0 C7 45 14 00000000               	MOV	DWORD [20+EBP],0
  5945 00003BD7 EB D2                           	JMP	L993
  5946 00003BD9                                 L1010:
  5947 00003BD9 57                              	PUSH	EDI
  5948 00003BDA E8 [00000000]                   	CALL	_task_sleep
  5949 00003BDF E8 [00000000]                   	CALL	_io_sti
  5950 00003BE4 58                              	POP	EAX
  5951 00003BE5 E9 FFFFFDC5                     	JMP	L985
  5952                                          [SECTION .data]
  5953 00001C75                                 LC153:
  5954 00001C75 57 65 6C 63 6F 6D 65 20 74 6F   	DB	"Welcome to Rock-paper-scissors! Please choose your choice:",0x0A,0x00
       00001C7F 20 52 6F 63 6B 2D 70 61 70 65 
       00001C89 72 2D 73 63 69 73 73 6F 72 73 
       00001C93 21 20 50 6C 65 61 73 65 20 63 
       00001C9D 68 6F 6F 73 65 20 79 6F 75 72 
       00001CA7 20 63 68 6F 69 63 65 3A 0A 00 
  5955 00001CB1                                 LC154:
  5956 00001CB1 41 3A 73 63 69 73 73 6F 72 73   	DB	"A:scissors",0x0A,"B:Rock",0x0A,"C:paper",0x0A,"D:Exit",0x0A,0x00
       00001CBB 0A 42 3A 52 6F 63 6B 0A 43 3A 
       00001CC5 70 61 70 65 72 0A 44 3A 45 78 
       00001CCF 69 74 0A 00 
  5957                                          [SECTION .text]
  5958 00003BEA                                 	GLOBAL	_cmd_rps
  5959 00003BEA                                 _cmd_rps:
  5960 00003BEA 55                              	PUSH	EBP
  5961 00003BEB 89 E5                           	MOV	EBP,ESP
  5962 00003BED 57                              	PUSH	EDI
  5963 00003BEE 56                              	PUSH	ESI
  5964 00003BEF 53                              	PUSH	EBX
  5965 00003BF0 83 EC 34                        	SUB	ESP,52
  5966 00003BF3 E8 [00000000]                   	CALL	_task_now
  5967 00003BF8 89 45 C0                        	MOV	DWORD [-64+EBP],EAX
  5968 00003BFB                                 L1029:
  5969 00003BFB 68 [00001C75]                   	PUSH	LC153
  5970 00003C00 FF 75 08                        	PUSH	DWORD [8+EBP]
  5971 00003C03 E8 FFFFCE20                     	CALL	_cons_putstr0
  5972 00003C08 68 [00001CB1]                   	PUSH	LC154
  5973 00003C0D FF 75 08                        	PUSH	DWORD [8+EBP]
  5974 00003C10 E8 FFFFCE13                     	CALL	_cons_putstr0
  5975 00003C15 FF 75 0C                        	PUSH	DWORD [12+EBP]
  5976 00003C18 FF 75 08                        	PUSH	DWORD [8+EBP]
  5977 00003C1B E8 FFFFFADF                     	CALL	_cmd_clearline
  5978 00003C20 8B 45 C0                        	MOV	EAX,DWORD [-64+EBP]
  5979 00003C23 FF B0 000000B8                  	PUSH	DWORD [184+EAX]
  5980 00003C29 FF 75 08                        	PUSH	DWORD [8+EBP]
  5981 00003C2C E8 FFFFFACE                     	CALL	_cmd_clearline
  5982 00003C31 8D 45 08                        	LEA	EAX,DWORD [8+EBP]
  5983 00003C34 83 C4 20                        	ADD	ESP,32
  5984 00003C37 50                              	PUSH	EAX
  5985 00003C38 E8 FFFFCC98                     	CALL	_cons_newline
  5986 00003C3D B9 00000007                     	MOV	ECX,7
  5987 00003C42 FF 75 0C                        	PUSH	DWORD [12+EBP]
  5988 00003C45 83 EC 1C                        	SUB	ESP,28
  5989 00003C48 8B 75 08                        	MOV	ESI,DWORD [8+EBP]
  5990 00003C4B FC                              	CLD
  5991 00003C4C 89 E7                           	MOV	EDI,ESP
  5992 00003C4E F3                              	REP
  5993 00003C4F A5                              	MOVSD
  5994 00003C50 E8 FFFFFD2F                     	CALL	_get_1_line
  5995 00003C55 83 C4 24                        	ADD	ESP,36
  5996 00003C58 80 38 20                        	CMP	BYTE [EAX],32
  5997 00003C5B 7F 06                           	JG	L1031
  5998 00003C5D                                 L1028:
  5999 00003C5D 40                              	INC	EAX
  6000 00003C5E 80 38 20                        	CMP	BYTE [EAX],32
  6001 00003C61 7E FA                           	JLE	L1028
  6002 00003C63                                 L1031:
  6003 00003C63 0F BE 18                        	MOVSX	EBX,BYTE [EAX]
  6004 00003C66 8D 45 08                        	LEA	EAX,DWORD [8+EBP]
  6005 00003C69 50                              	PUSH	EAX
  6006 00003C6A E8 FFFFCC66                     	CALL	_cons_newline
  6007 00003C6F 8B 45 08                        	MOV	EAX,DWORD [8+EBP]
  6008 00003C72 83 40 08 10                     	ADD	DWORD [8+EAX],16
  6009 00003C76 C7 40 04 00000008               	MOV	DWORD [4+EAX],8
  6010 00003C7D 6A 01                           	PUSH	1
  6011 00003C7F 53                              	PUSH	EBX
  6012 00003C80 50                              	PUSH	EAX
  6013 00003C81 E8 FFFFCDD0                     	CALL	_cons_putstr1
  6014 00003C86 8D 45 08                        	LEA	EAX,DWORD [8+EBP]
  6015 00003C89 50                              	PUSH	EAX
  6016 00003C8A E8 FFFFCC46                     	CALL	_cons_newline
  6017 00003C8F 83 C4 14                        	ADD	ESP,20
  6018 00003C92 8B 45 08                        	MOV	EAX,DWORD [8+EBP]
  6019 00003C95 83 40 08 10                     	ADD	DWORD [8+EAX],16
  6020 00003C99 C7 40 04 00000008               	MOV	DWORD [4+EAX],8
  6021 00003CA0 E9 FFFFFF56                     	JMP	L1029
  6022                                          [SECTION .data]
  6023 00001CD3                                 LC155:
  6024 00001CD3 25 73 20 69 73 20 77 61 69 74   	DB	"%s is waiting %s!",0x0A,0x00
       00001CDD 69 6E 67 20 25 73 21 0A 00 
  6025                                          [SECTION .text]
  6026 00003CA5                                 	GLOBAL	_wait
  6027 00003CA5                                 _wait:
  6028 00003CA5 55                              	PUSH	EBP
  6029 00003CA6 89 E5                           	MOV	EBP,ESP
  6030 00003CA8 57                              	PUSH	EDI
  6031 00003CA9 56                              	PUSH	ESI
  6032 00003CAA 53                              	PUSH	EBX
  6033 00003CAB 83 EC 74                        	SUB	ESP,116
  6034 00003CAE 8B 75 08                        	MOV	ESI,DWORD [8+EBP]
  6035 00003CB1 8B 7D 0C                        	MOV	EDI,DWORD [12+EBP]
  6036 00003CB4 E8 [00000000]                   	CALL	_io_load_eflags
  6037 00003CB9 89 45 80                        	MOV	DWORD [-128+EBP],EAX
  6038 00003CBC E8 [00000000]                   	CALL	_io_cli
  6039 00003CC1 8B 46 08                        	MOV	EAX,DWORD [8+ESI]
  6040 00003CC4 48                              	DEC	EAX
  6041 00003CC5 89 46 08                        	MOV	DWORD [8+ESI],EAX
  6042 00003CC8 85 C0                           	TEST	EAX,EAX
  6043 00003CCA 78 10                           	JS	L1036
  6044 00003CCC                                 L1033:
  6045 00003CCC FF 75 80                        	PUSH	DWORD [-128+EBP]
  6046 00003CCF E8 [00000000]                   	CALL	_io_store_eflags
  6047 00003CD4 8D 65 F4                        	LEA	ESP,DWORD [-12+EBP]
  6048 00003CD7 5B                              	POP	EBX
  6049 00003CD8 5E                              	POP	ESI
  6050 00003CD9 5F                              	POP	EDI
  6051 00003CDA 5D                              	POP	EBP
  6052 00003CDB C3                              	RET
  6053 00003CDC                                 L1036:
  6054 00003CDC FF 75 10                        	PUSH	DWORD [16+EBP]
  6055 00003CDF 57                              	PUSH	EDI
  6056 00003CE0 8D 5D 84                        	LEA	EBX,DWORD [-124+EBP]
  6057 00003CE3 68 [00001CD3]                   	PUSH	LC155
  6058 00003CE8 53                              	PUSH	EBX
  6059 00003CE9 E8 [00000000]                   	CALL	_sprintf
  6060 00003CEE 53                              	PUSH	EBX
  6061 00003CEF 8B 47 64                        	MOV	EAX,DWORD [100+EDI]
  6062 00003CF2 FF B0 000000A4                  	PUSH	DWORD [164+EAX]
  6063 00003CF8 E8 FFFFCD2B                     	CALL	_cons_putstr0
  6064 00003CFD 8B 06                           	MOV	EAX,DWORD [ESI]
  6065 00003CFF 83 C4 18                        	ADD	ESP,24
  6066 00003D02 85 C0                           	TEST	EAX,EAX
  6067 00003D04 75 17                           	JNE	L1034
  6068 00003D06 89 7E 04                        	MOV	DWORD [4+ESI],EDI
  6069 00003D09 89 3E                           	MOV	DWORD [ESI],EDI
  6070 00003D0B C7 47 68 00000000               	MOV	DWORD [104+EDI],0
  6071 00003D12                                 L1035:
  6072 00003D12 FF 77 64                        	PUSH	DWORD [100+EDI]
  6073 00003D15 E8 [00000000]                   	CALL	_task_sleep
  6074 00003D1A 5B                              	POP	EBX
  6075 00003D1B EB AF                           	JMP	L1033
  6076 00003D1D                                 L1034:
  6077 00003D1D 89 78 68                        	MOV	DWORD [104+EAX],EDI
  6078 00003D20 8B 06                           	MOV	EAX,DWORD [ESI]
  6079 00003D22 8B 40 68                        	MOV	EAX,DWORD [104+EAX]
  6080 00003D25 89 06                           	MOV	DWORD [ESI],EAX
  6081 00003D27 C7 40 68 00000000               	MOV	DWORD [104+EAX],0
  6082 00003D2E EB E2                           	JMP	L1035
  6083                                          [SECTION .data]
  6084 00001CE6                                 LC156:
  6085 00001CE6 25 73 20 61 6C 72 65 61 64 79   	DB	"%s already get %s.",0x0A,0x00
       00001CF0 20 67 65 74 20 25 73 2E 0A 00 
  6086                                          [SECTION .text]
  6087 00003D30                                 	GLOBAL	_signal
  6088 00003D30                                 _signal:
  6089 00003D30 55                              	PUSH	EBP
  6090 00003D31 89 E5                           	MOV	EBP,ESP
  6091 00003D33 57                              	PUSH	EDI
  6092 00003D34 56                              	PUSH	ESI
  6093 00003D35 53                              	PUSH	EBX
  6094 00003D36 83 EC 70                        	SUB	ESP,112
  6095 00003D39 8B 5D 08                        	MOV	EBX,DWORD [8+EBP]
  6096 00003D3C E8 [00000000]                   	CALL	_io_load_eflags
  6097 00003D41 89 C7                           	MOV	EDI,EAX
  6098 00003D43 E8 [00000000]                   	CALL	_io_cli
  6099 00003D48 8B 43 08                        	MOV	EAX,DWORD [8+EBX]
  6100 00003D4B 40                              	INC	EAX
  6101 00003D4C 89 43 08                        	MOV	DWORD [8+EBX],EAX
  6102 00003D4F 85 C0                           	TEST	EAX,EAX
  6103 00003D51 7E 0E                           	JLE	L1041
  6104 00003D53                                 L1038:
  6105 00003D53 57                              	PUSH	EDI
  6106 00003D54 E8 [00000000]                   	CALL	_io_store_eflags
  6107 00003D59 8D 65 F4                        	LEA	ESP,DWORD [-12+EBP]
  6108 00003D5C 5B                              	POP	EBX
  6109 00003D5D 5E                              	POP	ESI
  6110 00003D5E 5F                              	POP	EDI
  6111 00003D5F 5D                              	POP	EBP
  6112 00003D60 C3                              	RET
  6113 00003D61                                 L1041:
  6114 00003D61 8B 73 04                        	MOV	ESI,DWORD [4+EBX]
  6115 00003D64 3B 33                           	CMP	ESI,DWORD [EBX]
  6116 00003D66 74 38                           	JE	L1042
  6117 00003D68 8B 46 68                        	MOV	EAX,DWORD [104+ESI]
  6118 00003D6B 89 43 04                        	MOV	DWORD [4+EBX],EAX
  6119 00003D6E                                 L1040:
  6120 00003D6E 6A FF                           	PUSH	-1
  6121 00003D70 8D 5D 84                        	LEA	EBX,DWORD [-124+EBP]
  6122 00003D73 6A FF                           	PUSH	-1
  6123 00003D75 FF 76 64                        	PUSH	DWORD [100+ESI]
  6124 00003D78 E8 [00000000]                   	CALL	_task_run
  6125 00003D7D FF 75 0C                        	PUSH	DWORD [12+EBP]
  6126 00003D80 56                              	PUSH	ESI
  6127 00003D81 68 [00001CE6]                   	PUSH	LC156
  6128 00003D86 53                              	PUSH	EBX
  6129 00003D87 E8 [00000000]                   	CALL	_sprintf
  6130 00003D8C 53                              	PUSH	EBX
  6131 00003D8D 8B 46 64                        	MOV	EAX,DWORD [100+ESI]
  6132 00003D90 FF B0 000000A4                  	PUSH	DWORD [164+EAX]
  6133 00003D96 E8 FFFFCC8D                     	CALL	_cons_putstr0
  6134 00003D9B 83 C4 24                        	ADD	ESP,36
  6135 00003D9E EB B3                           	JMP	L1038
  6136 00003DA0                                 L1042:
  6137 00003DA0 C7 03 00000000                  	MOV	DWORD [EBX],0
  6138 00003DA6 C7 43 04 00000000               	MOV	DWORD [4+EBX],0
  6139 00003DAD EB BF                           	JMP	L1040
  6140 00003DAF                                 	GLOBAL	_init_S
  6141 00003DAF                                 _init_S:
  6142 00003DAF 55                              	PUSH	EBP
  6143 00003DB0 89 E5                           	MOV	EBP,ESP
  6144 00003DB2 5D                              	POP	EBP
  6145 00003DB3 C7 05 [000025E8] 00000001       	MOV	DWORD [_mutex+8],1
  6146 00003DBD C7 05 [000025E4] 00000000       	MOV	DWORD [_mutex+4],0
  6147 00003DC7 C7 05 [000025E0] 00000000       	MOV	DWORD [_mutex],0
  6148 00003DD1 C7 05 [000025F8] 00000001       	MOV	DWORD [_wrt+8],1
  6149 00003DDB C7 05 [000025F4] 00000000       	MOV	DWORD [_wrt+4],0
  6150 00003DE5 C7 05 [000025F0] 00000000       	MOV	DWORD [_wrt],0
  6151 00003DEF C7 05 [000025FC] 00000000       	MOV	DWORD [_readcount],0
  6152 00003DF9 C7 05 [00002600] 00000000       	MOV	DWORD [_share_bupt],0
  6153 00003E03 C3                              	RET
  6154                                          [SECTION .data]
  6155 00001CFA                                 LC157:
  6156 00001CFA 72 65 61 64 65 72 20 25 64 00   	DB	"reader %d",0x00
  6157 00001D04                                 LC158:
  6158 00001D04 6D 75 74 65 78 00               	DB	"mutex",0x00
  6159 00001D0A                                 LC160:
  6160 00001D0A 25 73 20 67 65 74 20 73 68 61   	DB	"%s get share=%d|| %d",0x0A,0x00
       00001D14 72 65 3D 25 64 7C 7C 20 25 64 
       00001D1E 0A 00 
  6161 00001D20                                 LC159:
  6162 00001D20 77 72 74 00                     	DB	"wrt",0x00
  6163                                          [SECTION .text]
  6164 00003E04                                 	GLOBAL	_cmd_reader
  6165 00003E04                                 _cmd_reader:
  6166 00003E04 55                              	PUSH	EBP
  6167 00003E05 89 E5                           	MOV	EBP,ESP
  6168 00003E07 57                              	PUSH	EDI
  6169 00003E08 56                              	PUSH	ESI
  6170 00003E09 53                              	PUSH	EBX
  6171 00003E0A 31 DB                           	XOR	EBX,EBX
  6172 00003E0C 81 EC 000000E0                  	SUB	ESP,224
  6173 00003E12 C7 85 FFFFFF7C 00000000         	MOV	DWORD [-132+EBP],0
  6174 00003E1C E8 [00000000]                   	CALL	_task_now
  6175 00003E21 89 85 FFFFFF78                  	MOV	DWORD [-136+EBP],EAX
  6176 00003E27                                 L1051:
  6177 00003E27 A1 [000025FC]                   	MOV	EAX,DWORD [_readcount]
  6178 00003E2C 8D B5 FFFFFF14                  	LEA	ESI,DWORD [-236+EBP]
  6179 00003E32 40                              	INC	EAX
  6180 00003E33 50                              	PUSH	EAX
  6181 00003E34 68 [00001CFA]                   	PUSH	LC157
  6182 00003E39 56                              	PUSH	ESI
  6183 00003E3A E8 [00000000]                   	CALL	_sprintf
  6184 00003E3F 68 [00001D04]                   	PUSH	LC158
  6185 00003E44 56                              	PUSH	ESI
  6186 00003E45 68 [000025E0]                   	PUSH	_mutex
  6187 00003E4A E8 FFFFFE56                     	CALL	_wait
  6188 00003E4F 83 C4 18                        	ADD	ESP,24
  6189 00003E52 A1 [000025FC]                   	MOV	EAX,DWORD [_readcount]
  6190 00003E57 40                              	INC	EAX
  6191 00003E58 A3 [000025FC]                   	MOV	DWORD [_readcount],EAX
  6192 00003E5D 48                              	DEC	EAX
  6193 00003E5E 0F 84 00000099                  	JE	L1052
  6194 00003E64                                 L1048:
  6195 00003E64 68 [00001D04]                   	PUSH	LC158
  6196 00003E69 8D 7B 01                        	LEA	EDI,DWORD [1+EBX]
  6197 00003E6C 68 [000025E0]                   	PUSH	_mutex
  6198 00003E71 8D 5D 84                        	LEA	EBX,DWORD [-124+EBP]
  6199 00003E74 E8 FFFFFEB7                     	CALL	_signal
  6200 00003E79 57                              	PUSH	EDI
  6201 00003E7A FF 35 [00002600]                	PUSH	DWORD [_share_bupt]
  6202 00003E80 56                              	PUSH	ESI
  6203 00003E81 68 [00001D0A]                   	PUSH	LC160
  6204 00003E86 53                              	PUSH	EBX
  6205 00003E87 E8 [00000000]                   	CALL	_sprintf
  6206 00003E8C 8B 85 FFFFFF78                  	MOV	EAX,DWORD [-136+EBP]
  6207 00003E92 53                              	PUSH	EBX
  6208 00003E93 FF B0 000000A4                  	PUSH	DWORD [164+EAX]
  6209 00003E99 E8 FFFFCB8A                     	CALL	_cons_putstr0
  6210 00003E9E 83 C4 24                        	ADD	ESP,36
  6211 00003EA1 68 [00001D04]                   	PUSH	LC158
  6212 00003EA6 56                              	PUSH	ESI
  6213 00003EA7 68 [000025E0]                   	PUSH	_mutex
  6214 00003EAC E8 FFFFFDF4                     	CALL	_wait
  6215 00003EB1 83 C4 0C                        	ADD	ESP,12
  6216 00003EB4 A1 [000025FC]                   	MOV	EAX,DWORD [_readcount]
  6217 00003EB9 48                              	DEC	EAX
  6218 00003EBA A3 [000025FC]                   	MOV	DWORD [_readcount],EAX
  6219 00003EBF 85 C0                           	TEST	EAX,EAX
  6220 00003EC1 74 27                           	JE	L1053
  6221 00003EC3                                 L1049:
  6222 00003EC3 68 [00001D04]                   	PUSH	LC158
  6223 00003EC8 89 FB                           	MOV	EBX,EDI
  6224 00003ECA 68 [000025E0]                   	PUSH	_mutex
  6225 00003ECF E8 FFFFFE5C                     	CALL	_signal
  6226 00003ED4 81 FB 000003E8                  	CMP	EBX,1000
  6227 00003EDA 5E                              	POP	ESI
  6228 00003EDB 5F                              	POP	EDI
  6229 00003EDC 0F 85 FFFFFF45                  	JNE	L1051
  6230 00003EE2 8D 65 F4                        	LEA	ESP,DWORD [-12+EBP]
  6231 00003EE5 5B                              	POP	EBX
  6232 00003EE6 5E                              	POP	ESI
  6233 00003EE7 5F                              	POP	EDI
  6234 00003EE8 5D                              	POP	EBP
  6235 00003EE9 C3                              	RET
  6236 00003EEA                                 L1053:
  6237 00003EEA 68 [00001D20]                   	PUSH	LC159
  6238 00003EEF 68 [000025F0]                   	PUSH	_wrt
  6239 00003EF4 E8 FFFFFE37                     	CALL	_signal
  6240 00003EF9 58                              	POP	EAX
  6241 00003EFA 5A                              	POP	EDX
  6242 00003EFB EB C6                           	JMP	L1049
  6243 00003EFD                                 L1052:
  6244 00003EFD 68 [00001D20]                   	PUSH	LC159
  6245 00003F02 56                              	PUSH	ESI
  6246 00003F03 68 [000025F0]                   	PUSH	_wrt
  6247 00003F08 E8 FFFFFD98                     	CALL	_wait
  6248 00003F0D 83 C4 0C                        	ADD	ESP,12
  6249 00003F10 E9 FFFFFF4F                     	JMP	L1048
  6250                                          [SECTION .data]
  6251 00001D24                                 LC161:
  6252 00001D24 25 73 20 68 61 76 65 20 77 72   	DB	"%s have written share=%d|| %d",0x0A,0x00
       00001D2E 69 74 74 65 6E 20 73 68 61 72 
       00001D38 65 3D 25 64 7C 7C 20 25 64 0A 
       00001D42 00 
  6253                                          [SECTION .text]
  6254 00003F15                                 	GLOBAL	_cmd_writer
  6255 00003F15                                 _cmd_writer:
  6256 00003F15 55                              	PUSH	EBP
  6257 00003F16 89 E5                           	MOV	EBP,ESP
  6258 00003F18 56                              	PUSH	ESI
  6259 00003F19 53                              	PUSH	EBX
  6260 00003F1A 31 F6                           	XOR	ESI,ESI
  6261 00003F1C 81 EC 000000E0                  	SUB	ESP,224
  6262 00003F22 C7 45 80 00000000               	MOV	DWORD [-128+EBP],0
  6263 00003F29 E8 [00000000]                   	CALL	_task_now
  6264 00003F2E 68 [000000DE]                   	PUSH	LC35
  6265 00003F33 89 85 FFFFFF7C                  	MOV	DWORD [-132+EBP],EAX
  6266 00003F39 8D 85 FFFFFF18                  	LEA	EAX,DWORD [-232+EBP]
  6267 00003F3F 50                              	PUSH	EAX
  6268 00003F40 E8 [00000000]                   	CALL	_sprintf
  6269 00003F45 59                              	POP	ECX
  6270 00003F46 5B                              	POP	EBX
  6271 00003F47                                 L1059:
  6272 00003F47 68 [00001D20]                   	PUSH	LC159
  6273 00003F4C 8D 9D FFFFFF18                  	LEA	EBX,DWORD [-232+EBP]
  6274 00003F52 53                              	PUSH	EBX
  6275 00003F53 46                              	INC	ESI
  6276 00003F54 68 [000025F0]                   	PUSH	_wrt
  6277 00003F59 E8 FFFFFD47                     	CALL	_wait
  6278 00003F5E 56                              	PUSH	ESI
  6279 00003F5F A1 [00002600]                   	MOV	EAX,DWORD [_share_bupt]
  6280 00003F64 40                              	INC	EAX
  6281 00003F65 50                              	PUSH	EAX
  6282 00003F66 A3 [00002600]                   	MOV	DWORD [_share_bupt],EAX
  6283 00003F6B 53                              	PUSH	EBX
  6284 00003F6C 8D 5D 88                        	LEA	EBX,DWORD [-120+EBP]
  6285 00003F6F 68 [00001D24]                   	PUSH	LC161
  6286 00003F74 53                              	PUSH	EBX
  6287 00003F75 E8 [00000000]                   	CALL	_sprintf
  6288 00003F7A 8B 85 FFFFFF7C                  	MOV	EAX,DWORD [-132+EBP]
  6289 00003F80 83 C4 20                        	ADD	ESP,32
  6290 00003F83 53                              	PUSH	EBX
  6291 00003F84 FF B0 000000A4                  	PUSH	DWORD [164+EAX]
  6292 00003F8A E8 FFFFCA99                     	CALL	_cons_putstr0
  6293 00003F8F 68 [00001D20]                   	PUSH	LC159
  6294 00003F94 68 [000025F0]                   	PUSH	_wrt
  6295 00003F99 E8 FFFFFD92                     	CALL	_signal
  6296 00003F9E 83 C4 10                        	ADD	ESP,16
  6297 00003FA1 81 FE 000003E8                  	CMP	ESI,1000
  6298 00003FA7 75 9E                           	JNE	L1059
  6299 00003FA9 8D 65 F8                        	LEA	ESP,DWORD [-8+EBP]
  6300 00003FAC 5B                              	POP	EBX
  6301 00003FAD 5E                              	POP	ESI
  6302 00003FAE 5D                              	POP	EBP
  6303 00003FAF C3                              	RET
  6304 00003FB0                                 	GLOBAL	_char2int
  6305 00003FB0                                 _char2int:
  6306 00003FB0 55                              	PUSH	EBP
  6307 00003FB1 31 D2                           	XOR	EDX,EDX
  6308 00003FB3 89 E5                           	MOV	EBP,ESP
  6309 00003FB5 31 C9                           	XOR	ECX,ECX
  6310 00003FB7 53                              	PUSH	EBX
  6311 00003FB8 8B 5D 08                        	MOV	EBX,DWORD [8+EBP]
  6312 00003FBB 8A 03                           	MOV	AL,BYTE [EBX]
  6313 00003FBD 84 C0                           	TEST	AL,AL
  6314 00003FBF 74 12                           	JE	L1066
  6315 00003FC1                                 L1064:
  6316 00003FC1 6B D2 0A                        	IMUL	EDX,EDX,10
  6317 00003FC4 0F BE C0                        	MOVSX	EAX,AL
  6318 00003FC7 41                              	INC	ECX
  6319 00003FC8 8D 54 10 D0                     	LEA	EDX,DWORD [-48+EAX+EDX*1]
  6320 00003FCC 8A 04 19                        	MOV	AL,BYTE [ECX+EBX*1]
  6321 00003FCF 84 C0                           	TEST	AL,AL
  6322 00003FD1 75 EE                           	JNE	L1064
  6323 00003FD3                                 L1066:
  6324 00003FD3 5B                              	POP	EBX
  6325 00003FD4 89 D0                           	MOV	EAX,EDX
  6326 00003FD6 5D                              	POP	EBP
  6327 00003FD7 C3                              	RET
  6328                                          [SECTION .data]
  6329 00001D43                                 LC162:
  6330 00001D43 62 65 66 6F 72 65 20 61 6C 6C   	DB	"before alloc %d:",0x0A,0x00
       00001D4D 6F 63 20 25 64 3A 0A 00 
  6331 00001D55                                 LC164:
  6332 00001D55 0A 61 66 74 65 72 20 61 6C 6C   	DB	0x0A,"after alloc:",0x0A,0x00
       00001D5F 6F 63 3A 0A 00 
  6333 00001D64                                 LC163:
  6334 00001D64 4E 4F 2E 25 64 2D 73 69 7A 65   	DB	"NO.%d-size=%d  ",0x00
       00001D6E 3D 25 64 20 20 00 
  6335                                          [SECTION .text]
  6336 00003FD8                                 	GLOBAL	_cmd_mymem
  6337 00003FD8                                 _cmd_mymem:
  6338 00003FD8 55                              	PUSH	EBP
  6339 00003FD9 89 E5                           	MOV	EBP,ESP
  6340 00003FDB 57                              	PUSH	EDI
  6341 00003FDC 56                              	PUSH	ESI
  6342 00003FDD 31 F6                           	XOR	ESI,ESI
  6343 00003FDF 53                              	PUSH	EBX
  6344 00003FE0 81 EC 00000084                  	SUB	ESP,132
  6345 00003FE6 8B 5D 08                        	MOV	EBX,DWORD [8+EBP]
  6346 00003FE9 E8 [00000000]                   	CALL	_task_now
  6347 00003FEE 89 85 FFFFFF70                  	MOV	DWORD [-144+EBP],EAX
  6348 00003FF4 80 3B 20                        	CMP	BYTE [EBX],32
  6349 00003FF7 74 07                           	JE	L1084
  6350 00003FF9                                 L1072:
  6351 00003FF9 46                              	INC	ESI
  6352 00003FFA 80 3C 1E 20                     	CMP	BYTE [ESI+EBX*1],32
  6353 00003FFE 75 F9                           	JNE	L1072
  6354 00004000                                 L1084:
  6355 00004000 8D 44 1E 03                     	LEA	EAX,DWORD [3+ESI+EBX*1]
  6356 00004004 31 F6                           	XOR	ESI,ESI
  6357 00004006 50                              	PUSH	EAX
  6358 00004007 8D 5D E4                        	LEA	EBX,DWORD [-28+EBP]
  6359 0000400A 53                              	PUSH	EBX
  6360 0000400B E8 [00000000]                   	CALL	_strcpy
  6361 00004010 53                              	PUSH	EBX
  6362 00004011 8D 9D FFFFFF74                  	LEA	EBX,DWORD [-140+EBP]
  6363 00004017 E8 FFFFFF94                     	CALL	_char2int
  6364 0000401C 89 C7                           	MOV	EDI,EAX
  6365 0000401E 50                              	PUSH	EAX
  6366 0000401F 68 [00001D43]                   	PUSH	LC162
  6367 00004024 53                              	PUSH	EBX
  6368 00004025 E8 [00000000]                   	CALL	_sprintf
  6369 0000402A 8B 85 FFFFFF70                  	MOV	EAX,DWORD [-144+EBP]
  6370 00004030 53                              	PUSH	EBX
  6371 00004031 FF B0 000000A4                  	PUSH	DWORD [164+EAX]
  6372 00004037 E8 FFFFC9EC                     	CALL	_cons_putstr0
  6373 0000403C 83 C4 20                        	ADD	ESP,32
  6374 0000403F 3B 35 003C0000                  	CMP	ESI,DWORD [3932160]
  6375 00004045 0F 8C 000000A0                  	JL	L1077
  6376 0000404B                                 L1086:
  6377 0000404B 57                              	PUSH	EDI
  6378 0000404C 31 F6                           	XOR	ESI,ESI
  6379 0000404E 68 003C0000                     	PUSH	3932160
  6380 00004053 E8 [00000000]                   	CALL	_memman_alloc
  6381 00004058 68 [00001D55]                   	PUSH	LC164
  6382 0000405D 8B 15 [0000000C]                	MOV	EDX,DWORD [_num]
  6383 00004063 89 04 95 [000022C0]             	MOV	DWORD [_addrlist+EDX*4],EAX
  6384 0000406A 89 3C 95 [00002450]             	MOV	DWORD [_sizelist+EDX*4],EDI
  6385 00004071 8B 85 FFFFFF70                  	MOV	EAX,DWORD [-144+EBP]
  6386 00004077 42                              	INC	EDX
  6387 00004078 89 15 [0000000C]                	MOV	DWORD [_num],EDX
  6388 0000407E FF B0 000000A4                  	PUSH	DWORD [164+EAX]
  6389 00004084 E8 FFFFC99F                     	CALL	_cons_putstr0
  6390 00004089 83 C4 10                        	ADD	ESP,16
  6391 0000408C 3B 35 003C0000                  	CMP	ESI,DWORD [3932160]
  6392 00004092 7C 1E                           	JL	L1082
  6393 00004094                                 L1088:
  6394 00004094 8B 85 FFFFFF70                  	MOV	EAX,DWORD [-144+EBP]
  6395 0000409A 68 [0000037E]                   	PUSH	LC79
  6396 0000409F FF B0 000000A4                  	PUSH	DWORD [164+EAX]
  6397 000040A5 E8 FFFFC97E                     	CALL	_cons_putstr0
  6398 000040AA 8D 65 F4                        	LEA	ESP,DWORD [-12+EBP]
  6399 000040AD 5B                              	POP	EBX
  6400 000040AE 5E                              	POP	ESI
  6401 000040AF 5F                              	POP	EDI
  6402 000040B0 5D                              	POP	EBP
  6403 000040B1 C3                              	RET
  6404 000040B2                                 L1082:
  6405 000040B2 FF 34 F5 003C0014               	PUSH	DWORD [3932180+ESI*8]
  6406 000040B9 56                              	PUSH	ESI
  6407 000040BA 8D 9D FFFFFF74                  	LEA	EBX,DWORD [-140+EBP]
  6408 000040C0 68 [00001D64]                   	PUSH	LC163
  6409 000040C5 46                              	INC	ESI
  6410 000040C6 53                              	PUSH	EBX
  6411 000040C7 E8 [00000000]                   	CALL	_sprintf
  6412 000040CC 8B 85 FFFFFF70                  	MOV	EAX,DWORD [-144+EBP]
  6413 000040D2 53                              	PUSH	EBX
  6414 000040D3 FF B0 000000A4                  	PUSH	DWORD [164+EAX]
  6415 000040D9 E8 FFFFC94A                     	CALL	_cons_putstr0
  6416 000040DE 83 C4 18                        	ADD	ESP,24
  6417 000040E1 3B 35 003C0000                  	CMP	ESI,DWORD [3932160]
  6418 000040E7 7C C9                           	JL	L1082
  6419 000040E9 EB A9                           	JMP	L1088
  6420 000040EB                                 L1077:
  6421 000040EB FF 34 F5 003C0014               	PUSH	DWORD [3932180+ESI*8]
  6422 000040F2 56                              	PUSH	ESI
  6423 000040F3 8D 9D FFFFFF74                  	LEA	EBX,DWORD [-140+EBP]
  6424 000040F9 68 [00001D64]                   	PUSH	LC163
  6425 000040FE 46                              	INC	ESI
  6426 000040FF 53                              	PUSH	EBX
  6427 00004100 E8 [00000000]                   	CALL	_sprintf
  6428 00004105 8B 85 FFFFFF70                  	MOV	EAX,DWORD [-144+EBP]
  6429 0000410B 53                              	PUSH	EBX
  6430 0000410C FF B0 000000A4                  	PUSH	DWORD [164+EAX]
  6431 00004112 E8 FFFFC911                     	CALL	_cons_putstr0
  6432 00004117 83 C4 18                        	ADD	ESP,24
  6433 0000411A 3B 35 003C0000                  	CMP	ESI,DWORD [3932160]
  6434 00004120 7C C9                           	JL	L1077
  6435 00004122 E9 FFFFFF24                     	JMP	L1086
  6436 00004127                                 	GLOBAL	_cmd_free
  6437 00004127                                 _cmd_free:
  6438 00004127 55                              	PUSH	EBP
  6439 00004128 89 E5                           	MOV	EBP,ESP
  6440 0000412A 53                              	PUSH	EBX
  6441 0000412B 31 DB                           	XOR	EBX,EBX
  6442 0000412D 3B 1D [0000000C]                	CMP	EBX,DWORD [_num]
  6443 00004133 7C 05                           	JL	L1094
  6444 00004135                                 L1096:
  6445 00004135 8B 5D FC                        	MOV	EBX,DWORD [-4+EBP]
  6446 00004138 C9                              	LEAVE
  6447 00004139 C3                              	RET
  6448 0000413A                                 L1094:
  6449 0000413A FF 34 9D [00002450]             	PUSH	DWORD [_sizelist+EBX*4]
  6450 00004141 FF 34 9D [000022C0]             	PUSH	DWORD [_addrlist+EBX*4]
  6451 00004148 68 003C0000                     	PUSH	3932160
  6452 0000414D 43                              	INC	EBX
  6453 0000414E E8 [00000000]                   	CALL	_memman_free
  6454 00004153 83 C4 0C                        	ADD	ESP,12
  6455 00004156 3B 1D [0000000C]                	CMP	EBX,DWORD [_num]
  6456 0000415C 7C DC                           	JL	L1094
  6457 0000415E EB D5                           	JMP	L1096
  6458 00004160                                 	GLOBAL	_share
  6459                                          [SECTION .data]
  6460 00001D74                                 	ALIGNB	4
  6461 00001D74                                 _share:
  6462 00001D74 00000000                        	DD	0
  6463 00001D78                                 	GLOBAL	_sharenum
  6464 00001D78                                 	ALIGNB	4
  6465 00001D78                                 _sharenum:
  6466 00001D78 00000000                        	DD	0
  6467 00001D7C                                 LC165:
  6468 00001D7C 73 68 61 72 65 3D 25 64 2C 62   	DB	"share=%d,but share+1=%d",0x0A,0x00
       00001D86 75 74 20 73 68 61 72 65 2B 31 
       00001D90 3D 25 64 0A 00 
  6469                                          [SECTION .text]
  6470 00004160                                 	GLOBAL	_shareadd
  6471 00004160                                 _shareadd:
  6472 00004160 55                              	PUSH	EBP
  6473 00004161 89 E5                           	MOV	EBP,ESP
  6474 00004163 56                              	PUSH	ESI
  6475 00004164 53                              	PUSH	EBX
  6476 00004165 83 EC 40                        	SUB	ESP,64
  6477 00004168 A1 [00001D78]                   	MOV	EAX,DWORD [_sharenum]
  6478 0000416D 85 C0                           	TEST	EAX,EAX
  6479 0000416F 75 0A                           	JNE	L1098
  6480 00004171 C7 05 [00001D74] 00000000       	MOV	DWORD [_share],0
  6481 0000417B                                 L1098:
  6482 0000417B 40                              	INC	EAX
  6483 0000417C A3 [00001D78]                   	MOV	DWORD [_sharenum],EAX
  6484 00004181 48                              	DEC	EAX
  6485 00004182 7E 55                           	JLE	L1102
  6486 00004184                                 L1103:
  6487 00004184 8B 35 [00001D74]                	MOV	ESI,DWORD [_share]
  6488 0000418A E8 [00000000]                   	CALL	_io_load_eflags
  6489 0000418F 89 C3                           	MOV	EBX,EAX
  6490 00004191 E8 [00000000]                   	CALL	_io_cli
  6491 00004196 53                              	PUSH	EBX
  6492 00004197 FF 05 [00001D74]                	INC	DWORD [_share]
  6493 0000419D E8 [00000000]                   	CALL	_io_store_eflags
  6494 000041A2 59                              	POP	ECX
  6495 000041A3 8B 15 [00001D74]                	MOV	EDX,DWORD [_share]
  6496 000041A9 89 D0                           	MOV	EAX,EDX
  6497 000041AB 29 F0                           	SUB	EAX,ESI
  6498 000041AD 48                              	DEC	EAX
  6499 000041AE 7E D4                           	JLE	L1103
  6500 000041B0 52                              	PUSH	EDX
  6501 000041B1 8D 5D B8                        	LEA	EBX,DWORD [-72+EBP]
  6502 000041B4 56                              	PUSH	ESI
  6503 000041B5 68 [00001D7C]                   	PUSH	LC165
  6504 000041BA 53                              	PUSH	EBX
  6505 000041BB E8 [00000000]                   	CALL	_sprintf
  6506 000041C0 53                              	PUSH	EBX
  6507 000041C1 FF 75 08                        	PUSH	DWORD [8+EBP]
  6508 000041C4 E8 FFFFC85F                     	CALL	_cons_putstr0
  6509 000041C9 83 C4 18                        	ADD	ESP,24
  6510 000041CC FF 0D [00001D78]                	DEC	DWORD [_sharenum]
  6511 000041D2 8D 65 F8                        	LEA	ESP,DWORD [-8+EBP]
  6512 000041D5 5B                              	POP	EBX
  6513 000041D6 5E                              	POP	ESI
  6514 000041D7 5D                              	POP	EBP
  6515 000041D8 C3                              	RET
  6516 000041D9                                 L1102:
  6517 000041D9 E8 [00000000]                   	CALL	_task_now
  6518 000041DE 83 3D [00001D78] 01             	CMP	DWORD [_sharenum],1
  6519 000041E5 C7 40 04 00000002               	MOV	DWORD [4+EAX],2
  6520 000041EC 7E EB                           	JLE	L1102
  6521 000041EE EB 94                           	JMP	L1103
  6522 000041F0                                 	GLOBAL	_producer
  6523                                          [SECTION .data]
  6524 00001D95 00 00 00                        	ALIGNB	4
  6525 00001D98                                 _producer:
  6526 00001D98 00000000                        	DD	0
  6527 00001D9C                                 	GLOBAL	_consumer
  6528 00001D9C                                 	ALIGNB	4
  6529 00001D9C                                 _consumer:
  6530 00001D9C 00000001                        	DD	1
  6531 00001DA0                                 	GLOBAL	_flag
  6532 00001DA0                                 	ALIGNB	4
  6533 00001DA0                                 _flag:
  6534 00001DA0 00000000                        	DD	0
  6535 00001DA4 00000000                        	DD	0
  6536 00001DA8                                 	GLOBAL	_in
  6537 00001DA8                                 	ALIGNB	4
  6538 00001DA8                                 _in:
  6539 00001DA8 00000000                        	DD	0
  6540 00001DAC                                 	GLOBAL	_out
  6541 00001DAC                                 	ALIGNB	4
  6542 00001DAC                                 _out:
  6543 00001DAC 00000000                        	DD	0
  6544 00001DB0                                 	GLOBAL	_counter
  6545 00001DB0                                 	ALIGNB	4
  6546 00001DB0                                 _counter:
  6547 00001DB0 00000000                        	DD	0
  6548 00001DB4                                 	GLOBAL	_xnum
  6549 00001DB4                                 	ALIGNB	4
  6550 00001DB4                                 _xnum:
  6551 00001DB4 00000000                        	DD	0
  6552 00001DB8                                 LC166:
  6553 00001DB8 69 6E 20 62 75 66 66 65 72 20   	DB	"in buffer %d,produce %d",0x0A,0x00
       00001DC2 25 64 2C 70 72 6F 64 75 63 65 
       00001DCC 20 25 64 0A 00 
  6554                                          [SECTION .text]
  6555 000041F0                                 	GLOBAL	_produce
  6556 000041F0                                 _produce:
  6557 000041F0 55                              	PUSH	EBP
  6558 000041F1 89 E5                           	MOV	EBP,ESP
  6559 000041F3 57                              	PUSH	EDI
  6560 000041F4 56                              	PUSH	ESI
  6561 000041F5 53                              	PUSH	EBX
  6562 000041F6 83 EC 0C                        	SUB	ESP,12
  6563 000041F9 8B 7D 08                        	MOV	EDI,DWORD [8+EBP]
  6564 000041FC E8 [00000000]                   	CALL	_task_now
  6565 00004201                                 L1121:
  6566 00004201 83 3D [00001DB0] 64             	CMP	DWORD [_counter],100
  6567 00004208 0F 84 000000AE                  	JE	L1115
  6568 0000420E                                 L1123:
  6569 0000420E BA [00001DA0]                   	MOV	EDX,_flag
  6570 00004213 A1 [00001D98]                   	MOV	EAX,DWORD [_producer]
  6571 00004218 C7 04 82 00000001               	MOV	DWORD [EDX+EAX*4],1
  6572 0000421F A1 [00001D9C]                   	MOV	EAX,DWORD [_consumer]
  6573 00004224 A3 [00002608]                   	MOV	DWORD [_turn],EAX
  6574 00004229 83 3C 82 01                     	CMP	DWORD [EDX+EAX*4],1
  6575 0000422D 74 6B                           	JE	L1126
  6576 0000422F                                 L1117:
  6577 0000422F A1 [00001DA8]                   	MOV	EAX,DWORD [_in]
  6578 00004234 89 45 EC                        	MOV	DWORD [-20+EBP],EAX
  6579 00004237 E8 [00000000]                   	CALL	_rand
  6580 0000423C 8B 15 [00001DA8]                	MOV	EDX,DWORD [_in]
  6581 00004242 FF 05 [00001DB0]                	INC	DWORD [_counter]
  6582 00004248 89 45 E8                        	MOV	DWORD [-24+EBP],EAX
  6583 0000424B 8D 4A 01                        	LEA	ECX,DWORD [1+EDX]
  6584 0000424E 89 04 95 [00002610]             	MOV	DWORD [_buffer+EDX*4],EAX
  6585 00004255 89 C8                           	MOV	EAX,ECX
  6586 00004257 BA 00000064                     	MOV	EDX,100
  6587 0000425C 89 D3                           	MOV	EBX,EDX
  6588 0000425E 99                              	CDQ
  6589 0000425F F7 FB                           	IDIV	EBX
  6590 00004261 8B 5D EC                        	MOV	EBX,DWORD [-20+EBP]
  6591 00004264 89 15 [00001DA8]                	MOV	DWORD [_in],EDX
  6592 0000426A FF 75 E8                        	PUSH	DWORD [-24+EBP]
  6593 0000426D 43                              	INC	EBX
  6594 0000426E 8B 15 [00001D98]                	MOV	EDX,DWORD [_producer]
  6595 00004274 53                              	PUSH	EBX
  6596 00004275 68 [00001DB8]                   	PUSH	LC166
  6597 0000427A 56                              	PUSH	ESI
  6598 0000427B C7 04 95 [00001DA0] 00000000    	MOV	DWORD [_flag+EDX*4],0
  6599 00004286 E8 [00000000]                   	CALL	_sprintf
  6600 0000428B 56                              	PUSH	ESI
  6601 0000428C 57                              	PUSH	EDI
  6602 0000428D E8 FFFFC796                     	CALL	_cons_putstr0
  6603 00004292 83 C4 18                        	ADD	ESP,24
  6604 00004295 E9 FFFFFF67                     	JMP	L1121
  6605 0000429A                                 L1126:
  6606 0000429A 8B 15 [00001DB4]                	MOV	EDX,DWORD [_xnum]
  6607 000042A0 89 C1                           	MOV	ECX,EAX
  6608 000042A2                                 L1120:
  6609 000042A2 42                              	INC	EDX
  6610 000042A3 83 3C 85 [00001DA0] 01          	CMP	DWORD [_flag+EAX*4],1
  6611 000042AB 75 04                           	JNE	L1125
  6612 000042AD 39 C1                           	CMP	ECX,EAX
  6613 000042AF 74 F1                           	JE	L1120
  6614 000042B1                                 L1125:
  6615 000042B1 89 15 [00001DB4]                	MOV	DWORD [_xnum],EDX
  6616 000042B7 E9 FFFFFF73                     	JMP	L1117
  6617 000042BC                                 L1115:
  6618 000042BC E8 [00000000]                   	CALL	_task_now
  6619 000042C1 83 3D [00001DB0] 64             	CMP	DWORD [_counter],100
  6620 000042C8 C7 40 04 00000002               	MOV	DWORD [4+EAX],2
  6621 000042CF 74 EB                           	JE	L1115
  6622 000042D1 E9 FFFFFF38                     	JMP	L1123
  6623                                          [SECTION .data]
  6624 00001DD1                                 LC167:
  6625 00001DD1 69 6E 20 62 75 66 66 65 72 20   	DB	"in buffer %d,consume %d",0x0A,0x00
       00001DDB 25 64 2C 63 6F 6E 73 75 6D 65 
       00001DE5 20 25 64 0A 00 
  6626                                          [SECTION .text]
  6627 000042D6                                 	GLOBAL	_consume
  6628 000042D6                                 _consume:
  6629 000042D6 55                              	PUSH	EBP
  6630 000042D7 89 E5                           	MOV	EBP,ESP
  6631 000042D9 57                              	PUSH	EDI
  6632 000042DA 56                              	PUSH	ESI
  6633 000042DB 53                              	PUSH	EBX
  6634 000042DC 53                              	PUSH	EBX
  6635 000042DD 53                              	PUSH	EBX
  6636 000042DE                                 L1140:
  6637 000042DE 83 3D [00001DB0] 00             	CMP	DWORD [_counter],0
  6638 000042E5 75 15                           	JNE	L1142
  6639 000042E7                                 L1134:
  6640 000042E7 E8 [00000000]                   	CALL	_task_now
  6641 000042EC 83 3D [00001DB0] 00             	CMP	DWORD [_counter],0
  6642 000042F3 C7 40 04 00000002               	MOV	DWORD [4+EAX],2
  6643 000042FA 74 EB                           	JE	L1134
  6644 000042FC                                 L1142:
  6645 000042FC B8 [00001DA0]                   	MOV	EAX,_flag
  6646 00004301 8B 35 [00001D9C]                	MOV	ESI,DWORD [_consumer]
  6647 00004307 8B 15 [00001D98]                	MOV	EDX,DWORD [_producer]
  6648 0000430D C7 04 B0 00000001               	MOV	DWORD [EAX+ESI*4],1
  6649 00004314 89 15 [00002608]                	MOV	DWORD [_turn],EDX
  6650 0000431A 83 3C 90 01                     	CMP	DWORD [EAX+EDX*4],1
  6651 0000431E 74 54                           	JE	L1145
  6652 00004320                                 L1136:
  6653 00004320 8B 0D [00001DAC]                	MOV	ECX,DWORD [_out]
  6654 00004326 BA 00000064                     	MOV	EDX,100
  6655 0000432B 89 D3                           	MOV	EBX,EDX
  6656 0000432D FF 0D [00001DB0]                	DEC	DWORD [_counter]
  6657 00004333 8B 04 8D [00002610]             	MOV	EAX,DWORD [_buffer+ECX*4]
  6658 0000433A 41                              	INC	ECX
  6659 0000433B 89 45 EC                        	MOV	DWORD [-20+EBP],EAX
  6660 0000433E 89 C8                           	MOV	EAX,ECX
  6661 00004340 99                              	CDQ
  6662 00004341 F7 FB                           	IDIV	EBX
  6663 00004343 FF 75 EC                        	PUSH	DWORD [-20+EBP]
  6664 00004346 51                              	PUSH	ECX
  6665 00004347 89 15 [00001DAC]                	MOV	DWORD [_out],EDX
  6666 0000434D 68 [00001DD1]                   	PUSH	LC167
  6667 00004352 57                              	PUSH	EDI
  6668 00004353 C7 04 B5 [00001DA0] 00000000    	MOV	DWORD [_flag+ESI*4],0
  6669 0000435E E8 [00000000]                   	CALL	_sprintf
  6670 00004363 57                              	PUSH	EDI
  6671 00004364 FF 75 08                        	PUSH	DWORD [8+EBP]
  6672 00004367 E8 FFFFC6BC                     	CALL	_cons_putstr0
  6673 0000436C 83 C4 18                        	ADD	ESP,24
  6674 0000436F E9 FFFFFF6A                     	JMP	L1140
  6675 00004374                                 L1145:
  6676 00004374 A1 [00001DB4]                   	MOV	EAX,DWORD [_xnum]
  6677 00004379 89 D1                           	MOV	ECX,EDX
  6678 0000437B                                 L1139:
  6679 0000437B 40                              	INC	EAX
  6680 0000437C 83 3C 95 [00001DA0] 01          	CMP	DWORD [_flag+EDX*4],1
  6681 00004384 75 04                           	JNE	L1144
  6682 00004386 39 D1                           	CMP	ECX,EDX
  6683 00004388 74 F1                           	JE	L1139
  6684 0000438A                                 L1144:
  6685 0000438A A3 [00001DB4]                   	MOV	DWORD [_xnum],EAX
  6686 0000438F EB 8F                           	JMP	L1136
  6687 00004391                                 	GLOBAL	_entrance
  6688 00004391                                 _entrance:
  6689 00004391 55                              	PUSH	EBP
  6690 00004392 89 E5                           	MOV	EBP,ESP
  6691 00004394 53                              	PUSH	EBX
  6692 00004395 8B 5D 08                        	MOV	EBX,DWORD [8+EBP]
  6693 00004398 83 FB 01                        	CMP	EBX,1
  6694 0000439B 74 47                           	JE	L1163
  6695 0000439D                                 L1147:
  6696 0000439D 85 DB                           	TEST	EBX,EBX
  6697 0000439F 75 21                           	JNE	L1146
  6698 000043A1 BA [00001DA0]                   	MOV	EDX,_flag
  6699 000043A6 A1 [00001D98]                   	MOV	EAX,DWORD [_producer]
  6700 000043AB C7 04 82 00000001               	MOV	DWORD [EDX+EAX*4],1
  6701 000043B2 A1 [00001D9C]                   	MOV	EAX,DWORD [_consumer]
  6702 000043B7 A3 [00002608]                   	MOV	DWORD [_turn],EAX
  6703 000043BC 83 3C 82 01                     	CMP	DWORD [EDX+EAX*4],1
  6704 000043C0 74 03                           	JE	L1164
  6705 000043C2                                 L1146:
  6706 000043C2 5B                              	POP	EBX
  6707 000043C3 5D                              	POP	EBP
  6708 000043C4 C3                              	RET
  6709 000043C5                                 L1164:
  6710 000043C5 8B 15 [00001DB4]                	MOV	EDX,DWORD [_xnum]
  6711 000043CB 89 C1                           	MOV	ECX,EAX
  6712 000043CD                                 L1158:
  6713 000043CD 42                              	INC	EDX
  6714 000043CE 83 3C 85 [00001DA0] 01          	CMP	DWORD [_flag+EAX*4],1
  6715 000043D6 75 04                           	JNE	L1161
  6716 000043D8 39 C1                           	CMP	ECX,EAX
  6717 000043DA 74 F1                           	JE	L1158
  6718 000043DC                                 L1161:
  6719 000043DC 89 15 [00001DB4]                	MOV	DWORD [_xnum],EDX
  6720 000043E2 EB DE                           	JMP	L1146
  6721 000043E4                                 L1163:
  6722 000043E4 BA [00001DA0]                   	MOV	EDX,_flag
  6723 000043E9 A1 [00001D9C]                   	MOV	EAX,DWORD [_consumer]
  6724 000043EE C7 04 82 00000001               	MOV	DWORD [EDX+EAX*4],1
  6725 000043F5 A1 [00001D98]                   	MOV	EAX,DWORD [_producer]
  6726 000043FA A3 [00002608]                   	MOV	DWORD [_turn],EAX
  6727 000043FF 83 3C 82 01                     	CMP	DWORD [EDX+EAX*4],1
  6728 00004403 75 98                           	JNE	L1147
  6729 00004405 8B 15 [00001DB4]                	MOV	EDX,DWORD [_xnum]
  6730 0000440B 89 C1                           	MOV	ECX,EAX
  6731 0000440D                                 L1152:
  6732 0000440D 42                              	INC	EDX
  6733 0000440E 83 3C 85 [00001DA0] 01          	CMP	DWORD [_flag+EAX*4],1
  6734 00004416 75 04                           	JNE	L1162
  6735 00004418 39 C1                           	CMP	ECX,EAX
  6736 0000441A 74 F1                           	JE	L1152
  6737 0000441C                                 L1162:
  6738 0000441C 89 15 [00001DB4]                	MOV	DWORD [_xnum],EDX
  6739 00004422 E9 FFFFFF76                     	JMP	L1147
  6740 00004427                                 	GLOBAL	_exiting
  6741 00004427                                 _exiting:
  6742 00004427 55                              	PUSH	EBP
  6743 00004428 89 E5                           	MOV	EBP,ESP
  6744 0000442A 8B 55 08                        	MOV	EDX,DWORD [8+EBP]
  6745 0000442D 83 FA 01                        	CMP	EDX,1
  6746 00004430 74 16                           	JE	L1168
  6747 00004432                                 L1166:
  6748 00004432 85 D2                           	TEST	EDX,EDX
  6749 00004434 75 10                           	JNE	L1165
  6750 00004436 A1 [00001D98]                   	MOV	EAX,DWORD [_producer]
  6751 0000443B C7 04 85 [00001DA0] 00000000    	MOV	DWORD [_flag+EAX*4],0
  6752 00004446                                 L1165:
  6753 00004446 5D                              	POP	EBP
  6754 00004447 C3                              	RET
  6755 00004448                                 L1168:
  6756 00004448 A1 [00001D9C]                   	MOV	EAX,DWORD [_consumer]
  6757 0000444D C7 04 85 [00001DA0] 00000000    	MOV	DWORD [_flag+EAX*4],0
  6758 00004458 EB D8                           	JMP	L1166
  6759 0000445A                                 _my_do_rand:
  6760 0000445A 55                              	PUSH	EBP
  6761 0000445B BA 0001F31D                     	MOV	EDX,127773
  6762 00004460 89 E5                           	MOV	EBP,ESP
  6763 00004462 53                              	PUSH	EBX
  6764 00004463 89 D3                           	MOV	EBX,EDX
  6765 00004465 31 D2                           	XOR	EDX,EDX
  6766 00004467 8B 4D 08                        	MOV	ECX,DWORD [8+EBP]
  6767 0000446A 8B 01                           	MOV	EAX,DWORD [ECX]
  6768 0000446C F7 F3                           	DIV	EBX
  6769 0000446E 69 D2 000041A7                  	IMUL	EDX,EDX,16807
  6770 00004474 69 C0 00000B14                  	IMUL	EAX,EAX,2836
  6771 0000447A 29 C2                           	SUB	EDX,EAX
  6772 0000447C 85 D2                           	TEST	EDX,EDX
  6773 0000447E 7E 0D                           	JLE	L1171
  6774 00004480                                 L1170:
  6775 00004480 89 11                           	MOV	DWORD [ECX],EDX
  6776 00004482 81 E2 7FFFFFFF                  	AND	EDX,2147483647
  6777 00004488 5B                              	POP	EBX
  6778 00004489 89 D0                           	MOV	EAX,EDX
  6779 0000448B 5D                              	POP	EBP
  6780 0000448C C3                              	RET
  6781 0000448D                                 L1171:
  6782 0000448D 81 C2 7FFFFFFF                  	ADD	EDX,2147483647
  6783 00004493 EB EB                           	JMP	L1170
  6784                                          [SECTION .data]
  6785 00001DEA 00 00                           	ALIGNB	4
  6786 00001DEC                                 _next:
  6787 00001DEC 00000001                        	DD	1
  6788                                          [SECTION .text]
  6789 00004495                                 	GLOBAL	_my_rand
  6790 00004495                                 _my_rand:
  6791 00004495 55                              	PUSH	EBP
  6792 00004496 89 E5                           	MOV	EBP,ESP
  6793 00004498 68 [00001DEC]                   	PUSH	_next
  6794 0000449D E8 FFFFFFB8                     	CALL	_my_do_rand
  6795 000044A2 C9                              	LEAVE
  6796 000044A3 C3                              	RET
  6797 000044A4                                 	GLOBAL	_log
  6798                                          [SECTION .data]
  6799 00001DF0                                 	ALIGNB	4
  6800 00001DF0                                 _log:
  6801 00001DF0 00 00 00 00                     	RESB	4
  6802 00001DF4                                 	GLOBAL	_cmdhis
  6803                                          [SECTION .data]
  6804 00001DF4 00 00 00 00 00 00 00 00 00 00   	ALIGNB	16
       00001DFE 00 00 
  6805 00001E00                                 _cmdhis:
  6806 00001E00 00 00 00 00 00 00 00 00 00 00   	RESB	28
       00001E0A 00 00 00 00 00 00 00 00 00 00 
       00001E14 00 00 00 00 00 00 00 00 
  6807 00001E1C                                 	GLOBAL	_cmd_buf
  6808                                          [SECTION .data]
  6809 00001E1C 00 00 00 00                     	ALIGNB	16
  6810 00001E20                                 _cmd_buf:
  6811 00001E20 00 00 00 00 00 00 00 00 00 00   	RESB	1024
       00001E2A 00 00 00 00 00 00 00 00 00 00 
       00001E34 00 00 00 00 00 00 00 00 00 00 
       00001E3E 00 00 00 00 00 00 00 00 00 00 
       00001E48 00 00 00 00 00 00 00 00 00 00 
       00001E52 00 00 00 00 00 00 00 00 00 00 
       00001E5C 00 00 00 00 00 00 00 00 00 00 
       00001E66 00 00 00 00 00 00 00 00 00 00 
       00001E70 00 00 00 00 00 00 00 00 00 00 
       00001E7A 00 00 00 00 00 00 00 00 00 00 
       00001E84 00 00 00 00 00 00 00 00 00 00 
       00001E8E 00 00 00 00 00 00 00 00 00 00 
       00001E98 00 00 00 00 00 00 00 00 00 00 
       00001EA2 00 00 00 00 00 00 00 00 00 00 
       00001EAC 00 00 00 00 00 00 00 00 00 00 
       00001EB6 00 00 00 00 00 00 00 00 00 00 
       00001EC0 00 00 00 00 00 00 00 00 00 00 
       00001ECA 00 00 00 00 00 00 00 00 00 00 
       00001ED4 00 00 00 00 00 00 00 00 00 00 
       00001EDE 00 00 00 00 00 00 00 00 00 00 
       00001EE8 00 00 00 00 00 00 00 00 00 00 
       00001EF2 00 00 00 00 00 00 00 00 00 00 
       00001EFC 00 00 00 00 00 00 00 00 00 00 
       00001F06 00 00 00 00 00 00 00 00 00 00 
       00001F10 00 00 00 00 00 00 00 00 00 00 
       00001F1A 00 00 00 00 00 00 00 00 00 00 
       00001F24 00 00 00 00 00 00 00 00 00 00 
       00001F2E 00 00 00 00 00 00 00 00 00 00 
       00001F38 00 00 00 00 00 00 00 00 00 00 
       00001F42 00 00 00 00 00 00 00 00 00 00 
       00001F4C 00 00 00 00 00 00 00 00 00 00 
       00001F56 00 00 00 00 00 00 00 00 00 00 
       00001F60 00 00 00 00 00 00 00 00 00 00 
       00001F6A 00 00 00 00 00 00 00 00 00 00 
       00001F74 00 00 00 00 00 00 00 00 00 00 
       00001F7E 00 00 00 00 00 00 00 00 00 00 
       00001F88 00 00 00 00 00 00 00 00 00 00 
       00001F92 00 00 00 00 00 00 00 00 00 00 
       00001F9C 00 00 00 00 00 00 00 00 00 00 
       00001FA6 00 00 00 00 00 00 00 00 00 00 
       00001FB0 00 00 00 00 00 00 00 00 00 00 
       00001FBA 00 00 00 00 00 00 00 00 00 00 
       00001FC4 00 00 00 00 00 00 00 00 00 00 
       00001FCE 00 00 00 00 00 00 00 00 00 00 
       00001FD8 00 00 00 00 00 00 00 00 00 00 
       00001FE2 00 00 00 00 00 00 00 00 00 00 
       00001FEC 00 00 00 00 00 00 00 00 00 00 
       00001FF6 00 00 00 00 00 00 00 00 00 00 
       00002000 00 00 00 00 00 00 00 00 00 00 
       0000200A 00 00 00 00 00 00 00 00 00 00 
       00002014 00 00 00 00 00 00 00 00 00 00 
       0000201E 00 00 00 00 00 00 00 00 00 00 
       00002028 00 00 00 00 00 00 00 00 00 00 
       00002032 00 00 00 00 00 00 00 00 00 00 
       0000203C 00 00 00 00 00 00 00 00 00 00 
       00002046 00 00 00 00 00 00 00 00 00 00 
       00002050 00 00 00 00 00 00 00 00 00 00 
       0000205A 00 00 00 00 00 00 00 00 00 00 
       00002064 00 00 00 00 00 00 00 00 00 00 
       0000206E 00 00 00 00 00 00 00 00 00 00 
       00002078 00 00 00 00 00 00 00 00 00 00 
       00002082 00 00 00 00 00 00 00 00 00 00 
       0000208C 00 00 00 00 00 00 00 00 00 00 
       00002096 00 00 00 00 00 00 00 00 00 00 
       000020A0 00 00 00 00 00 00 00 00 00 00 
       000020AA 00 00 00 00 00 00 00 00 00 00 
       000020B4 00 00 00 00 00 00 00 00 00 00 
       000020BE 00 00 00 00 00 00 00 00 00 00 
       000020C8 00 00 00 00 00 00 00 00 00 00 
       000020D2 00 00 00 00 00 00 00 00 00 00 
       000020DC 00 00 00 00 00 00 00 00 00 00 
       000020E6 00 00 00 00 00 00 00 00 00 00 
       000020F0 00 00 00 00 00 00 00 00 00 00 
       000020FA 00 00 00 00 00 00 00 00 00 00 
       00002104 00 00 00 00 00 00 00 00 00 00 
       0000210E 00 00 00 00 00 00 00 00 00 00 
       00002118 00 00 00 00 00 00 00 00 00 00 
       00002122 00 00 00 00 00 00 00 00 00 00 
       0000212C 00 00 00 00 00 00 00 00 00 00 
       00002136 00 00 00 00 00 00 00 00 00 00 
       00002140 00 00 00 00 00 00 00 00 00 00 
       0000214A 00 00 00 00 00 00 00 00 00 00 
       00002154 00 00 00 00 00 00 00 00 00 00 
       0000215E 00 00 00 00 00 00 00 00 00 00 
       00002168 00 00 00 00 00 00 00 00 00 00 
       00002172 00 00 00 00 00 00 00 00 00 00 
       0000217C 00 00 00 00 00 00 00 00 00 00 
       00002186 00 00 00 00 00 00 00 00 00 00 
       00002190 00 00 00 00 00 00 00 00 00 00 
       0000219A 00 00 00 00 00 00 00 00 00 00 
       000021A4 00 00 00 00 00 00 00 00 00 00 
       000021AE 00 00 00 00 00 00 00 00 00 00 
       000021B8 00 00 00 00 00 00 00 00 00 00 
       000021C2 00 00 00 00 00 00 00 00 00 00 
       000021CC 00 00 00 00 00 00 00 00 00 00 
       000021D6 00 00 00 00 00 00 00 00 00 00 
       000021E0 00 00 00 00 00 00 00 00 00 00 
       000021EA 00 00 00 00 00 00 00 00 00 00 
       000021F4 00 00 00 00 00 00 00 00 00 00 
       000021FE 00 00 00 00 00 00 00 00 00 00 
       00002208 00 00 00 00 00 00 00 00 00 00 
       00002212 00 00 00 00 00 00 00 00 00 00 
       0000221C 00 00 00 00 
  6812 00002220                                 	GLOBAL	_s
  6813                                          [SECTION .data]
  6814 00002220                                 	ALIGNB	16
  6815 00002220                                 _s:
  6816 00002220 00 00 00 00 00 00 00 00 00 00   	RESB	100
       0000222A 00 00 00 00 00 00 00 00 00 00 
       00002234 00 00 00 00 00 00 00 00 00 00 
       0000223E 00 00 00 00 00 00 00 00 00 00 
       00002248 00 00 00 00 00 00 00 00 00 00 
       00002252 00 00 00 00 00 00 00 00 00 00 
       0000225C 00 00 00 00 00 00 00 00 00 00 
       00002266 00 00 00 00 00 00 00 00 00 00 
       00002270 00 00 00 00 00 00 00 00 00 00 
       0000227A 00 00 00 00 00 00 00 00 00 00 
  6817 00002284                                 	GLOBAL	_gdt_addr
  6818                                          [SECTION .data]
  6819 00002284                                 	ALIGNB	4
  6820 00002284                                 _gdt_addr:
  6821 00002284 00 00 00 00                     	RESB	4
  6822 00002288                                 	GLOBAL	_ldt_addr_offset
  6823                                          [SECTION .data]
  6824 00002288                                 	ALIGNB	4
  6825 00002288                                 _ldt_addr_offset:
  6826 00002288 00 00 00 00                     	RESB	4
  6827 0000228C                                 	GLOBAL	_temp
  6828                                          [SECTION .data]
  6829 0000228C 00 00 00 00                     	ALIGNB	8
  6830 00002290                                 _temp:
  6831 00002290 00 00 00 00 00 00 00 00         	RESB	8
  6832 00002298                                 	GLOBAL	_ldt_addr
  6833                                          [SECTION .data]
  6834 00002298                                 	ALIGNB	4
  6835 00002298                                 _ldt_addr:
  6836 00002298 00 00 00 00                     	RESB	4
  6837 0000229C                                 	GLOBAL	_phy_addr
  6838                                          [SECTION .data]
  6839 0000229C                                 	ALIGNB	4
  6840 0000229C                                 _phy_addr:
  6841 0000229C 00 00 00 00                     	RESB	4
  6842 000022A0                                 	GLOBAL	_gdt
  6843                                          [SECTION .data]
  6844 000022A0                                 	ALIGNB	4
  6845 000022A0                                 _gdt:
  6846 000022A0 00 00 00 00                     	RESB	4
  6847 000022A4                                 	GLOBAL	_ldt_index
  6848                                          [SECTION .data]
  6849 000022A4                                 	ALIGNB	4
  6850 000022A4                                 _ldt_index:
  6851 000022A4 00 00 00 00                     	RESB	4
  6852 000022A8                                 	GLOBAL	_ldt_des
  6853                                          [SECTION .data]
  6854 000022A8                                 	ALIGNB	4
  6855 000022A8                                 _ldt_des:
  6856 000022A8 00 00 00 00                     	RESB	4
  6857 000022AC                                 	GLOBAL	_ds_index
  6858                                          [SECTION .data]
  6859 000022AC                                 	ALIGNB	4
  6860 000022AC                                 _ds_index:
  6861 000022AC 00 00 00 00                     	RESB	4
  6862 000022B0                                 	GLOBAL	_ds_des
  6863                                          [SECTION .data]
  6864 000022B0                                 	ALIGNB	4
  6865 000022B0                                 _ds_des:
  6866 000022B0 00 00 00 00                     	RESB	4
  6867 000022B4                                 	GLOBAL	_ds_addr
  6868                                          [SECTION .data]
  6869 000022B4                                 	ALIGNB	4
  6870 000022B4                                 _ds_addr:
  6871 000022B4 00 00 00 00                     	RESB	4
  6872 000022B8                                 	GLOBAL	_addrlist
  6873                                          [SECTION .data]
  6874 000022B8 00 00 00 00 00 00 00 00         	ALIGNB	16
  6875 000022C0                                 _addrlist:
  6876 000022C0 00 00 00 00 00 00 00 00 00 00   	RESB	400
       000022CA 00 00 00 00 00 00 00 00 00 00 
       000022D4 00 00 00 00 00 00 00 00 00 00 
       000022DE 00 00 00 00 00 00 00 00 00 00 
       000022E8 00 00 00 00 00 00 00 00 00 00 
       000022F2 00 00 00 00 00 00 00 00 00 00 
       000022FC 00 00 00 00 00 00 00 00 00 00 
       00002306 00 00 00 00 00 00 00 00 00 00 
       00002310 00 00 00 00 00 00 00 00 00 00 
       0000231A 00 00 00 00 00 00 00 00 00 00 
       00002324 00 00 00 00 00 00 00 00 00 00 
       0000232E 00 00 00 00 00 00 00 00 00 00 
       00002338 00 00 00 00 00 00 00 00 00 00 
       00002342 00 00 00 00 00 00 00 00 00 00 
       0000234C 00 00 00 00 00 00 00 00 00 00 
       00002356 00 00 00 00 00 00 00 00 00 00 
       00002360 00 00 00 00 00 00 00 00 00 00 
       0000236A 00 00 00 00 00 00 00 00 00 00 
       00002374 00 00 00 00 00 00 00 00 00 00 
       0000237E 00 00 00 00 00 00 00 00 00 00 
       00002388 00 00 00 00 00 00 00 00 00 00 
       00002392 00 00 00 00 00 00 00 00 00 00 
       0000239C 00 00 00 00 00 00 00 00 00 00 
       000023A6 00 00 00 00 00 00 00 00 00 00 
       000023B0 00 00 00 00 00 00 00 00 00 00 
       000023BA 00 00 00 00 00 00 00 00 00 00 
       000023C4 00 00 00 00 00 00 00 00 00 00 
       000023CE 00 00 00 00 00 00 00 00 00 00 
       000023D8 00 00 00 00 00 00 00 00 00 00 
       000023E2 00 00 00 00 00 00 00 00 00 00 
       000023EC 00 00 00 00 00 00 00 00 00 00 
       000023F6 00 00 00 00 00 00 00 00 00 00 
       00002400 00 00 00 00 00 00 00 00 00 00 
       0000240A 00 00 00 00 00 00 00 00 00 00 
       00002414 00 00 00 00 00 00 00 00 00 00 
       0000241E 00 00 00 00 00 00 00 00 00 00 
       00002428 00 00 00 00 00 00 00 00 00 00 
       00002432 00 00 00 00 00 00 00 00 00 00 
       0000243C 00 00 00 00 00 00 00 00 00 00 
       00002446 00 00 00 00 00 00 00 00 00 00 
  6877 00002450                                 	GLOBAL	_sizelist
  6878                                          [SECTION .data]
  6879 00002450                                 	ALIGNB	16
  6880 00002450                                 _sizelist:
  6881 00002450 00 00 00 00 00 00 00 00 00 00   	RESB	400
       0000245A 00 00 00 00 00 00 00 00 00 00 
       00002464 00 00 00 00 00 00 00 00 00 00 
       0000246E 00 00 00 00 00 00 00 00 00 00 
       00002478 00 00 00 00 00 00 00 00 00 00 
       00002482 00 00 00 00 00 00 00 00 00 00 
       0000248C 00 00 00 00 00 00 00 00 00 00 
       00002496 00 00 00 00 00 00 00 00 00 00 
       000024A0 00 00 00 00 00 00 00 00 00 00 
       000024AA 00 00 00 00 00 00 00 00 00 00 
       000024B4 00 00 00 00 00 00 00 00 00 00 
       000024BE 00 00 00 00 00 00 00 00 00 00 
       000024C8 00 00 00 00 00 00 00 00 00 00 
       000024D2 00 00 00 00 00 00 00 00 00 00 
       000024DC 00 00 00 00 00 00 00 00 00 00 
       000024E6 00 00 00 00 00 00 00 00 00 00 
       000024F0 00 00 00 00 00 00 00 00 00 00 
       000024FA 00 00 00 00 00 00 00 00 00 00 
       00002504 00 00 00 00 00 00 00 00 00 00 
       0000250E 00 00 00 00 00 00 00 00 00 00 
       00002518 00 00 00 00 00 00 00 00 00 00 
       00002522 00 00 00 00 00 00 00 00 00 00 
       0000252C 00 00 00 00 00 00 00 00 00 00 
       00002536 00 00 00 00 00 00 00 00 00 00 
       00002540 00 00 00 00 00 00 00 00 00 00 
       0000254A 00 00 00 00 00 00 00 00 00 00 
       00002554 00 00 00 00 00 00 00 00 00 00 
       0000255E 00 00 00 00 00 00 00 00 00 00 
       00002568 00 00 00 00 00 00 00 00 00 00 
       00002572 00 00 00 00 00 00 00 00 00 00 
       0000257C 00 00 00 00 00 00 00 00 00 00 
       00002586 00 00 00 00 00 00 00 00 00 00 
       00002590 00 00 00 00 00 00 00 00 00 00 
       0000259A 00 00 00 00 00 00 00 00 00 00 
       000025A4 00 00 00 00 00 00 00 00 00 00 
       000025AE 00 00 00 00 00 00 00 00 00 00 
       000025B8 00 00 00 00 00 00 00 00 00 00 
       000025C2 00 00 00 00 00 00 00 00 00 00 
       000025CC 00 00 00 00 00 00 00 00 00 00 
       000025D6 00 00 00 00 00 00 00 00 00 00 
  6882 000025E0                                 	GLOBAL	_mutex
  6883                                          [SECTION .data]
  6884 000025E0                                 	ALIGNB	8
  6885 000025E0                                 _mutex:
  6886 000025E0 00 00 00 00 00 00 00 00 00 00   	RESB	12
       000025EA 00 00 
  6887 000025EC                                 	GLOBAL	_wrt
  6888                                          [SECTION .data]
  6889 000025EC 00 00 00 00                     	ALIGNB	8
  6890 000025F0                                 _wrt:
  6891 000025F0 00 00 00 00 00 00 00 00 00 00   	RESB	12
       000025FA 00 00 
  6892 000025FC                                 	GLOBAL	_readcount
  6893                                          [SECTION .data]
  6894 000025FC                                 	ALIGNB	4
  6895 000025FC                                 _readcount:
  6896 000025FC 00 00 00 00                     	RESB	4
  6897 00002600                                 	GLOBAL	_share_bupt
  6898                                          [SECTION .data]
  6899 00002600                                 	ALIGNB	4
  6900 00002600                                 _share_bupt:
  6901 00002600 00 00 00 00                     	RESB	4
  6902 00002604                                 	GLOBAL	_cp
  6903                                          [SECTION .data]
  6904 00002604                                 	ALIGNB	4
  6905 00002604                                 _cp:
  6906 00002604 00 00 00 00                     	RESB	4
  6907 00002608                                 	GLOBAL	_turn
  6908                                          [SECTION .data]
  6909 00002608                                 	ALIGNB	4
  6910 00002608                                 _turn:
  6911 00002608 00 00 00 00                     	RESB	4
  6912 0000260C                                 	GLOBAL	_buffer
  6913                                          [SECTION .data]
  6914 0000260C 00 00 00 00                     	ALIGNB	16
  6915 00002610                                 _buffer:
  6916 00002610 00 00 00 00 00 00 00 00 00 00   	RESB	400
       0000261A 00 00 00 00 00 00 00 00 00 00 
       00002624 00 00 00 00 00 00 00 00 00 00 
       0000262E 00 00 00 00 00 00 00 00 00 00 
       00002638 00 00 00 00 00 00 00 00 00 00 
       00002642 00 00 00 00 00 00 00 00 00 00 
       0000264C 00 00 00 00 00 00 00 00 00 00 
       00002656 00 00 00 00 00 00 00 00 00 00 
       00002660 00 00 00 00 00 00 00 00 00 00 
       0000266A 00 00 00 00 00 00 00 00 00 00 
       00002674 00 00 00 00 00 00 00 00 00 00 
       0000267E 00 00 00 00 00 00 00 00 00 00 
       00002688 00 00 00 00 00 00 00 00 00 00 
       00002692 00 00 00 00 00 00 00 00 00 00 
       0000269C 00 00 00 00 00 00 00 00 00 00 
       000026A6 00 00 00 00 00 00 00 00 00 00 
       000026B0 00 00 00 00 00 00 00 00 00 00 
       000026BA 00 00 00 00 00 00 00 00 00 00 
       000026C4 00 00 00 00 00 00 00 00 00 00 
       000026CE 00 00 00 00 00 00 00 00 00 00 
       000026D8 00 00 00 00 00 00 00 00 00 00 
       000026E2 00 00 00 00 00 00 00 00 00 00 
       000026EC 00 00 00 00 00 00 00 00 00 00 
       000026F6 00 00 00 00 00 00 00 00 00 00 
       00002700 00 00 00 00 00 00 00 00 00 00 
       0000270A 00 00 00 00 00 00 00 00 00 00 
       00002714 00 00 00 00 00 00 00 00 00 00 
       0000271E 00 00 00 00 00 00 00 00 00 00 
       00002728 00 00 00 00 00 00 00 00 00 00 
       00002732 00 00 00 00 00 00 00 00 00 00 
       0000273C 00 00 00 00 00 00 00 00 00 00 
       00002746 00 00 00 00 00 00 00 00 00 00 
       00002750 00 00 00 00 00 00 00 00 00 00 
       0000275A 00 00 00 00 00 00 00 00 00 00 
       00002764 00 00 00 00 00 00 00 00 00 00 
       0000276E 00 00 00 00 00 00 00 00 00 00 
       00002778 00 00 00 00 00 00 00 00 00 00 
       00002782 00 00 00 00 00 00 00 00 00 00 
       0000278C 00 00 00 00 00 00 00 00 00 00 
       00002796 00 00 00 00 00 00 00 00 00 00 
