     1 00000000                                 [FORMAT "WCOFF"]
     2 00000000                                 [INSTRSET "i486p"]
     3 00000000                                 [OPTIMIZE 1]
     4 00000000                                 [OPTION 1]
     5 00000000                                 [BITS 32]
     6 00000000                                 	EXTERN	_table_rgb.0
     7 00000000                                 	EXTERN	_io_load_eflags
     8 00000000                                 	EXTERN	_io_cli
     9 00000000                                 	EXTERN	_io_out8
    10 00000000                                 	EXTERN	_io_store_eflags
    11 00000000                                 	EXTERN	_memman_alloc_4k
    12 00000000                                 	EXTERN	_file_readfat
    13 00000000                                 	EXTERN	_file_search
    14 00000000                                 	EXTERN	_file_loadfile2
    15 00000000                                 	EXTERN	_info_JPEG
    16 00000000                                 	EXTERN	_decode0_JPEG
    17 00000000                                 	EXTERN	_memman_free_4k
    18 00000000                                 	EXTERN	_task_now
    19 00000000                                 	EXTERN	_hankaku
    20 00000000                                 [FILE "graphic.c"]
    21                                          [SECTION .data]
    22 00000000                                 _table_rgb.0:
    23 00000000 00                              	DB	0
    24 00000001 00                              	DB	0
    25 00000002 00                              	DB	0
    26 00000003 FF                              	DB	-1
    27 00000004 00                              	DB	0
    28 00000005 00                              	DB	0
    29 00000006 00                              	DB	0
    30 00000007 FF                              	DB	-1
    31 00000008 00                              	DB	0
    32 00000009 FF                              	DB	-1
    33 0000000A CC                              	DB	-52
    34 0000000B 33                              	DB	51
    35 0000000C 00                              	DB	0
    36 0000000D 00                              	DB	0
    37 0000000E FF                              	DB	-1
    38 0000000F FF                              	DB	-1
    39 00000010 00                              	DB	0
    40 00000011 FF                              	DB	-1
    41 00000012 00                              	DB	0
    42 00000013 FF                              	DB	-1
    43 00000014 FF                              	DB	-1
    44 00000015 FF                              	DB	-1
    45 00000016 FF                              	DB	-1
    46 00000017 FF                              	DB	-1
    47 00000018 C6                              	DB	-58
    48 00000019 C6                              	DB	-58
    49 0000001A C6                              	DB	-58
    50 0000001B 42                              	DB	66
    51 0000001C 73                              	DB	115
    52 0000001D BF                              	DB	-65
    53 0000001E 00                              	DB	0
    54 0000001F 84                              	DB	-124
    55 00000020 00                              	DB	0
    56 00000021 84                              	DB	-124
    57 00000022 84                              	DB	-124
    58 00000023 00                              	DB	0
    59 00000024 00                              	DB	0
    60 00000025 00                              	DB	0
    61 00000026 84                              	DB	-124
    62 00000027 84                              	DB	-124
    63 00000028 00                              	DB	0
    64 00000029 84                              	DB	-124
    65 0000002A 00                              	DB	0
    66 0000002B 84                              	DB	-124
    67 0000002C 84                              	DB	-124
    68 0000002D 84                              	DB	-124
    69 0000002E 84                              	DB	-124
    70 0000002F 84                              	DB	-124
    71 00000030 FD                              	DB	-3
    72 00000031 5B                              	DB	91
    73 00000032 46                              	DB	70
    74 00000033 43                              	DB	67
    75 00000034 73                              	DB	115
    76 00000035 BF                              	DB	-65
    77                                          [SECTION .text]
    78 00000000                                 	GLOBAL	_init_palette
    79 00000000                                 _init_palette:
    80 00000000 55                              	PUSH	EBP
    81 00000001 89 E5                           	MOV	EBP,ESP
    82 00000003 57                              	PUSH	EDI
    83 00000004 56                              	PUSH	ESI
    84 00000005 53                              	PUSH	EBX
    85 00000006 81 EC 000002A4                  	SUB	ESP,676
    86 0000000C 68 [00000000]                   	PUSH	_table_rgb.0
    87 00000011 6A 11                           	PUSH	17
    88 00000013 6A 00                           	PUSH	0
    89 00000015 E8 000000B4                     	CALL	_set_palette
    90 0000001A 83 C4 0C                        	ADD	ESP,12
    91 0000001D C7 85 FFFFFD60 00000000         	MOV	DWORD [-672+EBP],0
    92 00000027 C7 85 FFFFFD5C 00000000         	MOV	DWORD [-676+EBP],0
    93 00000031 C7 85 FFFFFD58 00000000         	MOV	DWORD [-680+EBP],0
    94 0000003B                                 L16:
    95 0000003B 31 FF                           	XOR	EDI,EDI
    96 0000003D 31 F6                           	XOR	ESI,ESI
    97 0000003F 31 DB                           	XOR	EBX,EBX
    98 00000041                                 L15:
    99 00000041 31 D2                           	XOR	EDX,EDX
   100 00000043 C7 85 FFFFFD50 00000000         	MOV	DWORD [-688+EBP],0
   101 0000004D                                 L14:
   102 0000004D 8B 85 FFFFFD58                  	MOV	EAX,DWORD [-680+EBP]
   103 00000053 8A 8D FFFFFD50                  	MOV	CL,BYTE [-688+EBP]
   104 00000059 01 D8                           	ADD	EAX,EBX
   105 0000005B 01 D0                           	ADD	EAX,EDX
   106 0000005D 42                              	INC	EDX
   107 0000005E 6B C0 03                        	IMUL	EAX,EAX,3
   108 00000061 88 8C 05 FFFFFD64               	MOV	BYTE [-668+EBP+EAX*1],CL
   109 00000068 89 F1                           	MOV	ECX,ESI
   110 0000006A 88 8C 05 FFFFFD65               	MOV	BYTE [-667+EBP+EAX*1],CL
   111 00000071 8A 8D FFFFFD5C                  	MOV	CL,BYTE [-676+EBP]
   112 00000077 88 8C 05 FFFFFD66               	MOV	BYTE [-666+EBP+EAX*1],CL
   113 0000007E 83 85 FFFFFD50 33               	ADD	DWORD [-688+EBP],51
   114 00000085 83 FA 05                        	CMP	EDX,5
   115 00000088 7E C3                           	JLE	L14
   116 0000008A 47                              	INC	EDI
   117 0000008B 83 C6 33                        	ADD	ESI,51
   118 0000008E 83 C3 06                        	ADD	EBX,6
   119 00000091 83 FF 05                        	CMP	EDI,5
   120 00000094 7E AB                           	JLE	L15
   121 00000096 FF 85 FFFFFD60                  	INC	DWORD [-672+EBP]
   122 0000009C 83 85 FFFFFD5C 33               	ADD	DWORD [-676+EBP],51
   123 000000A3 83 85 FFFFFD58 24               	ADD	DWORD [-680+EBP],36
   124 000000AA 83 BD FFFFFD60 05               	CMP	DWORD [-672+EBP],5
   125 000000B1 7E 88                           	JLE	L16
   126 000000B3 8D 85 FFFFFD64                  	LEA	EAX,DWORD [-668+EBP]
   127 000000B9 50                              	PUSH	EAX
   128 000000BA 68 000000E7                     	PUSH	231
   129 000000BF 6A 10                           	PUSH	16
   130 000000C1 E8 00000008                     	CALL	_set_palette
   131 000000C6 8D 65 F4                        	LEA	ESP,DWORD [-12+EBP]
   132 000000C9 5B                              	POP	EBX
   133 000000CA 5E                              	POP	ESI
   134 000000CB 5F                              	POP	EDI
   135 000000CC 5D                              	POP	EBP
   136 000000CD C3                              	RET
   137 000000CE                                 	GLOBAL	_set_palette
   138 000000CE                                 _set_palette:
   139 000000CE 55                              	PUSH	EBP
   140 000000CF 89 E5                           	MOV	EBP,ESP
   141 000000D1 57                              	PUSH	EDI
   142 000000D2 56                              	PUSH	ESI
   143 000000D3 53                              	PUSH	EBX
   144 000000D4 51                              	PUSH	ECX
   145 000000D5 8B 5D 08                        	MOV	EBX,DWORD [8+EBP]
   146 000000D8 8B 7D 0C                        	MOV	EDI,DWORD [12+EBP]
   147 000000DB 8B 75 10                        	MOV	ESI,DWORD [16+EBP]
   148 000000DE E8 [00000000]                   	CALL	_io_load_eflags
   149 000000E3 89 45 F0                        	MOV	DWORD [-16+EBP],EAX
   150 000000E6 E8 [00000000]                   	CALL	_io_cli
   151 000000EB 53                              	PUSH	EBX
   152 000000EC 68 000003C8                     	PUSH	968
   153 000000F1 E8 [00000000]                   	CALL	_io_out8
   154 000000F6 39 FB                           	CMP	EBX,EDI
   155 000000F8 58                              	POP	EAX
   156 000000F9 5A                              	POP	EDX
   157 000000FA 7E 12                           	JLE	L28
   158 000000FC                                 L30:
   159 000000FC 8B 45 F0                        	MOV	EAX,DWORD [-16+EBP]
   160 000000FF 89 45 08                        	MOV	DWORD [8+EBP],EAX
   161 00000102 8D 65 F4                        	LEA	ESP,DWORD [-12+EBP]
   162 00000105 5B                              	POP	EBX
   163 00000106 5E                              	POP	ESI
   164 00000107 5F                              	POP	EDI
   165 00000108 5D                              	POP	EBP
   166 00000109 E9 [00000000]                   	JMP	_io_store_eflags
   167 0000010E                                 L28:
   168 0000010E 8A 06                           	MOV	AL,BYTE [ESI]
   169 00000110 43                              	INC	EBX
   170 00000111 C0 E8 02                        	SHR	AL,2
   171 00000114 0F B6 C0                        	MOVZX	EAX,AL
   172 00000117 50                              	PUSH	EAX
   173 00000118 68 000003C9                     	PUSH	969
   174 0000011D E8 [00000000]                   	CALL	_io_out8
   175 00000122 8A 46 01                        	MOV	AL,BYTE [1+ESI]
   176 00000125 C0 E8 02                        	SHR	AL,2
   177 00000128 0F B6 C0                        	MOVZX	EAX,AL
   178 0000012B 50                              	PUSH	EAX
   179 0000012C 68 000003C9                     	PUSH	969
   180 00000131 E8 [00000000]                   	CALL	_io_out8
   181 00000136 8A 46 02                        	MOV	AL,BYTE [2+ESI]
   182 00000139 C0 E8 02                        	SHR	AL,2
   183 0000013C 83 C6 03                        	ADD	ESI,3
   184 0000013F 0F B6 C0                        	MOVZX	EAX,AL
   185 00000142 50                              	PUSH	EAX
   186 00000143 68 000003C9                     	PUSH	969
   187 00000148 E8 [00000000]                   	CALL	_io_out8
   188 0000014D 83 C4 18                        	ADD	ESP,24
   189 00000150 39 FB                           	CMP	EBX,EDI
   190 00000152 7E BA                           	JLE	L28
   191 00000154 EB A6                           	JMP	L30
   192 00000156                                 	GLOBAL	_boxfill8
   193 00000156                                 _boxfill8:
   194 00000156 55                              	PUSH	EBP
   195 00000157 89 E5                           	MOV	EBP,ESP
   196 00000159 57                              	PUSH	EDI
   197 0000015A 56                              	PUSH	ESI
   198 0000015B 53                              	PUSH	EBX
   199 0000015C 57                              	PUSH	EDI
   200 0000015D 57                              	PUSH	EDI
   201 0000015E 8A 45 10                        	MOV	AL,BYTE [16+EBP]
   202 00000161 8B 4D 18                        	MOV	ECX,DWORD [24+EBP]
   203 00000164 8B 7D 1C                        	MOV	EDI,DWORD [28+EBP]
   204 00000167 88 45 F3                        	MOV	BYTE [-13+EBP],AL
   205 0000016A 3B 4D 20                        	CMP	ECX,DWORD [32+EBP]
   206 0000016D 7F 31                           	JG	L43
   207 0000016F 8B 5D 0C                        	MOV	EBX,DWORD [12+EBP]
   208 00000172 0F AF D9                        	IMUL	EBX,ECX
   209 00000175                                 L41:
   210 00000175 8B 55 14                        	MOV	EDX,DWORD [20+EBP]
   211 00000178 39 FA                           	CMP	EDX,EDI
   212 0000017A 7F 1B                           	JG	L45
   213 0000017C 8B 75 08                        	MOV	ESI,DWORD [8+EBP]
   214 0000017F 01 DE                           	ADD	ESI,EBX
   215 00000181 01 D6                           	ADD	ESI,EDX
   216 00000183 89 75 EC                        	MOV	DWORD [-20+EBP],ESI
   217 00000186                                 L40:
   218 00000186 8B 75 EC                        	MOV	ESI,DWORD [-20+EBP]
   219 00000189 8A 45 F3                        	MOV	AL,BYTE [-13+EBP]
   220 0000018C 42                              	INC	EDX
   221 0000018D 88 06                           	MOV	BYTE [ESI],AL
   222 0000018F 46                              	INC	ESI
   223 00000190 89 75 EC                        	MOV	DWORD [-20+EBP],ESI
   224 00000193 39 FA                           	CMP	EDX,EDI
   225 00000195 7E EF                           	JLE	L40
   226 00000197                                 L45:
   227 00000197 41                              	INC	ECX
   228 00000198 03 5D 0C                        	ADD	EBX,DWORD [12+EBP]
   229 0000019B 3B 4D 20                        	CMP	ECX,DWORD [32+EBP]
   230 0000019E 7E D5                           	JLE	L41
   231 000001A0                                 L43:
   232 000001A0 5B                              	POP	EBX
   233 000001A1 5E                              	POP	ESI
   234 000001A2 5B                              	POP	EBX
   235 000001A3 5E                              	POP	ESI
   236 000001A4 5F                              	POP	EDI
   237 000001A5 5D                              	POP	EBP
   238 000001A6 C3                              	RET
   239 000001A7                                 	GLOBAL	_init_screen8
   240 000001A7                                 _init_screen8:
   241 000001A7 55                              	PUSH	EBP
   242 000001A8 89 E5                           	MOV	EBP,ESP
   243 000001AA 57                              	PUSH	EDI
   244 000001AB 56                              	PUSH	ESI
   245 000001AC 53                              	PUSH	EBX
   246 000001AD 83 EC 0C                        	SUB	ESP,12
   247 000001B0 8B 45 10                        	MOV	EAX,DWORD [16+EBP]
   248 000001B3 8B 7D 0C                        	MOV	EDI,DWORD [12+EBP]
   249 000001B6 83 E8 1D                        	SUB	EAX,29
   250 000001B9 4F                              	DEC	EDI
   251 000001BA 50                              	PUSH	EAX
   252 000001BB 57                              	PUSH	EDI
   253 000001BC 6A 00                           	PUSH	0
   254 000001BE 6A 00                           	PUSH	0
   255 000001C0 6A 0E                           	PUSH	14
   256 000001C2 FF 75 0C                        	PUSH	DWORD [12+EBP]
   257 000001C5 FF 75 08                        	PUSH	DWORD [8+EBP]
   258 000001C8 E8 FFFFFF89                     	CALL	_boxfill8
   259 000001CD FF 75 10                        	PUSH	DWORD [16+EBP]
   260 000001D0 FF 75 0C                        	PUSH	DWORD [12+EBP]
   261 000001D3 FF 75 08                        	PUSH	DWORD [8+EBP]
   262 000001D6 E8 00000168                     	CALL	_set_picture
   263 000001DB 8B 45 10                        	MOV	EAX,DWORD [16+EBP]
   264 000001DE 83 C4 28                        	ADD	ESP,40
   265 000001E1 83 E8 1C                        	SUB	EAX,28
   266 000001E4 50                              	PUSH	EAX
   267 000001E5 57                              	PUSH	EDI
   268 000001E6 50                              	PUSH	EAX
   269 000001E7 6A 00                           	PUSH	0
   270 000001E9 6A 08                           	PUSH	8
   271 000001EB FF 75 0C                        	PUSH	DWORD [12+EBP]
   272 000001EE FF 75 08                        	PUSH	DWORD [8+EBP]
   273 000001F1 E8 FFFFFF60                     	CALL	_boxfill8
   274 000001F6 8B 45 10                        	MOV	EAX,DWORD [16+EBP]
   275 000001F9 83 E8 1B                        	SUB	EAX,27
   276 000001FC 50                              	PUSH	EAX
   277 000001FD 57                              	PUSH	EDI
   278 000001FE 50                              	PUSH	EAX
   279 000001FF 6A 00                           	PUSH	0
   280 00000201 6A 07                           	PUSH	7
   281 00000203 FF 75 0C                        	PUSH	DWORD [12+EBP]
   282 00000206 FF 75 08                        	PUSH	DWORD [8+EBP]
   283 00000209 E8 FFFFFF48                     	CALL	_boxfill8
   284 0000020E 8B 45 10                        	MOV	EAX,DWORD [16+EBP]
   285 00000211 83 C4 38                        	ADD	ESP,56
   286 00000214 48                              	DEC	EAX
   287 00000215 50                              	PUSH	EAX
   288 00000216 8B 45 10                        	MOV	EAX,DWORD [16+EBP]
   289 00000219 57                              	PUSH	EDI
   290 0000021A 83 E8 1A                        	SUB	EAX,26
   291 0000021D 50                              	PUSH	EAX
   292 0000021E 6A 00                           	PUSH	0
   293 00000220 6A 08                           	PUSH	8
   294 00000222 FF 75 0C                        	PUSH	DWORD [12+EBP]
   295 00000225 FF 75 08                        	PUSH	DWORD [8+EBP]
   296 00000228 E8 FFFFFF29                     	CALL	_boxfill8
   297 0000022D 8B 75 10                        	MOV	ESI,DWORD [16+EBP]
   298 00000230 83 EE 18                        	SUB	ESI,24
   299 00000233 56                              	PUSH	ESI
   300 00000234 6A 3B                           	PUSH	59
   301 00000236 56                              	PUSH	ESI
   302 00000237 6A 03                           	PUSH	3
   303 00000239 6A 07                           	PUSH	7
   304 0000023B FF 75 0C                        	PUSH	DWORD [12+EBP]
   305 0000023E FF 75 08                        	PUSH	DWORD [8+EBP]
   306 00000241 E8 FFFFFF10                     	CALL	_boxfill8
   307 00000246 8B 45 10                        	MOV	EAX,DWORD [16+EBP]
   308 00000249 83 C4 38                        	ADD	ESP,56
   309 0000024C 83 E8 04                        	SUB	EAX,4
   310 0000024F 89 45 F0                        	MOV	DWORD [-16+EBP],EAX
   311 00000252 50                              	PUSH	EAX
   312 00000253 6A 02                           	PUSH	2
   313 00000255 56                              	PUSH	ESI
   314 00000256 6A 02                           	PUSH	2
   315 00000258 6A 07                           	PUSH	7
   316 0000025A FF 75 0C                        	PUSH	DWORD [12+EBP]
   317 0000025D FF 75 08                        	PUSH	DWORD [8+EBP]
   318 00000260 E8 FFFFFEF1                     	CALL	_boxfill8
   319 00000265 FF 75 F0                        	PUSH	DWORD [-16+EBP]
   320 00000268 6A 3B                           	PUSH	59
   321 0000026A FF 75 F0                        	PUSH	DWORD [-16+EBP]
   322 0000026D 6A 03                           	PUSH	3
   323 0000026F 6A 0F                           	PUSH	15
   324 00000271 FF 75 0C                        	PUSH	DWORD [12+EBP]
   325 00000274 FF 75 08                        	PUSH	DWORD [8+EBP]
   326 00000277 E8 FFFFFEDA                     	CALL	_boxfill8
   327 0000027C 8B 45 10                        	MOV	EAX,DWORD [16+EBP]
   328 0000027F 83 C4 38                        	ADD	ESP,56
   329 00000282 83 E8 05                        	SUB	EAX,5
   330 00000285 50                              	PUSH	EAX
   331 00000286 8B 45 10                        	MOV	EAX,DWORD [16+EBP]
   332 00000289 6A 3B                           	PUSH	59
   333 0000028B 83 E8 17                        	SUB	EAX,23
   334 0000028E 50                              	PUSH	EAX
   335 0000028F 89 45 EC                        	MOV	DWORD [-20+EBP],EAX
   336 00000292 6A 3B                           	PUSH	59
   337 00000294 6A 0F                           	PUSH	15
   338 00000296 FF 75 0C                        	PUSH	DWORD [12+EBP]
   339 00000299 FF 75 08                        	PUSH	DWORD [8+EBP]
   340 0000029C E8 FFFFFEB5                     	CALL	_boxfill8
   341 000002A1 8B 45 10                        	MOV	EAX,DWORD [16+EBP]
   342 000002A4 83 E8 03                        	SUB	EAX,3
   343 000002A7 50                              	PUSH	EAX
   344 000002A8 89 45 E8                        	MOV	DWORD [-24+EBP],EAX
   345 000002AB 6A 3B                           	PUSH	59
   346 000002AD 50                              	PUSH	EAX
   347 000002AE 6A 02                           	PUSH	2
   348 000002B0 6A 00                           	PUSH	0
   349 000002B2 FF 75 0C                        	PUSH	DWORD [12+EBP]
   350 000002B5 FF 75 08                        	PUSH	DWORD [8+EBP]
   351 000002B8 E8 FFFFFE99                     	CALL	_boxfill8
   352 000002BD 83 C4 38                        	ADD	ESP,56
   353 000002C0 FF 75 E8                        	PUSH	DWORD [-24+EBP]
   354 000002C3 6A 3C                           	PUSH	60
   355 000002C5 56                              	PUSH	ESI
   356 000002C6 6A 3C                           	PUSH	60
   357 000002C8 6A 00                           	PUSH	0
   358 000002CA FF 75 0C                        	PUSH	DWORD [12+EBP]
   359 000002CD FF 75 08                        	PUSH	DWORD [8+EBP]
   360 000002D0 E8 FFFFFE81                     	CALL	_boxfill8
   361 000002D5 8B 7D 0C                        	MOV	EDI,DWORD [12+EBP]
   362 000002D8 8B 5D 0C                        	MOV	EBX,DWORD [12+EBP]
   363 000002DB 56                              	PUSH	ESI
   364 000002DC 83 EB 04                        	SUB	EBX,4
   365 000002DF 83 EF 2F                        	SUB	EDI,47
   366 000002E2 53                              	PUSH	EBX
   367 000002E3 56                              	PUSH	ESI
   368 000002E4 57                              	PUSH	EDI
   369 000002E5 6A 0F                           	PUSH	15
   370 000002E7 FF 75 0C                        	PUSH	DWORD [12+EBP]
   371 000002EA FF 75 08                        	PUSH	DWORD [8+EBP]
   372 000002ED E8 FFFFFE64                     	CALL	_boxfill8
   373 000002F2 83 C4 38                        	ADD	ESP,56
   374 000002F5 FF 75 F0                        	PUSH	DWORD [-16+EBP]
   375 000002F8 57                              	PUSH	EDI
   376 000002F9 FF 75 EC                        	PUSH	DWORD [-20+EBP]
   377 000002FC 57                              	PUSH	EDI
   378 000002FD 6A 0F                           	PUSH	15
   379 000002FF FF 75 0C                        	PUSH	DWORD [12+EBP]
   380 00000302 FF 75 08                        	PUSH	DWORD [8+EBP]
   381 00000305 E8 FFFFFE4C                     	CALL	_boxfill8
   382 0000030A FF 75 E8                        	PUSH	DWORD [-24+EBP]
   383 0000030D 53                              	PUSH	EBX
   384 0000030E FF 75 E8                        	PUSH	DWORD [-24+EBP]
   385 00000311 57                              	PUSH	EDI
   386 00000312 6A 07                           	PUSH	7
   387 00000314 FF 75 0C                        	PUSH	DWORD [12+EBP]
   388 00000317 FF 75 08                        	PUSH	DWORD [8+EBP]
   389 0000031A E8 FFFFFE37                     	CALL	_boxfill8
   390 0000031F 8B 45 0C                        	MOV	EAX,DWORD [12+EBP]
   391 00000322 83 C4 38                        	ADD	ESP,56
   392 00000325 83 E8 03                        	SUB	EAX,3
   393 00000328 FF 75 E8                        	PUSH	DWORD [-24+EBP]
   394 0000032B 50                              	PUSH	EAX
   395 0000032C 56                              	PUSH	ESI
   396 0000032D 50                              	PUSH	EAX
   397 0000032E 6A 07                           	PUSH	7
   398 00000330 FF 75 0C                        	PUSH	DWORD [12+EBP]
   399 00000333 FF 75 08                        	PUSH	DWORD [8+EBP]
   400 00000336 E8 FFFFFE1B                     	CALL	_boxfill8
   401 0000033B 8D 65 F4                        	LEA	ESP,DWORD [-12+EBP]
   402 0000033E 5B                              	POP	EBX
   403 0000033F 5E                              	POP	ESI
   404 00000340 5F                              	POP	EDI
   405 00000341 5D                              	POP	EBP
   406 00000342 C3                              	RET
   407                                          [SECTION .data]
   408 00000036                                 LC0:
   409 00000036 68 65 6C 6F 6F 73 2E 6A 70 67   	DB	"heloos.jpg",0x00
       00000040 00 
   410                                          [SECTION .text]
   411 00000343                                 	GLOBAL	_set_picture
   412 00000343                                 _set_picture:
   413 00000343 55                              	PUSH	EBP
   414 00000344 89 E5                           	MOV	EBP,ESP
   415 00000346 57                              	PUSH	EDI
   416 00000347 56                              	PUSH	ESI
   417 00000348 53                              	PUSH	EBX
   418 00000349 83 EC 30                        	SUB	ESP,48
   419 0000034C 68 00002D00                     	PUSH	11520
   420 00000351 68 003C0000                     	PUSH	3932160
   421 00000356 E8 [00000000]                   	CALL	_memman_alloc_4k
   422 0000035B 68 00100200                     	PUSH	1049088
   423 00000360 50                              	PUSH	EAX
   424 00000361 89 45 D0                        	MOV	DWORD [-48+EBP],EAX
   425 00000364 E8 [00000000]                   	CALL	_file_readfat
   426 00000369 68 000000E0                     	PUSH	224
   427 0000036E 68 00102600                     	PUSH	1058304
   428 00000373 68 [00000036]                   	PUSH	LC0
   429 00000378 E8 [00000000]                   	CALL	_file_search
   430 0000037D 83 C4 1C                        	ADD	ESP,28
   431 00000380 89 C3                           	MOV	EBX,EAX
   432 00000382 85 C0                           	TEST	EAX,EAX
   433 00000384 74 06                           	JE	L49
   434 00000386 F6 40 0B 18                     	TEST	BYTE [11+EAX],24
   435 0000038A 74 28                           	JE	L48
   436 0000038C                                 L49:
   437 0000038C 68 00000190                     	PUSH	400
   438 00000391 68 0000012C                     	PUSH	300
   439 00000396 6A 64                           	PUSH	100
   440 00000398 6A 64                           	PUSH	100
   441 0000039A 6A 01                           	PUSH	1
   442 0000039C FF 75 0C                        	PUSH	DWORD [12+EBP]
   443 0000039F FF 75 08                        	PUSH	DWORD [8+EBP]
   444 000003A2 E8 FFFFFDAF                     	CALL	_boxfill8
   445 000003A7 83 CA FF                        	OR	EDX,-1
   446 000003AA                                 L47:
   447 000003AA 8D 65 F4                        	LEA	ESP,DWORD [-12+EBP]
   448 000003AD 89 D0                           	MOV	EAX,EDX
   449 000003AF 5B                              	POP	EBX
   450 000003B0 5E                              	POP	ESI
   451 000003B1 5F                              	POP	EDI
   452 000003B2 5D                              	POP	EBP
   453 000003B3 C3                              	RET
   454 000003B4                                 L48:
   455 000003B4 8B 40 1C                        	MOV	EAX,DWORD [28+EAX]
   456 000003B7 50                              	PUSH	EAX
   457 000003B8 89 45 E0                        	MOV	DWORD [-32+EBP],EAX
   458 000003BB 68 003C0000                     	PUSH	3932160
   459 000003C0 E8 [00000000]                   	CALL	_memman_alloc_4k
   460 000003C5 8D 45 E0                        	LEA	EAX,DWORD [-32+EBP]
   461 000003C8 FF 75 D0                        	PUSH	DWORD [-48+EBP]
   462 000003CB 50                              	PUSH	EAX
   463 000003CC 0F B7 43 1A                     	MOVZX	EAX,WORD [26+EBX]
   464 000003D0 50                              	PUSH	EAX
   465 000003D1 E8 [00000000]                   	CALL	_file_loadfile2
   466 000003D6 68 00010000                     	PUSH	65536
   467 000003DB 68 003C0000                     	PUSH	3932160
   468 000003E0 89 45 DC                        	MOV	DWORD [-36+EBP],EAX
   469 000003E3 E8 [00000000]                   	CALL	_memman_alloc_4k
   470 000003E8 FF 75 DC                        	PUSH	DWORD [-36+EBP]
   471 000003EB FF 75 E0                        	PUSH	DWORD [-32+EBP]
   472 000003EE 89 45 D4                        	MOV	DWORD [-44+EBP],EAX
   473 000003F1 8D 45 E4                        	LEA	EAX,DWORD [-28+EBP]
   474 000003F4 50                              	PUSH	EAX
   475 000003F5 FF 75 D4                        	PUSH	DWORD [-44+EBP]
   476 000003F8 E8 [00000000]                   	CALL	_info_JPEG
   477 000003FD 83 CA FF                        	OR	EDX,-1
   478 00000400 83 C4 2C                        	ADD	ESP,44
   479 00000403 85 C0                           	TEST	EAX,EAX
   480 00000405 74 A3                           	JE	L47
   481 00000407 8B 45 F0                        	MOV	EAX,DWORD [-16+EBP]
   482 0000040A 31 FF                           	XOR	EDI,EDI
   483 0000040C 0F AF 45 EC                     	IMUL	EAX,DWORD [-20+EBP]
   484 00000410 C1 E0 02                        	SAL	EAX,2
   485 00000413 50                              	PUSH	EAX
   486 00000414 68 003C0000                     	PUSH	3932160
   487 00000419 E8 [00000000]                   	CALL	_memman_alloc_4k
   488 0000041E 6A 00                           	PUSH	0
   489 00000420 50                              	PUSH	EAX
   490 00000421 89 45 D8                        	MOV	DWORD [-40+EBP],EAX
   491 00000424 6A 04                           	PUSH	4
   492 00000426 FF 75 DC                        	PUSH	DWORD [-36+EBP]
   493 00000429 FF 75 E0                        	PUSH	DWORD [-32+EBP]
   494 0000042C FF 75 D4                        	PUSH	DWORD [-44+EBP]
   495 0000042F E8 [00000000]                   	CALL	_decode0_JPEG
   496 00000434 83 C4 20                        	ADD	ESP,32
   497 00000437 8B 55 0C                        	MOV	EDX,DWORD [12+EBP]
   498 0000043A B9 00000002                     	MOV	ECX,2
   499 0000043F 2B 55 EC                        	SUB	EDX,DWORD [-20+EBP]
   500 00000442 8B 5D F0                        	MOV	EBX,DWORD [-16+EBP]
   501 00000445 29 5D 10                        	SUB	DWORD [16+EBP],EBX
   502 00000448 89 D0                           	MOV	EAX,EDX
   503 0000044A 99                              	CDQ
   504 0000044B F7 F9                           	IDIV	ECX
   505 0000044D 89 45 CC                        	MOV	DWORD [-52+EBP],EAX
   506 00000450 8B 45 10                        	MOV	EAX,DWORD [16+EBP]
   507 00000453 99                              	CDQ
   508 00000454 F7 F9                           	IDIV	ECX
   509 00000456 39 DF                           	CMP	EDI,EBX
   510 00000458 89 45 C8                        	MOV	DWORD [-56+EBP],EAX
   511 0000045B 7D 0F                           	JGE	L62
   512 0000045D                                 L60:
   513 0000045D 31 F6                           	XOR	ESI,ESI
   514 0000045F 8B 45 EC                        	MOV	EAX,DWORD [-20+EBP]
   515 00000462 39 C6                           	CMP	ESI,EAX
   516 00000464 7C 5C                           	JL	L59
   517 00000466                                 L64:
   518 00000466 47                              	INC	EDI
   519 00000467 3B 7D F0                        	CMP	EDI,DWORD [-16+EBP]
   520 0000046A 7C F1                           	JL	L60
   521 0000046C                                 L62:
   522 0000046C FF 75 E0                        	PUSH	DWORD [-32+EBP]
   523 0000046F FF 75 DC                        	PUSH	DWORD [-36+EBP]
   524 00000472 68 003C0000                     	PUSH	3932160
   525 00000477 E8 [00000000]                   	CALL	_memman_free_4k
   526 0000047C 8B 45 F0                        	MOV	EAX,DWORD [-16+EBP]
   527 0000047F 0F AF 45 EC                     	IMUL	EAX,DWORD [-20+EBP]
   528 00000483 C1 E0 02                        	SAL	EAX,2
   529 00000486 50                              	PUSH	EAX
   530 00000487 FF 75 D8                        	PUSH	DWORD [-40+EBP]
   531 0000048A 68 003C0000                     	PUSH	3932160
   532 0000048F E8 [00000000]                   	CALL	_memman_free_4k
   533 00000494 68 00010000                     	PUSH	65536
   534 00000499 FF 75 D4                        	PUSH	DWORD [-44+EBP]
   535 0000049C 68 003C0000                     	PUSH	3932160
   536 000004A1 E8 [00000000]                   	CALL	_memman_free_4k
   537 000004A6 83 C4 24                        	ADD	ESP,36
   538 000004A9 68 00002D00                     	PUSH	11520
   539 000004AE FF 75 D0                        	PUSH	DWORD [-48+EBP]
   540 000004B1 68 003C0000                     	PUSH	3932160
   541 000004B6 E8 [00000000]                   	CALL	_memman_free_4k
   542 000004BB 31 D2                           	XOR	EDX,EDX
   543 000004BD E9 FFFFFEE8                     	JMP	L47
   544 000004C2                                 L59:
   545 000004C2 8B 5D C8                        	MOV	EBX,DWORD [-56+EBP]
   546 000004C5 89 FA                           	MOV	EDX,EDI
   547 000004C7 01 FB                           	ADD	EBX,EDI
   548 000004C9 8B 4D D8                        	MOV	ECX,DWORD [-40+EBP]
   549 000004CC 0F AF 5D 0C                     	IMUL	EBX,DWORD [12+EBP]
   550 000004D0 0F AF D0                        	IMUL	EDX,EAX
   551 000004D3 8B 45 CC                        	MOV	EAX,DWORD [-52+EBP]
   552 000004D6 01 F2                           	ADD	EDX,ESI
   553 000004D8 01 F0                           	ADD	EAX,ESI
   554 000004DA 01 C3                           	ADD	EBX,EAX
   555 000004DC 0F BE 05 00000FF2               	MOVSX	EAX,BYTE [4082]
   556 000004E3 50                              	PUSH	EAX
   557 000004E4 57                              	PUSH	EDI
   558 000004E5 56                              	PUSH	ESI
   559 000004E6 46                              	INC	ESI
   560 000004E7 0F B6 04 91                     	MOVZX	EAX,BYTE [ECX+EDX*4]
   561 000004EB 50                              	PUSH	EAX
   562 000004EC 0F B6 44 91 01                  	MOVZX	EAX,BYTE [1+ECX+EDX*4]
   563 000004F1 50                              	PUSH	EAX
   564 000004F2 0F B6 44 91 02                  	MOVZX	EAX,BYTE [2+ECX+EDX*4]
   565 000004F7 50                              	PUSH	EAX
   566 000004F8 E8 00000399                     	CALL	_rgb2pal
   567 000004FD 83 C4 18                        	ADD	ESP,24
   568 00000500 8B 55 08                        	MOV	EDX,DWORD [8+EBP]
   569 00000503 88 04 13                        	MOV	BYTE [EBX+EDX*1],AL
   570 00000506 8B 45 EC                        	MOV	EAX,DWORD [-20+EBP]
   571 00000509 39 C6                           	CMP	ESI,EAX
   572 0000050B 7C B5                           	JL	L59
   573 0000050D E9 FFFFFF54                     	JMP	L64
   574 00000512                                 	GLOBAL	_putfont8
   575 00000512                                 _putfont8:
   576 00000512 55                              	PUSH	EBP
   577 00000513 89 E5                           	MOV	EBP,ESP
   578 00000515 57                              	PUSH	EDI
   579 00000516 56                              	PUSH	ESI
   580 00000517 31 F6                           	XOR	ESI,ESI
   581 00000519 53                              	PUSH	EBX
   582 0000051A 8B 7D 1C                        	MOV	EDI,DWORD [28+EBP]
   583 0000051D 8A 5D 18                        	MOV	BL,BYTE [24+EBP]
   584 00000520                                 L78:
   585 00000520 8B 45 14                        	MOV	EAX,DWORD [20+EBP]
   586 00000523 8B 55 10                        	MOV	EDX,DWORD [16+EBP]
   587 00000526 01 F0                           	ADD	EAX,ESI
   588 00000528 0F AF 45 0C                     	IMUL	EAX,DWORD [12+EBP]
   589 0000052C 03 45 08                        	ADD	EAX,DWORD [8+EBP]
   590 0000052F 8D 0C 02                        	LEA	ECX,DWORD [EDX+EAX*1]
   591 00000532 8A 14 3E                        	MOV	DL,BYTE [ESI+EDI*1]
   592 00000535 84 D2                           	TEST	DL,DL
   593 00000537 79 02                           	JNS	L70
   594 00000539 88 19                           	MOV	BYTE [ECX],BL
   595 0000053B                                 L70:
   596 0000053B 88 D0                           	MOV	AL,DL
   597 0000053D 83 E0 40                        	AND	EAX,64
   598 00000540 84 C0                           	TEST	AL,AL
   599 00000542 74 03                           	JE	L71
   600 00000544 88 59 01                        	MOV	BYTE [1+ECX],BL
   601 00000547                                 L71:
   602 00000547 88 D0                           	MOV	AL,DL
   603 00000549 83 E0 20                        	AND	EAX,32
   604 0000054C 84 C0                           	TEST	AL,AL
   605 0000054E 74 03                           	JE	L72
   606 00000550 88 59 02                        	MOV	BYTE [2+ECX],BL
   607 00000553                                 L72:
   608 00000553 88 D0                           	MOV	AL,DL
   609 00000555 83 E0 10                        	AND	EAX,16
   610 00000558 84 C0                           	TEST	AL,AL
   611 0000055A 74 03                           	JE	L73
   612 0000055C 88 59 03                        	MOV	BYTE [3+ECX],BL
   613 0000055F                                 L73:
   614 0000055F 88 D0                           	MOV	AL,DL
   615 00000561 83 E0 08                        	AND	EAX,8
   616 00000564 84 C0                           	TEST	AL,AL
   617 00000566 74 03                           	JE	L74
   618 00000568 88 59 04                        	MOV	BYTE [4+ECX],BL
   619 0000056B                                 L74:
   620 0000056B 88 D0                           	MOV	AL,DL
   621 0000056D 83 E0 04                        	AND	EAX,4
   622 00000570 84 C0                           	TEST	AL,AL
   623 00000572 74 03                           	JE	L75
   624 00000574 88 59 05                        	MOV	BYTE [5+ECX],BL
   625 00000577                                 L75:
   626 00000577 88 D0                           	MOV	AL,DL
   627 00000579 83 E0 02                        	AND	EAX,2
   628 0000057C 84 C0                           	TEST	AL,AL
   629 0000057E 74 03                           	JE	L76
   630 00000580 88 59 06                        	MOV	BYTE [6+ECX],BL
   631 00000583                                 L76:
   632 00000583 83 E2 01                        	AND	EDX,1
   633 00000586 84 D2                           	TEST	DL,DL
   634 00000588 74 03                           	JE	L68
   635 0000058A 88 59 07                        	MOV	BYTE [7+ECX],BL
   636 0000058D                                 L68:
   637 0000058D 46                              	INC	ESI
   638 0000058E 83 FE 0F                        	CMP	ESI,15
   639 00000591 7E 8D                           	JLE	L78
   640 00000593 5B                              	POP	EBX
   641 00000594 5E                              	POP	ESI
   642 00000595 5F                              	POP	EDI
   643 00000596 5D                              	POP	EBP
   644 00000597 C3                              	RET
   645 00000598                                 	GLOBAL	_putfonts8_asc
   646 00000598                                 _putfonts8_asc:
   647 00000598 55                              	PUSH	EBP
   648 00000599 89 E5                           	MOV	EBP,ESP
   649 0000059B 57                              	PUSH	EDI
   650 0000059C 56                              	PUSH	ESI
   651 0000059D 53                              	PUSH	EBX
   652 0000059E 83 EC 0C                        	SUB	ESP,12
   653 000005A1 8A 45 18                        	MOV	AL,BYTE [24+EBP]
   654 000005A4 8B 7D 1C                        	MOV	EDI,DWORD [28+EBP]
   655 000005A7 88 45 F3                        	MOV	BYTE [-13+EBP],AL
   656 000005AA E8 [00000000]                   	CALL	_task_now
   657 000005AF 8B 15 00000FE8                  	MOV	EDX,DWORD [4072]
   658 000005B5 89 45 EC                        	MOV	DWORD [-20+EBP],EAX
   659 000005B8 89 55 E8                        	MOV	DWORD [-24+EBP],EDX
   660 000005BB 80 B8 000000C0 00               	CMP	BYTE [192+EAX],0
   661 000005C2 75 09                           	JNE	L82
   662 000005C4 80 3F 00                        	CMP	BYTE [EDI],0
   663 000005C7 0F 85 000001E2                  	JNE	L87
   664 000005CD                                 L82:
   665 000005CD 8B 45 EC                        	MOV	EAX,DWORD [-20+EBP]
   666 000005D0 80 B8 000000C0 01               	CMP	BYTE [192+EAX],1
   667 000005D7 0F 84 000000CB                  	JE	L118
   668 000005DD                                 L88:
   669 000005DD 8B 45 EC                        	MOV	EAX,DWORD [-20+EBP]
   670 000005E0 80 B8 000000C0 02               	CMP	BYTE [192+EAX],2
   671 000005E7 74 08                           	JE	L119
   672 000005E9                                 L81:
   673 000005E9 8D 65 F4                        	LEA	ESP,DWORD [-12+EBP]
   674 000005EC 5B                              	POP	EBX
   675 000005ED 5E                              	POP	ESI
   676 000005EE 5F                              	POP	EDI
   677 000005EF 5D                              	POP	EBP
   678 000005F0 C3                              	RET
   679 000005F1                                 L119:
   680 000005F1 80 3F 00                        	CMP	BYTE [EDI],0
   681 000005F4 74 F3                           	JE	L81
   682 000005F6                                 L114:
   683 000005F6 8B 55 EC                        	MOV	EDX,DWORD [-20+EBP]
   684 000005F9 8A 82 000000C1                  	MOV	AL,BYTE [193+EDX]
   685 000005FF 84 C0                           	TEST	AL,AL
   686 00000601 75 43                           	JNE	L110
   687 00000603 8A 17                           	MOV	DL,BYTE [EDI]
   688 00000605 8D 42 7F                        	LEA	EAX,DWORD [127+EDX]
   689 00000608 3C 7D                           	CMP	AL,125
   690 0000060A 77 15                           	JA	L111
   691 0000060C 8B 45 EC                        	MOV	EAX,DWORD [-20+EBP]
   692 0000060F 88 90 000000C1                  	MOV	BYTE [193+EAX],DL
   693 00000615                                 L113:
   694 00000615 83 45 10 08                     	ADD	DWORD [16+EBP],8
   695 00000619 47                              	INC	EDI
   696 0000061A 80 3F 00                        	CMP	BYTE [EDI],0
   697 0000061D 75 D7                           	JNE	L114
   698 0000061F EB C8                           	JMP	L81
   699 00000621                                 L111:
   700 00000621 0F B6 C2                        	MOVZX	EAX,DL
   701 00000624 C1 E0 04                        	SAL	EAX,4
   702 00000627 03 45 E8                        	ADD	EAX,DWORD [-24+EBP]
   703 0000062A 50                              	PUSH	EAX
   704 0000062B 0F BE 45 F3                     	MOVSX	EAX,BYTE [-13+EBP]
   705 0000062F 50                              	PUSH	EAX
   706 00000630 FF 75 14                        	PUSH	DWORD [20+EBP]
   707 00000633 FF 75 10                        	PUSH	DWORD [16+EBP]
   708 00000636 FF 75 0C                        	PUSH	DWORD [12+EBP]
   709 00000639 FF 75 08                        	PUSH	DWORD [8+EBP]
   710 0000063C E8 FFFFFED1                     	CALL	_putfont8
   711 00000641 83 C4 18                        	ADD	ESP,24
   712 00000644 EB CF                           	JMP	L113
   713 00000646                                 L110:
   714 00000646 0F B6 D8                        	MOVZX	EBX,AL
   715 00000649 6B DB 5E                        	IMUL	EBX,EBX,94
   716 0000064C 0F B6 07                        	MOVZX	EAX,BYTE [EDI]
   717 0000064F 8B 55 EC                        	MOV	EDX,DWORD [-20+EBP]
   718 00000652 8D 9C 18 FFFFC441               	LEA	EBX,DWORD [-15295+EAX+EBX*1]
   719 00000659 C6 82 000000C1 00               	MOV	BYTE [193+EDX],0
   720 00000660 C1 E3 05                        	SAL	EBX,5
   721 00000663 03 5D E8                        	ADD	EBX,DWORD [-24+EBP]
   722 00000666 0F BE 75 F3                     	MOVSX	ESI,BYTE [-13+EBP]
   723 0000066A 8D 83 00001000                  	LEA	EAX,DWORD [4096+EBX]
   724 00000670 81 C3 00001010                  	ADD	EBX,4112
   725 00000676 50                              	PUSH	EAX
   726 00000677 8B 45 10                        	MOV	EAX,DWORD [16+EBP]
   727 0000067A 56                              	PUSH	ESI
   728 0000067B 83 E8 08                        	SUB	EAX,8
   729 0000067E FF 75 14                        	PUSH	DWORD [20+EBP]
   730 00000681 50                              	PUSH	EAX
   731 00000682 FF 75 0C                        	PUSH	DWORD [12+EBP]
   732 00000685 FF 75 08                        	PUSH	DWORD [8+EBP]
   733 00000688 E8 FFFFFE85                     	CALL	_putfont8
   734 0000068D 53                              	PUSH	EBX
   735 0000068E 56                              	PUSH	ESI
   736 0000068F FF 75 14                        	PUSH	DWORD [20+EBP]
   737 00000692 FF 75 10                        	PUSH	DWORD [16+EBP]
   738 00000695 FF 75 0C                        	PUSH	DWORD [12+EBP]
   739 00000698 FF 75 08                        	PUSH	DWORD [8+EBP]
   740 0000069B E8 FFFFFE72                     	CALL	_putfont8
   741 000006A0 83 C4 30                        	ADD	ESP,48
   742 000006A3 E9 FFFFFF6D                     	JMP	L113
   743 000006A8                                 L118:
   744 000006A8 80 3F 00                        	CMP	BYTE [EDI],0
   745 000006AB 0F 84 FFFFFF2C                  	JE	L88
   746 000006B1                                 L104:
   747 000006B1 8B 45 EC                        	MOV	EAX,DWORD [-20+EBP]
   748 000006B4 8A 90 000000C1                  	MOV	DL,BYTE [193+EAX]
   749 000006BA 84 D2                           	TEST	DL,DL
   750 000006BC 75 4D                           	JNE	L93
   751 000006BE 8A 17                           	MOV	DL,BYTE [EDI]
   752 000006C0 8D 42 7F                        	LEA	EAX,DWORD [127+EDX]
   753 000006C3 3C 1E                           	CMP	AL,30
   754 000006C5 76 07                           	JBE	L95
   755 000006C7 8D 42 20                        	LEA	EAX,DWORD [32+EDX]
   756 000006CA 3C 1C                           	CMP	AL,28
   757 000006CC 77 18                           	JA	L94
   758 000006CE                                 L95:
   759 000006CE 8B 45 EC                        	MOV	EAX,DWORD [-20+EBP]
   760 000006D1 88 90 000000C1                  	MOV	BYTE [193+EAX],DL
   761 000006D7                                 L97:
   762 000006D7 83 45 10 08                     	ADD	DWORD [16+EBP],8
   763 000006DB 47                              	INC	EDI
   764 000006DC 80 3F 00                        	CMP	BYTE [EDI],0
   765 000006DF 75 D0                           	JNE	L104
   766 000006E1 E9 FFFFFEF7                     	JMP	L88
   767 000006E6                                 L94:
   768 000006E6 0F B6 C2                        	MOVZX	EAX,DL
   769 000006E9 C1 E0 04                        	SAL	EAX,4
   770 000006EC 03 45 E8                        	ADD	EAX,DWORD [-24+EBP]
   771 000006EF 50                              	PUSH	EAX
   772 000006F0 0F BE 45 F3                     	MOVSX	EAX,BYTE [-13+EBP]
   773 000006F4 50                              	PUSH	EAX
   774 000006F5 FF 75 14                        	PUSH	DWORD [20+EBP]
   775 000006F8 FF 75 10                        	PUSH	DWORD [16+EBP]
   776 000006FB FF 75 0C                        	PUSH	DWORD [12+EBP]
   777 000006FE FF 75 08                        	PUSH	DWORD [8+EBP]
   778 00000701 E8 FFFFFE0C                     	CALL	_putfont8
   779 00000706 83 C4 18                        	ADD	ESP,24
   780 00000709 EB CC                           	JMP	L97
   781 0000070B                                 L93:
   782 0000070B 8D 42 7F                        	LEA	EAX,DWORD [127+EDX]
   783 0000070E 3C 1E                           	CMP	AL,30
   784 00000710 0F 87 0000008A                  	JA	L98
   785 00000716 0F B6 C2                        	MOVZX	EAX,DL
   786 00000719 8D 8C 00 FFFFFEFE               	LEA	ECX,DWORD [-258+EAX+EAX*1]
   787 00000720                                 L99:
   788 00000720 8A 17                           	MOV	DL,BYTE [EDI]
   789 00000722 8D 42 C0                        	LEA	EAX,DWORD [-64+EDX]
   790 00000725 3C 3E                           	CMP	AL,62
   791 00000727 77 5D                           	JA	L100
   792 00000729 0F B6 C2                        	MOVZX	EAX,DL
   793 0000072C 83 E8 40                        	SUB	EAX,64
   794 0000072F                                 L101:
   795 0000072F 6B D9 5E                        	IMUL	EBX,ECX,94
   796 00000732 8B 55 EC                        	MOV	EDX,DWORD [-20+EBP]
   797 00000735 01 C3                           	ADD	EBX,EAX
   798 00000737 C1 E3 05                        	SAL	EBX,5
   799 0000073A C6 82 000000C1 00               	MOV	BYTE [193+EDX],0
   800 00000741 03 5D E8                        	ADD	EBX,DWORD [-24+EBP]
   801 00000744 0F BE 75 F3                     	MOVSX	ESI,BYTE [-13+EBP]
   802 00000748 8D 83 00001000                  	LEA	EAX,DWORD [4096+EBX]
   803 0000074E 81 C3 00001010                  	ADD	EBX,4112
   804 00000754 50                              	PUSH	EAX
   805 00000755 8B 45 10                        	MOV	EAX,DWORD [16+EBP]
   806 00000758 56                              	PUSH	ESI
   807 00000759 83 E8 08                        	SUB	EAX,8
   808 0000075C FF 75 14                        	PUSH	DWORD [20+EBP]
   809 0000075F 50                              	PUSH	EAX
   810 00000760 FF 75 0C                        	PUSH	DWORD [12+EBP]
   811 00000763 FF 75 08                        	PUSH	DWORD [8+EBP]
   812 00000766 E8 FFFFFDA7                     	CALL	_putfont8
   813 0000076B 53                              	PUSH	EBX
   814 0000076C 56                              	PUSH	ESI
   815 0000076D FF 75 14                        	PUSH	DWORD [20+EBP]
   816 00000770 FF 75 10                        	PUSH	DWORD [16+EBP]
   817 00000773 FF 75 0C                        	PUSH	DWORD [12+EBP]
   818 00000776 FF 75 08                        	PUSH	DWORD [8+EBP]
   819 00000779 E8 FFFFFD94                     	CALL	_putfont8
   820 0000077E 83 C4 30                        	ADD	ESP,48
   821 00000781 E9 FFFFFF51                     	JMP	L97
   822 00000786                                 L100:
   823 00000786 8D 42 80                        	LEA	EAX,DWORD [-128+EDX]
   824 00000789 3C 1E                           	CMP	AL,30
   825 0000078B 77 08                           	JA	L102
   826 0000078D 0F B6 C2                        	MOVZX	EAX,DL
   827 00000790 83 E8 41                        	SUB	EAX,65
   828 00000793 EB 9A                           	JMP	L101
   829 00000795                                 L102:
   830 00000795 0F B6 C2                        	MOVZX	EAX,DL
   831 00000798 2D 0000009F                     	SUB	EAX,159
   832 0000079D 41                              	INC	ECX
   833 0000079E EB 8F                           	JMP	L101
   834 000007A0                                 L98:
   835 000007A0 0F B6 C2                        	MOVZX	EAX,DL
   836 000007A3 8D 8C 00 FFFFFE7E               	LEA	ECX,DWORD [-386+EAX+EAX*1]
   837 000007AA E9 FFFFFF71                     	JMP	L99
   838 000007AF                                 L87:
   839 000007AF 0F B6 07                        	MOVZX	EAX,BYTE [EDI]
   840 000007B2 C1 E0 04                        	SAL	EAX,4
   841 000007B5 47                              	INC	EDI
   842 000007B6 05 [00000000]                   	ADD	EAX,_hankaku
   843 000007BB 50                              	PUSH	EAX
   844 000007BC 0F BE 45 F3                     	MOVSX	EAX,BYTE [-13+EBP]
   845 000007C0 50                              	PUSH	EAX
   846 000007C1 FF 75 14                        	PUSH	DWORD [20+EBP]
   847 000007C4 FF 75 10                        	PUSH	DWORD [16+EBP]
   848 000007C7 FF 75 0C                        	PUSH	DWORD [12+EBP]
   849 000007CA FF 75 08                        	PUSH	DWORD [8+EBP]
   850 000007CD E8 FFFFFD40                     	CALL	_putfont8
   851 000007D2 83 C4 18                        	ADD	ESP,24
   852 000007D5 83 45 10 08                     	ADD	DWORD [16+EBP],8
   853 000007D9 80 3F 00                        	CMP	BYTE [EDI],0
   854 000007DC 75 D1                           	JNE	L87
   855 000007DE E9 FFFFFDEA                     	JMP	L82
   856                                          [SECTION .data]
   857 00000041                                 _cursor.1:
   858 00000041 2A 2A 2E 2E 2E 2E 2E 2E 2E 2E   	DB	"**.............."
       0000004B 2E 2E 2E 2E 2E 2E 
   859 00000051 2A 2A 2A 2E 2E 2E 2E 2E 2E 2E   	DB	"***............."
       0000005B 2E 2E 2E 2E 2E 2E 
   860 00000061 2A 4F 2A 2A 2E 2E 2E 2E 2E 2E   	DB	"*O**............"
       0000006B 2E 2E 2E 2E 2E 2E 
   861 00000071 2A 4F 4F 2A 2A 2E 2E 2E 2E 2E   	DB	"*OO**..........."
       0000007B 2E 2E 2E 2E 2E 2E 
   862 00000081 2A 4F 4F 4F 2A 2A 2E 2E 2E 2E   	DB	"*OOO**.........."
       0000008B 2E 2E 2E 2E 2E 2E 
   863 00000091 2A 4F 4F 4F 4F 2A 2A 2E 2E 2E   	DB	"*OOOO**........."
       0000009B 2E 2E 2E 2E 2E 2E 
   864 000000A1 2A 4F 4F 4F 4F 4F 2A 2A 2E 2E   	DB	"*OOOOO**........"
       000000AB 2E 2E 2E 2E 2E 2E 
   865 000000B1 2A 4F 4F 4F 4F 4F 4F 2A 2A 2E   	DB	"*OOOOOO**......."
       000000BB 2E 2E 2E 2E 2E 2E 
   866 000000C1 2A 4F 4F 4F 4F 4F 4F 4F 2A 2A   	DB	"*OOOOOOO**......"
       000000CB 2E 2E 2E 2E 2E 2E 
   867 000000D1 2A 4F 4F 4F 4F 4F 4F 4F 4F 2A   	DB	"*OOOOOOOO**....."
       000000DB 2A 2E 2E 2E 2E 2E 
   868 000000E1 2A 4F 4F 4F 4F 4F 4F 4F 4F 4F   	DB	"*OOOOOOOOO**...."
       000000EB 2A 2A 2E 2E 2E 2E 
   869 000000F1 2A 4F 4F 4F 4F 2A 2A 2A 2A 2A   	DB	"*OOOO********..."
       000000FB 2A 2A 2A 2E 2E 2E 
   870 00000101 2A 4F 4F 4F 2A 2A 2E 2E 2E 2E   	DB	"*OOO**.........."
       0000010B 2E 2E 2E 2E 2E 2E 
   871 00000111 2A 4F 2A 2A 2E 2E 2E 2E 2E 2E   	DB	"*O**............"
       0000011B 2E 2E 2E 2E 2E 2E 
   872 00000121 2A 2A 2A 2E 2E 2E 2E 2E 2E 2E   	DB	"***............."
       0000012B 2E 2E 2E 2E 2E 2E 
   873 00000131 2A 2A 2E 2E 2E 2E 2E 2E 2E 2E   	DB	"**.............."
       0000013B 2E 2E 2E 2E 2E 2E 
   874                                          [SECTION .text]
   875 000007E3                                 	GLOBAL	_init_mouse_cursor8
   876 000007E3                                 _init_mouse_cursor8:
   877 000007E3 55                              	PUSH	EBP
   878 000007E4 89 E5                           	MOV	EBP,ESP
   879 000007E6 57                              	PUSH	EDI
   880 000007E7 56                              	PUSH	ESI
   881 000007E8 31 FF                           	XOR	EDI,EDI
   882 000007EA 53                              	PUSH	EBX
   883 000007EB 31 DB                           	XOR	EBX,EBX
   884 000007ED 50                              	PUSH	EAX
   885 000007EE 8A 45 0C                        	MOV	AL,BYTE [12+EBP]
   886 000007F1 8B 75 08                        	MOV	ESI,DWORD [8+EBP]
   887 000007F4 88 45 F3                        	MOV	BYTE [-13+EBP],AL
   888 000007F7                                 L133:
   889 000007F7 31 D2                           	XOR	EDX,EDX
   890 000007F9                                 L132:
   891 000007F9 8D 04 3A                        	LEA	EAX,DWORD [EDX+EDI*1]
   892 000007FC 80 B8 [00000041] 2A             	CMP	BYTE [_cursor.1+EAX],42
   893 00000803 74 35                           	JE	L138
   894 00000805                                 L129:
   895 00000805 80 B8 [00000041] 4F             	CMP	BYTE [_cursor.1+EAX],79
   896 0000080C 74 26                           	JE	L139
   897 0000080E                                 L130:
   898 0000080E 80 B8 [00000041] 2E             	CMP	BYTE [_cursor.1+EAX],46
   899 00000815 74 15                           	JE	L140
   900 00000817                                 L127:
   901 00000817 42                              	INC	EDX
   902 00000818 83 FA 0F                        	CMP	EDX,15
   903 0000081B 7E DC                           	JLE	L132
   904 0000081D 43                              	INC	EBX
   905 0000081E 83 C7 10                        	ADD	EDI,16
   906 00000821 83 FB 0F                        	CMP	EBX,15
   907 00000824 7E D1                           	JLE	L133
   908 00000826 58                              	POP	EAX
   909 00000827 5B                              	POP	EBX
   910 00000828 5E                              	POP	ESI
   911 00000829 5F                              	POP	EDI
   912 0000082A 5D                              	POP	EBP
   913 0000082B C3                              	RET
   914 0000082C                                 L140:
   915 0000082C 8A 4D F3                        	MOV	CL,BYTE [-13+EBP]
   916 0000082F 88 0C 30                        	MOV	BYTE [EAX+ESI*1],CL
   917 00000832 EB E3                           	JMP	L127
   918 00000834                                 L139:
   919 00000834 C6 04 30 07                     	MOV	BYTE [EAX+ESI*1],7
   920 00000838 EB D4                           	JMP	L130
   921 0000083A                                 L138:
   922 0000083A C6 04 30 00                     	MOV	BYTE [EAX+ESI*1],0
   923 0000083E EB C5                           	JMP	L129
   924 00000840                                 	GLOBAL	_putblock8_8
   925 00000840                                 _putblock8_8:
   926 00000840 55                              	PUSH	EBP
   927 00000841 89 E5                           	MOV	EBP,ESP
   928 00000843 57                              	PUSH	EDI
   929 00000844 56                              	PUSH	ESI
   930 00000845 31 F6                           	XOR	ESI,ESI
   931 00000847 53                              	PUSH	EBX
   932 00000848 83 EC 0C                        	SUB	ESP,12
   933 0000084B 3B 75 14                        	CMP	ESI,DWORD [20+EBP]
   934 0000084E 7D 3E                           	JGE	L153
   935 00000850 31 FF                           	XOR	EDI,EDI
   936 00000852                                 L151:
   937 00000852 31 DB                           	XOR	EBX,EBX
   938 00000854 3B 5D 10                        	CMP	EBX,DWORD [16+EBP]
   939 00000857 7D 2C                           	JGE	L155
   940 00000859 8B 45 20                        	MOV	EAX,DWORD [32+EBP]
   941 0000085C 01 F8                           	ADD	EAX,EDI
   942 0000085E 89 45 EC                        	MOV	DWORD [-20+EBP],EAX
   943 00000861                                 L150:
   944 00000861 8B 45 1C                        	MOV	EAX,DWORD [28+EBP]
   945 00000864 8B 55 18                        	MOV	EDX,DWORD [24+EBP]
   946 00000867 01 F0                           	ADD	EAX,ESI
   947 00000869 01 DA                           	ADD	EDX,EBX
   948 0000086B 0F AF 45 0C                     	IMUL	EAX,DWORD [12+EBP]
   949 0000086F 01 D0                           	ADD	EAX,EDX
   950 00000871 8B 4D 08                        	MOV	ECX,DWORD [8+EBP]
   951 00000874 8B 55 EC                        	MOV	EDX,DWORD [-20+EBP]
   952 00000877 43                              	INC	EBX
   953 00000878 8A 12                           	MOV	DL,BYTE [EDX]
   954 0000087A 88 14 08                        	MOV	BYTE [EAX+ECX*1],DL
   955 0000087D FF 45 EC                        	INC	DWORD [-20+EBP]
   956 00000880 3B 5D 10                        	CMP	EBX,DWORD [16+EBP]
   957 00000883 7C DC                           	JL	L150
   958 00000885                                 L155:
   959 00000885 46                              	INC	ESI
   960 00000886 03 7D 24                        	ADD	EDI,DWORD [36+EBP]
   961 00000889 3B 75 14                        	CMP	ESI,DWORD [20+EBP]
   962 0000088C 7C C4                           	JL	L151
   963 0000088E                                 L153:
   964 0000088E 83 C4 0C                        	ADD	ESP,12
   965 00000891 5B                              	POP	EBX
   966 00000892 5E                              	POP	ESI
   967 00000893 5F                              	POP	EDI
   968 00000894 5D                              	POP	EBP
   969 00000895 C3                              	RET
   970                                          [SECTION .data]
   971 00000141 00 00 00                        	ALIGNB	4
   972 00000144                                 _table.2:
   973 00000144 00000003                        	DD	3
   974 00000148 00000001                        	DD	1
   975 0000014C 00000000                        	DD	0
   976 00000150 00000002                        	DD	2
   977                                          [SECTION .text]
   978 00000896                                 	GLOBAL	_rgb2pal
   979 00000896                                 _rgb2pal:
   980 00000896 55                              	PUSH	EBP
   981 00000897 89 E5                           	MOV	EBP,ESP
   982 00000899 57                              	PUSH	EDI
   983 0000089A 56                              	PUSH	ESI
   984 0000089B 53                              	PUSH	EBX
   985 0000089C 83 EC 14                        	SUB	ESP,20
   986 0000089F 8B 4D 08                        	MOV	ECX,DWORD [8+EBP]
   987 000008A2 8B 7D 0C                        	MOV	EDI,DWORD [12+EBP]
   988 000008A5 8B 5D 10                        	MOV	EBX,DWORD [16+EBP]
   989 000008A8 8B 55 14                        	MOV	EDX,DWORD [20+EBP]
   990 000008AB 8B 45 18                        	MOV	EAX,DWORD [24+EBP]
   991 000008AE 83 7D 1C 08                     	CMP	DWORD [28+EBP],8
   992 000008B2 74 27                           	JE	L159
   993 000008B4 C1 E1 08                        	SAL	ECX,8
   994 000008B7 8D 04 FD 00000000               	LEA	EAX,DWORD [0+EDI*8]
   995 000008BE 66 25 07E0                      	AND	AX,2016
   996 000008C2 89 CA                           	MOV	EDX,ECX
   997 000008C4 66 81 E2 F800                   	AND	DX,-2048
   998 000008C9 C1 FB 03                        	SAR	EBX,3
   999 000008CC 09 C2                           	OR	EDX,EAX
  1000 000008CE 09 DA                           	OR	EDX,EBX
  1001 000008D0 0F B7 C2                        	MOVZX	EAX,DX
  1002 000008D3                                 L156:
  1003 000008D3 83 C4 14                        	ADD	ESP,20
  1004 000008D6 5B                              	POP	EBX
  1005 000008D7 5E                              	POP	ESI
  1006 000008D8 5F                              	POP	EDI
  1007 000008D9 5D                              	POP	EBP
  1008 000008DA C3                              	RET
  1009 000008DB                                 L159:
  1010 000008DB 6B C9 15                        	IMUL	ECX,ECX,21
  1011 000008DE 83 E2 01                        	AND	EDX,1
  1012 000008E1 83 E0 01                        	AND	EAX,1
  1013 000008E4 BE 00000100                     	MOV	ESI,256
  1014 000008E9 8D 04 42                        	LEA	EAX,DWORD [EDX+EAX*2]
  1015 000008EC 6B FF 15                        	IMUL	EDI,EDI,21
  1016 000008EF 8B 04 85 [00000144]             	MOV	EAX,DWORD [_table.2+EAX*4]
  1017 000008F6 89 45 E0                        	MOV	DWORD [-32+EBP],EAX
  1018 000008F9 89 C8                           	MOV	EAX,ECX
  1019 000008FB 99                              	CDQ
  1020 000008FC F7 FE                           	IDIV	ESI
  1021 000008FE 89 C1                           	MOV	ECX,EAX
  1022 00000900 89 F8                           	MOV	EAX,EDI
  1023 00000902 99                              	CDQ
  1024 00000903 F7 FE                           	IDIV	ESI
  1025 00000905 6B DB 15                        	IMUL	EBX,EBX,21
  1026 00000908 89 C7                           	MOV	EDI,EAX
  1027 0000090A 03 4D E0                        	ADD	ECX,DWORD [-32+EBP]
  1028 0000090D 89 D8                           	MOV	EAX,EBX
  1029 0000090F 99                              	CDQ
  1030 00000910 F7 FE                           	IDIV	ESI
  1031 00000912 89 C3                           	MOV	EBX,EAX
  1032 00000914 BE 00000004                     	MOV	ESI,4
  1033 00000919 89 C8                           	MOV	EAX,ECX
  1034 0000091B 03 7D E0                        	ADD	EDI,DWORD [-32+EBP]
  1035 0000091E 03 5D E0                        	ADD	EBX,DWORD [-32+EBP]
  1036 00000921 99                              	CDQ
  1037 00000922 F7 FE                           	IDIV	ESI
  1038 00000924 89 C1                           	MOV	ECX,EAX
  1039 00000926 89 F8                           	MOV	EAX,EDI
  1040 00000928 99                              	CDQ
  1041 00000929 F7 FE                           	IDIV	ESI
  1042 0000092B 89 C7                           	MOV	EDI,EAX
  1043 0000092D 89 D8                           	MOV	EAX,EBX
  1044 0000092F 99                              	CDQ
  1045 00000930 F7 FE                           	IDIV	ESI
  1046 00000932 89 C3                           	MOV	EBX,EAX
  1047 00000934 6B C7 06                        	IMUL	EAX,EDI,6
  1048 00000937 6B D3 24                        	IMUL	EDX,EBX,36
  1049 0000093A 8D 04 08                        	LEA	EAX,DWORD [EAX+ECX*1]
  1050 0000093D 8D 44 02 10                     	LEA	EAX,DWORD [16+EDX+EAX*1]
  1051 00000941 0F B7 C0                        	MOVZX	EAX,AX
  1052 00000944 EB 8D                           	JMP	L156
  1053 00000946                                 	GLOBAL	_boxfilly
  1054 00000946                                 _boxfilly:
  1055 00000946 55                              	PUSH	EBP
  1056 00000947 89 E5                           	MOV	EBP,ESP
  1057 00000949 57                              	PUSH	EDI
  1058 0000094A 56                              	PUSH	ESI
  1059 0000094B BE 00000002                     	MOV	ESI,2
  1060 00000950 53                              	PUSH	EBX
  1061 00000951 83 EC 20                        	SUB	ESP,32
  1062 00000954 8B 5D 14                        	MOV	EBX,DWORD [20+EBP]
  1063 00000957 8A 45 10                        	MOV	AL,BYTE [16+EBP]
  1064 0000095A 03 5D 1C                        	ADD	EBX,DWORD [28+EBP]
  1065 0000095D 88 45 F3                        	MOV	BYTE [-13+EBP],AL
  1066 00000960 8B 4D 18                        	MOV	ECX,DWORD [24+EBP]
  1067 00000963 89 D8                           	MOV	EAX,EBX
  1068 00000965 99                              	CDQ
  1069 00000966 F7 FE                           	IDIV	ESI
  1070 00000968 89 45 EC                        	MOV	DWORD [-20+EBP],EAX
  1071 0000096B 8B 45 20                        	MOV	EAX,DWORD [32+EBP]
  1072 0000096E 8D 1C 08                        	LEA	EBX,DWORD [EAX+ECX*1]
  1073 00000971 89 D8                           	MOV	EAX,EBX
  1074 00000973 8B 5D 1C                        	MOV	EBX,DWORD [28+EBP]
  1075 00000976 99                              	CDQ
  1076 00000977 F7 FE                           	IDIV	ESI
  1077 00000979 2B 5D 14                        	SUB	EBX,DWORD [20+EBP]
  1078 0000097C 89 45 E8                        	MOV	DWORD [-24+EBP],EAX
  1079 0000097F 89 D8                           	MOV	EAX,EBX
  1080 00000981 99                              	CDQ
  1081 00000982 F7 FE                           	IDIV	ESI
  1082 00000984 89 CE                           	MOV	ESI,ECX
  1083 00000986 3B 4D 20                        	CMP	ECX,DWORD [32+EBP]
  1084 00000989 89 45 E0                        	MOV	DWORD [-32+EBP],EAX
  1085 0000098C 7F 48                           	JG	L173
  1086 0000098E 8B 7D 0C                        	MOV	EDI,DWORD [12+EBP]
  1087 00000991 0F AF F9                        	IMUL	EDI,ECX
  1088 00000994                                 L171:
  1089 00000994 8B 4D 14                        	MOV	ECX,DWORD [20+EBP]
  1090 00000997 3B 4D 1C                        	CMP	ECX,DWORD [28+EBP]
  1091 0000099A 7F 31                           	JG	L175
  1092 0000099C 8B 55 08                        	MOV	EDX,DWORD [8+EBP]
  1093 0000099F 8D 04 3A                        	LEA	EAX,DWORD [EDX+EDI*1]
  1094 000009A2 8D 1C 08                        	LEA	EBX,DWORD [EAX+ECX*1]
  1095 000009A5                                 L170:
  1096 000009A5 89 C8                           	MOV	EAX,ECX
  1097 000009A7 89 F2                           	MOV	EDX,ESI
  1098 000009A9 2B 45 EC                        	SUB	EAX,DWORD [-20+EBP]
  1099 000009AC 2B 55 E8                        	SUB	EDX,DWORD [-24+EBP]
  1100 000009AF 0F AF C0                        	IMUL	EAX,EAX
  1101 000009B2 0F AF D2                        	IMUL	EDX,EDX
  1102 000009B5 01 D0                           	ADD	EAX,EDX
  1103 000009B7 8B 55 E0                        	MOV	EDX,DWORD [-32+EBP]
  1104 000009BA 0F AF D2                        	IMUL	EDX,EDX
  1105 000009BD 39 D0                           	CMP	EAX,EDX
  1106 000009BF 7F 05                           	JG	L167
  1107 000009C1 8A 45 F3                        	MOV	AL,BYTE [-13+EBP]
  1108 000009C4 88 03                           	MOV	BYTE [EBX],AL
  1109 000009C6                                 L167:
  1110 000009C6 41                              	INC	ECX
  1111 000009C7 43                              	INC	EBX
  1112 000009C8 3B 4D 1C                        	CMP	ECX,DWORD [28+EBP]
  1113 000009CB 7E D8                           	JLE	L170
  1114 000009CD                                 L175:
  1115 000009CD 46                              	INC	ESI
  1116 000009CE 03 7D 0C                        	ADD	EDI,DWORD [12+EBP]
  1117 000009D1 3B 75 20                        	CMP	ESI,DWORD [32+EBP]
  1118 000009D4 7E BE                           	JLE	L171
  1119 000009D6                                 L173:
  1120 000009D6 83 C4 20                        	ADD	ESP,32
  1121 000009D9 5B                              	POP	EBX
  1122 000009DA 5E                              	POP	ESI
  1123 000009DB 5F                              	POP	EDI
  1124 000009DC 5D                              	POP	EBP
  1125 000009DD C3                              	RET
  1126 000009DE                                 	GLOBAL	_san
  1127 000009DE                                 _san:
  1128 000009DE 55                              	PUSH	EBP
  1129 000009DF 89 E5                           	MOV	EBP,ESP
  1130 000009E1 57                              	PUSH	EDI
  1131 000009E2 56                              	PUSH	ESI
  1132 000009E3 53                              	PUSH	EBX
  1133 000009E4 51                              	PUSH	ECX
  1134 000009E5 51                              	PUSH	ECX
  1135 000009E6 8A 45 10                        	MOV	AL,BYTE [16+EBP]
  1136 000009E9 8B 75 18                        	MOV	ESI,DWORD [24+EBP]
  1137 000009EC 88 45 F3                        	MOV	BYTE [-13+EBP],AL
  1138 000009EF 3B 75 20                        	CMP	ESI,DWORD [32+EBP]
  1139 000009F2 7F 4E                           	JG	L189
  1140 000009F4 8B 7D 0C                        	MOV	EDI,DWORD [12+EBP]
  1141 000009F7 0F AF FE                        	IMUL	EDI,ESI
  1142 000009FA                                 L187:
  1143 000009FA 8B 4D 14                        	MOV	ECX,DWORD [20+EBP]
  1144 000009FD 3B 4D 1C                        	CMP	ECX,DWORD [28+EBP]
  1145 00000A00 7F 37                           	JG	L191
  1146 00000A02 8B 55 08                        	MOV	EDX,DWORD [8+EBP]
  1147 00000A05 8D 04 3A                        	LEA	EAX,DWORD [EDX+EDI*1]
  1148 00000A08 8D 1C 08                        	LEA	EBX,DWORD [EAX+ECX*1]
  1149 00000A0B                                 L186:
  1150 00000A0B 8B 45 20                        	MOV	EAX,DWORD [32+EBP]
  1151 00000A0E 89 CA                           	MOV	EDX,ECX
  1152 00000A10 2B 55 14                        	SUB	EDX,DWORD [20+EBP]
  1153 00000A13 2B 45 18                        	SUB	EAX,DWORD [24+EBP]
  1154 00000A16 0F AF C2                        	IMUL	EAX,EDX
  1155 00000A19 8B 55 1C                        	MOV	EDX,DWORD [28+EBP]
  1156 00000A1C 2B 55 14                        	SUB	EDX,DWORD [20+EBP]
  1157 00000A1F 89 55 EC                        	MOV	DWORD [-20+EBP],EDX
  1158 00000A22 99                              	CDQ
  1159 00000A23 F7 7D EC                        	IDIV	DWORD [-20+EBP]
  1160 00000A26 03 45 18                        	ADD	EAX,DWORD [24+EBP]
  1161 00000A29 39 C6                           	CMP	ESI,EAX
  1162 00000A2B 7C 05                           	JL	L183
  1163 00000A2D 8A 45 F3                        	MOV	AL,BYTE [-13+EBP]
  1164 00000A30 88 03                           	MOV	BYTE [EBX],AL
  1165 00000A32                                 L183:
  1166 00000A32 41                              	INC	ECX
  1167 00000A33 43                              	INC	EBX
  1168 00000A34 3B 4D 1C                        	CMP	ECX,DWORD [28+EBP]
  1169 00000A37 7E D2                           	JLE	L186
  1170 00000A39                                 L191:
  1171 00000A39 46                              	INC	ESI
  1172 00000A3A 03 7D 0C                        	ADD	EDI,DWORD [12+EBP]
  1173 00000A3D 3B 75 20                        	CMP	ESI,DWORD [32+EBP]
  1174 00000A40 7E B8                           	JLE	L187
  1175 00000A42                                 L189:
  1176 00000A42 58                              	POP	EAX
  1177 00000A43 5A                              	POP	EDX
  1178 00000A44 5B                              	POP	EBX
  1179 00000A45 5E                              	POP	ESI
  1180 00000A46 5F                              	POP	EDI
  1181 00000A47 5D                              	POP	EBP
  1182 00000A48 C3                              	RET
  1183 00000A49                                 	GLOBAL	_line
  1184 00000A49                                 _line:
  1185 00000A49 55                              	PUSH	EBP
  1186 00000A4A 89 E5                           	MOV	EBP,ESP
  1187 00000A4C 57                              	PUSH	EDI
  1188 00000A4D 56                              	PUSH	ESI
  1189 00000A4E 53                              	PUSH	EBX
  1190 00000A4F 83 EC 24                        	SUB	ESP,36
  1191 00000A52 8A 45 10                        	MOV	AL,BYTE [16+EBP]
  1192 00000A55 8B 55 1C                        	MOV	EDX,DWORD [28+EBP]
  1193 00000A58 88 45 F3                        	MOV	BYTE [-13+EBP],AL
  1194 00000A5B 39 55 14                        	CMP	DWORD [20+EBP],EDX
  1195 00000A5E 0F 8D 00000169                  	JGE	L205
  1196 00000A64 8B 4D 20                        	MOV	ECX,DWORD [32+EBP]
  1197 00000A67 39 4D 18                        	CMP	DWORD [24+EBP],ECX
  1198 00000A6A 0F 8D 0000009D                  	JGE	L193
  1199 00000A70 8B 7D 18                        	MOV	EDI,DWORD [24+EBP]
  1200 00000A73 8B 5D 0C                        	MOV	EBX,DWORD [12+EBP]
  1201 00000A76 0F AF DF                        	IMUL	EBX,EDI
  1202 00000A79 89 5D DC                        	MOV	DWORD [-36+EBP],EBX
  1203 00000A7C                                 L204:
  1204 00000A7C 8B 75 14                        	MOV	ESI,DWORD [20+EBP]
  1205 00000A7F 8B 45 1C                        	MOV	EAX,DWORD [28+EBP]
  1206 00000A82 39 C6                           	CMP	ESI,EAX
  1207 00000A84 7F 77                           	JG	L265
  1208 00000A86 8B 45 DC                        	MOV	EAX,DWORD [-36+EBP]
  1209 00000A89 03 45 08                        	ADD	EAX,DWORD [8+EBP]
  1210 00000A8C 01 F0                           	ADD	EAX,ESI
  1211 00000A8E 89 45 D4                        	MOV	DWORD [-44+EBP],EAX
  1212 00000A91                                 L203:
  1213 00000A91 8B 4D 20                        	MOV	ECX,DWORD [32+EBP]
  1214 00000A94 8B 45 1C                        	MOV	EAX,DWORD [28+EBP]
  1215 00000A97 2B 45 24                        	SUB	EAX,DWORD [36+EBP]
  1216 00000A9A 2B 4D 24                        	SUB	ECX,DWORD [36+EBP]
  1217 00000A9D 8B 55 14                        	MOV	EDX,DWORD [20+EBP]
  1218 00000AA0 89 45 D0                        	MOV	DWORD [-48+EBP],EAX
  1219 00000AA3 03 55 24                        	ADD	EDX,DWORD [36+EBP]
  1220 00000AA6 2B 4D 18                        	SUB	ECX,DWORD [24+EBP]
  1221 00000AA9 89 F0                           	MOV	EAX,ESI
  1222 00000AAB 8B 5D 18                        	MOV	EBX,DWORD [24+EBP]
  1223 00000AAE 29 D0                           	SUB	EAX,EDX
  1224 00000AB0 03 5D 24                        	ADD	EBX,DWORD [36+EBP]
  1225 00000AB3 0F AF C8                        	IMUL	ECX,EAX
  1226 00000AB6 89 5D EC                        	MOV	DWORD [-20+EBP],EBX
  1227 00000AB9 89 C8                           	MOV	EAX,ECX
  1228 00000ABB 8B 5D 1C                        	MOV	EBX,DWORD [28+EBP]
  1229 00000ABE 29 D3                           	SUB	EBX,EDX
  1230 00000AC0 99                              	CDQ
  1231 00000AC1 F7 FB                           	IDIV	EBX
  1232 00000AC3 8B 55 18                        	MOV	EDX,DWORD [24+EBP]
  1233 00000AC6 8D 04 02                        	LEA	EAX,DWORD [EDX+EAX*1]
  1234 00000AC9 39 C7                           	CMP	EDI,EAX
  1235 00000ACB 7C 27                           	JL	L200
  1236 00000ACD 8B 45 20                        	MOV	EAX,DWORD [32+EBP]
  1237 00000AD0 89 F2                           	MOV	EDX,ESI
  1238 00000AD2 2B 55 14                        	SUB	EDX,DWORD [20+EBP]
  1239 00000AD5 2B 45 EC                        	SUB	EAX,DWORD [-20+EBP]
  1240 00000AD8 0F AF C2                        	IMUL	EAX,EDX
  1241 00000ADB 8B 4D 14                        	MOV	ECX,DWORD [20+EBP]
  1242 00000ADE 29 4D D0                        	SUB	DWORD [-48+EBP],ECX
  1243 00000AE1 99                              	CDQ
  1244 00000AE2 F7 7D D0                        	IDIV	DWORD [-48+EBP]
  1245 00000AE5 03 45 EC                        	ADD	EAX,DWORD [-20+EBP]
  1246 00000AE8 39 C7                           	CMP	EDI,EAX
  1247 00000AEA 7F 08                           	JG	L200
  1248 00000AEC 8B 45 D4                        	MOV	EAX,DWORD [-44+EBP]
  1249 00000AEF 8A 5D F3                        	MOV	BL,BYTE [-13+EBP]
  1250 00000AF2 88 18                           	MOV	BYTE [EAX],BL
  1251 00000AF4                                 L200:
  1252 00000AF4 46                              	INC	ESI
  1253 00000AF5 FF 45 D4                        	INC	DWORD [-44+EBP]
  1254 00000AF8 3B 75 1C                        	CMP	ESI,DWORD [28+EBP]
  1255 00000AFB 7E 94                           	JLE	L203
  1256 00000AFD                                 L265:
  1257 00000AFD 8B 55 0C                        	MOV	EDX,DWORD [12+EBP]
  1258 00000B00 47                              	INC	EDI
  1259 00000B01 01 55 DC                        	ADD	DWORD [-36+EBP],EDX
  1260 00000B04 3B 7D 20                        	CMP	EDI,DWORD [32+EBP]
  1261 00000B07 0F 8E FFFFFF6F                  	JLE	L204
  1262 00000B0D                                 L193:
  1263 00000B0D 8B 4D 1C                        	MOV	ECX,DWORD [28+EBP]
  1264 00000B10 39 4D 14                        	CMP	DWORD [20+EBP],ECX
  1265 00000B13 0F 8D 000000B4                  	JGE	L205
  1266 00000B19 8B 5D 20                        	MOV	EBX,DWORD [32+EBP]
  1267 00000B1C 39 5D 18                        	CMP	DWORD [24+EBP],EBX
  1268 00000B1F 0F 8E 000000A8                  	JLE	L205
  1269 00000B25 89 DF                           	MOV	EDI,EBX
  1270 00000B27 3B 5D 18                        	CMP	EBX,DWORD [24+EBP]
  1271 00000B2A 0F 8F 0000009D                  	JG	L205
  1272 00000B30 8B 45 0C                        	MOV	EAX,DWORD [12+EBP]
  1273 00000B33 0F AF C3                        	IMUL	EAX,EBX
  1274 00000B36 89 45 E0                        	MOV	DWORD [-32+EBP],EAX
  1275 00000B39                                 L216:
  1276 00000B39 8B 75 14                        	MOV	ESI,DWORD [20+EBP]
  1277 00000B3C 8B 55 1C                        	MOV	EDX,DWORD [28+EBP]
  1278 00000B3F 39 D6                           	CMP	ESI,EDX
  1279 00000B41 7D 7A                           	JGE	L268
  1280 00000B43 8B 45 E0                        	MOV	EAX,DWORD [-32+EBP]
  1281 00000B46 03 45 08                        	ADD	EAX,DWORD [8+EBP]
  1282 00000B49 01 F0                           	ADD	EAX,ESI
  1283 00000B4B 89 45 D8                        	MOV	DWORD [-40+EBP],EAX
  1284 00000B4E                                 L215:
  1285 00000B4E 8B 55 20                        	MOV	EDX,DWORD [32+EBP]
  1286 00000B51 8B 45 14                        	MOV	EAX,DWORD [20+EBP]
  1287 00000B54 03 55 24                        	ADD	EDX,DWORD [36+EBP]
  1288 00000B57 03 45 24                        	ADD	EAX,DWORD [36+EBP]
  1289 00000B5A 8B 5D 18                        	MOV	EBX,DWORD [24+EBP]
  1290 00000B5D 89 55 E4                        	MOV	DWORD [-28+EBP],EDX
  1291 00000B60 2B 5D 24                        	SUB	EBX,DWORD [36+EBP]
  1292 00000B63 89 F2                           	MOV	EDX,ESI
  1293 00000B65 2B 55 14                        	SUB	EDX,DWORD [20+EBP]
  1294 00000B68 89 45 E8                        	MOV	DWORD [-24+EBP],EAX
  1295 00000B6B 8B 45 20                        	MOV	EAX,DWORD [32+EBP]
  1296 00000B6E 8B 4D 1C                        	MOV	ECX,DWORD [28+EBP]
  1297 00000B71 29 D8                           	SUB	EAX,EBX
  1298 00000B73 2B 4D 24                        	SUB	ECX,DWORD [36+EBP]
  1299 00000B76 0F AF C2                        	IMUL	EAX,EDX
  1300 00000B79 2B 4D 14                        	SUB	ECX,DWORD [20+EBP]
  1301 00000B7C 99                              	CDQ
  1302 00000B7D F7 F9                           	IDIV	ECX
  1303 00000B7F 01 D8                           	ADD	EAX,EBX
  1304 00000B81 39 C7                           	CMP	EDI,EAX
  1305 00000B83 7C 2F                           	JL	L212
  1306 00000B85 8B 4D 18                        	MOV	ECX,DWORD [24+EBP]
  1307 00000B88 89 F0                           	MOV	EAX,ESI
  1308 00000B8A 2B 45 E8                        	SUB	EAX,DWORD [-24+EBP]
  1309 00000B8D 29 4D E4                        	SUB	DWORD [-28+EBP],ECX
  1310 00000B90 8B 55 1C                        	MOV	EDX,DWORD [28+EBP]
  1311 00000B93 0F AF 45 E4                     	IMUL	EAX,DWORD [-28+EBP]
  1312 00000B97 2B 55 E8                        	SUB	EDX,DWORD [-24+EBP]
  1313 00000B9A 89 45 E4                        	MOV	DWORD [-28+EBP],EAX
  1314 00000B9D 89 D3                           	MOV	EBX,EDX
  1315 00000B9F 99                              	CDQ
  1316 00000BA0 F7 FB                           	IDIV	EBX
  1317 00000BA2 8B 55 18                        	MOV	EDX,DWORD [24+EBP]
  1318 00000BA5 8D 04 02                        	LEA	EAX,DWORD [EDX+EAX*1]
  1319 00000BA8 39 C7                           	CMP	EDI,EAX
  1320 00000BAA 7F 08                           	JG	L212
  1321 00000BAC 8B 5D D8                        	MOV	EBX,DWORD [-40+EBP]
  1322 00000BAF 8A 4D F3                        	MOV	CL,BYTE [-13+EBP]
  1323 00000BB2 88 0B                           	MOV	BYTE [EBX],CL
  1324 00000BB4                                 L212:
  1325 00000BB4 46                              	INC	ESI
  1326 00000BB5 FF 45 D8                        	INC	DWORD [-40+EBP]
  1327 00000BB8 3B 75 1C                        	CMP	ESI,DWORD [28+EBP]
  1328 00000BBB 7C 91                           	JL	L215
  1329 00000BBD                                 L268:
  1330 00000BBD 8B 45 0C                        	MOV	EAX,DWORD [12+EBP]
  1331 00000BC0 47                              	INC	EDI
  1332 00000BC1 01 45 E0                        	ADD	DWORD [-32+EBP],EAX
  1333 00000BC4 3B 7D 18                        	CMP	EDI,DWORD [24+EBP]
  1334 00000BC7 0F 8E FFFFFF6C                  	JLE	L216
  1335 00000BCD                                 L205:
  1336 00000BCD 8B 55 1C                        	MOV	EDX,DWORD [28+EBP]
  1337 00000BD0 39 55 14                        	CMP	DWORD [20+EBP],EDX
  1338 00000BD3 0F 84 000000A8                  	JE	L283
  1339 00000BD9                                 L217:
  1340 00000BD9 8B 45 20                        	MOV	EAX,DWORD [32+EBP]
  1341 00000BDC 39 45 18                        	CMP	DWORD [24+EBP],EAX
  1342 00000BDF 74 08                           	JE	L284
  1343 00000BE1                                 L192:
  1344 00000BE1 83 C4 24                        	ADD	ESP,36
  1345 00000BE4 5B                              	POP	EBX
  1346 00000BE5 5E                              	POP	ESI
  1347 00000BE6 5F                              	POP	EDI
  1348 00000BE7 5D                              	POP	EBP
  1349 00000BE8 C3                              	RET
  1350 00000BE9                                 L284:
  1351 00000BE9 8B 55 14                        	MOV	EDX,DWORD [20+EBP]
  1352 00000BEC 39 55 1C                        	CMP	DWORD [28+EBP],EDX
  1353 00000BEF 7C 4A                           	JL	L282
  1354 00000BF1 8B 7D 18                        	MOV	EDI,DWORD [24+EBP]
  1355 00000BF4 8B 45 18                        	MOV	EAX,DWORD [24+EBP]
  1356 00000BF7 2B 7D 24                        	SUB	EDI,DWORD [36+EBP]
  1357 00000BFA 03 45 24                        	ADD	EAX,DWORD [36+EBP]
  1358 00000BFD 39 C7                           	CMP	EDI,EAX
  1359 00000BFF 7F 32                           	JG	L241
  1360 00000C01 8B 55 0C                        	MOV	EDX,DWORD [12+EBP]
  1361 00000C04 0F AF D7                        	IMUL	EDX,EDI
  1362 00000C07                                 L251:
  1363 00000C07 8B 75 14                        	MOV	ESI,DWORD [20+EBP]
  1364 00000C0A 8B 4D 1C                        	MOV	ECX,DWORD [28+EBP]
  1365 00000C0D 39 CE                           	CMP	ESI,ECX
  1366 00000C0F 7F 14                           	JG	L277
  1367 00000C11 8B 5D 08                        	MOV	EBX,DWORD [8+EBP]
  1368 00000C14 8D 04 13                        	LEA	EAX,DWORD [EBX+EDX*1]
  1369 00000C17 01 F0                           	ADD	EAX,ESI
  1370 00000C19                                 L250:
  1371 00000C19 8A 4D F3                        	MOV	CL,BYTE [-13+EBP]
  1372 00000C1C 46                              	INC	ESI
  1373 00000C1D 88 08                           	MOV	BYTE [EAX],CL
  1374 00000C1F 40                              	INC	EAX
  1375 00000C20 3B 75 1C                        	CMP	ESI,DWORD [28+EBP]
  1376 00000C23 7E F4                           	JLE	L250
  1377 00000C25                                 L277:
  1378 00000C25 8B 45 18                        	MOV	EAX,DWORD [24+EBP]
  1379 00000C28 47                              	INC	EDI
  1380 00000C29 03 45 24                        	ADD	EAX,DWORD [36+EBP]
  1381 00000C2C 03 55 0C                        	ADD	EDX,DWORD [12+EBP]
  1382 00000C2F 39 C7                           	CMP	EDI,EAX
  1383 00000C31 7E D4                           	JLE	L251
  1384 00000C33                                 L241:
  1385 00000C33 8B 5D 14                        	MOV	EBX,DWORD [20+EBP]
  1386 00000C36 39 5D 1C                        	CMP	DWORD [28+EBP],EBX
  1387 00000C39 7D A6                           	JGE	L192
  1388 00000C3B                                 L282:
  1389 00000C3B 8B 7D 18                        	MOV	EDI,DWORD [24+EBP]
  1390 00000C3E 8B 45 18                        	MOV	EAX,DWORD [24+EBP]
  1391 00000C41 2B 7D 24                        	SUB	EDI,DWORD [36+EBP]
  1392 00000C44 03 45 24                        	ADD	EAX,DWORD [36+EBP]
  1393 00000C47 39 C7                           	CMP	EDI,EAX
  1394 00000C49 7F 96                           	JG	L192
  1395 00000C4B 8B 55 0C                        	MOV	EDX,DWORD [12+EBP]
  1396 00000C4E 0F AF D7                        	IMUL	EDX,EDI
  1397 00000C51                                 L262:
  1398 00000C51 8B 75 1C                        	MOV	ESI,DWORD [28+EBP]
  1399 00000C54 3B 75 14                        	CMP	ESI,DWORD [20+EBP]
  1400 00000C57 7F 15                           	JG	L280
  1401 00000C59 8B 4D 08                        	MOV	ECX,DWORD [8+EBP]
  1402 00000C5C 8D 04 11                        	LEA	EAX,DWORD [ECX+EDX*1]
  1403 00000C5F 8D 04 30                        	LEA	EAX,DWORD [EAX+ESI*1]
  1404 00000C62                                 L261:
  1405 00000C62 8A 5D F3                        	MOV	BL,BYTE [-13+EBP]
  1406 00000C65 46                              	INC	ESI
  1407 00000C66 88 18                           	MOV	BYTE [EAX],BL
  1408 00000C68 40                              	INC	EAX
  1409 00000C69 3B 75 14                        	CMP	ESI,DWORD [20+EBP]
  1410 00000C6C 7E F4                           	JLE	L261
  1411 00000C6E                                 L280:
  1412 00000C6E 8B 45 18                        	MOV	EAX,DWORD [24+EBP]
  1413 00000C71 47                              	INC	EDI
  1414 00000C72 03 45 24                        	ADD	EAX,DWORD [36+EBP]
  1415 00000C75 03 55 0C                        	ADD	EDX,DWORD [12+EBP]
  1416 00000C78 39 C7                           	CMP	EDI,EAX
  1417 00000C7A 7E D5                           	JLE	L262
  1418 00000C7C E9 FFFFFF60                     	JMP	L192
  1419 00000C81                                 L283:
  1420 00000C81 8B 4D 18                        	MOV	ECX,DWORD [24+EBP]
  1421 00000C84 39 4D 20                        	CMP	DWORD [32+EBP],ECX
  1422 00000C87 7C 42                           	JL	L281
  1423 00000C89 89 CF                           	MOV	EDI,ECX
  1424 00000C8B 3B 4D 20                        	CMP	ECX,DWORD [32+EBP]
  1425 00000C8E 7F 2F                           	JG	L218
  1426 00000C90 8B 55 0C                        	MOV	EDX,DWORD [12+EBP]
  1427 00000C93 0F AF D1                        	IMUL	EDX,ECX
  1428 00000C96                                 L228:
  1429 00000C96 8B 75 14                        	MOV	ESI,DWORD [20+EBP]
  1430 00000C99 2B 75 24                        	SUB	ESI,DWORD [36+EBP]
  1431 00000C9C 3B 75 14                        	CMP	ESI,DWORD [20+EBP]
  1432 00000C9F 7F 15                           	JG	L271
  1433 00000CA1 8B 5D 08                        	MOV	EBX,DWORD [8+EBP]
  1434 00000CA4 8D 04 13                        	LEA	EAX,DWORD [EBX+EDX*1]
  1435 00000CA7 8D 04 30                        	LEA	EAX,DWORD [EAX+ESI*1]
  1436 00000CAA                                 L227:
  1437 00000CAA 8A 4D F3                        	MOV	CL,BYTE [-13+EBP]
  1438 00000CAD 46                              	INC	ESI
  1439 00000CAE 88 08                           	MOV	BYTE [EAX],CL
  1440 00000CB0 40                              	INC	EAX
  1441 00000CB1 3B 75 14                        	CMP	ESI,DWORD [20+EBP]
  1442 00000CB4 7E F4                           	JLE	L227
  1443 00000CB6                                 L271:
  1444 00000CB6 47                              	INC	EDI
  1445 00000CB7 03 55 0C                        	ADD	EDX,DWORD [12+EBP]
  1446 00000CBA 3B 7D 20                        	CMP	EDI,DWORD [32+EBP]
  1447 00000CBD 7E D7                           	JLE	L228
  1448 00000CBF                                 L218:
  1449 00000CBF 8B 5D 18                        	MOV	EBX,DWORD [24+EBP]
  1450 00000CC2 39 5D 20                        	CMP	DWORD [32+EBP],EBX
  1451 00000CC5 0F 8D FFFFFF0E                  	JGE	L217
  1452 00000CCB                                 L281:
  1453 00000CCB 8B 7D 20                        	MOV	EDI,DWORD [32+EBP]
  1454 00000CCE 3B 7D 18                        	CMP	EDI,DWORD [24+EBP]
  1455 00000CD1 0F 8F FFFFFF02                  	JG	L217
  1456 00000CD7 8B 55 0C                        	MOV	EDX,DWORD [12+EBP]
  1457 00000CDA 0F AF D7                        	IMUL	EDX,EDI
  1458 00000CDD                                 L239:
  1459 00000CDD 8B 75 14                        	MOV	ESI,DWORD [20+EBP]
  1460 00000CE0 2B 75 24                        	SUB	ESI,DWORD [36+EBP]
  1461 00000CE3 3B 75 14                        	CMP	ESI,DWORD [20+EBP]
  1462 00000CE6 7F 15                           	JG	L274
  1463 00000CE8 8B 4D 08                        	MOV	ECX,DWORD [8+EBP]
  1464 00000CEB 8D 04 11                        	LEA	EAX,DWORD [ECX+EDX*1]
  1465 00000CEE 8D 04 30                        	LEA	EAX,DWORD [EAX+ESI*1]
  1466 00000CF1                                 L238:
  1467 00000CF1 8A 5D F3                        	MOV	BL,BYTE [-13+EBP]
  1468 00000CF4 46                              	INC	ESI
  1469 00000CF5 88 18                           	MOV	BYTE [EAX],BL
  1470 00000CF7 40                              	INC	EAX
  1471 00000CF8 3B 75 14                        	CMP	ESI,DWORD [20+EBP]
  1472 00000CFB 7E F4                           	JLE	L238
  1473 00000CFD                                 L274:
  1474 00000CFD 47                              	INC	EDI
  1475 00000CFE 03 55 0C                        	ADD	EDX,DWORD [12+EBP]
  1476 00000D01 3B 7D 18                        	CMP	EDI,DWORD [24+EBP]
  1477 00000D04 7E D7                           	JLE	L239
  1478 00000D06 E9 FFFFFECE                     	JMP	L217
  1479 00000D0B                                 	GLOBAL	_putfont8_ch
  1480 00000D0B                                 _putfont8_ch:
  1481 00000D0B 55                              	PUSH	EBP
  1482 00000D0C 89 E5                           	MOV	EBP,ESP
  1483 00000D0E 57                              	PUSH	EDI
  1484 00000D0F 56                              	PUSH	ESI
  1485 00000D10 31 F6                           	XOR	ESI,ESI
  1486 00000D12 53                              	PUSH	EBX
  1487 00000D13 8B 7D 1C                        	MOV	EDI,DWORD [28+EBP]
  1488 00000D16 8A 5D 18                        	MOV	BL,BYTE [24+EBP]
  1489 00000D19                                 L298:
  1490 00000D19 8B 45 14                        	MOV	EAX,DWORD [20+EBP]
  1491 00000D1C 8B 55 10                        	MOV	EDX,DWORD [16+EBP]
  1492 00000D1F 01 F0                           	ADD	EAX,ESI
  1493 00000D21 0F AF 45 0C                     	IMUL	EAX,DWORD [12+EBP]
  1494 00000D25 03 45 08                        	ADD	EAX,DWORD [8+EBP]
  1495 00000D28 8D 0C 02                        	LEA	ECX,DWORD [EDX+EAX*1]
  1496 00000D2B 8A 14 77                        	MOV	DL,BYTE [EDI+ESI*2]
  1497 00000D2E 84 D2                           	TEST	DL,DL
  1498 00000D30 79 02                           	JNS	L290
  1499 00000D32 88 19                           	MOV	BYTE [ECX],BL
  1500 00000D34                                 L290:
  1501 00000D34 88 D0                           	MOV	AL,DL
  1502 00000D36 83 E0 40                        	AND	EAX,64
  1503 00000D39 84 C0                           	TEST	AL,AL
  1504 00000D3B 74 03                           	JE	L291
  1505 00000D3D 88 59 01                        	MOV	BYTE [1+ECX],BL
  1506 00000D40                                 L291:
  1507 00000D40 88 D0                           	MOV	AL,DL
  1508 00000D42 83 E0 20                        	AND	EAX,32
  1509 00000D45 84 C0                           	TEST	AL,AL
  1510 00000D47 74 03                           	JE	L292
  1511 00000D49 88 59 02                        	MOV	BYTE [2+ECX],BL
  1512 00000D4C                                 L292:
  1513 00000D4C 88 D0                           	MOV	AL,DL
  1514 00000D4E 83 E0 10                        	AND	EAX,16
  1515 00000D51 84 C0                           	TEST	AL,AL
  1516 00000D53 74 03                           	JE	L293
  1517 00000D55 88 59 03                        	MOV	BYTE [3+ECX],BL
  1518 00000D58                                 L293:
  1519 00000D58 88 D0                           	MOV	AL,DL
  1520 00000D5A 83 E0 08                        	AND	EAX,8
  1521 00000D5D 84 C0                           	TEST	AL,AL
  1522 00000D5F 74 03                           	JE	L294
  1523 00000D61 88 59 04                        	MOV	BYTE [4+ECX],BL
  1524 00000D64                                 L294:
  1525 00000D64 88 D0                           	MOV	AL,DL
  1526 00000D66 83 E0 04                        	AND	EAX,4
  1527 00000D69 84 C0                           	TEST	AL,AL
  1528 00000D6B 74 03                           	JE	L295
  1529 00000D6D 88 59 05                        	MOV	BYTE [5+ECX],BL
  1530 00000D70                                 L295:
  1531 00000D70 88 D0                           	MOV	AL,DL
  1532 00000D72 83 E0 02                        	AND	EAX,2
  1533 00000D75 84 C0                           	TEST	AL,AL
  1534 00000D77 74 03                           	JE	L296
  1535 00000D79 88 59 06                        	MOV	BYTE [6+ECX],BL
  1536 00000D7C                                 L296:
  1537 00000D7C 83 E2 01                        	AND	EDX,1
  1538 00000D7F 84 D2                           	TEST	DL,DL
  1539 00000D81 74 03                           	JE	L288
  1540 00000D83 88 59 07                        	MOV	BYTE [7+ECX],BL
  1541 00000D86                                 L288:
  1542 00000D86 46                              	INC	ESI
  1543 00000D87 83 FE 0F                        	CMP	ESI,15
  1544 00000D8A 7E 8D                           	JLE	L298
  1545 00000D8C 5B                              	POP	EBX
  1546 00000D8D 5E                              	POP	ESI
  1547 00000D8E 5F                              	POP	EDI
  1548 00000D8F 5D                              	POP	EBP
  1549 00000D90 C3                              	RET
  1550 00000D91                                 	GLOBAL	_putfont32
  1551 00000D91                                 _putfont32:
  1552 00000D91 55                              	PUSH	EBP
  1553 00000D92 89 E5                           	MOV	EBP,ESP
  1554 00000D94 57                              	PUSH	EDI
  1555 00000D95 56                              	PUSH	ESI
  1556 00000D96 53                              	PUSH	EBX
  1557 00000D97 83 EC 10                        	SUB	ESP,16
  1558 00000D9A 8A 45 18                        	MOV	AL,BYTE [24+EBP]
  1559 00000D9D 8B 55 10                        	MOV	EDX,DWORD [16+EBP]
  1560 00000DA0 88 45 F3                        	MOV	BYTE [-13+EBP],AL
  1561 00000DA3 8B 45 14                        	MOV	EAX,DWORD [20+EBP]
  1562 00000DA6 0F AF 45 0C                     	IMUL	EAX,DWORD [12+EBP]
  1563 00000DAA 03 45 08                        	ADD	EAX,DWORD [8+EBP]
  1564 00000DAD C7 45 E8 00000001               	MOV	DWORD [-24+EBP],1
  1565 00000DB4 8D 3C 02                        	LEA	EDI,DWORD [EDX+EAX*1]
  1566 00000DB7 C7 45 EC 00000000               	MOV	DWORD [-20+EBP],0
  1567 00000DBE                                 L318:
  1568 00000DBE 31 DB                           	XOR	EBX,EBX
  1569 00000DC0                                 L311:
  1570 00000DC0 8B 4D 1C                        	MOV	ECX,DWORD [28+EBP]
  1571 00000DC3 8B 45 EC                        	MOV	EAX,DWORD [-20+EBP]
  1572 00000DC6 0F BE 14 08                     	MOVSX	EDX,BYTE [EAX+ECX*1]
  1573 00000DCA B8 00000080                     	MOV	EAX,128
  1574 00000DCF 88 D9                           	MOV	CL,BL
  1575 00000DD1 D3 F8                           	SAR	EAX,CL
  1576 00000DD3 85 C2                           	TEST	EDX,EAX
  1577 00000DD5 74 16                           	JE	L308
  1578 00000DD7 8B 45 EC                        	MOV	EAX,DWORD [-20+EBP]
  1579 00000DDA BA 00000002                     	MOV	EDX,2
  1580 00000DDF 89 D1                           	MOV	ECX,EDX
  1581 00000DE1 99                              	CDQ
  1582 00000DE2 F7 F9                           	IDIV	ECX
  1583 00000DE4 8A 45 F3                        	MOV	AL,BYTE [-13+EBP]
  1584 00000DE7 8D 14 D3                        	LEA	EDX,DWORD [EBX+EDX*8]
  1585 00000DEA 88 04 3A                        	MOV	BYTE [EDX+EDI*1],AL
  1586 00000DED                                 L308:
  1587 00000DED 43                              	INC	EBX
  1588 00000DEE 83 FB 07                        	CMP	EBX,7
  1589 00000DF1 7E CD                           	JLE	L311
  1590 00000DF3 31 DB                           	XOR	EBX,EBX
  1591 00000DF5                                 L316:
  1592 00000DF5 8B 45 EC                        	MOV	EAX,DWORD [-20+EBP]
  1593 00000DF8 BA 00000002                     	MOV	EDX,2
  1594 00000DFD 89 D1                           	MOV	ECX,EDX
  1595 00000DFF 99                              	CDQ
  1596 00000E00 F7 F9                           	IDIV	ECX
  1597 00000E02 C1 E2 03                        	SAL	EDX,3
  1598 00000E05 8D 0C 13                        	LEA	ECX,DWORD [EBX+EDX*1]
  1599 00000E08 29 DA                           	SUB	EDX,EBX
  1600 00000E0A 43                              	INC	EBX
  1601 00000E0B 0F BE 34 39                     	MOVSX	ESI,BYTE [ECX+EDI*1]
  1602 00000E0F 8A 44 3A 07                     	MOV	AL,BYTE [7+EDX+EDI*1]
  1603 00000E13 83 FB 03                        	CMP	EBX,3
  1604 00000E16 88 04 39                        	MOV	BYTE [ECX+EDI*1],AL
  1605 00000E19 89 F0                           	MOV	EAX,ESI
  1606 00000E1B 88 44 3A 07                     	MOV	BYTE [7+EDX+EDI*1],AL
  1607 00000E1F 7E D4                           	JLE	L316
  1608 00000E21 F7 45 EC 00000001               	TEST	DWORD [-20+EBP],1
  1609 00000E28 74 16                           	JE	L304
  1610 00000E2A 8B 45 14                        	MOV	EAX,DWORD [20+EBP]
  1611 00000E2D 8B 55 10                        	MOV	EDX,DWORD [16+EBP]
  1612 00000E30 03 45 E8                        	ADD	EAX,DWORD [-24+EBP]
  1613 00000E33 FF 45 E8                        	INC	DWORD [-24+EBP]
  1614 00000E36 0F AF 45 0C                     	IMUL	EAX,DWORD [12+EBP]
  1615 00000E3A 03 45 08                        	ADD	EAX,DWORD [8+EBP]
  1616 00000E3D 8D 3C 02                        	LEA	EDI,DWORD [EDX+EAX*1]
  1617 00000E40                                 L304:
  1618 00000E40 FF 45 EC                        	INC	DWORD [-20+EBP]
  1619 00000E43 83 7D EC 0F                     	CMP	DWORD [-20+EBP],15
  1620 00000E47 0F 8E FFFFFF71                  	JLE	L318
  1621 00000E4D C7 45 EC 00000000               	MOV	DWORD [-20+EBP],0
  1622 00000E54                                 L335:
  1623 00000E54 31 DB                           	XOR	EBX,EBX
  1624 00000E56                                 L328:
  1625 00000E56 8B 4D 20                        	MOV	ECX,DWORD [32+EBP]
  1626 00000E59 8B 45 EC                        	MOV	EAX,DWORD [-20+EBP]
  1627 00000E5C 0F BE 14 08                     	MOVSX	EDX,BYTE [EAX+ECX*1]
  1628 00000E60 B8 00000080                     	MOV	EAX,128
  1629 00000E65 88 D9                           	MOV	CL,BL
  1630 00000E67 D3 F8                           	SAR	EAX,CL
  1631 00000E69 85 C2                           	TEST	EDX,EAX
  1632 00000E6B 74 16                           	JE	L325
  1633 00000E6D 8B 45 EC                        	MOV	EAX,DWORD [-20+EBP]
  1634 00000E70 BA 00000002                     	MOV	EDX,2
  1635 00000E75 89 D1                           	MOV	ECX,EDX
  1636 00000E77 99                              	CDQ
  1637 00000E78 F7 F9                           	IDIV	ECX
  1638 00000E7A 8A 45 F3                        	MOV	AL,BYTE [-13+EBP]
  1639 00000E7D 8D 14 D3                        	LEA	EDX,DWORD [EBX+EDX*8]
  1640 00000E80 88 04 3A                        	MOV	BYTE [EDX+EDI*1],AL
  1641 00000E83                                 L325:
  1642 00000E83 43                              	INC	EBX
  1643 00000E84 83 FB 07                        	CMP	EBX,7
  1644 00000E87 7E CD                           	JLE	L328
  1645 00000E89 31 DB                           	XOR	EBX,EBX
  1646 00000E8B                                 L333:
  1647 00000E8B 8B 45 EC                        	MOV	EAX,DWORD [-20+EBP]
  1648 00000E8E BA 00000002                     	MOV	EDX,2
  1649 00000E93 89 D1                           	MOV	ECX,EDX
  1650 00000E95 99                              	CDQ
  1651 00000E96 F7 F9                           	IDIV	ECX
  1652 00000E98 C1 E2 03                        	SAL	EDX,3
  1653 00000E9B 8D 0C 13                        	LEA	ECX,DWORD [EBX+EDX*1]
  1654 00000E9E 29 DA                           	SUB	EDX,EBX
  1655 00000EA0 43                              	INC	EBX
  1656 00000EA1 0F BE 34 39                     	MOVSX	ESI,BYTE [ECX+EDI*1]
  1657 00000EA5 8A 44 3A 07                     	MOV	AL,BYTE [7+EDX+EDI*1]
  1658 00000EA9 83 FB 03                        	CMP	EBX,3
  1659 00000EAC 88 04 39                        	MOV	BYTE [ECX+EDI*1],AL
  1660 00000EAF 89 F0                           	MOV	EAX,ESI
  1661 00000EB1 88 44 3A 07                     	MOV	BYTE [7+EDX+EDI*1],AL
  1662 00000EB5 7E D4                           	JLE	L333
  1663 00000EB7 F7 45 EC 00000001               	TEST	DWORD [-20+EBP],1
  1664 00000EBE 74 16                           	JE	L321
  1665 00000EC0 8B 45 14                        	MOV	EAX,DWORD [20+EBP]
  1666 00000EC3 8B 55 10                        	MOV	EDX,DWORD [16+EBP]
  1667 00000EC6 03 45 E8                        	ADD	EAX,DWORD [-24+EBP]
  1668 00000EC9 FF 45 E8                        	INC	DWORD [-24+EBP]
  1669 00000ECC 0F AF 45 0C                     	IMUL	EAX,DWORD [12+EBP]
  1670 00000ED0 03 45 08                        	ADD	EAX,DWORD [8+EBP]
  1671 00000ED3 8D 3C 02                        	LEA	EDI,DWORD [EDX+EAX*1]
  1672 00000ED6                                 L321:
  1673 00000ED6 FF 45 EC                        	INC	DWORD [-20+EBP]
  1674 00000ED9 83 7D EC 0F                     	CMP	DWORD [-20+EBP],15
  1675 00000EDD 0F 8E FFFFFF71                  	JLE	L335
  1676 00000EE3 83 C4 10                        	ADD	ESP,16
  1677 00000EE6 5B                              	POP	EBX
  1678 00000EE7 5E                              	POP	ESI
  1679 00000EE8 5F                              	POP	EDI
  1680 00000EE9 5D                              	POP	EBP
  1681 00000EEA C3                              	RET
